ARM GAS  /tmp/cciMHx2n.s 			page 1


   1              		.syntax unified
   2              		.cpu cortex-m4
   3              		.eabi_attribute 27, 1
   4              		.eabi_attribute 28, 1
   5              		.fpu fpv4-sp-d16
   6              		.eabi_attribute 20, 1
   7              		.eabi_attribute 21, 1
   8              		.eabi_attribute 23, 3
   9              		.eabi_attribute 24, 1
  10              		.eabi_attribute 25, 1
  11              		.eabi_attribute 26, 1
  12              		.eabi_attribute 30, 2
  13              		.eabi_attribute 34, 1
  14              		.eabi_attribute 18, 4
  15              		.thumb
  16              		.file	"app_nunchuk.c"
  17              		.text
  18              	.Ltext0:
  19              		.cfi_sections	.debug_frame
  20              		.section	.text.output_thread,"ax",%progbits
  21              		.align	2
  22              		.p2align 4,,15
  23              		.thumb
  24              		.thumb_func
  25              		.type	output_thread, %function
  26              	output_thread:
  27              	.LFB261:
  28              		.file 1 "applications/app_nunchuk.c"
  29              		.loc 1 172 0
  30              		.cfi_startproc
  31              		@ args = 0, pretend = 0, frame = 24
  32              		@ frame_needed = 0, uses_anonymous_args = 0
  33              	.LVL0:
  34 0000 2DE9F04F 		push	{r4, r5, r6, r7, r8, r9, r10, fp, lr}
  35              		.cfi_def_cfa_offset 36
  36              		.cfi_offset 4, -36
  37              		.cfi_offset 5, -32
  38              		.cfi_offset 6, -28
  39              		.cfi_offset 7, -24
  40              		.cfi_offset 8, -20
  41              		.cfi_offset 9, -16
  42              		.cfi_offset 10, -12
  43              		.cfi_offset 11, -8
  44              		.cfi_offset 14, -4
  45              	.LBB46:
  46              	.LBB47:
  47              		.file 2 "ChibiOS_3.0.2/os/rt/include/chregistry.h"
  48              		.loc 2 135 0
  49 0004 B64F     		ldr	r7, .L187
  50 0006 B74A     		ldr	r2, .L187+4
  51 0008 BB69     		ldr	r3, [r7, #24]
  52 000a B74D     		ldr	r5, .L187+8
  53 000c B74C     		ldr	r4, .L187+12
  54 000e B84E     		ldr	r6, .L187+16
  55 0010 DFF81883 		ldr	r8, .L187+76
  56 0014 DFF800A3 		ldr	r10, .L187+56
  57              	.LBE47:
ARM GAS  /tmp/cciMHx2n.s 			page 2


  58              	.LBE46:
  59              		.loc 1 172 0
  60 0018 2DED0A8B 		fstmfdd	sp!, {d8, d9, d10, d11, d12}
  61              		.cfi_def_cfa_offset 76
  62              		.cfi_offset 80, -76
  63              		.cfi_offset 81, -72
  64              		.cfi_offset 82, -68
  65              		.cfi_offset 83, -64
  66              		.cfi_offset 84, -60
  67              		.cfi_offset 85, -56
  68              		.cfi_offset 86, -52
  69              		.cfi_offset 87, -48
  70              		.cfi_offset 88, -44
  71              		.cfi_offset 89, -40
  72              	.LBB49:
  73              	.LBB50:
  74              	.LBB51:
  75              		.loc 1 68 0
  76 001c 9FEDB5AA 		flds	s20, .L187+20
  77 0020 DFEDB59A 		flds	s19, .L187+24
  78              	.LBE51:
  79              	.LBE50:
  80              	.LBB56:
  81              	.LBB57:
  82              	.LBB58:
  83              		.loc 1 417 0
  84 0024 9FEDB59A 		flds	s18, .L187+28
  85 0028 DFEDB58A 		flds	s17, .L187+32
  86              	.LBE58:
  87              	.LBE57:
  88              	.LBE56:
  89              	.LBE49:
  90              	.LBB111:
  91              	.LBB48:
  92              		.loc 2 135 0
  93 002c 9A61     		str	r2, [r3, #24]
  94              	.LBE48:
  95              	.LBE111:
  96              		.loc 1 172 0
  97 002e 87B0     		sub	sp, sp, #28
  98              		.cfi_def_cfa_offset 104
  99              	.LVL1:
 100              	.L2:
 101              	.LBB112:
 102              		.loc 1 178 0
 103 0030 0A20     		movs	r0, #10
 104 0032 FFF7FEFF 		bl	chThdSleep
 105              	.LVL2:
 106              		.loc 1 180 0
 107 0036 FFF7FEFF 		bl	timeout_has_timeout
 108              	.LVL3:
 109 003a 0028     		cmp	r0, #0
 110 003c F8D1     		bne	.L2
 111              		.loc 1 180 0 is_stmt 0 discriminator 1
 112 003e 2B68     		ldr	r3, [r5]
 113 0040 002B     		cmp	r3, #0
 114 0042 F5D1     		bne	.L2
ARM GAS  /tmp/cciMHx2n.s 			page 3


 115              		.loc 1 180 0 discriminator 2
 116 0044 2378     		ldrb	r3, [r4]	@ zero_extendqisi2
 117 0046 002B     		cmp	r3, #0
 118 0048 F2D0     		beq	.L2
 119              		.loc 1 186 0 is_stmt 1
 120 004a FFF7FEFF 		bl	mc_interface_get_tot_current_directional_filtered
 121              	.LVL4:
 122              		.loc 1 189 0
 123 004e 337D     		ldrb	r3, [r6, #20]	@ zero_extendqisi2
 124 0050 A74A     		ldr	r2, .L187+16
 125              		.loc 1 186 0
 126 0052 B0EE408A 		fcpys	s16, s0
 127              	.LVL5:
 128              		.loc 1 189 0
 129 0056 1BB1     		cbz	r3, .L4
 130              		.loc 1 189 0 is_stmt 0 discriminator 1
 131 0058 537D     		ldrb	r3, [r2, #21]	@ zero_extendqisi2
 132 005a 002B     		cmp	r3, #0
 133 005c 40F06682 		bne	.L176
 134              	.L4:
 135              		.loc 1 194 0 is_stmt 1
 136 0060 737D     		ldrb	r3, [r6, #21]	@ zero_extendqisi2
 137 0062 03F0FF00 		and	r0, r3, #255
 138 0066 3BB1     		cbz	r3, .L8
 139              		.loc 1 194 0 is_stmt 0 discriminator 1
 140 0068 A64B     		ldr	r3, .L187+36
 141 006a 1B78     		ldrb	r3, [r3]	@ zero_extendqisi2
 142 006c 23B9     		cbnz	r3, .L8
 143              		.loc 1 194 0 discriminator 2
 144 006e 2278     		ldrb	r2, [r4]	@ zero_extendqisi2
 145 0070 D2B2     		uxtb	r2, r2
 146 0072 012A     		cmp	r2, #1
 147 0074 00F0F382 		beq	.L177
 148              	.L8:
 149 0078 98F80000 		ldrb	r0, [r8]	@ zero_extendqisi2
 150              	.L7:
 151              		.loc 1 203 0 is_stmt 1
 152 007c A14A     		ldr	r2, .L187+36
 153 007e 737D     		ldrb	r3, [r6, #21]	@ zero_extendqisi2
 154 0080 1370     		strb	r3, [r2]
 155              		.loc 1 205 0
 156 0082 FFF7FEFF 		bl	led_external_set_reversed
 157              	.LVL6:
 158              	.LBB70:
 159              	.LBB52:
 160              		.loc 1 68 0
 161 0086 D6ED017A 		flds	s15, [r6, #4]	@ int
 162              	.LBE52:
 163              	.LBE70:
 164              		.loc 1 208 0
 165 008a 94ED010A 		flds	s0, [r4, #4]
 166              	.LBB71:
 167              	.LBB53:
 168              		.loc 1 68 0
 169 008e F8EEE77A 		fsitos	s15, s15
 170              	.LBE53:
 171              	.LBE71:
ARM GAS  /tmp/cciMHx2n.s 			page 4


 172              		.loc 1 208 0
 173 0092 03A8     		add	r0, sp, #12
 174              	.LBB72:
 175              	.LBB54:
 176              		.loc 1 68 0
 177 0094 77EECA7A 		fsubs	s15, s15, s20
 178              	.LBE54:
 179              	.LBE72:
 180              		.loc 1 208 0
 181 0098 F7EE000A 		fconsts	s1, #112
 182              	.LBB73:
 183              	.LBB55:
 184              		.loc 1 68 0
 185 009c 67EEA97A 		fmuls	s15, s15, s19
 186              	.LBE55:
 187              	.LBE73:
 188              		.loc 1 207 0
 189 00a0 CDED037A 		fsts	s15, [sp, #12]
 190              		.loc 1 208 0
 191 00a4 FFF7FEFF 		bl	utils_deadband
 192              	.LVL7:
 193              		.loc 1 211 0
 194 00a8 D6ED007A 		flds	s15, [r6]	@ int
 195              		.loc 1 212 0
 196 00ac 9FED967A 		flds	s14, .L187+40
 197 00b0 DDED036A 		flds	s13, [sp, #12]
 198              		.loc 1 211 0
 199 00b4 F8EEE77A 		fsitos	s15, s15
 200              		.loc 1 212 0
 201 00b8 F4EEC76A 		fcmpes	s13, s14
 202              		.loc 1 211 0
 203 00bc 77EECA7A 		fsubs	s15, s15, s20
 204              		.loc 1 213 0
 205 00c0 9FED927A 		flds	s14, .L187+44
 206              		.loc 1 211 0
 207 00c4 67EEA97A 		fmuls	s15, s15, s19
 208              	.LVL8:
 209              		.loc 1 212 0
 210 00c8 F1EE10FA 		fmstat
 211              		.loc 1 213 0
 212 00cc F4EEC77A 		fcmpes	s15, s14
 213              		.loc 1 212 0
 214 00d0 58D5     		bpl	.L162
 215              		.loc 1 213 0
 216 00d2 F1EE10FA 		fmstat
 217 00d6 00F13182 		bmi	.L178
 218              		.loc 1 215 0
 219 00da 9FED8D7A 		flds	s14, .L187+48
 220 00de F4EEC77A 		fcmpes	s15, s14
 221 00e2 F1EE10FA 		fmstat
 222              		.loc 1 216 0
 223 00e6 CCBF     		ite	gt
 224 00e8 0620     		movgt	r0, #6
 225              		.loc 1 218 0
 226 00ea 0220     		movle	r0, #2
 227 00ec FFF7FEFF 		bl	led_external_set_state
 228              	.LVL9:
ARM GAS  /tmp/cciMHx2n.s 			page 5


 229              	.L15:
 230              		.loc 1 232 0
 231 00f0 FFF7FEFF 		bl	mc_interface_get_configuration
 232              	.LVL10:
 233              		.loc 1 237 0
 234 00f4 DAF800B0 		ldr	fp, [r10]
 235 00f8 0BF10102 		add	r2, fp, #1
 236 00fc CAF80020 		str	r2, [r10]
 237              		.loc 1 232 0
 238 0100 8146     		mov	r9, r0
 239              	.LVL11:
 240              		.loc 1 237 0
 241 0102 FFF7FEFF 		bl	mc_interface_get_rpm
 242              	.LVL12:
 243              		.loc 1 238 0
 244 0106 DAF80020 		ldr	r2, [r10]
 245              		.loc 1 237 0
 246 010a 824B     		ldr	r3, .L187+52
 247              		.loc 1 238 0
 248 010c 072A     		cmp	r2, #7
 249              		.loc 1 237 0
 250 010e 03EB8B03 		add	r3, r3, fp, lsl #2
 251 0112 83ED000A 		fsts	s0, [r3]
 252              		.loc 1 238 0
 253 0116 02DD     		ble	.L22
 254              		.loc 1 239 0
 255 0118 7F4A     		ldr	r2, .L187+56
 256 011a 0023     		movs	r3, #0
 257 011c 1360     		str	r3, [r2]
 258              	.L22:
 259              	.LVL13:
 260 011e 7D4B     		ldr	r3, .L187+52
 261              		.loc 1 242 0
 262 0120 DFED837A 		flds	s15, .L187+80
 263 0124 03F12002 		add	r2, r3, #32
 264              	.LVL14:
 265              	.L23:
 266              	.LBB74:
 267              		.loc 1 244 0 discriminator 3
 268 0128 B3EC017A 		fldmias	r3!, {s14}
 269              		.loc 1 243 0 discriminator 3
 270 012c 9342     		cmp	r3, r2
 271              		.loc 1 244 0 discriminator 3
 272 012e 77EE877A 		fadds	s15, s15, s14
 273              	.LVL15:
 274              		.loc 1 243 0 discriminator 3
 275 0132 F9D1     		bne	.L23
 276              	.LVL16:
 277              	.LBE74:
 278              		.loc 1 248 0
 279 0134 337D     		ldrb	r3, [r6, #20]	@ zero_extendqisi2
 280 0136 03F0FF02 		and	r2, r3, #255
 281 013a 9BB3     		cbz	r3, .L24
 282              	.LBB75:
 283              		.loc 1 251 0
 284 013c 774B     		ldr	r3, .L187+60
 285 013e 1B78     		ldrb	r3, [r3]	@ zero_extendqisi2
ARM GAS  /tmp/cciMHx2n.s 			page 6


 286 0140 002B     		cmp	r3, #0
 287 0142 40F07181 		bne	.L25
 288              	.LBE75:
 289              		.loc 1 246 0
 290 0146 B4EE000A 		fconsts	s0, #64
 291 014a 27EE800A 		fmuls	s0, s15, s0
 292              	.LVL17:
 293              	.LBB85:
 294              		.loc 1 252 0
 295 014e 744A     		ldr	r2, .L187+64
 296              		.loc 1 254 0
 297 0150 98F80030 		ldrb	r3, [r8]	@ zero_extendqisi2
 298              		.loc 1 252 0
 299 0154 82ED000A 		fsts	s0, [r2]
 300              		.loc 1 254 0
 301 0158 B5EEC00A 		fcmpezs	s0
 302 015c 002B     		cmp	r3, #0
 303 015e 40F04782 		bne	.L179
 304              		.loc 1 254 0 is_stmt 0 discriminator 4
 305 0162 F1EE10FA 		fmstat
 306 0166 00F14782 		bmi	.L27
 307              	.LVL18:
 308              	.L28:
 309              		.loc 1 263 0 is_stmt 1
 310 016a 6C4A     		ldr	r2, .L187+60
 311 016c 0123     		movs	r3, #1
 312 016e 1370     		strb	r3, [r2]
 313              	.L30:
 314              		.loc 1 280 0
 315 0170 FFF7FEFF 		bl	mc_interface_set_pid_speed
 316              	.LVL19:
 317              		.loc 1 283 0
 318 0174 237F     		ldrb	r3, [r4, #28]	@ zero_extendqisi2
 319 0176 002B     		cmp	r3, #0
 320 0178 40F07B81 		bne	.L34
 321              	.LVL20:
 322              	.L38:
 323              		.loc 1 297 0
 324 017c 694B     		ldr	r3, .L187+68
 325 017e 83ED008A 		fsts	s16, [r3]
 326              		.loc 1 299 0
 327 0182 55E7     		b	.L2
 328              	.LVL21:
 329              	.L162:
 330              	.LBE85:
 331              		.loc 1 221 0
 332 0184 F1EE10FA 		fmstat
 333 0188 00F1D481 		bmi	.L180
 334              		.loc 1 223 0
 335 018c 9FED607A 		flds	s14, .L187+48
 336 0190 F4EEC77A 		fcmpes	s15, s14
 337 0194 F1EE10FA 		fmstat
 338              		.loc 1 224 0
 339 0198 CCBF     		ite	gt
 340 019a 0420     		movgt	r0, #4
 341              		.loc 1 226 0
 342 019c 0120     		movle	r0, #1
ARM GAS  /tmp/cciMHx2n.s 			page 7


 343 019e FFF7FEFF 		bl	led_external_set_state
 344              	.LVL22:
 345 01a2 A5E7     		b	.L15
 346              	.LVL23:
 347              	.L24:
 348              		.loc 1 306 0
 349 01a4 DDED037A 		flds	s15, [sp, #12]
 350              	.LVL24:
 351              		.loc 1 302 0
 352 01a8 5C4B     		ldr	r3, .L187+60
 353              		.loc 1 306 0
 354 01aa F5EEC07A 		fcmpezs	s15
 355 01ae F1EE10FA 		fmstat
 356              		.loc 1 309 0
 357 01b2 B4BF     		ite	lt
 358 01b4 D9ED02AA 		fldslt	s21, [r9, #8]
 359              		.loc 1 307 0
 360 01b8 D9ED01AA 		fldsge	s21, [r9, #4]
 361              		.loc 1 302 0
 362 01bc 1A70     		strb	r2, [r3]
 363              	.LVL25:
 364              		.loc 1 309 0
 365 01be B8BF     		it	lt
 366 01c0 F0EEEAAA 		fabsslt	s21, s21
 367 01c4 67EEAAAA 		fmuls	s21, s15, s21
 368              	.LVL26:
 369              		.loc 1 313 0
 370 01c8 FFF7FEFF 		bl	mc_interface_get_rpm
 371              	.LVL27:
 372              		.loc 1 314 0
 373 01cc 98F80030 		ldrb	r3, [r8]	@ zero_extendqisi2
 374              		.loc 1 313 0
 375 01d0 F0EE40BA 		fcpys	s23, s0
 376              	.LVL28:
 377              		.loc 1 314 0
 378 01d4 0BB1     		cbz	r3, .L42
 379              		.loc 1 315 0
 380 01d6 F1EE40BA 		fnegs	s23, s0
 381              	.LVL29:
 382              	.L42:
 383              		.loc 1 321 0
 384 01da 237F     		ldrb	r3, [r4, #28]	@ zero_extendqisi2
 385 01dc B0EE6BBA 		fcpys	s22, s23
 386 01e0 002B     		cmp	r3, #0
 387 01e2 3ED0     		beq	.L43
 388              	.LVL30:
 389 01e4 4FF0000B 		mov	fp, #0
 390              	.LVL31:
 391              	.L52:
 392              	.LBB86:
 393              	.LBB87:
 394              		.loc 1 323 0
 395 01e8 5846     		mov	r0, fp
 396 01ea FFF7FEFF 		bl	comm_can_get_status_msg_index
 397              	.LVL32:
 398              		.loc 1 325 0
 399 01ee 0368     		ldr	r3, [r0]
ARM GAS  /tmp/cciMHx2n.s 			page 8


 400 01f0 002B     		cmp	r3, #0
 401              	.LBE87:
 402              		.loc 1 322 0
 403 01f2 0BF1010B 		add	fp, fp, #1
 404              	.LVL33:
 405              	.LBB94:
 406              		.loc 1 325 0
 407 01f6 31DB     		blt	.L44
 408              	.LBB88:
 409              	.LBB89:
 410              	.LBB90:
 411              	.LBB91:
 412              		.file 3 "ChibiOS_3.0.2/os/rt/include/chvt.h"
 413              		.loc 3 231 0 discriminator 1
 414 01f8 BB6A     		ldr	r3, [r7, #40]
 415              	.LBE91:
 416              	.LBE90:
 417              		.loc 3 267 0 discriminator 1
 418 01fa 4268     		ldr	r2, [r0, #4]
 419 01fc 9B1A     		subs	r3, r3, r2
 420 01fe 07EE903A 		fmsr	s15, r3	@ int
 421              	.LBE89:
 422              	.LBE88:
 423              		.loc 1 325 0 discriminator 1
 424 0202 F8EE677A 		fuitos	s15, s15
 425              	.LBB92:
 426              		.loc 1 341 0 discriminator 1
 427 0206 F0EEC86A 		fabss	s13, s16
 428              	.LBE92:
 429              		.loc 1 325 0 discriminator 1
 430 020a C7EE897A 		fdivs	s15, s15, s18
 431 020e F4EEE87A 		fcmpes	s15, s17
 432 0212 F1EE10FA 		fmstat
 433 0216 21D5     		bpl	.L44
 434              	.LBB93:
 435              		.loc 1 327 0
 436 0218 98F80030 		ldrb	r3, [r8]	@ zero_extendqisi2
 437              		.loc 1 326 0
 438 021c D0ED027A 		flds	s15, [r0, #8]
 439              	.LVL34:
 440              		.loc 1 327 0
 441 0220 0BB1     		cbz	r3, .L46
 442              		.loc 1 328 0
 443 0222 F1EE677A 		fnegs	s15, s15
 444              	.LVL35:
 445              	.L46:
 446              		.loc 1 337 0
 447 0226 90ED046A 		flds	s12, [r0, #16]
 448              		.loc 1 336 0
 449 022a 90ED037A 		flds	s14, [r0, #12]
 450              		.loc 1 332 0
 451 022e F4EE4B7A 		fcmps	s15, s22
 452 0232 F1EE10FA 		fmstat
 453              		.loc 1 337 0
 454 0236 B5EEC06A 		fcmpezs	s12
 455              		.loc 1 332 0
 456 023a 48BF     		it	mi
ARM GAS  /tmp/cciMHx2n.s 			page 9


 457 023c B0EE67BA 		fcpysmi	s22, s15
 458              	.LVL36:
 459              		.loc 1 337 0
 460 0240 F1EE10FA 		fmstat
 461              		.loc 1 338 0
 462 0244 48BF     		it	mi
 463 0246 B1EE477A 		fnegsmi	s14, s14
 464              	.LVL37:
 465              		.loc 1 341 0
 466 024a F0EEC77A 		fabss	s15, s14
 467              	.LVL38:
 468              		.loc 1 342 0
 469 024e F4EE667A 		fcmps	s15, s13
 470 0252 F1EE10FA 		fmstat
 471 0256 C8BF     		it	gt
 472 0258 B0EE478A 		fcpysgt	s16, s14
 473              	.LVL39:
 474              	.L44:
 475              	.LBE93:
 476              	.LBE94:
 477              		.loc 1 322 0 discriminator 2
 478 025c BBF10A0F 		cmp	fp, #10
 479 0260 C2D1     		bne	.L52
 480              	.LVL40:
 481              	.L43:
 482              	.LBE86:
 483              		.loc 1 350 0
 484 0262 304B     		ldr	r3, .L187+68
 485              		.loc 1 349 0
 486 0264 D9ED017A 		flds	s15, [r9, #4]
 487              		.loc 1 350 0
 488 0268 93ED00CA 		flds	s24, [r3]
 489              		.loc 1 349 0
 490 026c 99ED027A 		flds	s14, [r9, #8]
 491              	.LVL41:
 492              		.loc 1 350 0
 493 0270 F0EECC6A 		fabss	s13, s24
 494 0274 B0EEEA6A 		fabss	s12, s21
 495 0278 B4EEE66A 		fcmpes	s12, s13
 496 027c F1EE10FA 		fmstat
 497 0280 CCBF     		ite	gt
 498 0282 D4ED046A 		fldsgt	s13, [r4, #16]
 499 0286 D4ED056A 		fldsle	s13, [r4, #20]
 500              	.LVL42:
 501              		.loc 1 352 0
 502 028a 9FED276A 		flds	s12, .L187+72
 503 028e F4EEC66A 		fcmpes	s13, s12
 504 0292 F1EE10FA 		fmstat
 505 0296 00F35581 		bgt	.L181
 506              	.LVL43:
 507              	.L56:
 508              		.loc 1 382 0
 509 029a 224B     		ldr	r3, .L187+68
 510              		.loc 1 384 0
 511 029c F5EEC0AA 		fcmpezs	s21
 512 02a0 F1EE10FA 		fmstat
 513              		.loc 1 382 0
ARM GAS  /tmp/cciMHx2n.s 			page 10


 514 02a4 C3ED00AA 		fsts	s21, [r3]
 515              		.loc 1 384 0
 516 02a8 00F1EC81 		bmi	.L182
 517              	.LBB95:
 518              		.loc 1 397 0
 519 02ac D4ED037A 		flds	s15, [r4, #12]
 520 02b0 B4EEE7BA 		fcmpes	s22, s15
 521 02b4 F1EE10FA 		fmstat
 522 02b8 40F39A80 		ble	.L73
 523              		.loc 1 397 0 is_stmt 0 discriminator 1
 524 02bc F5EEC0AA 		fcmpezs	s21
 525 02c0 F1EE10FA 		fmstat
 526 02c4 40F39480 		ble	.L73
 527              	.L174:
 528              		.loc 1 402 0 is_stmt 1
 529 02c8 D9ED44AA 		flds	s21, [r9, #272]
 530              	.LVL44:
 531              	.L76:
 532              		.loc 1 413 0
 533 02cc 237F     		ldrb	r3, [r4, #28]	@ zero_extendqisi2
 534 02ce 002B     		cmp	r3, #0
 535 02d0 00F08580 		beq	.L85
 536 02d4 B0EE6A8A 		fcpys	s16, s21
 537              	.LVL45:
 538 02d8 4FF0000B 		mov	fp, #0
 539 02dc 33E0     		b	.L92
 540              	.L188:
 541 02de 00BF     		.align	2
 542              	.L187:
 543 02e0 00000000 		.word	ch
 544 02e4 00000000 		.word	.LC0
 545 02e8 00000000 		.word	.LANCHOR0
 546 02ec 00000000 		.word	.LANCHOR1
 547 02f0 00000000 		.word	.LANCHOR2
 548 02f4 00000043 		.word	1124073472
 549 02f8 0000003C 		.word	1006632960
 550 02fc 00401C46 		.word	1176256512
 551 0300 CDCCCC3D 		.word	1036831949
 552 0304 00000000 		.word	.LANCHOR4
 553 0308 6F1283BA 		.word	3129152111
 554 030c CDCCCCBE 		.word	3201092813
 555 0310 CDCCCC3E 		.word	1053609165
 556 0314 00000000 		.word	.LANCHOR6
 557 0318 00000000 		.word	.LANCHOR5
 558 031c 00000000 		.word	.LANCHOR7
 559 0320 00000000 		.word	.LANCHOR8
 560 0324 00000000 		.word	.LANCHOR9
 561 0328 0AD7233C 		.word	1008981770
 562 032c 00000000 		.word	.LANCHOR3
 563 0330 00000000 		.word	0
 564              	.LVL46:
 565              	.L184:
 566              	.LBB67:
 567              	.LBB64:
 568              		.loc 1 432 0
 569 0334 B1EE480A 		fnegs	s0, s16
 570 0338 FFF7FEFF 		bl	comm_can_set_current
ARM GAS  /tmp/cciMHx2n.s 			page 11


 571              	.LVL47:
 572              	.L86:
 573              	.LBE64:
 574              		.loc 1 414 0 discriminator 2
 575 033c 0BF1010B 		add	fp, fp, #1
 576              	.LVL48:
 577 0340 BBF10A0F 		cmp	fp, #10
 578 0344 44D0     		beq	.L183
 579              	.LVL49:
 580              	.L92:
 581              	.LBB65:
 582              		.loc 1 415 0
 583 0346 5846     		mov	r0, fp
 584 0348 FFF7FEFF 		bl	comm_can_get_status_msg_index
 585              	.LVL50:
 586              		.loc 1 417 0
 587 034c 0168     		ldr	r1, [r0]
 588 034e 0029     		cmp	r1, #0
 589 0350 F4DB     		blt	.L86
 590              	.LVL51:
 591              	.LBB59:
 592              	.LBB60:
 593              	.LBB61:
 594              	.LBB62:
 595              		.loc 3 231 0 discriminator 1
 596 0352 BB6A     		ldr	r3, [r7, #40]
 597              	.LBE62:
 598              	.LBE61:
 599              		.loc 3 267 0 discriminator 1
 600 0354 4268     		ldr	r2, [r0, #4]
 601 0356 9B1A     		subs	r3, r3, r2
 602 0358 07EE903A 		fmsr	s15, r3	@ int
 603              	.LBE60:
 604              	.LBE59:
 605              		.loc 1 417 0 discriminator 1
 606 035c F8EE677A 		fuitos	s15, s15
 607 0360 C7EE897A 		fdivs	s15, s15, s18
 608 0364 F4EEE87A 		fcmpes	s15, s17
 609 0368 F1EE10FA 		fmstat
 610 036c E6D5     		bpl	.L86
 611              		.loc 1 418 0
 612 036e 637F     		ldrb	r3, [r4, #29]	@ zero_extendqisi2
 613 0370 03B3     		cbz	r3, .L88
 614              	.LBB63:
 615              		.loc 1 420 0
 616 0372 98F80030 		ldrb	r3, [r8]	@ zero_extendqisi2
 617              		.loc 1 419 0
 618 0376 90ED020A 		flds	s0, [r0, #8]
 619              	.LVL52:
 620              		.loc 1 420 0
 621 037a 0BB1     		cbz	r3, .L89
 622              		.loc 1 421 0
 623 037c B1EE400A 		fnegs	s0, s0
 624              	.LVL53:
 625              	.L89:
 626              		.loc 1 425 0
 627 0380 5FED150A 		flds	s1, .L187+80
ARM GAS  /tmp/cciMHx2n.s 			page 12


 628 0384 94ED081A 		flds	s2, [r4, #32]
 629 0388 0190     		str	r0, [sp, #4]
 630 038a 30EE4B0A 		fsubs	s0, s0, s22
 631              	.LVL54:
 632 038e B0EE602A 		fcpys	s4, s1
 633 0392 F0EE6A1A 		fcpys	s3, s21
 634 0396 FFF7FEFF 		bl	utils_map
 635              	.LVL55:
 636              		.loc 1 426 0
 637 039a D9ED447A 		flds	s15, [r9, #272]
 638 039e 0198     		ldr	r0, [sp, #4]
 639 03a0 B4EEE70A 		fcmpes	s0, s15
 640 03a4 F1EE10FA 		fmstat
 641              		.loc 1 425 0
 642 03a8 B0EE408A 		fcpys	s16, s0
 643              	.LVL56:
 644 03ac 0168     		ldr	r1, [r0]
 645              	.LVL57:
 646              		.loc 1 427 0
 647 03ae 48BF     		it	mi
 648 03b0 1FED218A 		fldsmi	s16, .L187+80
 649              	.LVL58:
 650              	.L88:
 651              	.LBE63:
 652              		.loc 1 431 0
 653 03b4 98F80030 		ldrb	r3, [r8]	@ zero_extendqisi2
 654              		.loc 1 432 0
 655 03b8 C8B2     		uxtb	r0, r1
 656              		.loc 1 431 0
 657 03ba 002B     		cmp	r3, #0
 658 03bc BAD1     		bne	.L184
 659              		.loc 1 434 0
 660 03be B0EE480A 		fcpys	s0, s16
 661              	.LBE65:
 662              		.loc 1 414 0
 663 03c2 0BF1010B 		add	fp, fp, #1
 664              	.LVL59:
 665              	.LBB66:
 666              		.loc 1 434 0
 667 03c6 FFF7FEFF 		bl	comm_can_set_current
 668              	.LVL60:
 669              	.LBE66:
 670              		.loc 1 414 0
 671 03ca BBF10A0F 		cmp	fp, #10
 672 03ce BAD1     		bne	.L92
 673              	.L183:
 674              	.LBE67:
 675              		.loc 1 439 0
 676 03d0 637F     		ldrb	r3, [r4, #29]	@ zero_extendqisi2
 677 03d2 CF4A     		ldr	r2, .L189
 678 03d4 002B     		cmp	r3, #0
 679 03d6 40F07C81 		bne	.L185
 680              	.LBB68:
 681 03da F0EE48AA 		fcpys	s21, s16
 682              	.LVL61:
 683              	.L85:
 684              	.LBE68:
ARM GAS  /tmp/cciMHx2n.s 			page 13


 685              		.loc 1 448 0
 686 03de 98F80030 		ldrb	r3, [r8]	@ zero_extendqisi2
 687 03e2 002B     		cmp	r3, #0
 688 03e4 6CD0     		beq	.L94
 689              		.loc 1 449 0
 690 03e6 B1EE6A0A 		fnegs	s0, s21
 691 03ea FFF7FEFF 		bl	mc_interface_set_current
 692              	.LVL62:
 693 03ee 1FE6     		b	.L2
 694              	.LVL63:
 695              	.L73:
 696              		.loc 1 399 0
 697 03f0 D4ED027A 		flds	s15, [r4, #8]
 698 03f4 C64B     		ldr	r3, .L189
 699 03f6 B4EEE7BA 		fcmpes	s22, s15
 700 03fa F1EE10FA 		fmstat
 701 03fe 64DD     		ble	.L77
 702              		.loc 1 399 0 is_stmt 0 discriminator 1
 703 0400 F5EEC0AA 		fcmpezs	s21
 704 0404 F1EE10FA 		fmstat
 705 0408 5FDD     		ble	.L77
 706              		.loc 1 400 0 is_stmt 1
 707 040a D3ED020A 		flds	s1, [r3, #8]
 708 040e 93ED031A 		flds	s2, [r3, #12]
 709 0412 99ED442A 		flds	s4, [r9, #272]
 710 0416 F0EE6A1A 		fcpys	s3, s21
 711 041a B0EE4B0A 		fcpys	s0, s22
 712 041e FFF7FEFF 		bl	utils_map
 713              	.LVL64:
 714 0422 F0EE40AA 		fcpys	s21, s0
 715              	.LVL65:
 716 0426 51E7     		b	.L76
 717              	.LVL66:
 718              	.L25:
 719              	.LBE95:
 720              	.LBB96:
 721              		.loc 1 265 0
 722 0428 98F80030 		ldrb	r3, [r8]	@ zero_extendqisi2
 723              		.loc 1 270 0
 724 042c 94ED060A 		flds	s0, [r4, #24]
 725 0430 DDED036A 		flds	s13, [sp, #12]
 726 0434 9FEDB77A 		flds	s14, .L189+4
 727              		.loc 1 265 0
 728 0438 002B     		cmp	r3, #0
 729 043a 00F0C480 		beq	.L31
 730              		.loc 1 270 0
 731 043e 20EE260A 		fmuls	s0, s0, s13
 732              		.loc 1 266 0
 733 0442 B54B     		ldr	r3, .L189+8
 734 0444 9FEDB56A 		flds	s12, .L189+12
 735 0448 D3ED007A 		flds	s15, [r3]
 736              	.LVL67:
 737              		.loc 1 270 0
 738 044c 80EE070A 		fdivs	s0, s0, s14
 739 0450 F4EE467A 		fcmps	s15, s12
 740 0454 F1EE10FA 		fmstat
 741 0458 C8BF     		it	gt
ARM GAS  /tmp/cciMHx2n.s 			page 14


 742 045a F0EE467A 		fcpysgt	s15, s12
 743 045e 37EEC00A 		fsubs	s0, s15, s0
 744 0462 83ED000A 		fsts	s0, [r3]
 745              		.loc 1 280 0
 746 0466 FFF7FEFF 		bl	mc_interface_set_pid_speed
 747              	.LVL68:
 748              		.loc 1 283 0
 749 046a 237F     		ldrb	r3, [r4, #28]	@ zero_extendqisi2
 750 046c 002B     		cmp	r3, #0
 751 046e 3FF485AE 		beq	.L38
 752              	.L34:
 753              	.LBB76:
 754              		.loc 1 284 0
 755 0472 FFF7FEFF 		bl	mc_interface_get_duty_cycle_now
 756              	.LVL69:
 757              	.LBB77:
 758              		.loc 1 286 0
 759 0476 4FF00009 		mov	r9, #0
 760              	.LVL70:
 761              	.LBE77:
 762              		.loc 1 284 0
 763 047a F0EE40AA 		fcpys	s21, s0
 764              	.LVL71:
 765 047e 03E0     		b	.L37
 766              	.LVL72:
 767              	.L35:
 768              	.LBB84:
 769              		.loc 1 286 0 discriminator 2
 770 0480 B9F10A0F 		cmp	r9, #10
 771 0484 3FF47AAE 		beq	.L38
 772              	.LVL73:
 773              	.L37:
 774              	.LBB78:
 775              		.loc 1 287 0
 776 0488 4846     		mov	r0, r9
 777 048a FFF7FEFF 		bl	comm_can_get_status_msg_index
 778              	.LVL74:
 779              		.loc 1 289 0
 780 048e 0268     		ldr	r2, [r0]
 781 0490 002A     		cmp	r2, #0
 782              	.LBE78:
 783              		.loc 1 286 0
 784 0492 09F10109 		add	r9, r9, #1
 785              	.LVL75:
 786              	.LBB83:
 787              		.loc 1 289 0
 788 0496 F3DB     		blt	.L35
 789              	.LBB79:
 790              	.LBB80:
 791              		.loc 3 267 0 discriminator 1
 792 0498 4168     		ldr	r1, [r0, #4]
 793              	.LBB81:
 794              	.LBB82:
 795              		.loc 3 231 0 discriminator 1
 796 049a BB6A     		ldr	r3, [r7, #40]
 797              	.LBE82:
 798              	.LBE81:
ARM GAS  /tmp/cciMHx2n.s 			page 15


 799              		.loc 3 267 0 discriminator 1
 800 049c 5B1A     		subs	r3, r3, r1
 801 049e 07EE903A 		fmsr	s15, r3	@ int
 802              	.LBE80:
 803              	.LBE79:
 804              		.loc 1 289 0 discriminator 1
 805 04a2 F8EE677A 		fuitos	s15, s15
 806 04a6 C7EE897A 		fdivs	s15, s15, s18
 807 04aa F4EEE87A 		fcmpes	s15, s17
 808 04ae F1EE10FA 		fmstat
 809 04b2 E5D5     		bpl	.L35
 810              		.loc 1 290 0
 811 04b4 D0B2     		uxtb	r0, r2
 812              	.LVL76:
 813 04b6 B0EE6A0A 		fcpys	s0, s21
 814 04ba FFF7FEFF 		bl	comm_can_set_duty
 815              	.LVL77:
 816 04be DFE7     		b	.L35
 817              	.LVL78:
 818              	.L94:
 819              	.LBE83:
 820              	.LBE84:
 821              	.LBE76:
 822              	.LBE96:
 823              	.LBB97:
 824              		.loc 1 451 0
 825 04c0 B0EE6A0A 		fcpys	s0, s21
 826 04c4 FFF7FEFF 		bl	mc_interface_set_current
 827              	.LVL79:
 828 04c8 B2E5     		b	.L2
 829              	.LVL80:
 830              	.L77:
 831              		.loc 1 401 0
 832 04ca D4ED037A 		flds	s15, [r4, #12]
 833 04ce F1EE677A 		fnegs	s15, s15
 834 04d2 B4EEE7BA 		fcmpes	s22, s15
 835 04d6 F1EE10FA 		fmstat
 836 04da 05D5     		bpl	.L80
 837              		.loc 1 401 0 is_stmt 0 discriminator 1
 838 04dc F5EEC0AA 		fcmpezs	s21
 839 04e0 F1EE10FA 		fmstat
 840 04e4 3FF5F0AE 		bmi	.L174
 841              	.L80:
 842              		.loc 1 403 0 is_stmt 1
 843 04e8 D4ED027A 		flds	s15, [r4, #8]
 844 04ec 884B     		ldr	r3, .L189
 845 04ee F1EE677A 		fnegs	s15, s15
 846 04f2 B4EEE7BA 		fcmpes	s22, s15
 847 04f6 F1EE10FA 		fmstat
 848 04fa 7FF5E7AE 		bpl	.L76
 849              		.loc 1 403 0 is_stmt 0 discriminator 1
 850 04fe F5EEC0AA 		fcmpezs	s21
 851 0502 F1EE10FA 		fmstat
 852 0506 7FF5E1AE 		bpl	.L76
 853              		.loc 1 404 0 is_stmt 1
 854 050a B1EE4BBA 		fnegs	s22, s22
 855              	.LVL81:
ARM GAS  /tmp/cciMHx2n.s 			page 16


 856              		.loc 1 406 0
 857 050e D3ED020A 		flds	s1, [r3, #8]
 858 0512 93ED031A 		flds	s2, [r3, #12]
 859 0516 99ED442A 		flds	s4, [r9, #272]
 860 051a F1EE6A1A 		fnegs	s3, s21
 861              	.LVL82:
 862 051e B0EE4B0A 		fcpys	s0, s22
 863 0522 FFF7FEFF 		bl	utils_map
 864              	.LVL83:
 865              		.loc 1 407 0
 866 0526 F1EE40AA 		fnegs	s21, s0
 867              	.LVL84:
 868 052a CFE6     		b	.L76
 869              	.LVL85:
 870              	.L176:
 871              	.LBE97:
 872              		.loc 1 190 0
 873 052c 0720     		movs	r0, #7
 874 052e FFF7FEFF 		bl	led_external_set_state
 875              	.LVL86:
 876              		.loc 1 191 0
 877 0532 7DE5     		b	.L2
 878              	.LVL87:
 879              	.L180:
 880              		.loc 1 222 0
 881 0534 0320     		movs	r0, #3
 882 0536 FFF7FEFF 		bl	led_external_set_state
 883              	.LVL88:
 884 053a D9E5     		b	.L15
 885              	.LVL89:
 886              	.L178:
 887              		.loc 1 214 0
 888 053c 0520     		movs	r0, #5
 889 053e FFF7FEFF 		bl	led_external_set_state
 890              	.LVL90:
 891 0542 D5E5     		b	.L15
 892              	.LVL91:
 893              	.L181:
 894              	.LBB98:
 895              		.loc 1 353 0
 896 0544 DFED73CA 		flds	s25, .L189+4
 897              		.loc 1 355 0
 898 0548 8DED04CA 		fsts	s24, [sp, #16]
 899              	.LBE98:
 900              		.loc 1 349 0
 901 054c B0EEC77A 		fabss	s14, s14
 902              	.LVL92:
 903 0550 77EE877A 		fadds	s15, s15, s14
 904              	.LBB99:
 905              		.loc 1 353 0
 906 0554 66EEAC6A 		fmuls	s13, s13, s25
 907              	.LVL93:
 908              		.loc 1 357 0
 909 0558 B0EE6A0A 		fcpys	s0, s21
 910              		.loc 1 353 0
 911 055c C7EEA6CA 		fdivs	s25, s15, s13
 912              	.LVL94:
ARM GAS  /tmp/cciMHx2n.s 			page 17


 913              		.loc 1 357 0
 914 0560 04A8     		add	r0, sp, #16
 915              	.LVL95:
 916 0562 F0EE6C0A 		fcpys	s1, s25
 917 0566 FFF7FEFF 		bl	utils_step_towards
 918              	.LVL96:
 919              		.loc 1 358 0
 920 056a DDED04AA 		flds	s21, [sp, #16]
 921              	.LVL97:
 922              		.loc 1 363 0
 923 056e 98F80030 		ldrb	r3, [r8]	@ zero_extendqisi2
 924              		.loc 1 362 0
 925 0572 CDED05AA 		fsts	s21, [sp, #20]
 926              		.loc 1 363 0
 927 0576 002B     		cmp	r3, #0
 928 0578 4ED0     		beq	.L58
 929              		.loc 1 364 0
 930 057a 78EE2A7A 		fadds	s15, s16, s21
 931 057e B1EE047A 		fconsts	s14, #20
 932 0582 F0EEE77A 		fabss	s15, s15
 933 0586 F4EEC77A 		fcmpes	s15, s14
 934 058a F1EE10FA 		fmstat
 935 058e 00F3BA80 		bgt	.L186
 936              	.L59:
 937              	.LVL98:
 938              		.loc 1 375 0
 939 0592 B4EEEACA 		fcmpes	s24, s21
 940 0596 F1EE10FA 		fmstat
 941 059a 3FF77EAE 		bgt	.L56
 942 059e F0EE6A7A 		fcpys	s15, s21
 943 05a2 B0EE6A7A 		fcpys	s14, s21
 944              	.LVL99:
 945              	.L63:
 946              		.loc 1 375 0 is_stmt 0 discriminator 3
 947 05a6 DDED036A 		flds	s13, [sp, #12]
 948 05aa 9FED5D6A 		flds	s12, .L189+16
 949 05ae F0EEE66A 		fabss	s13, s13
 950 05b2 F4EEC66A 		fcmpes	s13, s12
 951 05b6 F1EE10FA 		fmstat
 952 05ba D4BF     		ite	le
 953 05bc F0EE67AA 		fcpysle	s21, s15
 954 05c0 F0EE47AA 		fcpysgt	s21, s14
 955              	.LVL100:
 956 05c4 69E6     		b	.L56
 957              	.LVL101:
 958              	.L31:
 959              	.LBE99:
 960              	.LBB100:
 961              		.loc 1 276 0 is_stmt 1
 962 05c6 20EE260A 		fmuls	s0, s0, s13
 963              		.loc 1 272 0
 964 05ca 534B     		ldr	r3, .L189+8
 965 05cc 9FED536A 		flds	s12, .L189+12
 966 05d0 D3ED007A 		flds	s15, [r3]
 967              	.LVL102:
 968              		.loc 1 276 0
 969 05d4 80EE070A 		fdivs	s0, s0, s14
ARM GAS  /tmp/cciMHx2n.s 			page 18


 970 05d8 F4EE467A 		fcmps	s15, s12
 971 05dc F1EE10FA 		fmstat
 972 05e0 48BF     		it	mi
 973 05e2 F0EE467A 		fcpysmi	s15, s12
 974 05e6 37EE800A 		fadds	s0, s15, s0
 975 05ea 83ED000A 		fsts	s0, [r3]
 976 05ee BFE5     		b	.L30
 977              	.LVL103:
 978              	.L179:
 979              		.loc 1 254 0 discriminator 1
 980 05f0 F1EE10FA 		fmstat
 981 05f4 7FF7B9AD 		ble	.L28
 982              	.L27:
 983              		.loc 1 255 0
 984 05f8 D9ED3E7A 		flds	s15, [r9, #248]
 985 05fc B0EEC00A 		fabss	s0, s0
 986              	.LVL104:
 987 0600 B4EEE70A 		fcmpes	s0, s15
 988 0604 F1EE10FA 		fmstat
 989 0608 3FF712AD 		bgt	.L2
 990              		.loc 1 259 0
 991 060c 9FED430A 		flds	s0, .L189+12
 992 0610 414B     		ldr	r3, .L189+8
 993 0612 83ED000A 		fsts	s0, [r3]
 994              	.LVL105:
 995 0616 A8E5     		b	.L28
 996              	.LVL106:
 997              	.L58:
 998              	.LBE100:
 999              	.LBB101:
 1000              		.loc 1 368 0
 1001 0618 7AEEC87A 		fsubs	s15, s21, s16
 1002 061c B1EE047A 		fconsts	s14, #20
 1003 0620 F0EEE77A 		fabss	s15, s15
 1004 0624 F4EEC77A 		fcmpes	s15, s14
 1005 0628 F1EE10FA 		fmstat
 1006 062c B1DD     		ble	.L59
 1007              		.loc 1 369 0
 1008 062e B0EE480A 		fcpys	s0, s16
 1009              	.L173:
 1010 0632 7CEEAC0A 		fadds	s1, s25, s25
 1011 0636 05A8     		add	r0, sp, #20
 1012 0638 FFF7FEFF 		bl	utils_step_towards
 1013              	.LVL107:
 1014              		.loc 1 375 0
 1015 063c B4EEEACA 		fcmpes	s24, s21
 1016 0640 F1EE10FA 		fmstat
 1017 0644 9DED057A 		flds	s14, [sp, #20]
 1018 0648 DDED047A 		flds	s15, [sp, #16]
 1019              	.LVL108:
 1020 064c ABDD     		ble	.L63
 1021              		.loc 1 375 0 is_stmt 0 discriminator 2
 1022 064e B4EEE77A 		fcmpes	s14, s15
 1023 0652 F1EE10FA 		fmstat
 1024 0656 A6D4     		bmi	.L63
 1025 0658 F0EE67AA 		fcpys	s21, s15
 1026              	.LVL109:
ARM GAS  /tmp/cciMHx2n.s 			page 19


 1027 065c 1DE6     		b	.L56
 1028              	.LVL110:
 1029              	.L177:
 1030              	.LBE101:
 1031              		.loc 1 195 0 is_stmt 1 discriminator 3
 1032 065e F0EEC87A 		fabss	s15, s16
 1033              		.loc 1 194 0 discriminator 3
 1034 0662 B1EE047A 		fconsts	s14, #20
 1035 0666 F4EEC77A 		fcmpes	s15, s14
 1036 066a F1EE10FA 		fmstat
 1037 066e 7FF503AD 		bpl	.L8
 1038              		.loc 1 196 0
 1039 0672 98F800E0 		ldrb	lr, [r8]	@ zero_extendqisi2
 1040 0676 2B49     		ldr	r1, .L189+20
 1041 0678 BEF1000F 		cmp	lr, #0
 1042 067c 46D0     		beq	.L10
 1043              		.loc 1 197 0
 1044 067e 0B70     		strb	r3, [r1]
 1045 0680 1846     		mov	r0, r3
 1046 0682 FBE4     		b	.L7
 1047              	.LVL111:
 1048              	.L182:
 1049              		.loc 1 385 0
 1050 0684 B0EE6A0A 		fcpys	s0, s21
 1051 0688 FFF7FEFF 		bl	mc_interface_set_brake_current
 1052              	.LVL112:
 1053              	.LBB102:
 1054              		.loc 1 388 0
 1055 068c 4FF00009 		mov	r9, #0
 1056              	.LVL113:
 1057 0690 03E0     		b	.L71
 1058              	.LVL114:
 1059              	.L69:
 1060              		.loc 1 388 0 is_stmt 0 discriminator 2
 1061 0692 B9F10A0F 		cmp	r9, #10
 1062 0696 3FF4CBAC 		beq	.L2
 1063              	.LVL115:
 1064              	.L71:
 1065              	.LBB103:
 1066              		.loc 1 389 0 is_stmt 1
 1067 069a 4846     		mov	r0, r9
 1068 069c FFF7FEFF 		bl	comm_can_get_status_msg_index
 1069              	.LVL116:
 1070              		.loc 1 391 0
 1071 06a0 0268     		ldr	r2, [r0]
 1072 06a2 002A     		cmp	r2, #0
 1073              	.LBE103:
 1074              		.loc 1 388 0
 1075 06a4 09F10109 		add	r9, r9, #1
 1076              	.LVL117:
 1077              	.LBB108:
 1078              		.loc 1 391 0
 1079 06a8 F3DB     		blt	.L69
 1080              	.LBB104:
 1081              	.LBB105:
 1082              		.loc 3 267 0 discriminator 1
 1083 06aa 4168     		ldr	r1, [r0, #4]
ARM GAS  /tmp/cciMHx2n.s 			page 20


 1084              	.LBB106:
 1085              	.LBB107:
 1086              		.loc 3 231 0 discriminator 1
 1087 06ac BB6A     		ldr	r3, [r7, #40]
 1088              	.LBE107:
 1089              	.LBE106:
 1090              		.loc 3 267 0 discriminator 1
 1091 06ae 5B1A     		subs	r3, r3, r1
 1092 06b0 07EE903A 		fmsr	s15, r3	@ int
 1093              	.LBE105:
 1094              	.LBE104:
 1095              		.loc 1 391 0 discriminator 1
 1096 06b4 F8EE677A 		fuitos	s15, s15
 1097 06b8 C7EE897A 		fdivs	s15, s15, s18
 1098 06bc F4EEE87A 		fcmpes	s15, s17
 1099 06c0 F1EE10FA 		fmstat
 1100 06c4 E5D5     		bpl	.L69
 1101              		.loc 1 392 0
 1102 06c6 D0B2     		uxtb	r0, r2
 1103              	.LVL118:
 1104 06c8 B0EE6A0A 		fcpys	s0, s21
 1105 06cc FFF7FEFF 		bl	comm_can_set_current_brake
 1106              	.LVL119:
 1107 06d0 DFE7     		b	.L69
 1108              	.LVL120:
 1109              	.L185:
 1110              	.LBE108:
 1111              	.LBE102:
 1112              	.LBB109:
 1113              	.LBB69:
 1114              		.loc 1 441 0
 1115 06d2 DFED120A 		flds	s1, .L189+12
 1116 06d6 92ED081A 		flds	s2, [r2, #32]
 1117 06da F0EE6A1A 		fcpys	s3, s21
 1118 06de 3BEECB0A 		fsubs	s0, s23, s22
 1119              	.LVL121:
 1120 06e2 B0EE602A 		fcpys	s4, s1
 1121 06e6 FFF7FEFF 		bl	utils_map
 1122              	.LVL122:
 1123              		.loc 1 442 0
 1124 06ea 99ED447A 		flds	s14, [r9, #272]
 1125              		.loc 1 443 0
 1126 06ee DFED0B7A 		flds	s15, .L189+12
 1127 06f2 B4EE470A 		fcmps	s0, s14
 1128              		.loc 1 441 0
 1129 06f6 F0EE40AA 		fcpys	s21, s0
 1130              	.LVL123:
 1131              		.loc 1 443 0
 1132 06fa F1EE10FA 		fmstat
 1133 06fe 48BF     		it	mi
 1134 0700 F0EE67AA 		fcpysmi	s21, s15
 1135 0704 6BE6     		b	.L85
 1136              	.LVL124:
 1137              	.L186:
 1138              	.LBE69:
 1139              	.LBE109:
 1140              	.LBB110:
ARM GAS  /tmp/cciMHx2n.s 			page 21


 1141              		.loc 1 365 0
 1142 0706 B1EE480A 		fnegs	s0, s16
 1143 070a 92E7     		b	.L173
 1144              	.LVL125:
 1145              	.L10:
 1146              	.LBE110:
 1147              		.loc 1 199 0
 1148 070c 0A70     		strb	r2, [r1]
 1149 070e B5E4     		b	.L7
 1150              	.L190:
 1151              		.align	2
 1152              	.L189:
 1153 0710 00000000 		.word	.LANCHOR1
 1154 0714 00007A44 		.word	1148846080
 1155 0718 00000000 		.word	.LANCHOR8
 1156 071c 00000000 		.word	0
 1157 0720 6F12833A 		.word	981668463
 1158 0724 00000000 		.word	.LANCHOR3
 1159              	.LBE112:
 1160              		.cfi_endproc
 1161              	.LFE261:
 1162              		.size	output_thread, .-output_thread
 1163              		.section	.text.app_nunchuk_configure,"ax",%progbits
 1164              		.align	2
 1165              		.p2align 4,,15
 1166              		.global	app_nunchuk_configure
 1167              		.thumb
 1168              		.thumb_func
 1169              		.type	app_nunchuk_configure, %function
 1170              	app_nunchuk_configure:
 1171              	.LFB256:
 1172              		.loc 1 58 0
 1173              		.cfi_startproc
 1174              		@ args = 0, pretend = 0, frame = 0
 1175              		@ frame_needed = 0, uses_anonymous_args = 0
 1176              		@ link register save eliminated.
 1177              	.LVL126:
 1178 0000 30B4     		push	{r4, r5}
 1179              		.cfi_def_cfa_offset 8
 1180              		.cfi_offset 4, -8
 1181              		.cfi_offset 5, -4
 1182              		.loc 1 59 0
 1183 0002 0546     		mov	r5, r0
 1184 0004 0FCD     		ldmia	r5!, {r0, r1, r2, r3}
 1185              	.LVL127:
 1186 0006 044C     		ldr	r4, .L193
 1187 0008 0FC4     		stmia	r4!, {r0, r1, r2, r3}
 1188 000a 0FCD     		ldmia	r5!, {r0, r1, r2, r3}
 1189              	.LVL128:
 1190 000c 0FC4     		stmia	r4!, {r0, r1, r2, r3}
 1191 000e 2B68     		ldr	r3, [r5]
 1192 0010 2360     		str	r3, [r4]
 1193              		.loc 1 60 0
 1194 0012 30BC     		pop	{r4, r5}
 1195              		.cfi_restore 5
 1196              		.cfi_restore 4
 1197              		.cfi_def_cfa_offset 0
ARM GAS  /tmp/cciMHx2n.s 			page 22


 1198              	.LVL129:
 1199 0014 7047     		bx	lr
 1200              	.L194:
 1201 0016 00BF     		.align	2
 1202              	.L193:
 1203 0018 00000000 		.word	.LANCHOR1
 1204              		.cfi_endproc
 1205              	.LFE256:
 1206              		.size	app_nunchuk_configure, .-app_nunchuk_configure
 1207              		.section	.text.app_nunchuk_start,"ax",%progbits
 1208              		.align	2
 1209              		.p2align 4,,15
 1210              		.global	app_nunchuk_start
 1211              		.thumb
 1212              		.thumb_func
 1213              		.type	app_nunchuk_start, %function
 1214              	app_nunchuk_start:
 1215              	.LFB257:
 1216              		.loc 1 62 0
 1217              		.cfi_startproc
 1218              		@ args = 0, pretend = 0, frame = 0
 1219              		@ frame_needed = 0, uses_anonymous_args = 0
 1220 0000 30B5     		push	{r4, r5, lr}
 1221              		.cfi_def_cfa_offset 12
 1222              		.cfi_offset 4, -12
 1223              		.cfi_offset 5, -8
 1224              		.cfi_offset 14, -4
 1225 0002 83B0     		sub	sp, sp, #12
 1226              		.cfi_def_cfa_offset 24
 1227              		.loc 1 63 0
 1228 0004 064C     		ldr	r4, .L197
 1229              		.loc 1 64 0
 1230 0006 074B     		ldr	r3, .L197+4
 1231 0008 0748     		ldr	r0, .L197+8
 1232 000a 0022     		movs	r2, #0
 1233 000c 0092     		str	r2, [sp]
 1234              		.loc 1 63 0
 1235 000e 8025     		movs	r5, #128
 1236              		.loc 1 64 0
 1237 0010 4FF4B361 		mov	r1, #1432
 1238 0014 4022     		movs	r2, #64
 1239              		.loc 1 63 0
 1240 0016 6560     		str	r5, [r4, #4]
 1241              		.loc 1 64 0
 1242 0018 FFF7FEFF 		bl	chThdCreateStatic
 1243              	.LVL130:
 1244              		.loc 1 65 0
 1245 001c 03B0     		add	sp, sp, #12
 1246              		.cfi_def_cfa_offset 12
 1247              		@ sp needed
 1248 001e 30BD     		pop	{r4, r5, pc}
 1249              	.L198:
 1250              		.align	2
 1251              	.L197:
 1252 0020 00000000 		.word	.LANCHOR2
 1253 0024 00000000 		.word	chuk_thread
 1254 0028 00000000 		.word	.LANCHOR10
ARM GAS  /tmp/cciMHx2n.s 			page 23


 1255              		.cfi_endproc
 1256              	.LFE257:
 1257              		.size	app_nunchuk_start, .-app_nunchuk_start
 1258              		.section	.text.app_nunchuk_get_decoded_chuk,"ax",%progbits
 1259              		.align	2
 1260              		.p2align 4,,15
 1261              		.global	app_nunchuk_get_decoded_chuk
 1262              		.thumb
 1263              		.thumb_func
 1264              		.type	app_nunchuk_get_decoded_chuk, %function
 1265              	app_nunchuk_get_decoded_chuk:
 1266              	.LFB258:
 1267              		.loc 1 67 0
 1268              		.cfi_startproc
 1269              		@ args = 0, pretend = 0, frame = 0
 1270              		@ frame_needed = 0, uses_anonymous_args = 0
 1271              		@ link register save eliminated.
 1272              		.loc 1 68 0
 1273 0000 064B     		ldr	r3, .L200
 1274 0002 9FED077A 		flds	s14, .L200+4
 1275 0006 D3ED017A 		flds	s15, [r3, #4]	@ int
 1276 000a 9FED060A 		flds	s0, .L200+8
 1277 000e F8EEE77A 		fsitos	s15, s15
 1278 0012 77EEC77A 		fsubs	s15, s15, s14
 1279              		.loc 1 69 0
 1280 0016 27EE800A 		fmuls	s0, s15, s0
 1281 001a 7047     		bx	lr
 1282              	.L201:
 1283              		.align	2
 1284              	.L200:
 1285 001c 00000000 		.word	.LANCHOR2
 1286 0020 00000043 		.word	1124073472
 1287 0024 0000003C 		.word	1006632960
 1288              		.cfi_endproc
 1289              	.LFE258:
 1290              		.size	app_nunchuk_get_decoded_chuk, .-app_nunchuk_get_decoded_chuk
 1291              		.section	.text.app_nunchuk_update_output,"ax",%progbits
 1292              		.align	2
 1293              		.p2align 4,,15
 1294              		.global	app_nunchuk_update_output
 1295              		.thumb
 1296              		.thumb_func
 1297              		.type	app_nunchuk_update_output, %function
 1298              	app_nunchuk_update_output:
 1299              	.LFB259:
 1300              		.loc 1 71 0
 1301              		.cfi_startproc
 1302              		@ args = 0, pretend = 0, frame = 0
 1303              		@ frame_needed = 0, uses_anonymous_args = 0
 1304              	.LVL131:
 1305 0000 70B5     		push	{r4, r5, r6, lr}
 1306              		.cfi_def_cfa_offset 16
 1307              		.cfi_offset 4, -16
 1308              		.cfi_offset 5, -12
 1309              		.cfi_offset 6, -8
 1310              		.cfi_offset 14, -4
 1311              		.loc 1 72 0
ARM GAS  /tmp/cciMHx2n.s 			page 24


 1312 0002 104A     		ldr	r2, .L206
 1313 0004 1378     		ldrb	r3, [r2]	@ zero_extendqisi2
 1314              		.loc 1 71 0
 1315 0006 82B0     		sub	sp, sp, #8
 1316              		.cfi_def_cfa_offset 24
 1317              		.loc 1 71 0
 1318 0008 0446     		mov	r4, r0
 1319              		.loc 1 72 0
 1320 000a 03F0FF01 		and	r1, r3, #255
 1321 000e 63B9     		cbnz	r3, .L203
 1322              		.loc 1 75 0
 1323 0010 0091     		str	r1, [sp]
 1324              		.loc 1 74 0
 1325 0012 0D4D     		ldr	r5, .L206+4
 1326              		.loc 1 75 0
 1327 0014 0D48     		ldr	r0, .L206+8
 1328              	.LVL132:
 1329 0016 0E4B     		ldr	r3, .L206+12
 1330              		.loc 1 73 0
 1331 0018 0121     		movs	r1, #1
 1332 001a 1170     		strb	r1, [r2]
 1333              		.loc 1 74 0
 1334 001c 8026     		movs	r6, #128
 1335              		.loc 1 75 0
 1336 001e 4FF4B361 		mov	r1, #1432
 1337 0022 4022     		movs	r2, #64
 1338              		.loc 1 74 0
 1339 0024 6E60     		str	r6, [r5, #4]
 1340              		.loc 1 75 0
 1341 0026 FFF7FEFF 		bl	chThdCreateStatic
 1342              	.LVL133:
 1343              	.L203:
 1344              		.loc 1 78 0
 1345 002a 0FCC     		ldmia	r4!, {r0, r1, r2, r3}
 1346              	.LVL134:
 1347 002c 064D     		ldr	r5, .L206+4
 1348 002e 0FC5     		stmia	r5!, {r0, r1, r2, r3}
 1349 0030 94E80300 		ldmia	r4, {r0, r1}
 1350 0034 85E80300 		stmia	r5, {r0, r1}
 1351              		.loc 1 80 0
 1352 0038 02B0     		add	sp, sp, #8
 1353              		.cfi_def_cfa_offset 16
 1354              		@ sp needed
 1355 003a BDE87040 		pop	{r4, r5, r6, lr}
 1356              		.cfi_restore 14
 1357              		.cfi_restore 6
 1358              		.cfi_restore 5
 1359              		.cfi_restore 4
 1360              		.cfi_def_cfa_offset 0
 1361              	.LVL135:
 1362              		.loc 1 79 0
 1363 003e FFF7FEBF 		b	timeout_reset
 1364              	.LVL136:
 1365              	.L207:
 1366 0042 00BF     		.align	2
 1367              	.L206:
 1368 0044 00000000 		.word	.LANCHOR11
ARM GAS  /tmp/cciMHx2n.s 			page 25


 1369 0048 00000000 		.word	.LANCHOR2
 1370 004c 00000000 		.word	.LANCHOR12
 1371 0050 00000000 		.word	output_thread
 1372              		.cfi_endproc
 1373              	.LFE259:
 1374              		.size	app_nunchuk_update_output, .-app_nunchuk_update_output
 1375              		.section	.text.chuk_thread,"ax",%progbits
 1376              		.align	2
 1377              		.p2align 4,,15
 1378              		.thumb
 1379              		.thumb_func
 1380              		.type	chuk_thread, %function
 1381              	chuk_thread:
 1382              	.LFB260:
 1383              		.loc 1 82 0
 1384              		.cfi_startproc
 1385              		@ args = 0, pretend = 0, frame = 48
 1386              		@ frame_needed = 0, uses_anonymous_args = 0
 1387              	.LVL137:
 1388 0000 2DE9F047 		push	{r4, r5, r6, r7, r8, r9, r10, lr}
 1389              		.cfi_def_cfa_offset 32
 1390              		.cfi_offset 4, -32
 1391              		.cfi_offset 5, -28
 1392              		.cfi_offset 6, -24
 1393              		.cfi_offset 7, -20
 1394              		.cfi_offset 8, -16
 1395              		.cfi_offset 9, -12
 1396              		.cfi_offset 10, -8
 1397              		.cfi_offset 14, -4
 1398              	.LBB113:
 1399              	.LBB114:
 1400              		.loc 2 135 0
 1401 0004 634B     		ldr	r3, .L223
 1402 0006 6449     		ldr	r1, .L223+4
 1403 0008 9A69     		ldr	r2, [r3, #24]
 1404              	.LBE114:
 1405              	.LBE113:
 1406              		.loc 1 86 0
 1407 000a 644B     		ldr	r3, .L223+8
 1408              	.LBB116:
 1409              	.LBB115:
 1410              		.loc 2 135 0
 1411 000c 9161     		str	r1, [r2, #24]
 1412              	.LBE115:
 1413              	.LBE116:
 1414              		.loc 1 82 0
 1415 000e 90B0     		sub	sp, sp, #64
 1416              		.cfi_def_cfa_offset 96
 1417              		.loc 1 86 0
 1418 0010 0122     		movs	r2, #1
 1419 0012 634F     		ldr	r7, .L223+12
 1420 0014 1A70     		strb	r2, [r3]
 1421              	.LVL138:
 1422              		.loc 1 95 0
 1423 0016 FFF7FEFF 		bl	hw_start_i2c
 1424              	.LVL139:
 1425              		.loc 1 96 0
ARM GAS  /tmp/cciMHx2n.s 			page 26


 1426 001a 6420     		movs	r0, #100
 1427 001c FFF7FEFF 		bl	chThdSleep
 1428              	.LVL140:
 1429 0020 604E     		ldr	r6, .L223+16
 1430 0022 07F10408 		add	r8, r7, #4
 1431 0026 BC1D     		adds	r4, r7, #6
 1432 0028 04AD     		add	r5, sp, #16
 1433 002a 0AE0     		b	.L216
 1434              	.LVL141:
 1435              	.L211:
 1436              	.LBB117:
 1437              		.loc 1 163 0
 1438 002c 0223     		movs	r3, #2
 1439 002e 3360     		str	r3, [r6]
 1440              		.loc 1 164 0
 1441 0030 FFF7FEFF 		bl	hw_try_restore_i2c
 1442              	.LVL142:
 1443              		.loc 1 165 0
 1444 0034 4FF47A70 		mov	r0, #1000
 1445 0038 FFF7FEFF 		bl	chThdSleep
 1446              	.LVL143:
 1447              	.L215:
 1448              		.loc 1 168 0
 1449 003c 6420     		movs	r0, #100
 1450 003e FFF7FEFF 		bl	chThdSleep
 1451              	.LVL144:
 1452              	.L216:
 1453              		.loc 1 101 0
 1454 0042 F022     		movs	r2, #240
 1455              		.loc 1 102 0
 1456 0044 5523     		movs	r3, #85
 1457              		.loc 1 103 0
 1458 0046 5848     		ldr	r0, .L223+20
 1459              		.loc 1 101 0
 1460 0048 8DF81C20 		strb	r2, [sp, #28]
 1461              		.loc 1 102 0
 1462 004c 8DF81D30 		strb	r3, [sp, #29]
 1463              		.loc 1 104 0
 1464 0050 4FF03209 		mov	r9, #50
 1465              		.loc 1 103 0
 1466 0054 FFF7FEFF 		bl	i2cAcquireBus
 1467              	.LVL145:
 1468              		.loc 1 104 0
 1469 0058 0023     		movs	r3, #0
 1470 005a 0193     		str	r3, [sp, #4]
 1471 005c 0095     		str	r5, [sp]
 1472 005e CDF80890 		str	r9, [sp, #8]
 1473 0062 5148     		ldr	r0, .L223+20
 1474 0064 5221     		movs	r1, #82
 1475 0066 07AA     		add	r2, sp, #28
 1476 0068 0223     		movs	r3, #2
 1477 006a FFF7FEFF 		bl	i2cMasterTransmitTimeout
 1478              	.LVL146:
 1479 006e 8246     		mov	r10, r0
 1480              	.LVL147:
 1481              		.loc 1 105 0
 1482 0070 4D48     		ldr	r0, .L223+20
ARM GAS  /tmp/cciMHx2n.s 			page 27


 1483              	.LVL148:
 1484 0072 FFF7FEFF 		bl	i2cReleaseBus
 1485              	.LVL149:
 1486              		.loc 1 108 0
 1487 0076 BAF1000F 		cmp	r10, #0
 1488 007a D7D1     		bne	.L211
 1489              		.loc 1 109 0
 1490 007c FB23     		movs	r3, #251
 1491              		.loc 1 111 0
 1492 007e 4A48     		ldr	r0, .L223+20
 1493              		.loc 1 110 0
 1494 0080 8DF81DA0 		strb	r10, [sp, #29]
 1495              		.loc 1 109 0
 1496 0084 8DF81C30 		strb	r3, [sp, #28]
 1497              		.loc 1 111 0
 1498 0088 FFF7FEFF 		bl	i2cAcquireBus
 1499              	.LVL150:
 1500              		.loc 1 112 0
 1501 008c 8DE82004 		stmia	sp, {r5, r10}
 1502 0090 CDF80890 		str	r9, [sp, #8]
 1503 0094 4448     		ldr	r0, .L223+20
 1504 0096 5221     		movs	r1, #82
 1505 0098 07AA     		add	r2, sp, #28
 1506 009a 0223     		movs	r3, #2
 1507 009c FFF7FEFF 		bl	i2cMasterTransmitTimeout
 1508              	.LVL151:
 1509 00a0 8246     		mov	r10, r0
 1510              	.LVL152:
 1511              		.loc 1 113 0
 1512 00a2 4148     		ldr	r0, .L223+20
 1513              	.LVL153:
 1514 00a4 FFF7FEFF 		bl	i2cReleaseBus
 1515              	.LVL154:
 1516              		.loc 1 117 0
 1517 00a8 BAF1000F 		cmp	r10, #0
 1518 00ac BED1     		bne	.L211
 1519              		.loc 1 119 0
 1520 00ae 3E48     		ldr	r0, .L223+20
 1521              		.loc 1 118 0
 1522 00b0 8DF81CA0 		strb	r10, [sp, #28]
 1523              		.loc 1 119 0
 1524 00b4 FFF7FEFF 		bl	i2cAcquireBus
 1525              	.LVL155:
 1526              		.loc 1 120 0
 1527 00b8 8DE82004 		stmia	sp, {r5, r10}
 1528 00bc CDF80890 		str	r9, [sp, #8]
 1529 00c0 3948     		ldr	r0, .L223+20
 1530 00c2 5221     		movs	r1, #82
 1531 00c4 07AA     		add	r2, sp, #28
 1532 00c6 0123     		movs	r3, #1
 1533 00c8 FFF7FEFF 		bl	i2cMasterTransmitTimeout
 1534              	.LVL156:
 1535 00cc 8246     		mov	r10, r0
 1536              	.LVL157:
 1537              		.loc 1 121 0
 1538 00ce 3648     		ldr	r0, .L223+20
 1539              	.LVL158:
ARM GAS  /tmp/cciMHx2n.s 			page 28


 1540 00d0 FFF7FEFF 		bl	i2cReleaseBus
 1541              	.LVL159:
 1542              		.loc 1 125 0
 1543 00d4 BAF1000F 		cmp	r10, #0
 1544 00d8 A8D1     		bne	.L211
 1545              		.loc 1 126 0
 1546 00da 1E20     		movs	r0, #30
 1547 00dc FFF7FEFF 		bl	chThdSleep
 1548              	.LVL160:
 1549              		.loc 1 128 0
 1550 00e0 3148     		ldr	r0, .L223+20
 1551 00e2 FFF7FEFF 		bl	i2cAcquireBus
 1552              	.LVL161:
 1553              		.loc 1 129 0
 1554 00e6 CDF80090 		str	r9, [sp]
 1555 00ea 2F48     		ldr	r0, .L223+20
 1556 00ec 5221     		movs	r1, #82
 1557 00ee 2A46     		mov	r2, r5
 1558 00f0 0623     		movs	r3, #6
 1559 00f2 FFF7FEFF 		bl	i2cMasterReceiveTimeout
 1560              	.LVL162:
 1561 00f6 8146     		mov	r9, r0
 1562              	.LVL163:
 1563              		.loc 1 130 0
 1564 00f8 2B48     		ldr	r0, .L223+20
 1565              	.LVL164:
 1566 00fa FFF7FEFF 		bl	i2cReleaseBus
 1567              	.LVL165:
 1568              		.loc 1 134 0
 1569 00fe B9F1000F 		cmp	r9, #0
 1570 0102 93D1     		bne	.L211
 1571 0104 264B     		ldr	r3, .L223+12
 1572 0106 2946     		mov	r1, r5
 1573 0108 0122     		movs	r2, #1
 1574              	.L213:
 1575              	.LVL166:
 1576              	.LBB118:
 1577              	.LBB119:
 1578              		.loc 1 139 0
 1579 010a 13F801EB 		ldrb	lr, [r3], #1	@ zero_extendqisi2
 1580              	.LVL167:
 1581 010e 11F8010B 		ldrb	r0, [r1], #1	@ zero_extendqisi2
 1582              		.loc 1 140 0
 1583 0112 8645     		cmp	lr, r0
 1584 0114 18BF     		it	ne
 1585 0116 0022     		movne	r2, #0
 1586              	.LVL168:
 1587              		.loc 1 138 0
 1588 0118 A342     		cmp	r3, r4
 1589 011a F6D1     		bne	.L213
 1590              	.LBE119:
 1591              		.loc 1 144 0
 1592 011c 95E80300 		ldmia	r5, {r0, r1}
 1593 0120 3860     		str	r0, [r7]
 1594 0122 A8F80010 		strh	r1, [r8]	@ movhi
 1595              		.loc 1 146 0
 1596 0126 32B1     		cbz	r2, .L222
ARM GAS  /tmp/cciMHx2n.s 			page 29


 1597              	.LVL169:
 1598              	.L214:
 1599              		.loc 1 159 0
 1600 0128 FFF7FEFF 		bl	timeout_has_timeout
 1601              	.LVL170:
 1602 012c 0028     		cmp	r0, #0
 1603 012e 85D0     		beq	.L215
 1604              		.loc 1 160 0
 1605 0130 0123     		movs	r3, #1
 1606 0132 3360     		str	r3, [r6]
 1607 0134 82E7     		b	.L215
 1608              	.LVL171:
 1609              	.L222:
 1610              		.loc 1 150 0
 1611 0136 9DF81510 		ldrb	r1, [sp, #21]	@ zero_extendqisi2
 1612 013a 9DF812E0 		ldrb	lr, [sp, #18]	@ zero_extendqisi2
 1613              		.loc 1 152 0
 1614 013e 9DF81430 		ldrb	r3, [sp, #20]	@ zero_extendqisi2
 1615              	.LVL172:
 1616              		.loc 1 151 0
 1617 0142 9DF813C0 		ldrb	ip, [sp, #19]	@ zero_extendqisi2
 1618              		.loc 1 147 0
 1619 0146 3260     		str	r2, [r6]
 1620              		.loc 1 150 0
 1621 0148 C1F38100 		ubfx	r0, r1, #2, #2
 1622              		.loc 1 151 0
 1623 014c C1F30112 		ubfx	r2, r1, #4, #2
 1624              	.LVL173:
 1625              		.loc 1 150 0
 1626 0150 40EA8E00 		orr	r0, r0, lr, lsl #2
 1627              		.loc 1 151 0
 1628 0154 42EA8C0C 		orr	ip, r2, ip, lsl #2
 1629              		.loc 1 153 0
 1630 0158 01F0010E 		and	lr, r1, #1
 1631              		.loc 1 154 0
 1632 015c C1F34002 		ubfx	r2, r1, #1, #1
 1633              		.loc 1 152 0
 1634 0160 9B00     		lsls	r3, r3, #2
 1635 0162 43EA9113 		orr	r3, r3, r1, lsr #6
 1636              		.loc 1 148 0
 1637 0166 9DF81090 		ldrb	r9, [sp, #16]	@ zero_extendqisi2
 1638              	.LVL174:
 1639              		.loc 1 149 0
 1640 016a 9DF81110 		ldrb	r1, [sp, #17]	@ zero_extendqisi2
 1641              		.loc 1 150 0
 1642 016e 0C90     		str	r0, [sp, #48]
 1643              		.loc 1 153 0
 1644 0170 8EF0010E 		eor	lr, lr, #1
 1645              		.loc 1 154 0
 1646 0174 82F00102 		eor	r2, r2, #1
 1647              		.loc 1 156 0
 1648 0178 0AA8     		add	r0, sp, #40
 1649              		.loc 1 151 0
 1650 017a CDF834C0 		str	ip, [sp, #52]
 1651              		.loc 1 153 0
 1652 017e 8DF83DE0 		strb	lr, [sp, #61]
 1653              		.loc 1 154 0
ARM GAS  /tmp/cciMHx2n.s 			page 30


 1654 0182 8DF83C20 		strb	r2, [sp, #60]
 1655              		.loc 1 152 0
 1656 0186 0E93     		str	r3, [sp, #56]
 1657              		.loc 1 148 0
 1658 0188 CDF82890 		str	r9, [sp, #40]
 1659              		.loc 1 149 0
 1660 018c 0B91     		str	r1, [sp, #44]
 1661              		.loc 1 156 0
 1662 018e FFF7FEFF 		bl	app_nunchuk_update_output
 1663              	.LVL175:
 1664 0192 C9E7     		b	.L214
 1665              	.L224:
 1666              		.align	2
 1667              	.L223:
 1668 0194 00000000 		.word	ch
 1669 0198 10000000 		.word	.LC1
 1670 019c 00000000 		.word	.LANCHOR13
 1671 01a0 00000000 		.word	.LANCHOR14
 1672 01a4 00000000 		.word	.LANCHOR0
 1673 01a8 00000000 		.word	I2CD2
 1674              	.LBE118:
 1675              	.LBE117:
 1676              		.cfi_endproc
 1677              	.LFE260:
 1678              		.size	chuk_thread, .-chuk_thread
 1679              		.section	.bss.output_running,"aw",%nobits
 1680              		.set	.LANCHOR11,. + 0
 1681              		.type	output_running, %object
 1682              		.size	output_running, 1
 1683              	output_running:
 1684 0000 00       		.space	1
 1685              		.section	.bss.chuk_thread_wa,"aw",%nobits
 1686              		.align	3
 1687              		.set	.LANCHOR10,. + 0
 1688              		.type	chuk_thread_wa, %object
 1689              		.size	chuk_thread_wa, 1432
 1690              	chuk_thread_wa:
 1691 0000 00000000 		.space	1432
 1691      00000000 
 1691      00000000 
 1691      00000000 
 1691      00000000 
 1692              		.section	.bss.output_thread_wa,"aw",%nobits
 1693              		.align	3
 1694              		.set	.LANCHOR12,. + 0
 1695              		.type	output_thread_wa, %object
 1696              		.size	output_thread_wa, 1432
 1697              	output_thread_wa:
 1698 0000 00000000 		.space	1432
 1698      00000000 
 1698      00000000 
 1698      00000000 
 1698      00000000 
 1699              		.section	.bss.was_pid.10114,"aw",%nobits
 1700              		.set	.LANCHOR7,. + 0
 1701              		.type	was_pid.10114, %object
 1702              		.size	was_pid.10114, 1
ARM GAS  /tmp/cciMHx2n.s 			page 31


 1703              	was_pid.10114:
 1704 0000 00       		.space	1
 1705              		.section	.bss.was_z.10109,"aw",%nobits
 1706              		.set	.LANCHOR4,. + 0
 1707              		.type	was_z.10109, %object
 1708              		.size	was_z.10109, 1
 1709              	was_z.10109:
 1710 0000 00       		.space	1
 1711              		.section	.bss.is_running,"aw",%nobits
 1712              		.set	.LANCHOR13,. + 0
 1713              		.type	is_running, %object
 1714              		.size	is_running, 1
 1715              	is_running:
 1716 0000 00       		.space	1
 1717              		.section	.bss.chuck_d,"aw",%nobits
 1718              		.align	2
 1719              		.set	.LANCHOR2,. + 0
 1720              		.type	chuck_d, %object
 1721              		.size	chuck_d, 24
 1722              	chuck_d:
 1723 0000 00000000 		.space	24
 1723      00000000 
 1723      00000000 
 1723      00000000 
 1723      00000000 
 1724              		.section	.bss.pid_rpm.10123,"aw",%nobits
 1725              		.align	2
 1726              		.set	.LANCHOR8,. + 0
 1727              		.type	pid_rpm.10123, %object
 1728              		.size	pid_rpm.10123, 4
 1729              	pid_rpm.10123:
 1730 0000 00000000 		.space	4
 1731              		.section	.bss.prev_current.10111,"aw",%nobits
 1732              		.align	2
 1733              		.set	.LANCHOR9,. + 0
 1734              		.type	prev_current.10111, %object
 1735              		.size	prev_current.10111, 4
 1736              	prev_current.10111:
 1737 0000 00000000 		.space	4
 1738              		.section	.rodata.str1.4,"aMS",%progbits,1
 1739              		.align	2
 1740              	.LC0:
 1741 0000 4E756E63 		.ascii	"Nunchuk output\000"
 1741      68756B20 
 1741      6F757470 
 1741      757400
 1742 000f 00       		.space	1
 1743              	.LC1:
 1744 0010 4E756E63 		.ascii	"Nunchuk i2c\000"
 1744      68756B20 
 1744      69326300 
 1745              		.section	.bss.last_buffer.10097,"aw",%nobits
 1746              		.align	2
 1747              		.set	.LANCHOR14,. + 0
 1748              		.type	last_buffer.10097, %object
 1749              		.size	last_buffer.10097, 6
 1750              	last_buffer.10097:
ARM GAS  /tmp/cciMHx2n.s 			page 32


 1751 0000 00000000 		.space	6
 1751      0000
 1752              		.section	.bss.chuck_error,"aw",%nobits
 1753              		.align	2
 1754              		.set	.LANCHOR0,. + 0
 1755              		.type	chuck_error, %object
 1756              		.size	chuck_error, 4
 1757              	chuck_error:
 1758 0000 00000000 		.space	4
 1759              		.section	.bss.config,"aw",%nobits
 1760              		.align	2
 1761              		.set	.LANCHOR1,. + 0
 1762              		.type	config, %object
 1763              		.size	config, 36
 1764              	config:
 1765 0000 00000000 		.space	36
 1765      00000000 
 1765      00000000 
 1765      00000000 
 1765      00000000 
 1766              		.section	.bss.filter_ptr.10117,"aw",%nobits
 1767              		.align	2
 1768              		.set	.LANCHOR5,. + 0
 1769              		.type	filter_ptr.10117, %object
 1770              		.size	filter_ptr.10117, 4
 1771              	filter_ptr.10117:
 1772 0000 00000000 		.space	4
 1773              		.section	.bss.filter_buffer.10116,"aw",%nobits
 1774              		.align	2
 1775              		.set	.LANCHOR6,. + 0
 1776              		.type	filter_buffer.10116, %object
 1777              		.size	filter_buffer.10116, 32
 1778              	filter_buffer.10116:
 1779 0000 00000000 		.space	32
 1779      00000000 
 1779      00000000 
 1779      00000000 
 1779      00000000 
 1780              		.section	.bss.is_reverse.10108,"aw",%nobits
 1781              		.set	.LANCHOR3,. + 0
 1782              		.type	is_reverse.10108, %object
 1783              		.size	is_reverse.10108, 1
 1784              	is_reverse.10108:
 1785 0000 00       		.space	1
 1786              		.text
 1787              	.Letext0:
 1788              		.file 4 "/usr/arm-none-eabi/include/machine/_default_types.h"
 1789              		.file 5 "/usr/arm-none-eabi/include/sys/_stdint.h"
 1790              		.file 6 "/usr/lib/gcc/arm-none-eabi/4.9.3/include/stddef.h"
 1791              		.file 7 "ChibiOS_3.0.2/os/rt/ports/ARMCMx/compilers/GCC/chtypes.h"
 1792              		.file 8 "ChibiOS_3.0.2/os/rt/include/chsystypes.h"
 1793              		.file 9 "ChibiOS_3.0.2/os/rt/include/chschd.h"
 1794              		.file 10 "ChibiOS_3.0.2/os/ext/CMSIS/ST/stm32f407xx.h"
 1795              		.file 11 "ChibiOS_3.0.2/os/rt/ports/ARMCMx/chcore.h"
 1796              		.file 12 "ChibiOS_3.0.2/os/rt/ports/ARMCMx/chcore_v7m.h"
 1797              		.file 13 "ChibiOS_3.0.2/os/rt/include/chtm.h"
 1798              		.file 14 "ChibiOS_3.0.2/os/rt/include/chsem.h"
ARM GAS  /tmp/cciMHx2n.s 			page 33


 1799              		.file 15 "ChibiOS_3.0.2/os/rt/include/chmtx.h"
 1800              		.file 16 "ChibiOS_3.0.2/os/rt/include/chthreads.h"
 1801              		.file 17 "./datatypes.h"
 1802              		.file 18 "ChibiOS_3.0.2/os/hal/ports/STM32/STM32F4xx/stm32_dma.h"
 1803              		.file 19 "ChibiOS_3.0.2/os/hal/include/i2c.h"
 1804              		.file 20 "ChibiOS_3.0.2/os/hal/ports/STM32/LLD/I2Cv1/i2c_lld.h"
 1805              		.file 21 "ChibiOS_3.0.2/os/ext/CMSIS/include/core_cm4.h"
 1806              		.file 22 "./utils.h"
 1807              		.file 23 "./comm_can.h"
 1808              		.file 24 "./mc_interface.h"
 1809              		.file 25 "./timeout.h"
 1810              		.file 26 "./led_external.h"
 1811              		.file 27 "hwconf/hw.h"