ARM GAS  /tmp/cckoPygk.s 			page 1


   1              		.syntax unified
   2              		.cpu cortex-m4
   3              		.eabi_attribute 27, 1
   4              		.eabi_attribute 28, 1
   5              		.fpu fpv4-sp-d16
   6              		.eabi_attribute 20, 1
   7              		.eabi_attribute 21, 1
   8              		.eabi_attribute 23, 3
   9              		.eabi_attribute 24, 1
  10              		.eabi_attribute 25, 1
  11              		.eabi_attribute 26, 1
  12              		.eabi_attribute 30, 2
  13              		.eabi_attribute 34, 1
  14              		.eabi_attribute 18, 4
  15              		.thumb
  16              		.file	"app_uartcomm.c"
  17              		.text
  18              	.Ltext0:
  19              		.cfi_sections	.debug_frame
  20              		.section	.text.txend1,"ax",%progbits
  21              		.align	2
  22              		.p2align 4,,15
  23              		.thumb
  24              		.thumb_func
  25              		.type	txend1, %function
  26              	txend1:
  27              	.LFB256:
  28              		.file 1 "applications/app_uartcomm.c"
  29              		.loc 1 59 0
  30              		.cfi_startproc
  31              		@ args = 0, pretend = 0, frame = 0
  32              		@ frame_needed = 0, uses_anonymous_args = 0
  33              		@ link register save eliminated.
  34              	.LVL0:
  35 0000 7047     		bx	lr
  36              		.cfi_endproc
  37              	.LFE256:
  38              		.size	txend1, .-txend1
  39 0002 00BF     		.section	.text.txend2,"ax",%progbits
  40              		.align	2
  41              		.p2align 4,,15
  42              		.thumb
  43              		.thumb_func
  44              		.type	txend2, %function
  45              	txend2:
  46              	.LFB257:
  47              		.loc 1 66 0
  48              		.cfi_startproc
  49              		@ args = 0, pretend = 0, frame = 0
  50              		@ frame_needed = 0, uses_anonymous_args = 0
  51              		@ link register save eliminated.
  52              	.LVL1:
  53 0000 7047     		bx	lr
  54              		.cfi_endproc
  55              	.LFE257:
  56              		.size	txend2, .-txend2
  57 0002 00BF     		.section	.text.rxerr,"ax",%progbits
ARM GAS  /tmp/cckoPygk.s 			page 2


  58              		.align	2
  59              		.p2align 4,,15
  60              		.thumb
  61              		.thumb_func
  62              		.type	rxerr, %function
  63              	rxerr:
  64              	.LFB258:
  65              		.loc 1 74 0
  66              		.cfi_startproc
  67              		@ args = 0, pretend = 0, frame = 0
  68              		@ frame_needed = 0, uses_anonymous_args = 0
  69              		@ link register save eliminated.
  70              	.LVL2:
  71 0000 7047     		bx	lr
  72              		.cfi_endproc
  73              	.LFE258:
  74              		.size	rxerr, .-rxerr
  75 0002 00BF     		.section	.text.rxend,"ax",%progbits
  76              		.align	2
  77              		.p2align 4,,15
  78              		.thumb
  79              		.thumb_func
  80              		.type	rxend, %function
  81              	rxend:
  82              	.LFB260:
  83              		.loc 1 99 0
  84              		.cfi_startproc
  85              		@ args = 0, pretend = 0, frame = 0
  86              		@ frame_needed = 0, uses_anonymous_args = 0
  87              		@ link register save eliminated.
  88              	.LVL3:
  89 0000 7047     		bx	lr
  90              		.cfi_endproc
  91              	.LFE260:
  92              		.size	rxend, .-rxend
  93 0002 00BF     		.section	.text.packet_process_thread,"ax",%progbits
  94              		.align	2
  95              		.p2align 4,,15
  96              		.thumb
  97              		.thumb_func
  98              		.type	packet_process_thread, %function
  99              	packet_process_thread:
 100              	.LFB266:
 101              		.loc 1 165 0
 102              		.cfi_startproc
 103              		@ Volatile: function does not return.
 104              		@ args = 0, pretend = 0, frame = 0
 105              		@ frame_needed = 0, uses_anonymous_args = 0
 106              	.LVL4:
 107              	.LBB40:
 108              	.LBB41:
 109              		.file 2 "ChibiOS_3.0.2/os/rt/include/chregistry.h"
 110              		.loc 2 135 0
 111 0000 114B     		ldr	r3, .L13
 112              	.LBE41:
 113              	.LBE40:
 114              		.loc 1 170 0
ARM GAS  /tmp/cckoPygk.s 			page 3


 115 0002 124A     		ldr	r2, .L13+4
 116              	.LBB44:
 117              	.LBB42:
 118              		.loc 2 135 0
 119 0004 9B69     		ldr	r3, [r3, #24]
 120 0006 124C     		ldr	r4, .L13+8
 121 0008 1249     		ldr	r1, .L13+12
 122 000a 134E     		ldr	r6, .L13+16
 123              	.LBE42:
 124              	.LBE44:
 125              		.loc 1 165 0
 126 000c 80B5     		push	{r7, lr}
 127              		.cfi_def_cfa_offset 8
 128              		.cfi_offset 7, -8
 129              		.cfi_offset 14, -4
 130 000e 134F     		ldr	r7, .L13+20
 131              	.LBB45:
 132              	.LBB43:
 133              		.loc 2 135 0
 134 0010 9961     		str	r1, [r3, #24]
 135              	.LBE43:
 136              	.LBE45:
 137              		.loc 1 170 0
 138 0012 1360     		str	r3, [r2]
 139              		.loc 1 176 0
 140 0014 A146     		mov	r9, r4
 141              	.LVL5:
 142              	.L9:
 143              		.loc 1 173 0
 144 0016 0120     		movs	r0, #1
 145 0018 FFF7FEFF 		bl	chEvtWaitAny
 146              	.LVL6:
 147              		.loc 1 179 0
 148 001c 4FF00008 		mov	r8, #0
 149              	.L6:
 150 0020 2368     		ldr	r3, [r4]
 151              	.L7:
 152              		.loc 1 175 0
 153 0022 3268     		ldr	r2, [r6]
 154 0024 9A42     		cmp	r2, r3
 155              		.loc 1 176 0
 156 0026 03F10105 		add	r5, r3, #1
 157 002a 4FF00101 		mov	r1, #1
 158              		.loc 1 175 0
 159 002e F2D0     		beq	.L9
 160              		.loc 1 176 0
 161 0030 F85C     		ldrb	r0, [r7, r3]	@ zero_extendqisi2
 162 0032 2560     		str	r5, [r4]
 163 0034 FFF7FEFF 		bl	packet_process_byte
 164              	.LVL7:
 165              		.loc 1 178 0
 166 0038 2368     		ldr	r3, [r4]
 167 003a B3F5806F 		cmp	r3, #1024
 168 003e F0D1     		bne	.L7
 169              		.loc 1 179 0
 170 0040 C9F80080 		str	r8, [r9]
 171 0044 ECE7     		b	.L6
ARM GAS  /tmp/cckoPygk.s 			page 4


 172              	.L14:
 173 0046 00BF     		.align	2
 174              	.L13:
 175 0048 00000000 		.word	ch
 176 004c 00000000 		.word	.LANCHOR0
 177 0050 00000000 		.word	.LANCHOR1
 178 0054 00000000 		.word	.LC0
 179 0058 00000000 		.word	.LANCHOR3
 180 005c 00000000 		.word	.LANCHOR2
 181              		.cfi_endproc
 182              	.LFE266:
 183              		.size	packet_process_thread, .-packet_process_thread
 184              		.section	.text.rxchar,"ax",%progbits
 185              		.align	2
 186              		.p2align 4,,15
 187              		.thumb
 188              		.thumb_func
 189              		.type	rxchar, %function
 190              	rxchar:
 191              	.LFB259:
 192              		.loc 1 83 0
 193              		.cfi_startproc
 194              		@ args = 0, pretend = 0, frame = 0
 195              		@ frame_needed = 0, uses_anonymous_args = 0
 196              	.LVL8:
 197              		.loc 1 85 0
 198 0000 0B4B     		ldr	r3, .L18
 199 0002 1868     		ldr	r0, [r3]
 200              	.LVL9:
 201 0004 421C     		adds	r2, r0, #1
 202              		.loc 1 83 0
 203 0006 10B5     		push	{r4, lr}
 204              		.cfi_def_cfa_offset 8
 205              		.cfi_offset 4, -8
 206              		.cfi_offset 14, -4
 207              		.loc 1 87 0
 208 0008 B2F5806F 		cmp	r2, #1024
 209              		.loc 1 85 0
 210 000c 094C     		ldr	r4, .L18+4
 211 000e 1A60     		str	r2, [r3]
 212              		.loc 1 88 0
 213 0010 04BF     		itt	eq
 214 0012 0022     		moveq	r2, #0
 215 0014 1A60     		streq	r2, [r3]
 216              		.loc 1 85 0
 217 0016 2154     		strb	r1, [r4, r0]
 218              	.LBB46:
 219              	.LBB47:
 220              	.LBB48:
 221              	.LBB49:
 222              	.LBB50:
 223              		.file 3 "ChibiOS_3.0.2/os/ext/CMSIS/include/core_cmFunc.h"
 224              		.loc 3 546 0
 225 0018 2023     		movs	r3, #32
 226              	@ 546 "ChibiOS_3.0.2/os/ext/CMSIS/include/core_cmFunc.h" 1
 227 001a 83F31188 		MSR basepri, r3
 228              	@ 0 "" 2
ARM GAS  /tmp/cckoPygk.s 			page 5


 229              		.thumb
 230              	.LBE50:
 231              	.LBE49:
 232              	.LBE48:
 233              	.LBE47:
 234              	.LBE46:
 235              		.loc 1 92 0
 236 001e 064B     		ldr	r3, .L18+8
 237 0020 0121     		movs	r1, #1
 238              	.LVL10:
 239 0022 1868     		ldr	r0, [r3]
 240 0024 FFF7FEFF 		bl	chEvtSignalI
 241              	.LVL11:
 242              	.LBB51:
 243              	.LBB52:
 244              	.LBB53:
 245              	.LBB54:
 246              	.LBB55:
 247              		.loc 3 546 0
 248 0028 0023     		movs	r3, #0
 249              	@ 546 "ChibiOS_3.0.2/os/ext/CMSIS/include/core_cmFunc.h" 1
 250 002a 83F31188 		MSR basepri, r3
 251              	@ 0 "" 2
 252              		.thumb
 253 002e 10BD     		pop	{r4, pc}
 254              	.L19:
 255              		.align	2
 256              	.L18:
 257 0030 00000000 		.word	.LANCHOR3
 258 0034 00000000 		.word	.LANCHOR2
 259 0038 00000000 		.word	.LANCHOR0
 260              	.LBE55:
 261              	.LBE54:
 262              	.LBE53:
 263              	.LBE52:
 264              	.LBE51:
 265              		.cfi_endproc
 266              	.LFE259:
 267              		.size	rxchar, .-rxchar
 268              		.section	.text.process_packet,"ax",%progbits
 269              		.align	2
 270              		.p2align 4,,15
 271              		.thumb
 272              		.thumb_func
 273              		.type	process_packet, %function
 274              	process_packet:
 275              	.LFB261:
 276              		.loc 1 118 0
 277              		.cfi_startproc
 278              		@ args = 0, pretend = 0, frame = 0
 279              		@ frame_needed = 0, uses_anonymous_args = 0
 280              	.LVL12:
 281 0000 38B5     		push	{r3, r4, r5, lr}
 282              		.cfi_def_cfa_offset 16
 283              		.cfi_offset 3, -16
 284              		.cfi_offset 4, -12
 285              		.cfi_offset 5, -8
ARM GAS  /tmp/cckoPygk.s 			page 6


 286              		.cfi_offset 14, -4
 287              		.loc 1 118 0
 288 0002 0546     		mov	r5, r0
 289 0004 0C46     		mov	r4, r1
 290              		.loc 1 119 0
 291 0006 0448     		ldr	r0, .L22
 292              	.LVL13:
 293 0008 FFF7FEFF 		bl	commands_set_send_func
 294              	.LVL14:
 295              		.loc 1 120 0
 296 000c 2846     		mov	r0, r5
 297 000e 2146     		mov	r1, r4
 298              		.loc 1 121 0
 299 0010 BDE83840 		pop	{r3, r4, r5, lr}
 300              		.cfi_restore 14
 301              		.cfi_restore 5
 302              		.cfi_restore 4
 303              		.cfi_restore 3
 304              		.cfi_def_cfa_offset 0
 305              	.LVL15:
 306              		.loc 1 120 0
 307 0014 FFF7FEBF 		b	commands_process_packet
 308              	.LVL16:
 309              	.L23:
 310              		.align	2
 311              	.L22:
 312 0018 00000000 		.word	send_packet_wrapper
 313              		.cfi_endproc
 314              	.LFE261:
 315              		.size	process_packet, .-process_packet
 316              		.section	.text.send_packet_wrapper,"ax",%progbits
 317              		.align	2
 318              		.p2align 4,,15
 319              		.thumb
 320              		.thumb_func
 321              		.type	send_packet_wrapper, %function
 322              	send_packet_wrapper:
 323              	.LFB262:
 324              		.loc 1 123 0
 325              		.cfi_startproc
 326              		@ args = 0, pretend = 0, frame = 0
 327              		@ frame_needed = 0, uses_anonymous_args = 0
 328              		@ link register save eliminated.
 329              	.LVL17:
 330              		.loc 1 124 0
 331 0000 0122     		movs	r2, #1
 332 0002 FFF7FEBF 		b	packet_send_packet
 333              	.LVL18:
 334              		.cfi_endproc
 335              	.LFE262:
 336              		.size	send_packet_wrapper, .-send_packet_wrapper
 337 0006 00BF     		.section	.text.send_packet,"ax",%progbits
 338              		.align	2
 339              		.p2align 4,,15
 340              		.thumb
 341              		.thumb_func
 342              		.type	send_packet, %function
ARM GAS  /tmp/cckoPygk.s 			page 7


 343              	send_packet:
 344              	.LFB263:
 345              		.loc 1 127 0
 346              		.cfi_startproc
 347              		@ args = 0, pretend = 0, frame = 0
 348              		@ frame_needed = 0, uses_anonymous_args = 0
 349              	.LVL19:
 350 0000 70B5     		push	{r4, r5, r6, lr}
 351              		.cfi_def_cfa_offset 16
 352              		.cfi_offset 4, -16
 353              		.cfi_offset 5, -12
 354              		.cfi_offset 6, -8
 355              		.cfi_offset 14, -4
 356              		.loc 1 129 0
 357 0002 0C4C     		ldr	r4, .L32
 358 0004 6378     		ldrb	r3, [r4, #1]	@ zero_extendqisi2
 359 0006 012B     		cmp	r3, #1
 360              		.loc 1 127 0
 361 0008 0646     		mov	r6, r0
 362 000a 0D46     		mov	r5, r1
 363              		.loc 1 129 0
 364 000c 05D1     		bne	.L27
 365              	.LVL20:
 366              	.L26:
 367              		.loc 1 130 0
 368 000e 0120     		movs	r0, #1
 369 0010 FFF7FEFF 		bl	chThdSleep
 370              	.LVL21:
 371              		.loc 1 129 0
 372 0014 6378     		ldrb	r3, [r4, #1]	@ zero_extendqisi2
 373 0016 012B     		cmp	r3, #1
 374 0018 F9D0     		beq	.L26
 375              	.L27:
 376              		.loc 1 136 0
 377 001a 3146     		mov	r1, r6
 378 001c 2A46     		mov	r2, r5
 379 001e 0648     		ldr	r0, .L32+4
 380 0020 FFF7FEFF 		bl	memcpy
 381              	.LVL22:
 382              		.loc 1 138 0
 383 0024 2946     		mov	r1, r5
 384 0026 0348     		ldr	r0, .L32
 385 0028 034A     		ldr	r2, .L32+4
 386              		.loc 1 139 0
 387 002a BDE87040 		pop	{r4, r5, r6, lr}
 388              		.cfi_restore 14
 389              		.cfi_restore 6
 390              		.cfi_restore 5
 391              		.cfi_restore 4
 392              		.cfi_def_cfa_offset 0
 393              	.LVL23:
 394              		.loc 1 138 0
 395 002e FFF7FEBF 		b	uartStartSend
 396              	.LVL24:
 397              	.L33:
 398 0032 00BF     		.align	2
 399              	.L32:
ARM GAS  /tmp/cckoPygk.s 			page 8


 400 0034 00000000 		.word	UARTD6
 401 0038 00000000 		.word	.LANCHOR4
 402              		.cfi_endproc
 403              	.LFE263:
 404              		.size	send_packet, .-send_packet
 405              		.section	.text.app_uartcomm_start,"ax",%progbits
 406              		.align	2
 407              		.p2align 4,,15
 408              		.global	app_uartcomm_start
 409              		.thumb
 410              		.thumb_func
 411              		.type	app_uartcomm_start, %function
 412              	app_uartcomm_start:
 413              	.LFB264:
 414              		.loc 1 141 0
 415              		.cfi_startproc
 416              		@ args = 0, pretend = 0, frame = 0
 417              		@ frame_needed = 0, uses_anonymous_args = 0
 418 0000 30B5     		push	{r4, r5, lr}
 419              		.cfi_def_cfa_offset 12
 420              		.cfi_offset 4, -12
 421              		.cfi_offset 5, -8
 422              		.cfi_offset 14, -4
 423              		.loc 1 142 0
 424 0002 0122     		movs	r2, #1
 425              		.loc 1 141 0
 426 0004 83B0     		sub	sp, sp, #12
 427              		.cfi_def_cfa_offset 24
 428              		.loc 1 145 0
 429 0006 114C     		ldr	r4, .L36
 430              		.loc 1 142 0
 431 0008 1148     		ldr	r0, .L36+4
 432 000a 1249     		ldr	r1, .L36+8
 433 000c FFF7FEFF 		bl	packet_init
 434              	.LVL25:
 435              		.loc 1 144 0
 436 0010 1148     		ldr	r0, .L36+12
 437 0012 1249     		ldr	r1, .L36+16
 438 0014 FFF7FEFF 		bl	uartStart
 439              	.LVL26:
 440              		.loc 1 145 0
 441 0018 2046     		mov	r0, r4
 442 001a 4021     		movs	r1, #64
 443 001c 40F23A42 		movw	r2, #1082
 444 0020 FFF7FEFF 		bl	_pal_lld_setgroupmode
 445              	.LVL27:
 446              		.loc 1 148 0
 447 0024 2046     		mov	r0, r4
 448 0026 8021     		movs	r1, #128
 449 0028 40F23A42 		movw	r2, #1082
 450              		.loc 1 152 0
 451 002c 0C4C     		ldr	r4, .L36+20
 452              		.loc 1 148 0
 453 002e FFF7FEFF 		bl	_pal_lld_setgroupmode
 454              	.LVL28:
 455              		.loc 1 152 0
 456 0032 0125     		movs	r5, #1
ARM GAS  /tmp/cckoPygk.s 			page 9


 457              		.loc 1 154 0
 458 0034 0022     		movs	r2, #0
 459 0036 0092     		str	r2, [sp]
 460 0038 0A4B     		ldr	r3, .L36+24
 461              		.loc 1 152 0
 462 003a 2560     		str	r5, [r4]
 463              		.loc 1 154 0
 464 003c 41F29811 		movw	r1, #4504
 465 0040 4022     		movs	r2, #64
 466 0042 0948     		ldr	r0, .L36+28
 467 0044 FFF7FEFF 		bl	chThdCreateStatic
 468              	.LVL29:
 469              		.loc 1 155 0
 470 0048 03B0     		add	sp, sp, #12
 471              		.cfi_def_cfa_offset 12
 472              		@ sp needed
 473 004a 30BD     		pop	{r4, r5, pc}
 474              	.L37:
 475              		.align	2
 476              	.L36:
 477 004c 00080240 		.word	1073874944
 478 0050 00000000 		.word	send_packet
 479 0054 00000000 		.word	process_packet
 480 0058 00000000 		.word	UARTD6
 481 005c 00000000 		.word	.LANCHOR5
 482 0060 00000000 		.word	.LANCHOR6
 483 0064 00000000 		.word	packet_process_thread
 484 0068 00000000 		.word	.LANCHOR7
 485              		.cfi_endproc
 486              	.LFE264:
 487              		.size	app_uartcomm_start, .-app_uartcomm_start
 488              		.section	.text.app_uartcomm_configure,"ax",%progbits
 489              		.align	2
 490              		.p2align 4,,15
 491              		.global	app_uartcomm_configure
 492              		.thumb
 493              		.thumb_func
 494              		.type	app_uartcomm_configure, %function
 495              	app_uartcomm_configure:
 496              	.LFB265:
 497              		.loc 1 157 0
 498              		.cfi_startproc
 499              		@ args = 0, pretend = 0, frame = 0
 500              		@ frame_needed = 0, uses_anonymous_args = 0
 501              		@ link register save eliminated.
 502              	.LVL30:
 503              		.loc 1 160 0
 504 0000 044B     		ldr	r3, .L41
 505              		.loc 1 158 0
 506 0002 0549     		ldr	r1, .L41+4
 507              		.loc 1 160 0
 508 0004 1B68     		ldr	r3, [r3]
 509              		.loc 1 158 0
 510 0006 4861     		str	r0, [r1, #20]
 511              		.loc 1 160 0
 512 0008 03B9     		cbnz	r3, .L40
 513 000a 7047     		bx	lr
ARM GAS  /tmp/cckoPygk.s 			page 10


 514              	.L40:
 515              		.loc 1 161 0
 516 000c 0348     		ldr	r0, .L41+8
 517              	.LVL31:
 518 000e FFF7FEBF 		b	uartStart
 519              	.LVL32:
 520              	.L42:
 521 0012 00BF     		.align	2
 522              	.L41:
 523 0014 00000000 		.word	.LANCHOR6
 524 0018 00000000 		.word	.LANCHOR5
 525 001c 00000000 		.word	UARTD6
 526              		.cfi_endproc
 527              	.LFE265:
 528              		.size	app_uartcomm_configure, .-app_uartcomm_configure
 529              		.section	.bss.serial_rx_write_pos,"aw",%nobits
 530              		.align	2
 531              		.set	.LANCHOR3,. + 0
 532              		.type	serial_rx_write_pos, %object
 533              		.size	serial_rx_write_pos, 4
 534              	serial_rx_write_pos:
 535 0000 00000000 		.space	4
 536              		.section	.bss.is_running,"aw",%nobits
 537              		.align	2
 538              		.set	.LANCHOR6,. + 0
 539              		.type	is_running, %object
 540              		.size	is_running, 4
 541              	is_running:
 542 0000 00000000 		.space	4
 543              		.section	.data.uart_cfg,"aw",%progbits
 544              		.align	2
 545              		.set	.LANCHOR5,. + 0
 546              		.type	uart_cfg, %object
 547              		.size	uart_cfg, 32
 548              	uart_cfg:
 549 0000 00000000 		.word	txend1
 550 0004 00000000 		.word	txend2
 551 0008 00000000 		.word	rxend
 552 000c 00000000 		.word	rxchar
 553 0010 00000000 		.word	rxerr
 554 0014 00C20100 		.word	115200
 555 0018 0000     		.short	0
 556 001a 0040     		.short	16384
 557 001c 0000     		.short	0
 558 001e 0000     		.space	2
 559              		.section	.bss.packet_process_thread_wa,"aw",%nobits
 560              		.align	3
 561              		.set	.LANCHOR7,. + 0
 562              		.type	packet_process_thread_wa, %object
 563              		.size	packet_process_thread_wa, 4504
 564              	packet_process_thread_wa:
 565 0000 00000000 		.space	4504
 565      00000000 
 565      00000000 
 565      00000000 
 565      00000000 
 566              		.section	.bss.serial_rx_buffer,"aw",%nobits
ARM GAS  /tmp/cckoPygk.s 			page 11


 567              		.align	2
 568              		.set	.LANCHOR2,. + 0
 569              		.type	serial_rx_buffer, %object
 570              		.size	serial_rx_buffer, 1024
 571              	serial_rx_buffer:
 572 0000 00000000 		.space	1024
 572      00000000 
 572      00000000 
 572      00000000 
 572      00000000 
 573              		.section	.rodata.str1.4,"aMS",%progbits,1
 574              		.align	2
 575              	.LC0:
 576 0000 75617274 		.ascii	"uartcomm process\000"
 576      636F6D6D 
 576      2070726F 
 576      63657373 
 576      00
 577              		.section	.bss.serial_rx_read_pos,"aw",%nobits
 578              		.align	2
 579              		.set	.LANCHOR1,. + 0
 580              		.type	serial_rx_read_pos, %object
 581              		.size	serial_rx_read_pos, 4
 582              	serial_rx_read_pos:
 583 0000 00000000 		.space	4
 584              		.section	.bss.buffer.9390,"aw",%nobits
 585              		.align	2
 586              		.set	.LANCHOR4,. + 0
 587              		.type	buffer.9390, %object
 588              		.size	buffer.9390, 1029
 589              	buffer.9390:
 590 0000 00000000 		.space	1029
 590      00000000 
 590      00000000 
 590      00000000 
 590      00000000 
 591              		.section	.bss.process_tp,"aw",%nobits
 592              		.align	2
 593              		.set	.LANCHOR0,. + 0
 594              		.type	process_tp, %object
 595              		.size	process_tp, 4
 596              	process_tp:
 597 0000 00000000 		.space	4
 598              		.text
 599              	.Letext0:
 600              		.file 4 "/usr/arm-none-eabi/include/machine/_default_types.h"
 601              		.file 5 "/usr/arm-none-eabi/include/sys/_stdint.h"
 602              		.file 6 "/usr/lib/gcc/arm-none-eabi/4.9.3/include/stddef.h"
 603              		.file 7 "ChibiOS_3.0.2/os/rt/ports/ARMCMx/compilers/GCC/chtypes.h"
 604              		.file 8 "ChibiOS_3.0.2/os/rt/include/chsystypes.h"
 605              		.file 9 "ChibiOS_3.0.2/os/rt/include/chschd.h"
 606              		.file 10 "ChibiOS_3.0.2/os/ext/CMSIS/ST/stm32f407xx.h"
 607              		.file 11 "ChibiOS_3.0.2/os/rt/ports/ARMCMx/chcore.h"
 608              		.file 12 "ChibiOS_3.0.2/os/rt/ports/ARMCMx/chcore_v7m.h"
 609              		.file 13 "ChibiOS_3.0.2/os/rt/include/chtm.h"
 610              		.file 14 "ChibiOS_3.0.2/os/rt/include/chsem.h"
 611              		.file 15 "ChibiOS_3.0.2/os/rt/include/chmtx.h"
ARM GAS  /tmp/cckoPygk.s 			page 12


 612              		.file 16 "ChibiOS_3.0.2/os/rt/include/chthreads.h"
 613              		.file 17 "ChibiOS_3.0.2/os/hal/ports/STM32/STM32F4xx/stm32_dma.h"
 614              		.file 18 "ChibiOS_3.0.2/os/hal/ports/STM32/LLD/GPIOv2/pal_lld.h"
 615              		.file 19 "ChibiOS_3.0.2/os/hal/include/uart.h"
 616              		.file 20 "ChibiOS_3.0.2/os/hal/ports/STM32/LLD/USARTv1/uart_lld.h"
 617              		.file 21 "ChibiOS_3.0.2/os/rt/include/chsys.h"
 618              		.file 22 "ChibiOS_3.0.2/os/ext/CMSIS/include/core_cm4.h"
 619              		.file 23 "./packet.h"
 620              		.file 24 "ChibiOS_3.0.2/os/rt/include/chevents.h"
 621              		.file 25 "./commands.h"