ARM GAS  /tmp/cc6lVBV4.s 			page 1


   1              		.syntax unified
   2              		.cpu cortex-m4
   3              		.eabi_attribute 27, 1
   4              		.eabi_attribute 28, 1
   5              		.fpu fpv4-sp-d16
   6              		.eabi_attribute 20, 1
   7              		.eabi_attribute 21, 1
   8              		.eabi_attribute 23, 3
   9              		.eabi_attribute 24, 1
  10              		.eabi_attribute 25, 1
  11              		.eabi_attribute 26, 1
  12              		.eabi_attribute 30, 2
  13              		.eabi_attribute 34, 1
  14              		.eabi_attribute 18, 4
  15              		.thumb
  16              		.file	"app_adc.c"
  17              		.text
  18              	.Ltext0:
  19              		.cfi_sections	.debug_frame
  20              		.section	.text.adc_thread,"ax",%progbits
  21              		.align	2
  22              		.p2align 4,,15
  23              		.thumb
  24              		.thumb_func
  25              		.type	adc_thread, %function
  26              	adc_thread:
  27              	.LFB262:
  28              		.file 1 "applications/app_adc.c"
  29              		.loc 1 83 0
  30              		.cfi_startproc
  31              		@ args = 0, pretend = 0, frame = 24
  32              		@ frame_needed = 0, uses_anonymous_args = 0
  33              	.LVL0:
  34 0000 2DE9F04F 		push	{r4, r5, r6, r7, r8, r9, r10, fp, lr}
  35              		.cfi_def_cfa_offset 36
  36              		.cfi_offset 4, -36
  37              		.cfi_offset 5, -32
  38              		.cfi_offset 6, -28
  39              		.cfi_offset 7, -24
  40              		.cfi_offset 8, -20
  41              		.cfi_offset 9, -16
  42              		.cfi_offset 10, -12
  43              		.cfi_offset 11, -8
  44              		.cfi_offset 14, -4
  45              		.loc 1 89 0
  46 0004 C34B     		ldr	r3, .L213
  47              	.LBB50:
  48              	.LBB51:
  49              		.file 2 "ChibiOS_3.0.2/os/rt/include/chregistry.h"
  50              		.loc 2 135 0
  51 0006 DFF868A3 		ldr	r10, .L213+92
  52              	.LBE51:
  53              	.LBE50:
  54              		.loc 1 89 0
  55 000a 1B78     		ldrb	r3, [r3]	@ zero_extendqisi2
  56              	.LBB54:
  57              	.LBB52:
ARM GAS  /tmp/cc6lVBV4.s 			page 2


  58              		.loc 2 135 0
  59 000c DAF81820 		ldr	r2, [r10, #24]
  60 0010 C149     		ldr	r1, .L213+4
  61              	.LBE52:
  62              	.LBE54:
  63              		.loc 1 83 0
  64 0012 2DED088B 		fstmfdd	sp!, {d8, d9, d10, d11}
  65              		.cfi_def_cfa_offset 68
  66              		.cfi_offset 80, -68
  67              		.cfi_offset 81, -64
  68              		.cfi_offset 82, -60
  69              		.cfi_offset 83, -56
  70              		.cfi_offset 84, -52
  71              		.cfi_offset 85, -48
  72              		.cfi_offset 86, -44
  73              		.cfi_offset 87, -40
  74              	.LBB55:
  75              	.LBB53:
  76              		.loc 2 135 0
  77 0016 9161     		str	r1, [r2, #24]
  78              	.LBE53:
  79              	.LBE55:
  80              		.loc 1 83 0
  81 0018 87B0     		sub	sp, sp, #28
  82              		.cfi_def_cfa_offset 96
  83              		.loc 1 89 0
  84 001a 002B     		cmp	r3, #0
  85 001c 00F09F84 		beq	.L2
  86              		.loc 1 90 0
  87 0020 BE48     		ldr	r0, .L213+8
  88              	.LVL1:
  89 0022 4021     		movs	r1, #64
  90 0024 2022     		movs	r2, #32
  91 0026 FFF7FEFF 		bl	_pal_lld_setgroupmode
  92              	.LVL2:
  93              		.loc 1 91 0
  94 002a BC48     		ldr	r0, .L213+8
  95 002c 8021     		movs	r1, #128
  96 002e 2022     		movs	r2, #32
  97 0030 FFF7FEFF 		bl	_pal_lld_setgroupmode
  98              	.LVL3:
  99              	.L3:
 100 0034 BA4C     		ldr	r4, .L213+12
 101 0036 BB4E     		ldr	r6, .L213+16
 102 0038 DFF838B3 		ldr	fp, .L213+96
 103 003c DFF80483 		ldr	r8, .L213+48
 104              	.LBB56:
 105              		.loc 1 108 0
 106 0040 DFEDB99A 		flds	s19, .L213+20
 107              		.loc 1 113 0
 108 0044 9FEDB98A 		flds	s16, .L213+24
 109              	.LBB57:
 110              	.LBB58:
 111              	.LBB59:
 112              		.loc 1 386 0
 113 0048 DFEDB98A 		flds	s17, .L213+28
 114 004c 9FEDB99A 		flds	s18, .L213+32
ARM GAS  /tmp/cc6lVBV4.s 			page 3


 115              	.L4:
 116              	.LBE59:
 117              	.LBE58:
 118              	.LBE57:
 119              		.loc 1 98 0
 120 0050 A36A     		ldr	r3, [r4, #40]
 121 0052 42F21077 		movw	r7, #10000
 122 0056 B7FBF3F7 		udiv	r7, r7, r3
 123              	.LVL4:
 124              		.loc 1 102 0
 125 005a 002F     		cmp	r7, #0
 126 005c 08BF     		it	eq
 127 005e 0127     		moveq	r7, #1
 128              	.LVL5:
 129              		.loc 1 104 0
 130 0060 3846     		mov	r0, r7
 131 0062 FFF7FEFF 		bl	chThdSleep
 132              	.LVL6:
 133              		.loc 1 107 0
 134 0066 FFF7FEFF 		bl	mc_interface_get_fault
 135              	.LVL7:
 136 006a 08B1     		cbz	r0, .L6
 137              		.loc 1 108 0
 138 006c C6ED009A 		fsts	s19, [r6]
 139              	.L6:
 140              		.loc 1 112 0
 141 0070 BBF81430 		ldrh	r3, [fp, #20]
 142              		.loc 1 114 0
 143 0074 9FEDB07A 		flds	s14, .L213+36
 144              		.loc 1 112 0
 145 0078 9BB2     		uxth	r3, r3
 146 007a 07EE903A 		fmsr	s15, r3	@ int
 147 007e B8EE670A 		fuitos	s0, s15
 148              		.loc 1 116 0
 149 0082 AE4B     		ldr	r3, .L213+40
 150              		.loc 1 113 0
 151 0084 80EE080A 		fdivs	s0, s0, s16
 152              		.loc 1 114 0
 153 0088 20EE070A 		fmuls	s0, s0, s14
 154              		.loc 1 116 0
 155 008c 83ED000A 		fsts	s0, [r3]
 156              		.loc 1 119 0
 157 0090 237C     		ldrb	r3, [r4, #16]	@ zero_extendqisi2
 158              		.loc 1 114 0
 159 0092 8DED040A 		fsts	s0, [sp, #16]
 160              		.loc 1 119 0
 161 0096 03B3     		cbz	r3, .L7
 162              	.LBB68:
 163              		.loc 1 123 0
 164 0098 D8F80030 		ldr	r3, [r8]
 165 009c A848     		ldr	r0, .L213+44
 166 009e A949     		ldr	r1, .L213+48
 167              	.LBE68:
 168              		.loc 1 102 0
 169 00a0 DFEDA17A 		flds	s15, .L213+20
 170              	.LBB70:
 171              		.loc 1 123 0
ARM GAS  /tmp/cc6lVBV4.s 			page 4


 172 00a4 5A1C     		adds	r2, r3, #1
 173              		.loc 1 124 0
 174 00a6 042A     		cmp	r2, #4
 175              		.loc 1 123 0
 176 00a8 00EB8303 		add	r3, r0, r3, lsl #2
 177 00ac 83ED000A 		fsts	s0, [r3]
 178              		.loc 1 125 0
 179 00b0 C8BF     		it	gt
 180 00b2 0023     		movgt	r3, #0
 181              		.loc 1 123 0
 182 00b4 C8F80020 		str	r2, [r8]
 183              		.loc 1 125 0
 184 00b8 C8BF     		it	gt
 185 00ba 0B60     		strgt	r3, [r1]
 186              	.LVL8:
 187 00bc A04B     		ldr	r3, .L213+44
 188 00be 03F11402 		add	r2, r3, #20
 189              	.LVL9:
 190              	.L9:
 191              	.LBB69:
 192              		.loc 1 130 0 discriminator 3
 193 00c2 B3EC017A 		fldmias	r3!, {s14}
 194              		.loc 1 129 0 discriminator 3
 195 00c6 9342     		cmp	r3, r2
 196              		.loc 1 130 0 discriminator 3
 197 00c8 77EE877A 		fadds	s15, s15, s14
 198              		.loc 1 129 0 discriminator 3
 199 00cc F9D1     		bne	.L9
 200              	.LBE69:
 201              		.loc 1 132 0
 202 00ce B1EE040A 		fconsts	s0, #20
 203 00d2 87EE800A 		fdivs	s0, s15, s0
 204 00d6 8DED040A 		fsts	s0, [sp, #16]
 205              	.L7:
 206              	.LBE70:
 207              		.loc 1 136 0
 208 00da D4ED020A 		flds	s1, [r4, #8]
 209 00de DFED921A 		flds	s3, .L213+20
 210 00e2 94ED031A 		flds	s2, [r4, #12]
 211 00e6 B7EE002A 		fconsts	s4, #112
 212 00ea FFF7FEFF 		bl	utils_map
 213              	.LVL10:
 214              		.loc 1 137 0
 215 00ee 04A8     		add	r0, sp, #16
 216              		.loc 1 136 0
 217 00f0 8DED040A 		fsts	s0, [sp, #16]
 218              		.loc 1 137 0
 219 00f4 F7EE000A 		fconsts	s1, #112
 220 00f8 9FED8B0A 		flds	s0, .L213+20
 221 00fc FFF7FEFF 		bl	utils_truncate_number
 222              	.LVL11:
 223              		.loc 1 140 0
 224 0100 237D     		ldrb	r3, [r4, #20]	@ zero_extendqisi2
 225              		.loc 1 141 0
 226 0102 DDED047A 		flds	s15, [sp, #16]
 227              		.loc 1 140 0
 228 0106 2BB1     		cbz	r3, .L11
ARM GAS  /tmp/cc6lVBV4.s 			page 5


 229              		.loc 1 141 0
 230 0108 B7EE007A 		fconsts	s14, #112
 231 010c 77EE677A 		fsubs	s15, s14, s15
 232 0110 CDED047A 		fsts	s15, [sp, #16]
 233              	.L11:
 234              		.loc 1 144 0
 235 0114 8C4B     		ldr	r3, .L213+52
 236              		.loc 1 150 0
 237 0116 9FED887A 		flds	s14, .L213+36
 238              		.loc 1 144 0
 239 011a C3ED007A 		fsts	s15, [r3]
 240              		.loc 1 148 0
 241 011e BBF80E30 		ldrh	r3, [fp, #14]
 242 0122 9BB2     		uxth	r3, r3
 243 0124 07EE903A 		fmsr	s15, r3	@ int
 244 0128 B8EE670A 		fuitos	s0, s15
 245              		.loc 1 155 0
 246 012c 874B     		ldr	r3, .L213+56
 247              		.loc 1 149 0
 248 012e 80EE080A 		fdivs	s0, s0, s16
 249              		.loc 1 150 0
 250 0132 20EE070A 		fmuls	s0, s0, s14
 251              		.loc 1 155 0
 252 0136 83ED000A 		fsts	s0, [r3]
 253              		.loc 1 158 0
 254 013a 237C     		ldrb	r3, [r4, #16]	@ zero_extendqisi2
 255              		.loc 1 150 0
 256 013c 8DED050A 		fsts	s0, [sp, #20]
 257              		.loc 1 158 0
 258 0140 FBB1     		cbz	r3, .L12
 259              	.LBB71:
 260              		.loc 1 162 0
 261 0142 834B     		ldr	r3, .L213+60
 262 0144 8348     		ldr	r0, .L213+64
 263 0146 1B68     		ldr	r3, [r3]
 264 0148 8149     		ldr	r1, .L213+60
 265              	.LBE71:
 266              		.loc 1 102 0
 267 014a DFED777A 		flds	s15, .L213+20
 268              	.LBB73:
 269              		.loc 1 162 0
 270 014e 5A1C     		adds	r2, r3, #1
 271              		.loc 1 163 0
 272 0150 042A     		cmp	r2, #4
 273              		.loc 1 162 0
 274 0152 00EB8303 		add	r3, r0, r3, lsl #2
 275 0156 83ED000A 		fsts	s0, [r3]
 276              		.loc 1 164 0
 277 015a C8BF     		it	gt
 278 015c 0023     		movgt	r3, #0
 279              		.loc 1 162 0
 280 015e 0A60     		str	r2, [r1]
 281              		.loc 1 164 0
 282 0160 C8BF     		it	gt
 283 0162 0B60     		strgt	r3, [r1]
 284              	.LVL12:
 285 0164 7B4B     		ldr	r3, .L213+64
ARM GAS  /tmp/cc6lVBV4.s 			page 6


 286 0166 03F11402 		add	r2, r3, #20
 287              	.LVL13:
 288              	.L14:
 289              	.LBB72:
 290              		.loc 1 169 0 discriminator 3
 291 016a B3EC017A 		fldmias	r3!, {s14}
 292              		.loc 1 168 0 discriminator 3
 293 016e 9342     		cmp	r3, r2
 294              		.loc 1 169 0 discriminator 3
 295 0170 77EE877A 		fadds	s15, s15, s14
 296              		.loc 1 168 0 discriminator 3
 297 0174 F9D1     		bne	.L14
 298              	.LBE72:
 299              		.loc 1 171 0
 300 0176 B1EE040A 		fconsts	s0, #20
 301 017a 87EE800A 		fdivs	s0, s15, s0
 302 017e 8DED050A 		fsts	s0, [sp, #20]
 303              	.L12:
 304              	.LBE73:
 305              		.loc 1 175 0
 306 0182 D4ED020A 		flds	s1, [r4, #8]
 307 0186 DFED681A 		flds	s3, .L213+20
 308 018a 94ED031A 		flds	s2, [r4, #12]
 309 018e B7EE002A 		fconsts	s4, #112
 310 0192 FFF7FEFF 		bl	utils_map
 311              	.LVL14:
 312              		.loc 1 176 0
 313 0196 05A8     		add	r0, sp, #20
 314              		.loc 1 175 0
 315 0198 8DED050A 		fsts	s0, [sp, #20]
 316              		.loc 1 176 0
 317 019c F7EE000A 		fconsts	s1, #112
 318 01a0 9FED610A 		flds	s0, .L213+20
 319 01a4 FFF7FEFF 		bl	utils_truncate_number
 320              	.LVL15:
 321              		.loc 1 179 0
 322 01a8 237D     		ldrb	r3, [r4, #20]	@ zero_extendqisi2
 323              		.loc 1 180 0
 324 01aa DDED057A 		flds	s15, [sp, #20]
 325              		.loc 1 179 0
 326 01ae 2BB1     		cbz	r3, .L16
 327              		.loc 1 180 0
 328 01b0 B7EE007A 		fconsts	s14, #112
 329 01b4 77EE677A 		fsubs	s15, s14, s15
 330 01b8 CDED057A 		fsts	s15, [sp, #20]
 331              	.L16:
 332              		.loc 1 183 0
 333 01bc 664B     		ldr	r3, .L213+68
 334 01be C3ED007A 		fsts	s15, [r3]
 335              	.LVL16:
 336              		.loc 1 189 0
 337 01c2 544B     		ldr	r3, .L213
 338 01c4 1B78     		ldrb	r3, [r3]	@ zero_extendqisi2
 339 01c6 03F0FF02 		and	r2, r3, #255
 340 01ca 002B     		cmp	r3, #0
 341 01cc 00F0D480 		beq	.L17
 342              		.loc 1 190 0
ARM GAS  /tmp/cc6lVBV4.s 			page 7


 343 01d0 524B     		ldr	r3, .L213+8
 344 01d2 1D69     		ldr	r5, [r3, #16]
 345              		.loc 1 191 0
 346 01d4 A37C     		ldrb	r3, [r4, #18]	@ zero_extendqisi2
 347              		.loc 1 190 0
 348 01d6 C5F38015 		ubfx	r5, r5, #6, #1
 349 01da 85F00105 		eor	r5, r5, #1
 350              	.LVL17:
 351              		.loc 1 191 0
 352 01de 0BB1     		cbz	r3, .L18
 353              		.loc 1 192 0
 354 01e0 85F00105 		eor	r5, r5, #1
 355              	.LVL18:
 356              	.L18:
 357              		.loc 1 194 0
 358 01e4 4D4B     		ldr	r3, .L213+8
 359 01e6 1A69     		ldr	r2, [r3, #16]
 360              		.loc 1 195 0
 361 01e8 E37C     		ldrb	r3, [r4, #19]	@ zero_extendqisi2
 362              		.loc 1 194 0
 363 01ea C2F3C012 		ubfx	r2, r2, #7, #1
 364 01ee 82F00102 		eor	r2, r2, #1
 365              	.LVL19:
 366              		.loc 1 195 0
 367 01f2 0BB1     		cbz	r3, .L19
 368              		.loc 1 196 0
 369 01f4 82F00102 		eor	r2, r2, #1
 370              	.LVL20:
 371              	.L19:
 372              		.loc 1 215 0
 373 01f8 2378     		ldrb	r3, [r4]	@ zero_extendqisi2
 374 01fa 023B     		subs	r3, r3, #2
 375 01fc DBB2     		uxtb	r3, r3
 376 01fe 072B     		cmp	r3, #7
 377 0200 17D8     		bhi	.L22
 378 0202 0121     		movs	r1, #1
 379 0204 01FA03F3 		lsl	r3, r1, r3
 380 0208 13F08A0F 		tst	r3, #138
 381 020c 40F04581 		bne	.L23
 382 0210 13F0450F 		tst	r3, #69
 383 0214 40F07782 		bne	.L24
 384 0218 DA06     		lsls	r2, r3, #27
 385              	.LVL21:
 386 021a 0AD5     		bpl	.L22
 387              		.loc 1 225 0
 388 021c 9FED4F7A 		flds	s14, .L213+72
 389 0220 F4EEC77A 		fcmpes	s15, s14
 390 0224 F1EE10FA 		fmstat
 391 0228 03DD     		ble	.L22
 392              	.L204:
 393              		.loc 1 236 0
 394 022a F1EE677A 		fnegs	s15, s15
 395 022e CDED047A 		fsts	s15, [sp, #16]
 396              	.L22:
 397              		.loc 1 245 0
 398 0232 94ED010A 		flds	s0, [r4, #4]
 399 0236 04A8     		add	r0, sp, #16
ARM GAS  /tmp/cc6lVBV4.s 			page 8


 400 0238 F7EE000A 		fconsts	s1, #112
 401 023c FFF7FEFF 		bl	utils_deadband
 402              	.LVL22:
 403              		.loc 1 250 0
 404 0240 FFF7FEFF 		bl	mc_interface_get_configuration
 405              	.LVL23:
 406              		.loc 1 254 0
 407 0244 2378     		ldrb	r3, [r4]	@ zero_extendqisi2
 408              		.loc 1 250 0
 409 0246 0190     		str	r0, [sp, #4]
 410              	.LVL24:
 411 0248 013B     		subs	r3, r3, #1
 412 024a DBB2     		uxtb	r3, r3
 413 024c 082B     		cmp	r3, #8
 414 024e 3FF6FFAE 		bhi	.L4
 415 0252 0122     		movs	r2, #1
 416 0254 02FA03F3 		lsl	r3, r2, r3
 417 0258 13F4E071 		ands	r1, r3, #448
 418 025c 40F02381 		bne	.L28
 419 0260 13F0380F 		tst	r3, #56
 420 0264 40F05A82 		bne	.L29
 421 0268 5B07     		lsls	r3, r3, #29
 422 026a 3FF4F1AE 		beq	.L4
 423              	.LVL25:
 424              		.loc 1 259 0
 425 026e DDED047A 		flds	s15, [sp, #16]
 426 0272 F5EEC07A 		fcmpezs	s15
 427 0276 F1EE10FA 		fmstat
 428 027a C0F24F83 		blt	.L197
 429              		.loc 1 260 0
 430 027e 90ED01AA 		flds	s20, [r0, #4]
 431 0282 27EE8AAA 		fmuls	s20, s15, s20
 432              	.LVL26:
 433              	.L32:
 434              		.loc 1 265 0
 435 0286 9FED367A 		flds	s14, .L213+76
 436 028a F0EEE77A 		fabss	s15, s15
 437 028e F4EEC77A 		fcmpes	s15, s14
 438 0292 F1EE10FA 		fmstat
 439 0296 40F13083 		bpl	.L198
 440              		.loc 1 266 0
 441 029a 07EE907A 		fmsr	s15, r7	@ int
 442 029e 9FED317A 		flds	s14, .L213+80
 443 02a2 F8EEE76A 		fsitos	s13, s15
 444 02a6 D6ED007A 		flds	s15, [r6]
 445 02aa 26EE877A 		fmuls	s14, s13, s14
 446              		.loc 1 251 0
 447 02ae 0027     		movs	r7, #0
 448              	.LVL27:
 449              		.loc 1 266 0
 450 02b0 87EE287A 		fdivs	s14, s14, s17
 451              		.loc 1 249 0
 452 02b4 0397     		str	r7, [sp, #12]
 453              		.loc 1 258 0
 454 02b6 4FF00109 		mov	r9, #1
 455              		.loc 1 266 0
 456 02ba 77EE277A 		fadds	s15, s14, s15
ARM GAS  /tmp/cc6lVBV4.s 			page 9


 457 02be C6ED007A 		fsts	s15, [r6]
 458              	.LVL28:
 459              	.L33:
 460              		.loc 1 304 0
 461 02c2 96ED007A 		flds	s14, [r6]
 462 02c6 DFED287A 		flds	s15, .L213+84
 463 02ca 164B     		ldr	r3, .L213+16
 464 02cc B4EEE77A 		fcmpes	s14, s15
 465 02d0 F1EE10FA 		fmstat
 466 02d4 79D5     		bpl	.L43
 467              		.loc 1 304 0 is_stmt 0 discriminator 1
 468 02d6 627C     		ldrb	r2, [r4, #17]	@ zero_extendqisi2
 469 02d8 002A     		cmp	r2, #0
 470 02da 76D0     		beq	.L43
 471              	.LBB74:
 472              		.loc 1 306 0 is_stmt 1
 473 02dc 234A     		ldr	r2, .L213+88
 474 02de 93ED007A 		flds	s14, [r3]
 475 02e2 1268     		ldr	r2, [r2]
 476 02e4 0192     		str	r2, [sp, #4]
 477              	.LVL29:
 478 02e6 07EE902A 		fmsr	s15, r2	@ int
 479 02ea F8EEE77A 		fsitos	s15, s15
 480 02ee F4EE477A 		fcmps	s15, s14
 481 02f2 F1EE10FA 		fmstat
 482              		.loc 1 307 0
 483 02f6 08BF     		it	eq
 484 02f8 C3ED009A 		fstseq	s19, [r3]
 485              		.loc 1 309 0
 486 02fc D6ED007A 		flds	s15, [r6]
 487 0300 1A4B     		ldr	r3, .L213+88
 488 0302 FDEEE77A 		ftosizs	s15, s15
 489 0306 C3ED007A 		fsts	s15, [r3]	@ int
 490              		.loc 1 310 0
 491 030a FFF7FEFF 		bl	timeout_get_brake_current
 492              	.LVL30:
 493 030e FFF7FEFF 		bl	mc_interface_set_brake_current
 494              	.LVL31:
 495              		.loc 1 311 0
 496 0312 9DE6     		b	.L4
 497              	.L214:
 498              		.align	2
 499              	.L213:
 500 0314 00000000 		.word	.LANCHOR0
 501 0318 00000000 		.word	.LC0
 502 031c 00080240 		.word	1073874944
 503 0320 00000000 		.word	.LANCHOR1
 504 0324 00000000 		.word	.LANCHOR2
 505 0328 00000000 		.word	0
 506 032c 00F07F45 		.word	1166012416
 507 0330 00401C46 		.word	1176256512
 508 0334 CDCCCC3D 		.word	1036831949
 509 0338 33335340 		.word	1079194419
 510 033c 00000000 		.word	.LANCHOR3
 511 0340 00000000 		.word	.LANCHOR5
 512 0344 00000000 		.word	.LANCHOR4
 513 0348 00000000 		.word	.LANCHOR6
ARM GAS  /tmp/cc6lVBV4.s 			page 10


 514 034c 00000000 		.word	.LANCHOR7
 515 0350 00000000 		.word	.LANCHOR8
 516 0354 00000000 		.word	.LANCHOR9
 517 0358 00000000 		.word	.LANCHOR10
 518 035c 0AD7233C 		.word	1008981770
 519 0360 6F12833A 		.word	981668463
 520 0364 00007A44 		.word	1148846080
 521 0368 0000FA43 		.word	1140457472
 522 036c 00000000 		.word	.LANCHOR11
 523 0370 00000000 		.word	ch
 524 0374 00000000 		.word	ADC_Value
 525              	.LVL32:
 526              	.L17:
 527              	.LBE74:
 528              		.loc 1 200 0
 529 0378 2178     		ldrb	r1, [r4]	@ zero_extendqisi2
 530 037a CC4B     		ldr	r3, .L215
 531 037c 0329     		cmp	r1, #3
 532 037e 14D0     		beq	.L20
 533              		.loc 1 201 0 discriminator 1
 534 0380 1978     		ldrb	r1, [r3]	@ zero_extendqisi2
 535              		.loc 1 200 0 discriminator 1
 536 0382 0529     		cmp	r1, #5
 537 0384 11D0     		beq	.L20
 538              		.loc 1 202 0
 539 0386 1978     		ldrb	r1, [r3]	@ zero_extendqisi2
 540              		.loc 1 201 0
 541 0388 0929     		cmp	r1, #9
 542 038a 0ED0     		beq	.L20
 543              		.loc 1 208 0
 544 038c C849     		ldr	r1, .L215+4
 545 038e 0D69     		ldr	r5, [r1, #16]
 546              		.loc 1 209 0
 547 0390 9B7C     		ldrb	r3, [r3, #18]	@ zero_extendqisi2
 548              		.loc 1 208 0
 549 0392 C5F34015 		ubfx	r5, r5, #5, #1
 550 0396 85F00105 		eor	r5, r5, #1
 551              	.LVL33:
 552              		.loc 1 209 0
 553 039a 03F0FF01 		and	r1, r3, #255
 554 039e 002B     		cmp	r3, #0
 555 03a0 00F0E581 		beq	.L105
 556              		.loc 1 210 0
 557 03a4 85F00105 		eor	r5, r5, #1
 558              	.LVL34:
 559 03a8 26E7     		b	.L19
 560              	.LVL35:
 561              	.L20:
 562              		.loc 1 203 0
 563 03aa C14B     		ldr	r3, .L215+4
 564 03ac 1A69     		ldr	r2, [r3, #16]
 565              		.loc 1 204 0
 566 03ae E37C     		ldrb	r3, [r4, #19]	@ zero_extendqisi2
 567              		.loc 1 203 0
 568 03b0 C2F34012 		ubfx	r2, r2, #5, #1
 569 03b4 82F00102 		eor	r2, r2, #1
 570              	.LVL36:
ARM GAS  /tmp/cc6lVBV4.s 			page 11


 571              		.loc 1 204 0
 572 03b8 03F0FF05 		and	r5, r3, #255
 573 03bc 002B     		cmp	r3, #0
 574 03be 3FF41BAF 		beq	.L19
 575              		.loc 1 205 0
 576 03c2 82F00102 		eor	r2, r2, #1
 577              	.LVL37:
 578              		.loc 1 187 0
 579 03c6 0025     		movs	r5, #0
 580 03c8 16E7     		b	.L19
 581              	.LVL38:
 582              	.L43:
 583              		.loc 1 315 0
 584 03ca FFF7FEFF 		bl	timeout_reset
 585              	.LVL39:
 586              		.loc 1 323 0
 587 03ce B94B     		ldr	r3, .L215+8
 588 03d0 1B68     		ldr	r3, [r3]
 589 03d2 0293     		str	r3, [sp, #8]
 590 03d4 5A1C     		adds	r2, r3, #1
 591 03d6 B74B     		ldr	r3, .L215+8
 592 03d8 1A60     		str	r2, [r3]
 593 03da FFF7FEFF 		bl	mc_interface_get_rpm
 594              	.LVL40:
 595              		.loc 1 324 0
 596 03de B54B     		ldr	r3, .L215+8
 597              		.loc 1 323 0
 598 03e0 B549     		ldr	r1, .L215+12
 599              		.loc 1 324 0
 600 03e2 1A68     		ldr	r2, [r3]
 601              		.loc 1 323 0
 602 03e4 029B     		ldr	r3, [sp, #8]
 603              		.loc 1 324 0
 604 03e6 072A     		cmp	r2, #7
 605              		.loc 1 323 0
 606 03e8 01EB8303 		add	r3, r1, r3, lsl #2
 607 03ec 83ED000A 		fsts	s0, [r3]
 608              		.loc 1 324 0
 609 03f0 02DD     		ble	.L47
 610              		.loc 1 325 0
 611 03f2 B04A     		ldr	r2, .L215+8
 612 03f4 0023     		movs	r3, #0
 613 03f6 1360     		str	r3, [r2]
 614              	.L47:
 615              	.LVL41:
 616 03f8 AF4B     		ldr	r3, .L215+12
 617              		.loc 1 328 0
 618 03fa DFEDB67A 		flds	s15, .L215+40
 619 03fe 03F12002 		add	r2, r3, #32
 620              	.LVL42:
 621              	.L48:
 622              	.LBB75:
 623              		.loc 1 330 0 discriminator 3
 624 0402 B3EC017A 		fldmias	r3!, {s14}
 625              		.loc 1 329 0 discriminator 3
 626 0406 9342     		cmp	r3, r2
 627              		.loc 1 330 0 discriminator 3
ARM GAS  /tmp/cc6lVBV4.s 			page 12


 628 0408 77EE877A 		fadds	s15, s15, s14
 629              	.LVL43:
 630              		.loc 1 329 0 discriminator 3
 631 040c F9D1     		bne	.L48
 632              	.LVL44:
 633              	.LBE75:
 634              		.loc 1 334 0
 635 040e B9F1000F 		cmp	r9, #0
 636 0412 77D0     		beq	.L49
 637              		.loc 1 334 0 is_stmt 0 discriminator 1
 638 0414 002D     		cmp	r5, #0
 639 0416 75D0     		beq	.L49
 640              		.loc 1 334 0 discriminator 2
 641 0418 9DED047A 		flds	s14, [sp, #16]
 642 041c DFEDAB6A 		flds	s13, .L215+32
 643 0420 B0EEC77A 		fabss	s14, s14
 644 0424 B4EEE67A 		fcmpes	s14, s13
 645 0428 F1EE10FA 		fmstat
 646 042c 6AD5     		bpl	.L49
 647              	.LBB76:
 648              		.loc 1 337 0 is_stmt 1
 649 042e A34B     		ldr	r3, .L215+16
 650 0430 A24A     		ldr	r2, .L215+16
 651 0432 1B78     		ldrb	r3, [r3]	@ zero_extendqisi2
 652 0434 002B     		cmp	r3, #0
 653 0436 00F06582 		beq	.L51
 654 043a A14B     		ldr	r3, .L215+20
 655 043c 93ED000A 		flds	s0, [r3]
 656              	.LVL45:
 657              	.L52:
 658              		.loc 1 342 0
 659 0440 FFF7FEFF 		bl	mc_interface_set_pid_speed
 660              	.LVL46:
 661              		.loc 1 345 0
 662 0444 94F82030 		ldrb	r3, [r4, #32]	@ zero_extendqisi2
 663 0448 002B     		cmp	r3, #0
 664 044a 3FF401AE 		beq	.L4
 665              	.LBB77:
 666              		.loc 1 346 0
 667 044e FFF7FEFF 		bl	mc_interface_get_duty_cycle_now
 668              	.LVL47:
 669              	.LBB78:
 670              		.loc 1 348 0
 671 0452 0025     		movs	r5, #0
 672              	.LVL48:
 673              	.LBE78:
 674              		.loc 1 346 0
 675 0454 B0EE40AA 		fcpys	s20, s0
 676              	.LVL49:
 677 0458 02E0     		b	.L55
 678              	.LVL50:
 679              	.L53:
 680              	.LBB85:
 681              		.loc 1 348 0 discriminator 2
 682 045a 0A2D     		cmp	r5, #10
 683 045c 3FF4F8AD 		beq	.L4
 684              	.LVL51:
ARM GAS  /tmp/cc6lVBV4.s 			page 13


 685              	.L55:
 686              	.LBB79:
 687              		.loc 1 349 0
 688 0460 2846     		mov	r0, r5
 689 0462 FFF7FEFF 		bl	comm_can_get_status_msg_index
 690              	.LVL52:
 691              		.loc 1 351 0
 692 0466 0268     		ldr	r2, [r0]
 693 0468 002A     		cmp	r2, #0
 694              	.LBE79:
 695              		.loc 1 348 0
 696 046a 05F10105 		add	r5, r5, #1
 697              	.LVL53:
 698              	.LBB84:
 699              		.loc 1 351 0
 700 046e F4DB     		blt	.L53
 701              	.LBB80:
 702              	.LBB81:
 703              		.file 3 "ChibiOS_3.0.2/os/rt/include/chvt.h"
 704              		.loc 3 267 0 discriminator 1
 705 0470 4168     		ldr	r1, [r0, #4]
 706              	.LBB82:
 707              	.LBB83:
 708              		.loc 3 231 0 discriminator 1
 709 0472 DAF82830 		ldr	r3, [r10, #40]
 710              	.LBE83:
 711              	.LBE82:
 712              		.loc 3 267 0 discriminator 1
 713 0476 5B1A     		subs	r3, r3, r1
 714 0478 07EE903A 		fmsr	s15, r3	@ int
 715              	.LBE81:
 716              	.LBE80:
 717              		.loc 1 351 0 discriminator 1
 718 047c F8EE677A 		fuitos	s15, s15
 719 0480 C7EEA87A 		fdivs	s15, s15, s17
 720 0484 F4EEC97A 		fcmpes	s15, s18
 721 0488 F1EE10FA 		fmstat
 722 048c E5D5     		bpl	.L53
 723              		.loc 1 352 0
 724 048e D0B2     		uxtb	r0, r2
 725              	.LVL54:
 726 0490 B0EE4A0A 		fcpys	s0, s20
 727 0494 FFF7FEFF 		bl	comm_can_set_duty
 728              	.LVL55:
 729 0498 DFE7     		b	.L53
 730              	.LVL56:
 731              	.L23:
 732              	.LBE84:
 733              	.LBE85:
 734              	.LBE77:
 735              	.LBE76:
 736              		.loc 1 235 0
 737 049a 002A     		cmp	r2, #0
 738 049c 3FF4C9AE 		beq	.L22
 739              		.loc 1 236 0
 740 04a0 DDED047A 		flds	s15, [sp, #16]
 741 04a4 C1E6     		b	.L204
ARM GAS  /tmp/cc6lVBV4.s 			page 14


 742              	.LVL57:
 743              	.L28:
 744              		.loc 1 289 0
 745 04a6 9DED040A 		flds	s0, [sp, #16]
 746 04aa DFED887A 		flds	s15, .L215+32
 747 04ae B0EEC07A 		fabss	s14, s0
 748 04b2 B4EEE77A 		fcmpes	s14, s15
 749 04b6 F1EE10FA 		fmstat
 750 04ba 0FD5     		bpl	.L39
 751              		.loc 1 290 0
 752 04bc 07EE907A 		fmsr	s15, r7	@ int
 753 04c0 F8EEE76A 		fsitos	s13, s15
 754 04c4 DFED827A 		flds	s15, .L215+36
 755 04c8 96ED007A 		flds	s14, [r6]
 756 04cc 66EEA77A 		fmuls	s15, s13, s15
 757 04d0 C7EEA87A 		fdivs	s15, s15, s17
 758 04d4 77EE877A 		fadds	s15, s15, s14
 759 04d8 C6ED007A 		fsts	s15, [r6]
 760              	.L39:
 761              		.loc 1 293 0
 762 04dc 96ED007A 		flds	s14, [r6]
 763 04e0 DFED787A 		flds	s15, .L215+24
 764 04e4 B4EEE77A 		fcmpes	s14, s15
 765 04e8 F1EE10FA 		fmstat
 766 04ec 40F1F480 		bpl	.L41
 767              		.loc 1 293 0 is_stmt 0 discriminator 1
 768 04f0 637C     		ldrb	r3, [r4, #17]	@ zero_extendqisi2
 769 04f2 002B     		cmp	r3, #0
 770 04f4 00F0F080 		beq	.L41
 771              		.loc 1 251 0 is_stmt 1
 772 04f8 0027     		movs	r7, #0
 773              	.LVL58:
 774              		.loc 1 247 0
 775 04fa 9FED76AA 		flds	s20, .L215+40
 776              		.loc 1 249 0
 777 04fe 0397     		str	r7, [sp, #12]
 778              		.loc 1 248 0
 779 0500 B946     		mov	r9, r7
 780 0502 DEE6     		b	.L33
 781              	.LVL59:
 782              	.L49:
 783              		.loc 1 360 0
 784 0504 6D4B     		ldr	r3, .L215+16
 785 0506 0025     		movs	r5, #0
 786              	.LVL60:
 787 0508 1D70     		strb	r5, [r3]
 788              		.loc 1 363 0
 789 050a FFF7FEFF 		bl	mc_interface_get_rpm
 790              	.LVL61:
 791              		.loc 1 365 0
 792 050e 94F82030 		ldrb	r3, [r4, #32]	@ zero_extendqisi2
 793              		.loc 1 363 0
 794 0512 B0EE40BA 		fcpys	s22, s0
 795              	.LVL62:
 796 0516 F0EE40AA 		fcpys	s21, s0
 797              		.loc 1 365 0
 798 051a 2BB3     		cbz	r3, .L56
ARM GAS  /tmp/cc6lVBV4.s 			page 15


 799              	.LVL63:
 800              	.L60:
 801              	.LBB86:
 802              	.LBB87:
 803              		.loc 1 367 0
 804 051c 2846     		mov	r0, r5
 805 051e FFF7FEFF 		bl	comm_can_get_status_msg_index
 806              	.LVL64:
 807              		.loc 1 369 0
 808 0522 0368     		ldr	r3, [r0]
 809 0524 002B     		cmp	r3, #0
 810              	.LBE87:
 811              		.loc 1 366 0
 812 0526 05F10105 		add	r5, r5, #1
 813              	.LVL65:
 814              	.LBB94:
 815              		.loc 1 369 0
 816 052a 1BDB     		blt	.L57
 817              	.LBB88:
 818              	.LBB89:
 819              	.LBB90:
 820              	.LBB91:
 821              		.loc 3 231 0 discriminator 1
 822 052c DAF82830 		ldr	r3, [r10, #40]
 823              	.LBE91:
 824              	.LBE90:
 825              		.loc 3 267 0 discriminator 1
 826 0530 4268     		ldr	r2, [r0, #4]
 827 0532 9B1A     		subs	r3, r3, r2
 828 0534 07EE903A 		fmsr	s15, r3	@ int
 829              	.LBE89:
 830              	.LBE88:
 831              		.loc 1 369 0 discriminator 1
 832 0538 F8EE677A 		fuitos	s15, s15
 833              	.LBB92:
 834              		.loc 1 372 0 discriminator 1
 835 053c B0EEEA7A 		fabss	s14, s21
 836              	.LBE92:
 837              		.loc 1 369 0 discriminator 1
 838 0540 C7EEA87A 		fdivs	s15, s15, s17
 839 0544 F4EEC97A 		fcmpes	s15, s18
 840 0548 F1EE10FA 		fmstat
 841 054c 0AD5     		bpl	.L57
 842              	.LBB93:
 843              		.loc 1 370 0
 844 054e D0ED027A 		flds	s15, [r0, #8]
 845              	.LVL66:
 846              		.loc 1 372 0
 847 0552 F0EEE76A 		fabss	s13, s15
 848              		.loc 1 373 0
 849 0556 F4EE476A 		fcmps	s13, s14
 850 055a F1EE10FA 		fmstat
 851 055e 48BF     		it	mi
 852 0560 F0EE67AA 		fcpysmi	s21, s15
 853              	.LVL67:
 854              	.L57:
 855              	.LBE93:
ARM GAS  /tmp/cc6lVBV4.s 			page 16


 856              	.LBE94:
 857              		.loc 1 366 0 discriminator 2
 858 0564 0A2D     		cmp	r5, #10
 859 0566 D9D1     		bne	.L60
 860              	.LVL68:
 861              	.L56:
 862              	.LBE86:
 863              		.loc 1 380 0
 864 0568 1FB1     		cbz	r7, .L64
 865              		.loc 1 380 0 is_stmt 0 discriminator 1
 866 056a 94F82030 		ldrb	r3, [r4, #32]	@ zero_extendqisi2
 867 056e 002B     		cmp	r3, #0
 868 0570 76D1     		bne	.L207
 869              	.L64:
 870              		.loc 1 392 0 is_stmt 1
 871 0572 B9F1000F 		cmp	r9, #0
 872 0576 3FF46BAD 		beq	.L4
 873              		.loc 1 393 0
 874 057a 039B     		ldr	r3, [sp, #12]
 875 057c 002B     		cmp	r3, #0
 876 057e 40F09681 		bne	.L208
 877              	.LBB95:
 878              		.loc 1 406 0
 879 0582 D4ED077A 		flds	s15, [r4, #28]
 880 0586 F4EEE7AA 		fcmpes	s21, s15
 881 058a F1EE10FA 		fmstat
 882 058e 40F32381 		ble	.L73
 883              		.loc 1 406 0 is_stmt 0 discriminator 1
 884 0592 B5EEC0AA 		fcmpezs	s20
 885 0596 F1EE10FA 		fmstat
 886 059a 40F31D81 		ble	.L73
 887              	.L205:
 888              		.loc 1 411 0 is_stmt 1
 889 059e 019B     		ldr	r3, [sp, #4]
 890 05a0 93ED44AA 		flds	s20, [r3, #272]
 891              	.LVL69:
 892              	.L76:
 893              		.loc 1 431 0
 894 05a4 94F82030 		ldrb	r3, [r4, #32]	@ zero_extendqisi2
 895              		.loc 1 422 0
 896 05a8 B5EEC0AA 		fcmpezs	s20
 897 05ac F1EE10FA 		fmstat
 898 05b0 00F13681 		bmi	.L209
 899              	.L201:
 900              		.loc 1 431 0
 901 05b4 002B     		cmp	r3, #0
 902 05b6 00F03D81 		beq	.L100
 903              		.loc 1 421 0
 904 05ba 0025     		movs	r5, #0
 905              	.LVL70:
 906              	.L102:
 907              		.loc 1 421 0 is_stmt 0 discriminator 1
 908 05bc F0EE4ABA 		fcpys	s23, s20
 909              	.LBB96:
 910              	.LBB97:
 911              		.loc 1 436 0 is_stmt 1 discriminator 1
 912 05c0 3A4F     		ldr	r7, .L215
ARM GAS  /tmp/cc6lVBV4.s 			page 17


 913              	.LVL71:
 914              	.LBE97:
 915              	.LBE96:
 916              		.loc 1 421 0 discriminator 1
 917 05c2 4FF00009 		mov	r9, #0
 918              	.LVL72:
 919 05c6 2CE0     		b	.L97
 920              	.LVL73:
 921              	.L211:
 922              	.LBB108:
 923              	.LBB104:
 924              	.LBB98:
 925              		.loc 1 437 0
 926 05c8 90ED020A 		flds	s0, [r0, #8]
 927              	.LVL74:
 928 05cc 0290     		str	r0, [sp, #8]
 929              		.loc 1 443 0
 930 05ce 97ED091A 		flds	s2, [r7, #36]
 931 05d2 DFED400A 		flds	s1, .L215+40
 932              		.loc 1 438 0
 933 05d6 002D     		cmp	r5, #0
 934 05d8 00F0CB80 		beq	.L91
 935              		.loc 1 439 0
 936 05dc B1EE400A 		fnegs	s0, s0
 937              	.LVL75:
 938              		.loc 1 443 0
 939 05e0 30EE6A0A 		fsubs	s0, s0, s21
 940              	.LVL76:
 941 05e4 B0EE602A 		fcpys	s4, s1
 942 05e8 F0EE4A1A 		fcpys	s3, s20
 943 05ec FFF7FEFF 		bl	utils_map
 944              	.LVL77:
 945              		.loc 1 444 0
 946 05f0 019B     		ldr	r3, [sp, #4]
 947 05f2 0298     		ldr	r0, [sp, #8]
 948 05f4 D3ED447A 		flds	s15, [r3, #272]
 949 05f8 0168     		ldr	r1, [r0]
 950 05fa F4EEC07A 		fcmpes	s15, s0
 951 05fe F1EE10FA 		fmstat
 952              		.loc 1 443 0
 953 0602 F0EE40BA 		fcpys	s23, s0
 954              	.LVL78:
 955              		.loc 1 444 0
 956 0606 28DD     		ble	.L95
 957 0608 9FED2F0A 		flds	s0, .L215+28
 958              	.LVL79:
 959              		.loc 1 445 0
 960 060c DFED31BA 		flds	s23, .L215+40
 961              	.LVL80:
 962              	.L94:
 963              	.LBE98:
 964              		.loc 1 450 0
 965 0610 C8B2     		uxtb	r0, r1
 966 0612 FFF7FEFF 		bl	comm_can_set_current
 967              	.LVL81:
 968              	.L88:
 969              	.LBE104:
ARM GAS  /tmp/cc6lVBV4.s 			page 18


 970              		.loc 1 432 0 discriminator 2
 971 0616 09F10109 		add	r9, r9, #1
 972              	.LVL82:
 973 061a B9F10A0F 		cmp	r9, #10
 974 061e 00F0C980 		beq	.L210
 975              	.LVL83:
 976              	.L97:
 977              	.LBB105:
 978              		.loc 1 433 0
 979 0622 4846     		mov	r0, r9
 980 0624 FFF7FEFF 		bl	comm_can_get_status_msg_index
 981              	.LVL84:
 982              		.loc 1 435 0
 983 0628 0168     		ldr	r1, [r0]
 984 062a 0029     		cmp	r1, #0
 985 062c F3DB     		blt	.L88
 986              	.LVL85:
 987              	.LBB99:
 988              	.LBB100:
 989              	.LBB101:
 990              	.LBB102:
 991              		.loc 3 231 0 discriminator 1
 992 062e DAF82830 		ldr	r3, [r10, #40]
 993              	.LBE102:
 994              	.LBE101:
 995              		.loc 3 267 0 discriminator 1
 996 0632 4268     		ldr	r2, [r0, #4]
 997 0634 9B1A     		subs	r3, r3, r2
 998 0636 07EE903A 		fmsr	s15, r3	@ int
 999              	.LBE100:
 1000              	.LBE99:
 1001              		.loc 1 435 0 discriminator 1
 1002 063a F8EE677A 		fuitos	s15, s15
 1003 063e C7EEA87A 		fdivs	s15, s15, s17
 1004 0642 F4EEC97A 		fcmpes	s15, s18
 1005 0646 F1EE10FA 		fmstat
 1006 064a E4D5     		bpl	.L88
 1007              		.loc 1 436 0
 1008 064c 94F82130 		ldrb	r3, [r4, #33]	@ zero_extendqisi2
 1009 0650 002B     		cmp	r3, #0
 1010 0652 B9D1     		bne	.L211
 1011              		.loc 1 449 0
 1012 0654 002D     		cmp	r5, #0
 1013 0656 00F0A280 		beq	.L96
 1014              	.LVL86:
 1015              	.L95:
 1016 065a B1EE6B0A 		fnegs	s0, s23
 1017 065e D7E7     		b	.L94
 1018              	.LVL87:
 1019              	.L207:
 1020              	.LBE105:
 1021              	.LBE108:
 1022              	.LBE95:
 1023              	.LBB112:
 1024              		.loc 1 381 0
 1025 0660 FFF7FEFF 		bl	mc_interface_get_duty_cycle_now
 1026              	.LVL88:
ARM GAS  /tmp/cc6lVBV4.s 			page 19


 1027              	.LBB66:
 1028              		.loc 1 383 0
 1029 0664 0025     		movs	r5, #0
 1030              	.LBE66:
 1031              		.loc 1 381 0
 1032 0666 F0EE40BA 		fcpys	s23, s0
 1033              	.LVL89:
 1034 066a 01E0     		b	.L67
 1035              	.LVL90:
 1036              	.L65:
 1037              	.LBB67:
 1038              		.loc 1 383 0 discriminator 2
 1039 066c 0A2D     		cmp	r5, #10
 1040 066e 80D0     		beq	.L64
 1041              	.LVL91:
 1042              	.L67:
 1043              	.LBB64:
 1044              		.loc 1 384 0
 1045 0670 2846     		mov	r0, r5
 1046 0672 FFF7FEFF 		bl	comm_can_get_status_msg_index
 1047              	.LVL92:
 1048              		.loc 1 386 0
 1049 0676 0268     		ldr	r2, [r0]
 1050 0678 002A     		cmp	r2, #0
 1051              	.LBE64:
 1052              		.loc 1 383 0
 1053 067a 05F10105 		add	r5, r5, #1
 1054              	.LVL93:
 1055              	.LBB65:
 1056              		.loc 1 386 0
 1057 067e F5DB     		blt	.L65
 1058              	.LBB60:
 1059              	.LBB61:
 1060              		.loc 3 267 0 discriminator 1
 1061 0680 4168     		ldr	r1, [r0, #4]
 1062              	.LBB62:
 1063              	.LBB63:
 1064              		.loc 3 231 0 discriminator 1
 1065 0682 DAF82830 		ldr	r3, [r10, #40]
 1066              	.LBE63:
 1067              	.LBE62:
 1068              		.loc 3 267 0 discriminator 1
 1069 0686 5B1A     		subs	r3, r3, r1
 1070 0688 07EE903A 		fmsr	s15, r3	@ int
 1071              	.LBE61:
 1072              	.LBE60:
 1073              		.loc 1 386 0 discriminator 1
 1074 068c F8EE677A 		fuitos	s15, s15
 1075 0690 C7EEA87A 		fdivs	s15, s15, s17
 1076 0694 F4EEC97A 		fcmpes	s15, s18
 1077 0698 F1EE10FA 		fmstat
 1078 069c E6D5     		bpl	.L65
 1079              		.loc 1 387 0
 1080 069e D0B2     		uxtb	r0, r2
 1081              	.LVL94:
 1082 06a0 B0EE6B0A 		fcpys	s0, s23
 1083 06a4 FFF7FEFF 		bl	comm_can_set_duty
ARM GAS  /tmp/cc6lVBV4.s 			page 20


 1084              	.LVL95:
 1085 06a8 E0E7     		b	.L65
 1086              	.L216:
 1087 06aa 00BF     		.align	2
 1088              	.L215:
 1089 06ac 00000000 		.word	.LANCHOR1
 1090 06b0 00040240 		.word	1073873920
 1091 06b4 00000000 		.word	.LANCHOR12
 1092 06b8 00000000 		.word	.LANCHOR13
 1093 06bc 00000000 		.word	.LANCHOR14
 1094 06c0 00000000 		.word	.LANCHOR15
 1095 06c4 0000FA43 		.word	1140457472
 1096 06c8 00000080 		.word	2147483648
 1097 06cc 6F12833A 		.word	981668463
 1098 06d0 00007A44 		.word	1148846080
 1099 06d4 00000000 		.word	0
 1100              	.LVL96:
 1101              	.L41:
 1102              	.LBE65:
 1103              	.LBE67:
 1104              	.LBE112:
 1105              		.loc 1 294 0
 1106 06d8 019A     		ldr	r2, [sp, #4]
 1107              		.loc 1 247 0
 1108 06da 1FED02AA 		flds	s20, .L215+40
 1109              		.loc 1 294 0
 1110 06de D2ED141A 		flds	s3, [r2, #80]
 1111 06e2 92ED142A 		flds	s4, [r2, #80]
 1112 06e6 F1EE611A 		fnegs	s3, s3
 1113 06ea FFEE000A 		fconsts	s1, #240
 1114 06ee B7EE001A 		fconsts	s2, #112
 1115 06f2 FFF7FEFF 		bl	utils_map
 1116              	.LVL97:
 1117              		.loc 1 249 0
 1118 06f6 0023     		movs	r3, #0
 1119 06f8 1F46     		mov	r7, r3
 1120              	.LVL98:
 1121 06fa 0393     		str	r3, [sp, #12]
 1122              		.loc 1 248 0
 1123 06fc B946     		mov	r9, r7
 1124              		.loc 1 294 0
 1125 06fe FFF7FEFF 		bl	mc_interface_set_duty
 1126              	.LVL99:
 1127              		.loc 1 295 0
 1128 0702 0127     		movs	r7, #1
 1129 0704 DDE5     		b	.L33
 1130              	.LVL100:
 1131              	.L24:
 1132              		.loc 1 221 0
 1133 0706 DDED046A 		flds	s13, [sp, #16]
 1134 070a B0EE007A 		fconsts	s14, #0
 1135 070e FFEE007A 		fconsts	s15, #240
 1136 0712 E6EE877A 		vfma.f32	s15, s13, s14
 1137 0716 CDED047A 		fsts	s15, [sp, #16]
 1138              		.loc 1 222 0
 1139 071a 8AE5     		b	.L22
 1140              	.LVL101:
ARM GAS  /tmp/cc6lVBV4.s 			page 21


 1141              	.L29:
 1142              		.loc 1 274 0
 1143 071c DDED047A 		flds	s15, [sp, #16]
 1144              		.loc 1 275 0
 1145 0720 019B     		ldr	r3, [sp, #4]
 1146              		.loc 1 274 0
 1147 0722 F5EEC07A 		fcmpezs	s15
 1148 0726 F1EE10FA 		fmstat
 1149 072a C0F2B880 		blt	.L199
 1150              		.loc 1 275 0
 1151 072e 93ED01AA 		flds	s20, [r3, #4]
 1152              		.loc 1 249 0
 1153 0732 0391     		str	r1, [sp, #12]
 1154              		.loc 1 275 0
 1155 0734 27EE8AAA 		fmuls	s20, s15, s20
 1156              	.LVL102:
 1157              	.L37:
 1158              		.loc 1 281 0
 1159 0738 1FED1C7A 		flds	s14, .L215+32
 1160 073c F4EEC77A 		fcmpes	s15, s14
 1161 0740 F1EE10FA 		fmstat
 1162 0744 44D5     		bpl	.L200
 1163              		.loc 1 282 0
 1164 0746 07EE907A 		fmsr	s15, r7	@ int
 1165 074a 1FED1F7A 		flds	s14, .L215+36
 1166 074e F8EEE76A 		fsitos	s13, s15
 1167 0752 D6ED007A 		flds	s15, [r6]
 1168 0756 26EE877A 		fmuls	s14, s13, s14
 1169              		.loc 1 251 0
 1170 075a 0027     		movs	r7, #0
 1171              	.LVL103:
 1172              		.loc 1 282 0
 1173 075c 87EE287A 		fdivs	s14, s14, s17
 1174              		.loc 1 273 0
 1175 0760 4FF00109 		mov	r9, #1
 1176              		.loc 1 282 0
 1177 0764 77EE277A 		fadds	s15, s14, s15
 1178 0768 C6ED007A 		fsts	s15, [r6]
 1179 076c A9E5     		b	.L33
 1180              	.LVL104:
 1181              	.L105:
 1182              		.loc 1 188 0
 1183 076e 0A46     		mov	r2, r1
 1184 0770 42E5     		b	.L19
 1185              	.LVL105:
 1186              	.L91:
 1187              	.LBB113:
 1188              	.LBB109:
 1189              	.LBB106:
 1190              	.LBB103:
 1191              		.loc 1 443 0
 1192 0772 30EE6A0A 		fsubs	s0, s0, s21
 1193              	.LVL106:
 1194 0776 B0EE602A 		fcpys	s4, s1
 1195 077a F0EE4A1A 		fcpys	s3, s20
 1196 077e FFF7FEFF 		bl	utils_map
 1197              	.LVL107:
ARM GAS  /tmp/cc6lVBV4.s 			page 22


 1198              		.loc 1 444 0
 1199 0782 019B     		ldr	r3, [sp, #4]
 1200 0784 0298     		ldr	r0, [sp, #8]
 1201 0786 D3ED447A 		flds	s15, [r3, #272]
 1202 078a 0168     		ldr	r1, [r0]
 1203 078c F4EEC07A 		fcmpes	s15, s0
 1204 0790 F1EE10FA 		fmstat
 1205              		.loc 1 443 0
 1206 0794 F0EE40BA 		fcpys	s23, s0
 1207              	.LVL108:
 1208              		.loc 1 445 0
 1209 0798 C8BF     		it	gt
 1210 079a 5FED32BA 		fldsgt	s23, .L215+40
 1211              	.LVL109:
 1212              	.L96:
 1213              	.LBE103:
 1214              		.loc 1 452 0
 1215 079e C8B2     		uxtb	r0, r1
 1216 07a0 B0EE6B0A 		fcpys	s0, s23
 1217              	.LBE106:
 1218              		.loc 1 432 0
 1219 07a4 09F10109 		add	r9, r9, #1
 1220              	.LVL110:
 1221              	.LBB107:
 1222              		.loc 1 452 0
 1223 07a8 FFF7FEFF 		bl	comm_can_set_current
 1224              	.LVL111:
 1225              	.LBE107:
 1226              		.loc 1 432 0
 1227 07ac B9F10A0F 		cmp	r9, #10
 1228 07b0 7FF437AF 		bne	.L97
 1229              	.L210:
 1230              	.LBE109:
 1231              		.loc 1 457 0
 1232 07b4 94F82130 		ldrb	r3, [r4, #33]	@ zero_extendqisi2
 1233 07b8 6C4A     		ldr	r2, .L217
 1234 07ba 002B     		cmp	r3, #0
 1235 07bc 40F0B680 		bne	.L212
 1236              	.LBB110:
 1237 07c0 B0EE6BAA 		fcpys	s20, s23
 1238              	.LVL112:
 1239              	.L98:
 1240              	.LBE110:
 1241              		.loc 1 466 0
 1242 07c4 B5B3     		cbz	r5, .L100
 1243              	.LVL113:
 1244              	.L87:
 1245              		.loc 1 467 0
 1246 07c6 B1EE4A0A 		fnegs	s0, s20
 1247 07ca FFF7FEFF 		bl	mc_interface_set_current
 1248              	.LVL114:
 1249 07ce 3FE4     		b	.L4
 1250              	.LVL115:
 1251              	.L200:
 1252              	.LBE113:
 1253              		.loc 1 251 0
 1254 07d0 0027     		movs	r7, #0
ARM GAS  /tmp/cc6lVBV4.s 			page 23


 1255              	.LVL116:
 1256              		.loc 1 273 0
 1257 07d2 4FF00109 		mov	r9, #1
 1258 07d6 74E5     		b	.L33
 1259              	.LVL117:
 1260              	.L73:
 1261              	.LBB114:
 1262              		.loc 1 408 0
 1263 07d8 D4ED067A 		flds	s15, [r4, #24]
 1264 07dc 634B     		ldr	r3, .L217
 1265 07de F4EEE7AA 		fcmpes	s21, s15
 1266 07e2 F1EE10FA 		fmstat
 1267 07e6 2ADD     		ble	.L77
 1268              		.loc 1 408 0 is_stmt 0 discriminator 1
 1269 07e8 B5EEC0AA 		fcmpezs	s20
 1270 07ec F1EE10FA 		fmstat
 1271 07f0 25DD     		ble	.L77
 1272              		.loc 1 409 0 is_stmt 1
 1273 07f2 D3ED060A 		flds	s1, [r3, #24]
 1274 07f6 93ED071A 		flds	s2, [r3, #28]
 1275 07fa 019B     		ldr	r3, [sp, #4]
 1276 07fc F0EE4A1A 		fcpys	s3, s20
 1277 0800 93ED442A 		flds	s4, [r3, #272]
 1278 0804 B0EE6A0A 		fcpys	s0, s21
 1279 0808 FFF7FEFF 		bl	utils_map
 1280              	.LVL118:
 1281 080c B0EE40AA 		fcpys	s20, s0
 1282              	.LVL119:
 1283              		.loc 1 422 0
 1284 0810 B5EEC0AA 		fcmpezs	s20
 1285 0814 F1EE10FA 		fmstat
 1286              		.loc 1 431 0
 1287 0818 94F82030 		ldrb	r3, [r4, #32]	@ zero_extendqisi2
 1288              		.loc 1 422 0
 1289 081c 7FF5CAAE 		bpl	.L201
 1290              	.LVL120:
 1291              	.L209:
 1292              		.loc 1 424 0
 1293 0820 B1EE4AAA 		fnegs	s20, s20
 1294              	.LVL121:
 1295              		.loc 1 431 0
 1296 0824 002B     		cmp	r3, #0
 1297 0826 CED0     		beq	.L87
 1298              		.loc 1 426 0
 1299 0828 B1EE4BBA 		fnegs	s22, s22
 1300              	.LVL122:
 1301              		.loc 1 427 0
 1302 082c F1EE6AAA 		fnegs	s21, s21
 1303              	.LVL123:
 1304              		.loc 1 423 0
 1305 0830 0125     		movs	r5, #1
 1306 0832 C3E6     		b	.L102
 1307              	.LVL124:
 1308              	.L100:
 1309              		.loc 1 469 0
 1310 0834 B0EE4A0A 		fcpys	s0, s20
 1311 0838 FFF7FEFF 		bl	mc_interface_set_current
ARM GAS  /tmp/cc6lVBV4.s 			page 24


 1312              	.LVL125:
 1313 083c 08E4     		b	.L4
 1314              	.LVL126:
 1315              	.L77:
 1316              		.loc 1 410 0
 1317 083e D4ED077A 		flds	s15, [r4, #28]
 1318 0842 F1EE677A 		fnegs	s15, s15
 1319 0846 F4EEE7AA 		fcmpes	s21, s15
 1320 084a F1EE10FA 		fmstat
 1321 084e 05D5     		bpl	.L80
 1322              		.loc 1 410 0 is_stmt 0 discriminator 1
 1323 0850 B5EEC0AA 		fcmpezs	s20
 1324 0854 F1EE10FA 		fmstat
 1325 0858 3FF5A1AE 		bmi	.L205
 1326              	.L80:
 1327              		.loc 1 412 0 is_stmt 1
 1328 085c D4ED067A 		flds	s15, [r4, #24]
 1329 0860 424B     		ldr	r3, .L217
 1330 0862 F1EE677A 		fnegs	s15, s15
 1331 0866 F4EEE7AA 		fcmpes	s21, s15
 1332 086a F1EE10FA 		fmstat
 1333 086e 7FF599AE 		bpl	.L76
 1334              		.loc 1 412 0 is_stmt 0 discriminator 1
 1335 0872 B5EEC0AA 		fcmpezs	s20
 1336 0876 F1EE10FA 		fmstat
 1337 087a 7FF593AE 		bpl	.L76
 1338              	.LVL127:
 1339              		.loc 1 415 0 is_stmt 1
 1340 087e D3ED060A 		flds	s1, [r3, #24]
 1341 0882 93ED071A 		flds	s2, [r3, #28]
 1342 0886 019B     		ldr	r3, [sp, #4]
 1343 0888 F1EE4A1A 		fnegs	s3, s20
 1344              	.LVL128:
 1345 088c 93ED442A 		flds	s4, [r3, #272]
 1346 0890 B1EE6A0A 		fnegs	s0, s21
 1347              	.LVL129:
 1348 0894 FFF7FEFF 		bl	utils_map
 1349              	.LVL130:
 1350              		.loc 1 416 0
 1351 0898 B1EE40AA 		fnegs	s20, s0
 1352              	.LVL131:
 1353 089c 82E6     		b	.L76
 1354              	.LVL132:
 1355              	.L199:
 1356              	.LBE114:
 1357              		.loc 1 277 0
 1358 089e 93ED02AA 		flds	s20, [r3, #8]
 1359              		.loc 1 278 0
 1360 08a2 0392     		str	r2, [sp, #12]
 1361              		.loc 1 277 0
 1362 08a4 27EE8AAA 		fmuls	s20, s15, s20
 1363 08a8 B0EECAAA 		fabss	s20, s20
 1364              	.LVL133:
 1365 08ac 44E7     		b	.L37
 1366              	.LVL134:
 1367              	.L208:
 1368              		.loc 1 394 0
ARM GAS  /tmp/cc6lVBV4.s 			page 25


 1369 08ae B0EE4A0A 		fcpys	s0, s20
 1370 08b2 FFF7FEFF 		bl	mc_interface_set_brake_current
 1371              	.LVL135:
 1372              	.LBB115:
 1373              		.loc 1 397 0
 1374 08b6 0025     		movs	r5, #0
 1375 08b8 02E0     		b	.L72
 1376              	.LVL136:
 1377              	.L70:
 1378              		.loc 1 397 0 is_stmt 0 discriminator 2
 1379 08ba 0A2D     		cmp	r5, #10
 1380 08bc 3FF4C8AB 		beq	.L4
 1381              	.LVL137:
 1382              	.L72:
 1383              	.LBB116:
 1384              		.loc 1 398 0 is_stmt 1
 1385 08c0 2846     		mov	r0, r5
 1386 08c2 FFF7FEFF 		bl	comm_can_get_status_msg_index
 1387              	.LVL138:
 1388              		.loc 1 400 0
 1389 08c6 0268     		ldr	r2, [r0]
 1390 08c8 002A     		cmp	r2, #0
 1391              	.LBE116:
 1392              		.loc 1 397 0
 1393 08ca 05F10105 		add	r5, r5, #1
 1394              	.LVL139:
 1395              	.LBB121:
 1396              		.loc 1 400 0
 1397 08ce F4DB     		blt	.L70
 1398              	.LBB117:
 1399              	.LBB118:
 1400              		.loc 3 267 0 discriminator 1
 1401 08d0 4168     		ldr	r1, [r0, #4]
 1402              	.LBB119:
 1403              	.LBB120:
 1404              		.loc 3 231 0 discriminator 1
 1405 08d2 DAF82830 		ldr	r3, [r10, #40]
 1406              	.LBE120:
 1407              	.LBE119:
 1408              		.loc 3 267 0 discriminator 1
 1409 08d6 5B1A     		subs	r3, r3, r1
 1410 08d8 07EE903A 		fmsr	s15, r3	@ int
 1411              	.LBE118:
 1412              	.LBE117:
 1413              		.loc 1 400 0 discriminator 1
 1414 08dc F8EE677A 		fuitos	s15, s15
 1415 08e0 C7EEA87A 		fdivs	s15, s15, s17
 1416 08e4 F4EEC97A 		fcmpes	s15, s18
 1417 08e8 F1EE10FA 		fmstat
 1418 08ec E5D5     		bpl	.L70
 1419              		.loc 1 401 0
 1420 08ee D0B2     		uxtb	r0, r2
 1421              	.LVL140:
 1422 08f0 B0EE4A0A 		fcpys	s0, s20
 1423 08f4 FFF7FEFF 		bl	comm_can_set_current_brake
 1424              	.LVL141:
 1425 08f8 DFE7     		b	.L70
ARM GAS  /tmp/cc6lVBV4.s 			page 26


 1426              	.LVL142:
 1427              	.L198:
 1428              	.LBE121:
 1429              	.LBE115:
 1430              		.loc 1 251 0
 1431 08fa 0027     		movs	r7, #0
 1432              	.LVL143:
 1433              		.loc 1 249 0
 1434 08fc 0397     		str	r7, [sp, #12]
 1435              		.loc 1 258 0
 1436 08fe 4FF00109 		mov	r9, #1
 1437 0902 DEE4     		b	.L33
 1438              	.LVL144:
 1439              	.L51:
 1440              		.loc 1 332 0
 1441 0904 B4EE007A 		fconsts	s14, #64
 1442 0908 67EE877A 		fmuls	s15, s15, s14
 1443              	.LVL145:
 1444              	.LBB122:
 1445              		.loc 1 339 0
 1446 090c 1849     		ldr	r1, .L217+4
 1447              		.loc 1 338 0
 1448 090e 0123     		movs	r3, #1
 1449              		.loc 1 339 0
 1450 0910 B0EE670A 		fcpys	s0, s15
 1451 0914 C1ED007A 		fsts	s15, [r1]
 1452              		.loc 1 338 0
 1453 0918 1370     		strb	r3, [r2]
 1454 091a 91E5     		b	.L52
 1455              	.LVL146:
 1456              	.L197:
 1457              	.LBE122:
 1458              		.loc 1 262 0
 1459 091c 019B     		ldr	r3, [sp, #4]
 1460 091e 93ED02AA 		flds	s20, [r3, #8]
 1461 0922 B0EECAAA 		fabss	s20, s20
 1462 0926 27EE8AAA 		fmuls	s20, s15, s20
 1463              	.LVL147:
 1464 092a ACE4     		b	.L32
 1465              	.LVL148:
 1466              	.L212:
 1467              	.LBB123:
 1468              	.LBB111:
 1469              		.loc 1 459 0
 1470 092c DFED110A 		flds	s1, .L217+8
 1471 0930 92ED091A 		flds	s2, [r2, #36]
 1472 0934 F0EE4A1A 		fcpys	s3, s20
 1473 0938 3BEE6A0A 		fsubs	s0, s22, s21
 1474              	.LVL149:
 1475 093c B0EE602A 		fcpys	s4, s1
 1476 0940 FFF7FEFF 		bl	utils_map
 1477              	.LVL150:
 1478              		.loc 1 460 0
 1479 0944 019B     		ldr	r3, [sp, #4]
 1480 0946 D3ED447A 		flds	s15, [r3, #272]
 1481              		.loc 1 461 0
 1482 094a B4EE670A 		fcmps	s0, s15
ARM GAS  /tmp/cc6lVBV4.s 			page 27


 1483              		.loc 1 459 0
 1484 094e B0EE40AA 		fcpys	s20, s0
 1485              	.LVL151:
 1486              		.loc 1 461 0
 1487 0952 F1EE10FA 		fmstat
 1488 0956 48BF     		it	mi
 1489 0958 B0EE69AA 		fcpysmi	s20, s19
 1490 095c 32E7     		b	.L98
 1491              	.LVL152:
 1492              	.L2:
 1493              	.LBE111:
 1494              	.LBE123:
 1495              	.LBE56:
 1496              		.loc 1 93 0
 1497 095e 2021     		movs	r1, #32
 1498 0960 0A46     		mov	r2, r1
 1499 0962 0548     		ldr	r0, .L217+12
 1500              	.LVL153:
 1501 0964 FFF7FEFF 		bl	_pal_lld_setgroupmode
 1502              	.LVL154:
 1503 0968 FFF764BB 		b	.L3
 1504              	.L218:
 1505              		.align	2
 1506              	.L217:
 1507 096c 00000000 		.word	.LANCHOR1
 1508 0970 00000000 		.word	.LANCHOR15
 1509 0974 00000000 		.word	0
 1510 0978 00040240 		.word	1073873920
 1511              		.cfi_endproc
 1512              	.LFE262:
 1513              		.size	adc_thread, .-adc_thread
 1514              		.section	.text.app_adc_configure,"ax",%progbits
 1515              		.align	2
 1516              		.p2align 4,,15
 1517              		.global	app_adc_configure
 1518              		.thumb
 1519              		.thumb_func
 1520              		.type	app_adc_configure, %function
 1521              	app_adc_configure:
 1522              	.LFB256:
 1523              		.loc 1 56 0
 1524              		.cfi_startproc
 1525              		@ args = 0, pretend = 0, frame = 0
 1526              		@ frame_needed = 0, uses_anonymous_args = 0
 1527              		@ link register save eliminated.
 1528              	.LVL155:
 1529 0000 F0B4     		push	{r4, r5, r6, r7}
 1530              		.cfi_def_cfa_offset 16
 1531              		.cfi_offset 4, -16
 1532              		.cfi_offset 5, -12
 1533              		.cfi_offset 6, -8
 1534              		.cfi_offset 7, -4
 1535              		.loc 1 57 0
 1536 0002 0546     		mov	r5, r0
 1537 0004 0FCD     		ldmia	r5!, {r0, r1, r2, r3}
 1538              	.LVL156:
 1539 0006 064C     		ldr	r4, .L221
ARM GAS  /tmp/cc6lVBV4.s 			page 28


 1540              		.loc 1 58 0
 1541 0008 064E     		ldr	r6, .L221+4
 1542              		.loc 1 57 0
 1543 000a 0FC4     		stmia	r4!, {r0, r1, r2, r3}
 1544 000c 0FCD     		ldmia	r5!, {r0, r1, r2, r3}
 1545              	.LVL157:
 1546 000e 0FC4     		stmia	r4!, {r0, r1, r2, r3}
 1547 0010 95E80700 		ldmia	r5, {r0, r1, r2}
 1548              		.loc 1 58 0
 1549 0014 0027     		movs	r7, #0
 1550              		.loc 1 57 0
 1551 0016 84E80700 		stmia	r4, {r0, r1, r2}
 1552              		.loc 1 58 0
 1553 001a 3760     		str	r7, [r6]	@ float
 1554              		.loc 1 59 0
 1555 001c F0BC     		pop	{r4, r5, r6, r7}
 1556              		.cfi_restore 7
 1557              		.cfi_restore 6
 1558              		.cfi_restore 5
 1559              		.cfi_restore 4
 1560              		.cfi_def_cfa_offset 0
 1561              	.LVL158:
 1562 001e 7047     		bx	lr
 1563              	.L222:
 1564              		.align	2
 1565              	.L221:
 1566 0020 00000000 		.word	.LANCHOR1
 1567 0024 00000000 		.word	.LANCHOR2
 1568              		.cfi_endproc
 1569              	.LFE256:
 1570              		.size	app_adc_configure, .-app_adc_configure
 1571              		.section	.text.app_adc_start,"ax",%progbits
 1572              		.align	2
 1573              		.p2align 4,,15
 1574              		.global	app_adc_start
 1575              		.thumb
 1576              		.thumb_func
 1577              		.type	app_adc_start, %function
 1578              	app_adc_start:
 1579              	.LFB257:
 1580              		.loc 1 61 0
 1581              		.cfi_startproc
 1582              		@ args = 0, pretend = 0, frame = 0
 1583              		@ frame_needed = 0, uses_anonymous_args = 0
 1584              	.LVL159:
 1585 0000 10B5     		push	{r4, lr}
 1586              		.cfi_def_cfa_offset 8
 1587              		.cfi_offset 4, -8
 1588              		.cfi_offset 14, -4
 1589              		.loc 1 62 0
 1590 0002 074A     		ldr	r2, .L225
 1591              		.loc 1 63 0
 1592 0004 074B     		ldr	r3, .L225+4
 1593              		.loc 1 61 0
 1594 0006 82B0     		sub	sp, sp, #8
 1595              		.cfi_def_cfa_offset 16
 1596              		.loc 1 61 0
ARM GAS  /tmp/cc6lVBV4.s 			page 29


 1597 0008 0146     		mov	r1, r0
 1598              		.loc 1 63 0
 1599 000a 0024     		movs	r4, #0
 1600 000c 0094     		str	r4, [sp]
 1601 000e 0648     		ldr	r0, .L225+8
 1602              	.LVL160:
 1603              		.loc 1 62 0
 1604 0010 1170     		strb	r1, [r2]
 1605              		.loc 1 63 0
 1606 0012 4FF4B361 		mov	r1, #1432
 1607 0016 4022     		movs	r2, #64
 1608 0018 FFF7FEFF 		bl	chThdCreateStatic
 1609              	.LVL161:
 1610              		.loc 1 64 0
 1611 001c 02B0     		add	sp, sp, #8
 1612              		.cfi_def_cfa_offset 8
 1613              		@ sp needed
 1614 001e 10BD     		pop	{r4, pc}
 1615              	.L226:
 1616              		.align	2
 1617              	.L225:
 1618 0020 00000000 		.word	.LANCHOR0
 1619 0024 00000000 		.word	adc_thread
 1620 0028 00000000 		.word	.LANCHOR16
 1621              		.cfi_endproc
 1622              	.LFE257:
 1623              		.size	app_adc_start, .-app_adc_start
 1624              		.section	.text.app_adc_get_decoded_level,"ax",%progbits
 1625              		.align	2
 1626              		.p2align 4,,15
 1627              		.global	app_adc_get_decoded_level
 1628              		.thumb
 1629              		.thumb_func
 1630              		.type	app_adc_get_decoded_level, %function
 1631              	app_adc_get_decoded_level:
 1632              	.LFB258:
 1633              		.loc 1 66 0
 1634              		.cfi_startproc
 1635              		@ args = 0, pretend = 0, frame = 0
 1636              		@ frame_needed = 0, uses_anonymous_args = 0
 1637              		@ link register save eliminated.
 1638              		.loc 1 67 0
 1639 0000 014B     		ldr	r3, .L228
 1640 0002 93ED000A 		flds	s0, [r3]
 1641              		.loc 1 68 0
 1642 0006 7047     		bx	lr
 1643              	.L229:
 1644              		.align	2
 1645              	.L228:
 1646 0008 00000000 		.word	.LANCHOR6
 1647              		.cfi_endproc
 1648              	.LFE258:
 1649              		.size	app_adc_get_decoded_level, .-app_adc_get_decoded_level
 1650              		.section	.text.app_adc_get_voltage,"ax",%progbits
 1651              		.align	2
 1652              		.p2align 4,,15
 1653              		.global	app_adc_get_voltage
ARM GAS  /tmp/cc6lVBV4.s 			page 30


 1654              		.thumb
 1655              		.thumb_func
 1656              		.type	app_adc_get_voltage, %function
 1657              	app_adc_get_voltage:
 1658              	.LFB259:
 1659              		.loc 1 70 0
 1660              		.cfi_startproc
 1661              		@ args = 0, pretend = 0, frame = 0
 1662              		@ frame_needed = 0, uses_anonymous_args = 0
 1663              		@ link register save eliminated.
 1664              		.loc 1 71 0
 1665 0000 014B     		ldr	r3, .L231
 1666 0002 93ED000A 		flds	s0, [r3]
 1667              		.loc 1 72 0
 1668 0006 7047     		bx	lr
 1669              	.L232:
 1670              		.align	2
 1671              	.L231:
 1672 0008 00000000 		.word	.LANCHOR3
 1673              		.cfi_endproc
 1674              	.LFE259:
 1675              		.size	app_adc_get_voltage, .-app_adc_get_voltage
 1676              		.section	.text.app_adc_get_decoded_level2,"ax",%progbits
 1677              		.align	2
 1678              		.p2align 4,,15
 1679              		.global	app_adc_get_decoded_level2
 1680              		.thumb
 1681              		.thumb_func
 1682              		.type	app_adc_get_decoded_level2, %function
 1683              	app_adc_get_decoded_level2:
 1684              	.LFB260:
 1685              		.loc 1 74 0
 1686              		.cfi_startproc
 1687              		@ args = 0, pretend = 0, frame = 0
 1688              		@ frame_needed = 0, uses_anonymous_args = 0
 1689              		@ link register save eliminated.
 1690              		.loc 1 75 0
 1691 0000 014B     		ldr	r3, .L234
 1692 0002 93ED000A 		flds	s0, [r3]
 1693              		.loc 1 76 0
 1694 0006 7047     		bx	lr
 1695              	.L235:
 1696              		.align	2
 1697              	.L234:
 1698 0008 00000000 		.word	.LANCHOR10
 1699              		.cfi_endproc
 1700              	.LFE260:
 1701              		.size	app_adc_get_decoded_level2, .-app_adc_get_decoded_level2
 1702              		.section	.text.app_adc_get_voltage2,"ax",%progbits
 1703              		.align	2
 1704              		.p2align 4,,15
 1705              		.global	app_adc_get_voltage2
 1706              		.thumb
 1707              		.thumb_func
 1708              		.type	app_adc_get_voltage2, %function
 1709              	app_adc_get_voltage2:
 1710              	.LFB261:
ARM GAS  /tmp/cc6lVBV4.s 			page 31


 1711              		.loc 1 78 0
 1712              		.cfi_startproc
 1713              		@ args = 0, pretend = 0, frame = 0
 1714              		@ frame_needed = 0, uses_anonymous_args = 0
 1715              		@ link register save eliminated.
 1716              		.loc 1 79 0
 1717 0000 014B     		ldr	r3, .L237
 1718 0002 93ED000A 		flds	s0, [r3]
 1719              		.loc 1 80 0
 1720 0006 7047     		bx	lr
 1721              	.L238:
 1722              		.align	2
 1723              	.L237:
 1724 0008 00000000 		.word	.LANCHOR7
 1725              		.cfi_endproc
 1726              	.LFE261:
 1727              		.size	app_adc_get_voltage2, .-app_adc_get_voltage2
 1728              		.section	.bss.read_voltage2,"aw",%nobits
 1729              		.align	2
 1730              		.set	.LANCHOR7,. + 0
 1731              		.type	read_voltage2, %object
 1732              		.size	read_voltage2, 4
 1733              	read_voltage2:
 1734 0000 00000000 		.space	4
 1735              		.section	.bss.read_voltage,"aw",%nobits
 1736              		.align	2
 1737              		.set	.LANCHOR3,. + 0
 1738              		.type	read_voltage, %object
 1739              		.size	read_voltage, 4
 1740              	read_voltage:
 1741 0000 00000000 		.space	4
 1742              		.section	.bss.filter_buffer2.9907,"aw",%nobits
 1743              		.align	2
 1744              		.set	.LANCHOR9,. + 0
 1745              		.type	filter_buffer2.9907, %object
 1746              		.size	filter_buffer2.9907, 20
 1747              	filter_buffer2.9907:
 1748 0000 00000000 		.space	20
 1748      00000000 
 1748      00000000 
 1748      00000000 
 1748      00000000 
 1749              		.section	.bss.was_pid.9942,"aw",%nobits
 1750              		.set	.LANCHOR14,. + 0
 1751              		.type	was_pid.9942, %object
 1752              		.size	was_pid.9942, 1
 1753              	was_pid.9942:
 1754 0000 00       		.space	1
 1755              		.section	.bss.filter_buffer.9943,"aw",%nobits
 1756              		.align	2
 1757              		.set	.LANCHOR13,. + 0
 1758              		.type	filter_buffer.9943, %object
 1759              		.size	filter_buffer.9943, 32
 1760              	filter_buffer.9943:
 1761 0000 00000000 		.space	32
 1761      00000000 
 1761      00000000 
ARM GAS  /tmp/cc6lVBV4.s 			page 32


 1761      00000000 
 1761      00000000 
 1762              		.section	.bss.pid_rpm.9950,"aw",%nobits
 1763              		.align	2
 1764              		.set	.LANCHOR15,. + 0
 1765              		.type	pid_rpm.9950, %object
 1766              		.size	pid_rpm.9950, 4
 1767              	pid_rpm.9950:
 1768 0000 00000000 		.space	4
 1769              		.section	.bss.ms_without_power,"aw",%nobits
 1770              		.align	2
 1771              		.set	.LANCHOR2,. + 0
 1772              		.type	ms_without_power, %object
 1773              		.size	ms_without_power, 4
 1774              	ms_without_power:
 1775 0000 00000000 		.space	4
 1776              		.section	.bss.filter_ptr.9944,"aw",%nobits
 1777              		.align	2
 1778              		.set	.LANCHOR12,. + 0
 1779              		.type	filter_ptr.9944, %object
 1780              		.size	filter_ptr.9944, 4
 1781              	filter_ptr.9944:
 1782 0000 00000000 		.space	4
 1783              		.section	.bss.filter_buffer.9900,"aw",%nobits
 1784              		.align	2
 1785              		.set	.LANCHOR5,. + 0
 1786              		.type	filter_buffer.9900, %object
 1787              		.size	filter_buffer.9900, 20
 1788              	filter_buffer.9900:
 1789 0000 00000000 		.space	20
 1789      00000000 
 1789      00000000 
 1789      00000000 
 1789      00000000 
 1790              		.section	.bss.filter_ptr2.9908,"aw",%nobits
 1791              		.align	2
 1792              		.set	.LANCHOR8,. + 0
 1793              		.type	filter_ptr2.9908, %object
 1794              		.size	filter_ptr2.9908, 4
 1795              	filter_ptr2.9908:
 1796 0000 00000000 		.space	4
 1797              		.section	.bss.decoded_level2,"aw",%nobits
 1798              		.align	2
 1799              		.set	.LANCHOR10,. + 0
 1800              		.type	decoded_level2, %object
 1801              		.size	decoded_level2, 4
 1802              	decoded_level2:
 1803 0000 00000000 		.space	4
 1804              		.section	.rodata.str1.4,"aMS",%progbits,1
 1805              		.align	2
 1806              	.LC0:
 1807 0000 4150505F 		.ascii	"APP_ADC\000"
 1807      41444300 
 1808              		.section	.bss.filter_ptr.9901,"aw",%nobits
 1809              		.align	2
 1810              		.set	.LANCHOR4,. + 0
 1811              		.type	filter_ptr.9901, %object
ARM GAS  /tmp/cc6lVBV4.s 			page 33


 1812              		.size	filter_ptr.9901, 4
 1813              	filter_ptr.9901:
 1814 0000 00000000 		.space	4
 1815              		.section	.bss.pulses_without_power_before.9941,"aw",%nobits
 1816              		.align	2
 1817              		.set	.LANCHOR11,. + 0
 1818              		.type	pulses_without_power_before.9941, %object
 1819              		.size	pulses_without_power_before.9941, 4
 1820              	pulses_without_power_before.9941:
 1821 0000 00000000 		.space	4
 1822              		.section	.bss.config,"aw",%nobits
 1823              		.align	2
 1824              		.set	.LANCHOR1,. + 0
 1825              		.type	config, %object
 1826              		.size	config, 44
 1827              	config:
 1828 0000 00000000 		.space	44
 1828      00000000 
 1828      00000000 
 1828      00000000 
 1828      00000000 
 1829              		.section	.bss.use_rx_tx_as_buttons,"aw",%nobits
 1830              		.set	.LANCHOR0,. + 0
 1831              		.type	use_rx_tx_as_buttons, %object
 1832              		.size	use_rx_tx_as_buttons, 1
 1833              	use_rx_tx_as_buttons:
 1834 0000 00       		.space	1
 1835              		.section	.bss.decoded_level,"aw",%nobits
 1836              		.align	2
 1837              		.set	.LANCHOR6,. + 0
 1838              		.type	decoded_level, %object
 1839              		.size	decoded_level, 4
 1840              	decoded_level:
 1841 0000 00000000 		.space	4
 1842              		.section	.bss.adc_thread_wa,"aw",%nobits
 1843              		.align	3
 1844              		.set	.LANCHOR16,. + 0
 1845              		.type	adc_thread_wa, %object
 1846              		.size	adc_thread_wa, 1432
 1847              	adc_thread_wa:
 1848 0000 00000000 		.space	1432
 1848      00000000 
 1848      00000000 
 1848      00000000 
 1848      00000000 
 1849              		.text
 1850              	.Letext0:
 1851              		.file 4 "/usr/arm-none-eabi/include/machine/_default_types.h"
 1852              		.file 5 "/usr/arm-none-eabi/include/sys/_stdint.h"
 1853              		.file 6 "/usr/lib/gcc/arm-none-eabi/4.9.3/include/stddef.h"
 1854              		.file 7 "ChibiOS_3.0.2/os/rt/ports/ARMCMx/compilers/GCC/chtypes.h"
 1855              		.file 8 "ChibiOS_3.0.2/os/rt/include/chsystypes.h"
 1856              		.file 9 "ChibiOS_3.0.2/os/rt/include/chschd.h"
 1857              		.file 10 "ChibiOS_3.0.2/os/rt/ports/ARMCMx/chcore.h"
 1858              		.file 11 "ChibiOS_3.0.2/os/rt/ports/ARMCMx/chcore_v7m.h"
 1859              		.file 12 "ChibiOS_3.0.2/os/rt/include/chtm.h"
 1860              		.file 13 "ChibiOS_3.0.2/os/rt/include/chsem.h"
ARM GAS  /tmp/cc6lVBV4.s 			page 34


 1861              		.file 14 "ChibiOS_3.0.2/os/rt/include/chmtx.h"
 1862              		.file 15 "ChibiOS_3.0.2/os/rt/include/chthreads.h"
 1863              		.file 16 "./datatypes.h"
 1864              		.file 17 "ChibiOS_3.0.2/os/hal/ports/STM32/LLD/GPIOv2/pal_lld.h"
 1865              		.file 18 "ChibiOS_3.0.2/os/ext/CMSIS/include/core_cm4.h"
 1866              		.file 19 "./mc_interface.h"
 1867              		.file 20 "./timeout.h"
 1868              		.file 21 "./comm_can.h"
 1869              		.file 22 "./utils.h"