ARM GAS  /tmp/ccHSYlv6.s 			page 1


   1              		.syntax unified
   2              		.cpu cortex-m4
   3              		.eabi_attribute 27, 1
   4              		.eabi_attribute 28, 1
   5              		.fpu fpv4-sp-d16
   6              		.eabi_attribute 20, 1
   7              		.eabi_attribute 21, 1
   8              		.eabi_attribute 23, 3
   9              		.eabi_attribute 24, 1
  10              		.eabi_attribute 25, 1
  11              		.eabi_attribute 26, 1
  12              		.eabi_attribute 30, 2
  13              		.eabi_attribute 34, 1
  14              		.eabi_attribute 18, 4
  15              		.thumb
  16              		.file	"can.c"
  17              		.text
  18              	.Ltext0:
  19              		.cfi_sections	.debug_frame
  20              		.section	.text.canInit,"ax",%progbits
  21              		.align	2
  22              		.p2align 4,,15
  23              		.global	canInit
  24              		.thumb
  25              		.thumb_func
  26              		.type	canInit, %function
  27              	canInit:
  28              	.LFB256:
  29              		.file 1 "ChibiOS_3.0.2/os/hal/src/can.c"
  30              		.loc 1 56 0
  31              		.cfi_startproc
  32              		@ args = 0, pretend = 0, frame = 0
  33              		@ frame_needed = 0, uses_anonymous_args = 0
  34              		@ link register save eliminated.
  35              		.loc 1 58 0
  36 0000 FFF7FEBF 		b	can_lld_init
  37              	.LVL0:
  38              		.cfi_endproc
  39              	.LFE256:
  40              		.size	canInit, .-canInit
  41              		.section	.text.canObjectInit,"ax",%progbits
  42              		.align	2
  43              		.p2align 4,,15
  44              		.global	canObjectInit
  45              		.thumb
  46              		.thumb_func
  47              		.type	canObjectInit, %function
  48              	canObjectInit:
  49              	.LFB257:
  50              		.loc 1 68 0
  51              		.cfi_startproc
  52              		@ args = 0, pretend = 0, frame = 0
  53              		@ frame_needed = 0, uses_anonymous_args = 0
  54              	.LVL1:
  55 0000 F0B5     		push	{r4, r5, r6, r7, lr}
  56              		.cfi_def_cfa_offset 20
  57              		.cfi_offset 4, -20
ARM GAS  /tmp/ccHSYlv6.s 			page 2


  58              		.cfi_offset 5, -16
  59              		.cfi_offset 6, -12
  60              		.cfi_offset 7, -8
  61              		.cfi_offset 14, -4
  62              		.loc 1 72 0
  63 0002 00F10802 		add	r2, r0, #8
  64              	.LVL2:
  65              		.loc 1 73 0
  66 0006 00F11003 		add	r3, r0, #16
  67              	.LVL3:
  68              		.loc 1 70 0
  69 000a 4FF0010C 		mov	ip, #1
  70              		.loc 1 71 0
  71 000e 4FF0000E 		mov	lr, #0
  72              		.loc 1 74 0
  73 0012 00F11807 		add	r7, r0, #24
  74              		.loc 1 75 0
  75 0016 00F11C06 		add	r6, r0, #28
  76              		.loc 1 76 0
  77 001a 00F12005 		add	r5, r0, #32
  78              		.loc 1 78 0
  79 001e 00F12404 		add	r4, r0, #36
  80              		.loc 1 79 0
  81 0022 00F12801 		add	r1, r0, #40
  82              		.loc 1 70 0
  83 0026 80F800C0 		strb	ip, [r0]
  84              		.loc 1 71 0
  85 002a C0F804E0 		str	lr, [r0, #4]
  86              	.LBB174:
  87              	.LBB175:
  88              	.LBB176:
  89              		.file 2 "ChibiOS_3.0.2/os/rt/include/chevents.h"
  90              		.loc 2 172 0
  91 002e 8761     		str	r7, [r0, #24]
  92              	.LBE176:
  93              	.LBE175:
  94              	.LBE174:
  95              	.LBB177:
  96              	.LBB178:
  97              	.LBB179:
  98 0030 C661     		str	r6, [r0, #28]
  99              	.LBE179:
 100              	.LBE178:
 101              	.LBE177:
 102              	.LBB180:
 103              	.LBB181:
 104              	.LBB182:
 105 0032 0562     		str	r5, [r0, #32]
 106              	.LBE182:
 107              	.LBE181:
 108              	.LBE180:
 109              	.LBB183:
 110              	.LBB184:
 111              	.LBB185:
 112 0034 4462     		str	r4, [r0, #36]
 113              	.LBE185:
 114              	.LBE184:
ARM GAS  /tmp/ccHSYlv6.s 			page 3


 115              	.LBE183:
 116              	.LBB186:
 117              	.LBB187:
 118              	.LBB188:
 119 0036 8162     		str	r1, [r0, #40]
 120              	.LBE188:
 121              	.LBE187:
 122              	.LBE186:
 123              	.LBB189:
 124              	.LBB190:
 125              	.LBB191:
 126              	.LBB192:
 127              		.file 3 "ChibiOS_3.0.2/os/rt/include/chschd.h"
 128              		.loc 3 604 0
 129 0038 8260     		str	r2, [r0, #8]
 130              		.loc 3 605 0
 131 003a C260     		str	r2, [r0, #12]
 132              	.LBE192:
 133              	.LBE191:
 134              	.LBE190:
 135              	.LBE189:
 136              	.LBB193:
 137              	.LBB194:
 138              	.LBB195:
 139              	.LBB196:
 140              		.loc 3 604 0
 141 003c 0361     		str	r3, [r0, #16]
 142              		.loc 3 605 0
 143 003e 4361     		str	r3, [r0, #20]
 144              	.LVL4:
 145 0040 F0BD     		pop	{r4, r5, r6, r7, pc}
 146              	.LBE196:
 147              	.LBE195:
 148              	.LBE194:
 149              	.LBE193:
 150              		.cfi_endproc
 151              	.LFE257:
 152              		.size	canObjectInit, .-canObjectInit
 153 0042 00BF     		.section	.text.canStart,"ax",%progbits
 154              		.align	2
 155              		.p2align 4,,15
 156              		.global	canStart
 157              		.thumb
 158              		.thumb_func
 159              		.type	canStart, %function
 160              	canStart:
 161              	.LFB258:
 162              		.loc 1 95 0
 163              		.cfi_startproc
 164              		@ args = 0, pretend = 0, frame = 0
 165              		@ frame_needed = 0, uses_anonymous_args = 0
 166              	.LVL5:
 167 0000 10B5     		push	{r4, lr}
 168              		.cfi_def_cfa_offset 8
 169              		.cfi_offset 4, -8
 170              		.cfi_offset 14, -4
 171              	.LBB197:
ARM GAS  /tmp/ccHSYlv6.s 			page 4


 172              	.LBB198:
 173              	.LBB199:
 174              	.LBB200:
 175              	.LBB201:
 176              		.file 4 "ChibiOS_3.0.2/os/ext/CMSIS/include/core_cmFunc.h"
 177              		.loc 4 546 0
 178 0002 2023     		movs	r3, #32
 179              	.LBE201:
 180              	.LBE200:
 181              	.LBE199:
 182              	.LBE198:
 183              	.LBE197:
 184              		.loc 1 95 0
 185 0004 0446     		mov	r4, r0
 186              	.LBB206:
 187              	.LBB205:
 188              	.LBB204:
 189              	.LBB203:
 190              	.LBB202:
 191              		.loc 4 546 0
 192              	@ 546 "ChibiOS_3.0.2/os/ext/CMSIS/include/core_cmFunc.h" 1
 193 0006 83F31188 		MSR basepri, r3
 194              	@ 0 "" 2
 195              		.thumb
 196              	.LBE202:
 197              	.LBE203:
 198              	.LBE204:
 199              	.LBE205:
 200              	.LBE206:
 201              		.loc 1 103 0
 202 000a 0223     		movs	r3, #2
 203 000c 0370     		strb	r3, [r0]
 204              		.loc 1 104 0
 205 000e 4160     		str	r1, [r0, #4]
 206              		.loc 1 108 0
 207 0010 FFF7FEFF 		bl	can_lld_start
 208              	.LVL6:
 209              		.loc 1 111 0
 210 0014 0323     		movs	r3, #3
 211 0016 2370     		strb	r3, [r4]
 212              	.LVL7:
 213              	.LBB207:
 214              	.LBB208:
 215              	.LBB209:
 216              	.LBB210:
 217              	.LBB211:
 218              	.LBB212:
 219              		.loc 4 546 0
 220 0018 0023     		movs	r3, #0
 221              	@ 546 "ChibiOS_3.0.2/os/ext/CMSIS/include/core_cmFunc.h" 1
 222 001a 83F31188 		MSR basepri, r3
 223              	@ 0 "" 2
 224              		.thumb
 225 001e 10BD     		pop	{r4, pc}
 226              	.LBE212:
 227              	.LBE211:
 228              	.LBE210:
ARM GAS  /tmp/ccHSYlv6.s 			page 5


 229              	.LBE209:
 230              	.LBE208:
 231              	.LBE207:
 232              		.cfi_endproc
 233              	.LFE258:
 234              		.size	canStart, .-canStart
 235              		.section	.text.canStop,"ax",%progbits
 236              		.align	2
 237              		.p2align 4,,15
 238              		.global	canStop
 239              		.thumb
 240              		.thumb_func
 241              		.type	canStop, %function
 242              	canStop:
 243              	.LFB259:
 244              		.loc 1 122 0
 245              		.cfi_startproc
 246              		@ args = 0, pretend = 0, frame = 0
 247              		@ frame_needed = 0, uses_anonymous_args = 0
 248              	.LVL8:
 249 0000 10B5     		push	{r4, lr}
 250              		.cfi_def_cfa_offset 8
 251              		.cfi_offset 4, -8
 252              		.cfi_offset 14, -4
 253              	.LBB213:
 254              	.LBB214:
 255              	.LBB215:
 256              	.LBB216:
 257              	.LBB217:
 258              		.loc 4 546 0
 259 0002 2023     		movs	r3, #32
 260              	.LBE217:
 261              	.LBE216:
 262              	.LBE215:
 263              	.LBE214:
 264              	.LBE213:
 265              		.loc 1 122 0
 266 0004 0446     		mov	r4, r0
 267              	.LBB222:
 268              	.LBB221:
 269              	.LBB220:
 270              	.LBB219:
 271              	.LBB218:
 272              		.loc 4 546 0
 273              	@ 546 "ChibiOS_3.0.2/os/ext/CMSIS/include/core_cmFunc.h" 1
 274 0006 83F31188 		MSR basepri, r3
 275              	@ 0 "" 2
 276              		.thumb
 277              	.LBE218:
 278              	.LBE219:
 279              	.LBE220:
 280              	.LBE221:
 281              	.LBE222:
 282              		.loc 1 131 0
 283 000a FFF7FEFF 		bl	can_lld_stop
 284              	.LVL9:
 285              		.loc 1 132 0
ARM GAS  /tmp/ccHSYlv6.s 			page 6


 286 000e 2046     		mov	r0, r4
 287 0010 0123     		movs	r3, #1
 288 0012 00F8103B 		strb	r3, [r0], #16
 289              	.LVL10:
 290              	.LBB223:
 291              	.LBB224:
 292              		.file 5 "ChibiOS_3.0.2/os/hal/osal/rt/osal.h"
 293              		.loc 5 810 0
 294 0016 6FF00101 		mvn	r1, #1
 295 001a FFF7FEFF 		bl	chThdDequeueAllI
 296              	.LVL11:
 297              	.LBE224:
 298              	.LBE223:
 299              	.LBB225:
 300              	.LBB226:
 301 001e 04F10800 		add	r0, r4, #8
 302              	.LVL12:
 303 0022 6FF00101 		mvn	r1, #1
 304 0026 FFF7FEFF 		bl	chThdDequeueAllI
 305              	.LVL13:
 306              	.LBE226:
 307              	.LBE225:
 308              	.LBB227:
 309              	.LBB228:
 310              		.loc 5 600 0
 311 002a FFF7FEFF 		bl	chSchRescheduleS
 312              	.LVL14:
 313              	.LBE228:
 314              	.LBE227:
 315              	.LBB229:
 316              	.LBB230:
 317              	.LBB231:
 318              	.LBB232:
 319              	.LBB233:
 320              	.LBB234:
 321              		.loc 4 546 0
 322 002e 0023     		movs	r3, #0
 323              	@ 546 "ChibiOS_3.0.2/os/ext/CMSIS/include/core_cmFunc.h" 1
 324 0030 83F31188 		MSR basepri, r3
 325              	@ 0 "" 2
 326              		.thumb
 327 0034 10BD     		pop	{r4, pc}
 328              	.LBE234:
 329              	.LBE233:
 330              	.LBE232:
 331              	.LBE231:
 332              	.LBE230:
 333              	.LBE229:
 334              		.cfi_endproc
 335              	.LFE259:
 336              		.size	canStop, .-canStop
 337 0036 00BF     		.section	.text.canTransmit,"ax",%progbits
 338              		.align	2
 339              		.p2align 4,,15
 340              		.global	canTransmit
 341              		.thumb
 342              		.thumb_func
ARM GAS  /tmp/ccHSYlv6.s 			page 7


 343              		.type	canTransmit, %function
 344              	canTransmit:
 345              	.LFB260:
 346              		.loc 1 166 0
 347              		.cfi_startproc
 348              		@ args = 0, pretend = 0, frame = 0
 349              		@ frame_needed = 0, uses_anonymous_args = 0
 350              	.LVL15:
 351 0000 2DE9F041 		push	{r4, r5, r6, r7, r8, lr}
 352              		.cfi_def_cfa_offset 24
 353              		.cfi_offset 4, -24
 354              		.cfi_offset 5, -20
 355              		.cfi_offset 6, -16
 356              		.cfi_offset 7, -12
 357              		.cfi_offset 8, -8
 358              		.cfi_offset 14, -4
 359              		.loc 1 166 0
 360 0004 1F46     		mov	r7, r3
 361 0006 0446     		mov	r4, r0
 362 0008 0D46     		mov	r5, r1
 363 000a 9046     		mov	r8, r2
 364              	.LBB235:
 365              	.LBB236:
 366              	.LBB237:
 367              	.LBB238:
 368              	.LBB239:
 369              		.loc 4 546 0
 370 000c 2023     		movs	r3, #32
 371              	.LVL16:
 372              	@ 546 "ChibiOS_3.0.2/os/ext/CMSIS/include/core_cmFunc.h" 1
 373 000e 83F31188 		MSR basepri, r3
 374              	@ 0 "" 2
 375              		.thumb
 376              	.LBE239:
 377              	.LBE238:
 378              	.LBE237:
 379              	.LBE236:
 380              	.LBE235:
 381              	.LBB240:
 382              		.loc 1 177 0
 383 0012 00F10806 		add	r6, r0, #8
 384              	.LVL17:
 385              	.L9:
 386              	.LBE240:
 387              		.loc 1 175 0
 388 0016 2378     		ldrb	r3, [r4]	@ zero_extendqisi2
 389 0018 042B     		cmp	r3, #4
 390 001a 2946     		mov	r1, r5
 391 001c 2046     		mov	r0, r4
 392 001e 02D0     		beq	.L11
 393              	.LVL18:
 394              		.loc 1 175 0 is_stmt 0 discriminator 1
 395 0020 FFF7FEFF 		bl	can_lld_is_tx_empty
 396              	.LVL19:
 397 0024 50B9     		cbnz	r0, .L22
 398              	.L11:
 399              	.LVL20:
ARM GAS  /tmp/ccHSYlv6.s 			page 8


 400              	.LBB249:
 401              	.LBB241:
 402              	.LBB242:
 403              		.loc 5 784 0 is_stmt 1
 404 0026 3046     		mov	r0, r6
 405 0028 3946     		mov	r1, r7
 406 002a FFF7FEFF 		bl	chThdEnqueueTimeoutS
 407              	.LVL21:
 408              	.LBE242:
 409              	.LBE241:
 410              		.loc 1 178 0
 411 002e 0028     		cmp	r0, #0
 412 0030 F1D0     		beq	.L9
 413              	.LVL22:
 414              	.LBB243:
 415              	.LBB244:
 416              	.LBB245:
 417              	.LBB246:
 418              	.LBB247:
 419              	.LBB248:
 420              		.loc 4 546 0
 421 0032 0023     		movs	r3, #0
 422              	@ 546 "ChibiOS_3.0.2/os/ext/CMSIS/include/core_cmFunc.h" 1
 423 0034 83F31188 		MSR basepri, r3
 424              	@ 0 "" 2
 425              		.thumb
 426              	.LBE248:
 427              	.LBE247:
 428              	.LBE246:
 429              	.LBE245:
 430              	.LBE244:
 431              	.LBE243:
 432              		.loc 1 180 0
 433 0038 BDE8F081 		pop	{r4, r5, r6, r7, r8, pc}
 434              	.LVL23:
 435              	.L22:
 436              	.LBE249:
 437              		.loc 1 183 0
 438 003c 2046     		mov	r0, r4
 439 003e 2946     		mov	r1, r5
 440 0040 4246     		mov	r2, r8
 441 0042 FFF7FEFF 		bl	can_lld_transmit
 442              	.LVL24:
 443              	.LBB250:
 444              	.LBB251:
 445              	.LBB252:
 446              	.LBB253:
 447              	.LBB254:
 448              	.LBB255:
 449              		.loc 4 546 0
 450 0046 0020     		movs	r0, #0
 451              	@ 546 "ChibiOS_3.0.2/os/ext/CMSIS/include/core_cmFunc.h" 1
 452 0048 80F31188 		MSR basepri, r0
 453              	@ 0 "" 2
 454              		.thumb
 455              	.LBE255:
 456              	.LBE254:
ARM GAS  /tmp/ccHSYlv6.s 			page 9


 457              	.LBE253:
 458              	.LBE252:
 459              	.LBE251:
 460              	.LBE250:
 461              		.loc 1 186 0
 462 004c BDE8F081 		pop	{r4, r5, r6, r7, r8, pc}
 463              		.cfi_endproc
 464              	.LFE260:
 465              		.size	canTransmit, .-canTransmit
 466              		.section	.text.canReceive,"ax",%progbits
 467              		.align	2
 468              		.p2align 4,,15
 469              		.global	canReceive
 470              		.thumb
 471              		.thumb_func
 472              		.type	canReceive, %function
 473              	canReceive:
 474              	.LFB261:
 475              		.loc 1 213 0
 476              		.cfi_startproc
 477              		@ args = 0, pretend = 0, frame = 0
 478              		@ frame_needed = 0, uses_anonymous_args = 0
 479              	.LVL25:
 480 0000 2DE9F041 		push	{r4, r5, r6, r7, r8, lr}
 481              		.cfi_def_cfa_offset 24
 482              		.cfi_offset 4, -24
 483              		.cfi_offset 5, -20
 484              		.cfi_offset 6, -16
 485              		.cfi_offset 7, -12
 486              		.cfi_offset 8, -8
 487              		.cfi_offset 14, -4
 488              		.loc 1 213 0
 489 0004 1F46     		mov	r7, r3
 490 0006 0446     		mov	r4, r0
 491 0008 0D46     		mov	r5, r1
 492 000a 9046     		mov	r8, r2
 493              	.LBB256:
 494              	.LBB257:
 495              	.LBB258:
 496              	.LBB259:
 497              	.LBB260:
 498              		.loc 4 546 0
 499 000c 2023     		movs	r3, #32
 500              	.LVL26:
 501              	@ 546 "ChibiOS_3.0.2/os/ext/CMSIS/include/core_cmFunc.h" 1
 502 000e 83F31188 		MSR basepri, r3
 503              	@ 0 "" 2
 504              		.thumb
 505              	.LBE260:
 506              	.LBE259:
 507              	.LBE258:
 508              	.LBE257:
 509              	.LBE256:
 510              	.LBB261:
 511              		.loc 1 224 0
 512 0012 00F11006 		add	r6, r0, #16
 513              	.LVL27:
ARM GAS  /tmp/ccHSYlv6.s 			page 10


 514              	.L24:
 515              	.LBE261:
 516              		.loc 1 222 0
 517 0016 2378     		ldrb	r3, [r4]	@ zero_extendqisi2
 518 0018 042B     		cmp	r3, #4
 519 001a 2946     		mov	r1, r5
 520 001c 2046     		mov	r0, r4
 521 001e 02D0     		beq	.L26
 522              	.LVL28:
 523              		.loc 1 222 0 is_stmt 0 discriminator 1
 524 0020 FFF7FEFF 		bl	can_lld_is_rx_nonempty
 525              	.LVL29:
 526 0024 50B9     		cbnz	r0, .L36
 527              	.L26:
 528              	.LVL30:
 529              	.LBB270:
 530              	.LBB262:
 531              	.LBB263:
 532              		.loc 5 784 0 is_stmt 1
 533 0026 3046     		mov	r0, r6
 534 0028 3946     		mov	r1, r7
 535 002a FFF7FEFF 		bl	chThdEnqueueTimeoutS
 536              	.LVL31:
 537              	.LBE263:
 538              	.LBE262:
 539              		.loc 1 225 0
 540 002e 0028     		cmp	r0, #0
 541 0030 F1D0     		beq	.L24
 542              	.LVL32:
 543              	.LBB264:
 544              	.LBB265:
 545              	.LBB266:
 546              	.LBB267:
 547              	.LBB268:
 548              	.LBB269:
 549              		.loc 4 546 0
 550 0032 0023     		movs	r3, #0
 551              	@ 546 "ChibiOS_3.0.2/os/ext/CMSIS/include/core_cmFunc.h" 1
 552 0034 83F31188 		MSR basepri, r3
 553              	@ 0 "" 2
 554              		.thumb
 555              	.LBE269:
 556              	.LBE268:
 557              	.LBE267:
 558              	.LBE266:
 559              	.LBE265:
 560              	.LBE264:
 561              		.loc 1 227 0
 562 0038 BDE8F081 		pop	{r4, r5, r6, r7, r8, pc}
 563              	.LVL33:
 564              	.L36:
 565              	.LBE270:
 566              		.loc 1 230 0
 567 003c 2046     		mov	r0, r4
 568 003e 2946     		mov	r1, r5
 569 0040 4246     		mov	r2, r8
 570 0042 FFF7FEFF 		bl	can_lld_receive
ARM GAS  /tmp/ccHSYlv6.s 			page 11


 571              	.LVL34:
 572              	.LBB271:
 573              	.LBB272:
 574              	.LBB273:
 575              	.LBB274:
 576              	.LBB275:
 577              	.LBB276:
 578              		.loc 4 546 0
 579 0046 0020     		movs	r0, #0
 580              	@ 546 "ChibiOS_3.0.2/os/ext/CMSIS/include/core_cmFunc.h" 1
 581 0048 80F31188 		MSR basepri, r0
 582              	@ 0 "" 2
 583              		.thumb
 584              	.LBE276:
 585              	.LBE275:
 586              	.LBE274:
 587              	.LBE273:
 588              	.LBE272:
 589              	.LBE271:
 590              		.loc 1 233 0
 591 004c BDE8F081 		pop	{r4, r5, r6, r7, r8, pc}
 592              		.cfi_endproc
 593              	.LFE261:
 594              		.size	canReceive, .-canReceive
 595              		.section	.text.canSleep,"ax",%progbits
 596              		.align	2
 597              		.p2align 4,,15
 598              		.global	canSleep
 599              		.thumb
 600              		.thumb_func
 601              		.type	canSleep, %function
 602              	canSleep:
 603              	.LFB262:
 604              		.loc 1 248 0
 605              		.cfi_startproc
 606              		@ args = 0, pretend = 0, frame = 0
 607              		@ frame_needed = 0, uses_anonymous_args = 0
 608              	.LVL35:
 609              	.LBB277:
 610              	.LBB278:
 611              	.LBB279:
 612              	.LBB280:
 613              	.LBB281:
 614              		.loc 4 546 0
 615 0000 2022     		movs	r2, #32
 616              	@ 546 "ChibiOS_3.0.2/os/ext/CMSIS/include/core_cmFunc.h" 1
 617 0002 82F31188 		MSR basepri, r2
 618              	@ 0 "" 2
 619              		.thumb
 620              	.LBE281:
 621              	.LBE280:
 622              	.LBE279:
 623              	.LBE278:
 624              	.LBE277:
 625              		.loc 1 255 0
 626 0006 0278     		ldrb	r2, [r0]	@ zero_extendqisi2
 627 0008 032A     		cmp	r2, #3
ARM GAS  /tmp/ccHSYlv6.s 			page 12


 628 000a 03D0     		beq	.L41
 629              	.LVL36:
 630              	.LBB282:
 631              	.LBB283:
 632              	.LBB284:
 633              	.LBB285:
 634              	.LBB286:
 635              	.LBB287:
 636              		.loc 4 546 0
 637 000c 0023     		movs	r3, #0
 638              	@ 546 "ChibiOS_3.0.2/os/ext/CMSIS/include/core_cmFunc.h" 1
 639 000e 83F31188 		MSR basepri, r3
 640              	@ 0 "" 2
 641              		.thumb
 642 0012 7047     		bx	lr
 643              	.LVL37:
 644              	.L41:
 645              	.LBE287:
 646              	.LBE286:
 647              	.LBE285:
 648              	.LBE284:
 649              	.LBE283:
 650              	.LBE282:
 651              		.loc 1 248 0
 652 0014 10B5     		push	{r4, lr}
 653              		.cfi_def_cfa_offset 8
 654              		.cfi_offset 4, -8
 655              		.cfi_offset 14, -4
 656 0016 0446     		mov	r4, r0
 657              		.loc 1 256 0
 658 0018 FFF7FEFF 		bl	can_lld_sleep
 659              	.LVL38:
 660              		.loc 1 257 0
 661 001c 2046     		mov	r0, r4
 662 001e 0423     		movs	r3, #4
 663 0020 00F8243B 		strb	r3, [r0], #36
 664              	.LVL39:
 665              	.LBB293:
 666              	.LBB294:
 667              		.loc 5 844 0
 668 0024 0021     		movs	r1, #0
 669 0026 FFF7FEFF 		bl	chEvtBroadcastFlagsI
 670              	.LVL40:
 671              	.LBE294:
 672              	.LBE293:
 673              	.LBB295:
 674              	.LBB296:
 675              		.loc 5 600 0
 676 002a FFF7FEFF 		bl	chSchRescheduleS
 677              	.LVL41:
 678              	.LBE296:
 679              	.LBE295:
 680              	.LBB297:
 681              	.LBB292:
 682              	.LBB291:
 683              	.LBB290:
 684              	.LBB289:
ARM GAS  /tmp/ccHSYlv6.s 			page 13


 685              	.LBB288:
 686              		.loc 4 546 0
 687 002e 0023     		movs	r3, #0
 688              	@ 546 "ChibiOS_3.0.2/os/ext/CMSIS/include/core_cmFunc.h" 1
 689 0030 83F31188 		MSR basepri, r3
 690              	@ 0 "" 2
 691              		.thumb
 692 0034 10BD     		pop	{r4, pc}
 693              	.LBE288:
 694              	.LBE289:
 695              	.LBE290:
 696              	.LBE291:
 697              	.LBE292:
 698              	.LBE297:
 699              		.cfi_endproc
 700              	.LFE262:
 701              		.size	canSleep, .-canSleep
 702 0036 00BF     		.section	.text.canWakeup,"ax",%progbits
 703              		.align	2
 704              		.p2align 4,,15
 705              		.global	canWakeup
 706              		.thumb
 707              		.thumb_func
 708              		.type	canWakeup, %function
 709              	canWakeup:
 710              	.LFB263:
 711              		.loc 1 271 0
 712              		.cfi_startproc
 713              		@ args = 0, pretend = 0, frame = 0
 714              		@ frame_needed = 0, uses_anonymous_args = 0
 715              	.LVL42:
 716              	.LBB298:
 717              	.LBB299:
 718              	.LBB300:
 719              	.LBB301:
 720              	.LBB302:
 721              		.loc 4 546 0
 722 0000 2022     		movs	r2, #32
 723              	@ 546 "ChibiOS_3.0.2/os/ext/CMSIS/include/core_cmFunc.h" 1
 724 0002 82F31188 		MSR basepri, r2
 725              	@ 0 "" 2
 726              		.thumb
 727              	.LBE302:
 728              	.LBE301:
 729              	.LBE300:
 730              	.LBE299:
 731              	.LBE298:
 732              		.loc 1 278 0
 733 0006 0278     		ldrb	r2, [r0]	@ zero_extendqisi2
 734 0008 042A     		cmp	r2, #4
 735 000a 03D0     		beq	.L46
 736              	.LVL43:
 737              	.LBB303:
 738              	.LBB304:
 739              	.LBB305:
 740              	.LBB306:
 741              	.LBB307:
ARM GAS  /tmp/ccHSYlv6.s 			page 14


 742              	.LBB308:
 743              		.loc 4 546 0
 744 000c 0023     		movs	r3, #0
 745              	@ 546 "ChibiOS_3.0.2/os/ext/CMSIS/include/core_cmFunc.h" 1
 746 000e 83F31188 		MSR basepri, r3
 747              	@ 0 "" 2
 748              		.thumb
 749 0012 7047     		bx	lr
 750              	.LVL44:
 751              	.L46:
 752              	.LBE308:
 753              	.LBE307:
 754              	.LBE306:
 755              	.LBE305:
 756              	.LBE304:
 757              	.LBE303:
 758              		.loc 1 271 0
 759 0014 10B5     		push	{r4, lr}
 760              		.cfi_def_cfa_offset 8
 761              		.cfi_offset 4, -8
 762              		.cfi_offset 14, -4
 763 0016 0446     		mov	r4, r0
 764              		.loc 1 279 0
 765 0018 FFF7FEFF 		bl	can_lld_wakeup
 766              	.LVL45:
 767              		.loc 1 280 0
 768 001c 2046     		mov	r0, r4
 769 001e 0323     		movs	r3, #3
 770 0020 00F8283B 		strb	r3, [r0], #40
 771              	.LVL46:
 772              	.LBB314:
 773              	.LBB315:
 774              		.loc 5 844 0
 775 0024 0021     		movs	r1, #0
 776 0026 FFF7FEFF 		bl	chEvtBroadcastFlagsI
 777              	.LVL47:
 778              	.LBE315:
 779              	.LBE314:
 780              	.LBB316:
 781              	.LBB317:
 782              		.loc 5 600 0
 783 002a FFF7FEFF 		bl	chSchRescheduleS
 784              	.LVL48:
 785              	.LBE317:
 786              	.LBE316:
 787              	.LBB318:
 788              	.LBB313:
 789              	.LBB312:
 790              	.LBB311:
 791              	.LBB310:
 792              	.LBB309:
 793              		.loc 4 546 0
 794 002e 0023     		movs	r3, #0
 795              	@ 546 "ChibiOS_3.0.2/os/ext/CMSIS/include/core_cmFunc.h" 1
 796 0030 83F31188 		MSR basepri, r3
 797              	@ 0 "" 2
 798              		.thumb
ARM GAS  /tmp/ccHSYlv6.s 			page 15


 799 0034 10BD     		pop	{r4, pc}
 800              	.LBE309:
 801              	.LBE310:
 802              	.LBE311:
 803              	.LBE312:
 804              	.LBE313:
 805              	.LBE318:
 806              		.cfi_endproc
 807              	.LFE263:
 808              		.size	canWakeup, .-canWakeup
 809 0036 00BF     		.text
 810              	.Letext0:
 811              		.file 6 "/usr/arm-none-eabi/include/machine/_default_types.h"
 812              		.file 7 "/usr/arm-none-eabi/include/sys/_stdint.h"
 813              		.file 8 "ChibiOS_3.0.2/os/rt/ports/ARMCMx/compilers/GCC/chtypes.h"
 814              		.file 9 "ChibiOS_3.0.2/os/rt/include/chsystypes.h"
 815              		.file 10 "ChibiOS_3.0.2/os/ext/CMSIS/ST/stm32f407xx.h"
 816              		.file 11 "ChibiOS_3.0.2/os/rt/ports/ARMCMx/chcore.h"
 817              		.file 12 "ChibiOS_3.0.2/os/rt/ports/ARMCMx/chcore_v7m.h"
 818              		.file 13 "ChibiOS_3.0.2/os/rt/include/chtm.h"
 819              		.file 14 "ChibiOS_3.0.2/os/rt/include/chsem.h"
 820              		.file 15 "ChibiOS_3.0.2/os/rt/include/chmtx.h"
 821              		.file 16 "ChibiOS_3.0.2/os/hal/include/can.h"
 822              		.file 17 "ChibiOS_3.0.2/os/hal/ports/STM32/LLD/can_lld.h"
 823              		.file 18 "ChibiOS_3.0.2/os/rt/include/chsys.h"
 824              		.file 19 "ChibiOS_3.0.2/os/rt/include/chthreads.h"
 825              		.file 20 "ChibiOS_3.0.2/os/ext/CMSIS/include/core_cm4.h"