ARM GAS  /tmp/ccC0USbu.s 			page 1


   1              		.syntax unified
   2              		.cpu cortex-m4
   3              		.eabi_attribute 27, 1
   4              		.eabi_attribute 28, 1
   5              		.fpu fpv4-sp-d16
   6              		.eabi_attribute 20, 1
   7              		.eabi_attribute 21, 1
   8              		.eabi_attribute 23, 3
   9              		.eabi_attribute 24, 1
  10              		.eabi_attribute 25, 1
  11              		.eabi_attribute 26, 1
  12              		.eabi_attribute 30, 2
  13              		.eabi_attribute 34, 1
  14              		.eabi_attribute 18, 4
  15              		.thumb
  16              		.file	"can_lld.c"
  17              		.text
  18              	.Ltext0:
  19              		.cfi_sections	.debug_frame
  20              		.section	.text.can_lld_set_filters,"ax",%progbits
  21              		.align	2
  22              		.p2align 4,,15
  23              		.thumb
  24              		.thumb_func
  25              		.type	can_lld_set_filters, %function
  26              	can_lld_set_filters:
  27              	.LFB256:
  28              		.file 1 "ChibiOS_3.0.2/os/hal/ports/STM32/LLD/can_lld.c"
  29              		.loc 1 77 0
  30              		.cfi_startproc
  31              		@ args = 0, pretend = 0, frame = 0
  32              		@ frame_needed = 0, uses_anonymous_args = 0
  33              	.LVL0:
  34 0000 F0B5     		push	{r4, r5, r6, r7, lr}
  35              		.cfi_def_cfa_offset 20
  36              		.cfi_offset 4, -20
  37              		.cfi_offset 5, -16
  38              		.cfi_offset 6, -12
  39              		.cfi_offset 7, -8
  40              		.cfi_offset 14, -4
  41              		.loc 1 80 0
  42 0002 434C     		ldr	r4, .L22
  43              		.loc 1 83 0
  44 0004 434D     		ldr	r5, .L22+4
  45              		.loc 1 80 0
  46 0006 236C     		ldr	r3, [r4, #64]
  47 0008 43F00073 		orr	r3, r3, #33554432
  48 000c 2364     		str	r3, [r4, #64]
  49              		.loc 1 83 0
  50 000e D5F80032 		ldr	r3, [r5, #512]
  51 0012 1B0C     		lsrs	r3, r3, #16
  52 0014 1B04     		lsls	r3, r3, #16
  53 0016 43F00103 		orr	r3, r3, #1
  54 001a 43EA0023 		orr	r3, r3, r0, lsl #8
  55 001e C5F80032 		str	r3, [r5, #512]
  56              		.loc 1 84 0
  57 0022 0029     		cmp	r1, #0
ARM GAS  /tmp/ccC0USbu.s 			page 2


  58 0024 4ED0     		beq	.L2
  59              	.LBB266:
  60              		.loc 1 88 0
  61 0026 0023     		movs	r3, #0
  62 0028 C5F81C32 		str	r3, [r5, #540]
  63              		.loc 1 92 0
  64 002c 1846     		mov	r0, r3
  65              	.LVL1:
  66              		.loc 1 89 0
  67 002e C5F80432 		str	r3, [r5, #516]
  68              		.loc 1 93 0
  69 0032 1C46     		mov	r4, r3
  70              		.loc 1 90 0
  71 0034 C5F80C32 		str	r3, [r5, #524]
  72              		.loc 1 91 0
  73 0038 C5F81432 		str	r3, [r5, #532]
  74              	.LVL2:
  75              	.L3:
  76 003c C300     		lsls	r3, r0, #3
  77 003e 03F18043 		add	r3, r3, #1073741824
  78 0042 03F5C843 		add	r3, r3, #25600
  79              		.loc 1 92 0 discriminator 3
  80 0046 0130     		adds	r0, r0, #1
  81              	.LVL3:
  82 0048 1C28     		cmp	r0, #28
  83              		.loc 1 93 0 discriminator 3
  84 004a C3F84042 		str	r4, [r3, #576]
  85              		.loc 1 94 0 discriminator 3
  86 004e C3F84442 		str	r4, [r3, #580]
  87              		.loc 1 92 0 discriminator 3
  88 0052 F3D1     		bne	.L3
  89              		.loc 1 101 0
  90 0054 2F48     		ldr	r0, .L22+4
  91              	.LVL4:
  92              		.loc 1 92 0
  93 0056 0026     		movs	r6, #0
  94              		.loc 1 99 0
  95 0058 0127     		movs	r7, #1
  96              	.L7:
  97              	.LVL5:
  98 005a 1568     		ldr	r5, [r2]
  99              		.loc 1 100 0
 100 005c 1479     		ldrb	r4, [r2, #4]	@ zero_extendqisi2
 101 005e EB00     		lsls	r3, r5, #3
 102 0060 03F18043 		add	r3, r3, #1073741824
 103 0064 14F0010F 		tst	r4, #1
 104 0068 03F5C843 		add	r3, r3, #25600
 105              		.loc 1 98 0
 106 006c 06F10106 		add	r6, r6, #1
 107              	.LVL6:
 108              		.loc 1 99 0
 109 0070 07FA05F5 		lsl	r5, r7, r5
 110              	.LVL7:
 111              		.loc 1 100 0
 112 0074 05D0     		beq	.L4
 113              		.loc 1 101 0
 114 0076 D0F804E2 		ldr	lr, [r0, #516]
ARM GAS  /tmp/ccC0USbu.s 			page 3


 115 007a 45EA0E0E 		orr	lr, r5, lr
 116 007e C0F804E2 		str	lr, [r0, #516]
 117              	.L4:
 118              		.loc 1 102 0
 119 0082 14F0020F 		tst	r4, #2
 120 0086 05D0     		beq	.L5
 121              		.loc 1 103 0
 122 0088 D0F80CE2 		ldr	lr, [r0, #524]
 123 008c 45EA0E0E 		orr	lr, r5, lr
 124 0090 C0F80CE2 		str	lr, [r0, #524]
 125              	.L5:
 126              		.loc 1 104 0
 127 0094 6407     		lsls	r4, r4, #29
 128 0096 04D5     		bpl	.L6
 129              		.loc 1 105 0
 130 0098 D0F81442 		ldr	r4, [r0, #532]
 131 009c 2C43     		orrs	r4, r4, r5
 132 009e C0F81442 		str	r4, [r0, #532]
 133              	.L6:
 134              		.loc 1 106 0 discriminator 2
 135 00a2 9468     		ldr	r4, [r2, #8]
 136 00a4 C3F84042 		str	r4, [r3, #576]
 137              		.loc 1 107 0 discriminator 2
 138 00a8 D468     		ldr	r4, [r2, #12]
 139 00aa C3F84442 		str	r4, [r3, #580]
 140              		.loc 1 108 0 discriminator 2
 141 00ae D0F81C32 		ldr	r3, [r0, #540]
 142              		.loc 1 98 0 discriminator 2
 143 00b2 8E42     		cmp	r6, r1
 144              		.loc 1 108 0 discriminator 2
 145 00b4 43EA0503 		orr	r3, r3, r5
 146              		.loc 1 109 0 discriminator 2
 147 00b8 02F11002 		add	r2, r2, #16
 148              	.LVL8:
 149              		.loc 1 108 0 discriminator 2
 150 00bc C0F81C32 		str	r3, [r0, #540]
 151              		.loc 1 98 0 discriminator 2
 152 00c0 CBD1     		bne	.L7
 153 00c2 18E0     		b	.L8
 154              	.LVL9:
 155              	.L2:
 156 00c4 C200     		lsls	r2, r0, #3
 157              	.LVL10:
 158 00c6 02F18042 		add	r2, r2, #1073741824
 159              	.LBE266:
 160              		.loc 1 124 0
 161 00ca 0123     		movs	r3, #1
 162 00cc 02F5C842 		add	r2, r2, #25600
 163 00d0 8340     		lsls	r3, r3, r0
 164 00d2 43F00103 		orr	r3, r3, #1
 165              		.loc 1 115 0
 166 00d6 C5F84012 		str	r1, [r5, #576]
 167              		.loc 1 116 0
 168 00da C5F84412 		str	r1, [r5, #580]
 169              		.loc 1 118 0
 170 00de C2F84012 		str	r1, [r2, #576]
 171              		.loc 1 119 0
ARM GAS  /tmp/ccC0USbu.s 			page 4


 172 00e2 C2F84412 		str	r1, [r2, #580]
 173              		.loc 1 121 0
 174 00e6 C5F80412 		str	r1, [r5, #516]
 175              		.loc 1 122 0
 176 00ea C5F81412 		str	r1, [r5, #532]
 177              		.loc 1 124 0
 178 00ee C5F80C32 		str	r3, [r5, #524]
 179              		.loc 1 125 0
 180 00f2 C5F81C32 		str	r3, [r5, #540]
 181              	.LVL11:
 182              	.L8:
 183              		.loc 1 131 0
 184 00f6 0749     		ldr	r1, .L22+4
 185              	.LVL12:
 186              		.loc 1 134 0
 187 00f8 054A     		ldr	r2, .L22
 188              		.loc 1 131 0
 189 00fa D1F80032 		ldr	r3, [r1, #512]
 190 00fe 23F00103 		bic	r3, r3, #1
 191 0102 C1F80032 		str	r3, [r1, #512]
 192              		.loc 1 134 0
 193 0106 136C     		ldr	r3, [r2, #64]
 194 0108 23F00073 		bic	r3, r3, #33554432
 195 010c 1364     		str	r3, [r2, #64]
 196 010e F0BD     		pop	{r4, r5, r6, r7, pc}
 197              	.L23:
 198              		.align	2
 199              	.L22:
 200 0110 00380240 		.word	1073887232
 201 0114 00640040 		.word	1073767424
 202              		.cfi_endproc
 203              	.LFE256:
 204              		.size	can_lld_set_filters, .-can_lld_set_filters
 205              		.section	.text.Vector8C,"ax",%progbits
 206              		.align	2
 207              		.p2align 4,,15
 208              		.global	Vector8C
 209              		.thumb
 210              		.thumb_func
 211              		.type	Vector8C, %function
 212              	Vector8C:
 213              	.LFB261:
 214              		.loc 1 292 0
 215              		.cfi_startproc
 216              		@ args = 0, pretend = 0, frame = 0
 217              		@ frame_needed = 0, uses_anonymous_args = 0
 218              	.LVL13:
 219 0000 10B5     		push	{r4, lr}
 220              		.cfi_def_cfa_offset 8
 221              		.cfi_offset 4, -8
 222              		.cfi_offset 14, -4
 223              	.LBB285:
 224              	.LBB286:
 225              		.loc 1 147 0
 226 0002 0C4C     		ldr	r4, .L26
 227 0004 0C49     		ldr	r1, .L26+4
 228 0006 E26A     		ldr	r2, [r4, #44]
ARM GAS  /tmp/ccC0USbu.s 			page 5


 229              	.LBB287:
 230              	.LBB288:
 231              	.LBB289:
 232              	.LBB290:
 233              	.LBB291:
 234              	.LBB292:
 235              		.file 2 "ChibiOS_3.0.2/os/ext/CMSIS/include/core_cmFunc.h"
 236              		.loc 2 546 0
 237 0008 2023     		movs	r3, #32
 238              	.LBE292:
 239              	.LBE291:
 240              	.LBE290:
 241              	.LBE289:
 242              	.LBE288:
 243              	.LBE287:
 244              		.loc 1 147 0
 245 000a 9160     		str	r1, [r2, #8]
 246              	.LVL14:
 247              	.LBB298:
 248              	.LBB297:
 249              	.LBB296:
 250              	.LBB295:
 251              	.LBB294:
 252              	.LBB293:
 253              		.loc 2 546 0
 254              	@ 546 "ChibiOS_3.0.2/os/ext/CMSIS/include/core_cmFunc.h" 1
 255 000c 83F31188 		MSR basepri, r3
 256              	@ 0 "" 2
 257              	.LVL15:
 258              		.thumb
 259              	.LBE293:
 260              	.LBE294:
 261              	.LBE295:
 262              	.LBE296:
 263              	.LBE297:
 264              	.LBE298:
 265              	.LBB299:
 266              	.LBB300:
 267              		.file 3 "ChibiOS_3.0.2/os/hal/osal/rt/osal.h"
 268              		.loc 3 810 0
 269 0010 0021     		movs	r1, #0
 270 0012 04F10800 		add	r0, r4, #8
 271 0016 FFF7FEFF 		bl	chThdDequeueAllI
 272              	.LVL16:
 273              	.LBE300:
 274              	.LBE299:
 275              	.LBB301:
 276              	.LBB302:
 277              		.loc 3 844 0
 278 001a 04F11C00 		add	r0, r4, #28
 279 001e 0121     		movs	r1, #1
 280 0020 FFF7FEFF 		bl	chEvtBroadcastFlagsI
 281              	.LVL17:
 282              	.LBE302:
 283              	.LBE301:
 284              	.LBB303:
 285              	.LBB304:
ARM GAS  /tmp/ccC0USbu.s 			page 6


 286              	.LBB305:
 287              	.LBB306:
 288              	.LBB307:
 289              	.LBB308:
 290              		.loc 2 546 0
 291 0024 0023     		movs	r3, #0
 292              	@ 546 "ChibiOS_3.0.2/os/ext/CMSIS/include/core_cmFunc.h" 1
 293 0026 83F31188 		MSR basepri, r3
 294              	@ 0 "" 2
 295              		.thumb
 296              	.LBE308:
 297              	.LBE307:
 298              	.LBE306:
 299              	.LBE305:
 300              	.LBE304:
 301              	.LBE303:
 302              	.LBE286:
 303              	.LBE285:
 304              		.loc 1 299 0
 305 002a BDE81040 		pop	{r4, lr}
 306              		.cfi_restore 14
 307              		.cfi_restore 4
 308              		.cfi_def_cfa_offset 0
 309              		.loc 1 298 0
 310 002e FFF7FEBF 		b	_port_irq_epilogue
 311              	.LVL18:
 312              	.L27:
 313 0032 00BF     		.align	2
 314              	.L26:
 315 0034 00000000 		.word	.LANCHOR0
 316 0038 01010100 		.word	65793
 317              		.cfi_endproc
 318              	.LFE261:
 319              		.size	Vector8C, .-Vector8C
 320              		.section	.text.Vector90,"ax",%progbits
 321              		.align	2
 322              		.p2align 4,,15
 323              		.global	Vector90
 324              		.thumb
 325              		.thumb_func
 326              		.type	Vector90, %function
 327              	Vector90:
 328              	.LFB262:
 329              		.loc 1 306 0
 330              		.cfi_startproc
 331              		@ args = 0, pretend = 0, frame = 0
 332              		@ frame_needed = 0, uses_anonymous_args = 0
 333              	.LVL19:
 334 0000 38B5     		push	{r3, r4, r5, lr}
 335              		.cfi_def_cfa_offset 16
 336              		.cfi_offset 3, -16
 337              		.cfi_offset 4, -12
 338              		.cfi_offset 5, -8
 339              		.cfi_offset 14, -4
 340              	.LBB341:
 341              	.LBB342:
 342              		.loc 1 164 0
ARM GAS  /tmp/ccC0USbu.s 			page 7


 343 0002 164D     		ldr	r5, .L39
 344 0004 EB6A     		ldr	r3, [r5, #44]
 345 0006 DC68     		ldr	r4, [r3, #12]
 346              	.LVL20:
 347              		.loc 1 165 0
 348 0008 A207     		lsls	r2, r4, #30
 349 000a 11D1     		bne	.L38
 350              	.L29:
 351              		.loc 1 173 0
 352 000c E306     		lsls	r3, r4, #27
 353 000e 0BD5     		bpl	.L30
 354              		.loc 1 175 0
 355 0010 EB6A     		ldr	r3, [r5, #44]
 356 0012 1021     		movs	r1, #16
 357 0014 D960     		str	r1, [r3, #12]
 358              	.LVL21:
 359              	.LBB343:
 360              	.LBB344:
 361              	.LBB345:
 362              	.LBB346:
 363              	.LBB347:
 364              	.LBB348:
 365              		.loc 2 546 0
 366 0016 2023     		movs	r3, #32
 367              	@ 546 "ChibiOS_3.0.2/os/ext/CMSIS/include/core_cmFunc.h" 1
 368 0018 83F31188 		MSR basepri, r3
 369              	@ 0 "" 2
 370              	.LVL22:
 371              		.thumb
 372              	.LBE348:
 373              	.LBE347:
 374              	.LBE346:
 375              	.LBE345:
 376              	.LBE344:
 377              	.LBE343:
 378              	.LBB349:
 379              	.LBB350:
 380              		.loc 3 844 0
 381 001c 1048     		ldr	r0, .L39+4
 382 001e FFF7FEFF 		bl	chEvtBroadcastFlagsI
 383              	.LVL23:
 384              	.LBE350:
 385              	.LBE349:
 386              	.LBB351:
 387              	.LBB352:
 388              	.LBB353:
 389              	.LBB354:
 390              	.LBB355:
 391              	.LBB356:
 392              		.loc 2 546 0
 393 0022 0023     		movs	r3, #0
 394              	@ 546 "ChibiOS_3.0.2/os/ext/CMSIS/include/core_cmFunc.h" 1
 395 0024 83F31188 		MSR basepri, r3
 396              	@ 0 "" 2
 397              	.LVL24:
 398              		.thumb
 399              	.L30:
ARM GAS  /tmp/ccC0USbu.s 			page 8


 400              	.LBE356:
 401              	.LBE355:
 402              	.LBE354:
 403              	.LBE353:
 404              	.LBE352:
 405              	.LBE351:
 406              	.LBE342:
 407              	.LBE341:
 408              		.loc 1 313 0
 409 0028 BDE83840 		pop	{r3, r4, r5, lr}
 410              		.cfi_remember_state
 411              		.cfi_restore 14
 412              		.cfi_restore 5
 413              		.cfi_restore 4
 414              		.cfi_restore 3
 415              		.cfi_def_cfa_offset 0
 416              	.LVL25:
 417              		.loc 1 312 0
 418 002c FFF7FEBF 		b	_port_irq_epilogue
 419              	.LVL26:
 420              	.L38:
 421              		.cfi_restore_state
 422              	.LBB374:
 423              	.LBB373:
 424              		.loc 1 167 0
 425 0030 5A69     		ldr	r2, [r3, #20]
 426 0032 22F00202 		bic	r2, r2, #2
 427 0036 5A61     		str	r2, [r3, #20]
 428              	.LVL27:
 429              	.LBB357:
 430              	.LBB358:
 431              	.LBB359:
 432              	.LBB360:
 433              	.LBB361:
 434              	.LBB362:
 435              		.loc 2 546 0
 436 0038 2023     		movs	r3, #32
 437              	@ 546 "ChibiOS_3.0.2/os/ext/CMSIS/include/core_cmFunc.h" 1
 438 003a 83F31188 		MSR basepri, r3
 439              	@ 0 "" 2
 440              	.LVL28:
 441              		.thumb
 442              	.LBE362:
 443              	.LBE361:
 444              	.LBE360:
 445              	.LBE359:
 446              	.LBE358:
 447              	.LBE357:
 448              	.LBB363:
 449              	.LBB364:
 450              		.loc 3 810 0
 451 003e 0021     		movs	r1, #0
 452 0040 05F11000 		add	r0, r5, #16
 453 0044 FFF7FEFF 		bl	chThdDequeueAllI
 454              	.LVL29:
 455              	.LBE364:
 456              	.LBE363:
ARM GAS  /tmp/ccC0USbu.s 			page 9


 457              	.LBB365:
 458              	.LBB366:
 459              		.loc 3 844 0
 460 0048 05F11800 		add	r0, r5, #24
 461 004c 0121     		movs	r1, #1
 462 004e FFF7FEFF 		bl	chEvtBroadcastFlagsI
 463              	.LVL30:
 464              	.LBE366:
 465              	.LBE365:
 466              	.LBB367:
 467              	.LBB368:
 468              	.LBB369:
 469              	.LBB370:
 470              	.LBB371:
 471              	.LBB372:
 472              		.loc 2 546 0
 473 0052 0023     		movs	r3, #0
 474              	@ 546 "ChibiOS_3.0.2/os/ext/CMSIS/include/core_cmFunc.h" 1
 475 0054 83F31188 		MSR basepri, r3
 476              	@ 0 "" 2
 477              		.thumb
 478 0058 D8E7     		b	.L29
 479              	.L40:
 480 005a 00BF     		.align	2
 481              	.L39:
 482 005c 00000000 		.word	.LANCHOR0
 483 0060 20000000 		.word	.LANCHOR0+32
 484              	.LBE372:
 485              	.LBE371:
 486              	.LBE370:
 487              	.LBE369:
 488              	.LBE368:
 489              	.LBE367:
 490              	.LBE373:
 491              	.LBE374:
 492              		.cfi_endproc
 493              	.LFE262:
 494              		.size	Vector90, .-Vector90
 495              		.section	.text.Vector94,"ax",%progbits
 496              		.align	2
 497              		.p2align 4,,15
 498              		.global	Vector94
 499              		.thumb
 500              		.thumb_func
 501              		.type	Vector94, %function
 502              	Vector94:
 503              	.LFB263:
 504              		.loc 1 320 0
 505              		.cfi_startproc
 506              		@ args = 0, pretend = 0, frame = 0
 507              		@ frame_needed = 0, uses_anonymous_args = 0
 508              	.LVL31:
 509 0000 38B5     		push	{r3, r4, r5, lr}
 510              		.cfi_def_cfa_offset 16
 511              		.cfi_offset 3, -16
 512              		.cfi_offset 4, -12
 513              		.cfi_offset 5, -8
ARM GAS  /tmp/ccC0USbu.s 			page 10


 514              		.cfi_offset 14, -4
 515              	.LBB407:
 516              	.LBB408:
 517              		.loc 1 192 0
 518 0002 164D     		ldr	r5, .L52
 519 0004 EB6A     		ldr	r3, [r5, #44]
 520 0006 1C69     		ldr	r4, [r3, #16]
 521              	.LVL32:
 522              		.loc 1 193 0
 523 0008 A207     		lsls	r2, r4, #30
 524 000a 11D1     		bne	.L51
 525              	.L42:
 526              		.loc 1 201 0
 527 000c E306     		lsls	r3, r4, #27
 528 000e 0BD5     		bpl	.L43
 529              		.loc 1 203 0
 530 0010 EB6A     		ldr	r3, [r5, #44]
 531 0012 1021     		movs	r1, #16
 532 0014 1961     		str	r1, [r3, #16]
 533              	.LVL33:
 534              	.LBB409:
 535              	.LBB410:
 536              	.LBB411:
 537              	.LBB412:
 538              	.LBB413:
 539              	.LBB414:
 540              		.loc 2 546 0
 541 0016 2023     		movs	r3, #32
 542              	@ 546 "ChibiOS_3.0.2/os/ext/CMSIS/include/core_cmFunc.h" 1
 543 0018 83F31188 		MSR basepri, r3
 544              	@ 0 "" 2
 545              	.LVL34:
 546              		.thumb
 547              	.LBE414:
 548              	.LBE413:
 549              	.LBE412:
 550              	.LBE411:
 551              	.LBE410:
 552              	.LBE409:
 553              	.LBB415:
 554              	.LBB416:
 555              		.loc 3 844 0
 556 001c 1048     		ldr	r0, .L52+4
 557 001e FFF7FEFF 		bl	chEvtBroadcastFlagsI
 558              	.LVL35:
 559              	.LBE416:
 560              	.LBE415:
 561              	.LBB417:
 562              	.LBB418:
 563              	.LBB419:
 564              	.LBB420:
 565              	.LBB421:
 566              	.LBB422:
 567              		.loc 2 546 0
 568 0022 0023     		movs	r3, #0
 569              	@ 546 "ChibiOS_3.0.2/os/ext/CMSIS/include/core_cmFunc.h" 1
 570 0024 83F31188 		MSR basepri, r3
ARM GAS  /tmp/ccC0USbu.s 			page 11


 571              	@ 0 "" 2
 572              	.LVL36:
 573              		.thumb
 574              	.L43:
 575              	.LBE422:
 576              	.LBE421:
 577              	.LBE420:
 578              	.LBE419:
 579              	.LBE418:
 580              	.LBE417:
 581              	.LBE408:
 582              	.LBE407:
 583              		.loc 1 327 0
 584 0028 BDE83840 		pop	{r3, r4, r5, lr}
 585              		.cfi_remember_state
 586              		.cfi_restore 14
 587              		.cfi_restore 5
 588              		.cfi_restore 4
 589              		.cfi_restore 3
 590              		.cfi_def_cfa_offset 0
 591              	.LVL37:
 592              		.loc 1 326 0
 593 002c FFF7FEBF 		b	_port_irq_epilogue
 594              	.LVL38:
 595              	.L51:
 596              		.cfi_restore_state
 597              	.LBB440:
 598              	.LBB439:
 599              		.loc 1 195 0
 600 0030 5A69     		ldr	r2, [r3, #20]
 601 0032 22F01002 		bic	r2, r2, #16
 602 0036 5A61     		str	r2, [r3, #20]
 603              	.LVL39:
 604              	.LBB423:
 605              	.LBB424:
 606              	.LBB425:
 607              	.LBB426:
 608              	.LBB427:
 609              	.LBB428:
 610              		.loc 2 546 0
 611 0038 2023     		movs	r3, #32
 612              	@ 546 "ChibiOS_3.0.2/os/ext/CMSIS/include/core_cmFunc.h" 1
 613 003a 83F31188 		MSR basepri, r3
 614              	@ 0 "" 2
 615              	.LVL40:
 616              		.thumb
 617              	.LBE428:
 618              	.LBE427:
 619              	.LBE426:
 620              	.LBE425:
 621              	.LBE424:
 622              	.LBE423:
 623              	.LBB429:
 624              	.LBB430:
 625              		.loc 3 810 0
 626 003e 0021     		movs	r1, #0
 627 0040 05F11000 		add	r0, r5, #16
ARM GAS  /tmp/ccC0USbu.s 			page 12


 628 0044 FFF7FEFF 		bl	chThdDequeueAllI
 629              	.LVL41:
 630              	.LBE430:
 631              	.LBE429:
 632              	.LBB431:
 633              	.LBB432:
 634              		.loc 3 844 0
 635 0048 05F11800 		add	r0, r5, #24
 636 004c 0221     		movs	r1, #2
 637 004e FFF7FEFF 		bl	chEvtBroadcastFlagsI
 638              	.LVL42:
 639              	.LBE432:
 640              	.LBE431:
 641              	.LBB433:
 642              	.LBB434:
 643              	.LBB435:
 644              	.LBB436:
 645              	.LBB437:
 646              	.LBB438:
 647              		.loc 2 546 0
 648 0052 0023     		movs	r3, #0
 649              	@ 546 "ChibiOS_3.0.2/os/ext/CMSIS/include/core_cmFunc.h" 1
 650 0054 83F31188 		MSR basepri, r3
 651              	@ 0 "" 2
 652              		.thumb
 653 0058 D8E7     		b	.L42
 654              	.L53:
 655 005a 00BF     		.align	2
 656              	.L52:
 657 005c 00000000 		.word	.LANCHOR0
 658 0060 20000000 		.word	.LANCHOR0+32
 659              	.LBE438:
 660              	.LBE437:
 661              	.LBE436:
 662              	.LBE435:
 663              	.LBE434:
 664              	.LBE433:
 665              	.LBE439:
 666              	.LBE440:
 667              		.cfi_endproc
 668              	.LFE263:
 669              		.size	Vector94, .-Vector94
 670              		.section	.text.Vector98,"ax",%progbits
 671              		.align	2
 672              		.p2align 4,,15
 673              		.global	Vector98
 674              		.thumb
 675              		.thumb_func
 676              		.type	Vector98, %function
 677              	Vector98:
 678              	.LFB264:
 679              		.loc 1 334 0
 680              		.cfi_startproc
 681              		@ args = 0, pretend = 0, frame = 0
 682              		@ frame_needed = 0, uses_anonymous_args = 0
 683              	.LVL43:
 684 0000 38B5     		push	{r3, r4, r5, lr}
ARM GAS  /tmp/ccC0USbu.s 			page 13


 685              		.cfi_def_cfa_offset 16
 686              		.cfi_offset 3, -16
 687              		.cfi_offset 4, -12
 688              		.cfi_offset 5, -8
 689              		.cfi_offset 14, -4
 690              	.LBB472:
 691              	.LBB473:
 692              		.loc 1 220 0
 693 0002 1B4D     		ldr	r5, .L69
 694 0004 EB6A     		ldr	r3, [r5, #44]
 695 0006 5C68     		ldr	r4, [r3, #4]
 696              	.LVL44:
 697              		.loc 1 221 0
 698 0008 1C22     		movs	r2, #28
 699 000a 5A60     		str	r2, [r3, #4]
 700              		.loc 1 224 0
 701 000c 2207     		lsls	r2, r4, #28
 702 000e 1DD4     		bmi	.L68
 703              	.L55:
 704              		.loc 1 233 0
 705 0010 6307     		lsls	r3, r4, #29
 706 0012 17D5     		bpl	.L56
 707              	.LBB474:
 708              		.loc 1 235 0
 709 0014 EA6A     		ldr	r2, [r5, #44]
 710 0016 9369     		ldr	r3, [r2, #24]
 711              	.LVL45:
 712              		.loc 1 237 0
 713 0018 9169     		ldr	r1, [r2, #24]
 714 001a 21F07001 		bic	r1, r1, #112
 715 001e 9161     		str	r1, [r2, #24]
 716              		.loc 1 239 0
 717 0020 13F0700F 		tst	r3, #112
 718              		.loc 1 238 0
 719 0024 03F00701 		and	r1, r3, #7
 720              	.LVL46:
 721              		.loc 1 240 0
 722 0028 18BF     		it	ne
 723 002a 41F00801 		orrne	r1, r1, #8
 724              	.LVL47:
 725              	.LBB475:
 726              	.LBB476:
 727              	.LBB477:
 728              	.LBB478:
 729              	.LBB479:
 730              	.LBB480:
 731              		.loc 2 546 0
 732 002e 2022     		movs	r2, #32
 733              	@ 546 "ChibiOS_3.0.2/os/ext/CMSIS/include/core_cmFunc.h" 1
 734 0030 82F31188 		MSR basepri, r2
 735              	@ 0 "" 2
 736              	.LVL48:
 737              		.thumb
 738              	.LBE480:
 739              	.LBE479:
 740              	.LBE478:
 741              	.LBE477:
ARM GAS  /tmp/ccC0USbu.s 			page 14


 742              	.LBE476:
 743              	.LBE475:
 744              	.LBB481:
 745              	.LBB482:
 746              		.loc 3 844 0
 747 0034 0F48     		ldr	r0, .L69+4
 748 0036 41EA0341 		orr	r1, r1, r3, lsl #16
 749              	.LVL49:
 750 003a FFF7FEFF 		bl	chEvtBroadcastFlagsI
 751              	.LVL50:
 752              	.LBE482:
 753              	.LBE481:
 754              	.LBB483:
 755              	.LBB484:
 756              	.LBB485:
 757              	.LBB486:
 758              	.LBB487:
 759              	.LBB488:
 760              		.loc 2 546 0
 761 003e 0023     		movs	r3, #0
 762              	@ 546 "ChibiOS_3.0.2/os/ext/CMSIS/include/core_cmFunc.h" 1
 763 0040 83F31188 		MSR basepri, r3
 764              	@ 0 "" 2
 765              	.LVL51:
 766              		.thumb
 767              	.L56:
 768              	.LBE488:
 769              	.LBE487:
 770              	.LBE486:
 771              	.LBE485:
 772              	.LBE484:
 773              	.LBE483:
 774              	.LBE474:
 775              	.LBE473:
 776              	.LBE472:
 777              		.loc 1 341 0
 778 0044 BDE83840 		pop	{r3, r4, r5, lr}
 779              		.cfi_remember_state
 780              		.cfi_restore 14
 781              		.cfi_restore 5
 782              		.cfi_restore 4
 783              		.cfi_restore 3
 784              		.cfi_def_cfa_offset 0
 785              	.LVL52:
 786              		.loc 1 340 0
 787 0048 FFF7FEBF 		b	_port_irq_epilogue
 788              	.LVL53:
 789              	.L68:
 790              		.cfi_restore_state
 791              	.LBB510:
 792              	.LBB509:
 793              		.loc 1 226 0
 794 004c 1A68     		ldr	r2, [r3]
 795              		.loc 1 225 0
 796 004e 2846     		mov	r0, r5
 797              		.loc 1 226 0
 798 0050 22F00202 		bic	r2, r2, #2
ARM GAS  /tmp/ccC0USbu.s 			page 15


 799              		.loc 1 225 0
 800 0054 0321     		movs	r1, #3
 801 0056 00F8281B 		strb	r1, [r0], #40
 802              	.LBB489:
 803              	.LBB490:
 804              	.LBB491:
 805              	.LBB492:
 806              	.LBB493:
 807              	.LBB494:
 808              		.loc 2 546 0
 809 005a 2021     		movs	r1, #32
 810              	.LBE494:
 811              	.LBE493:
 812              	.LBE492:
 813              	.LBE491:
 814              	.LBE490:
 815              	.LBE489:
 816              		.loc 1 226 0
 817 005c 1A60     		str	r2, [r3]
 818              	.LVL54:
 819              	.LBB500:
 820              	.LBB499:
 821              	.LBB498:
 822              	.LBB497:
 823              	.LBB496:
 824              	.LBB495:
 825              		.loc 2 546 0
 826              	@ 546 "ChibiOS_3.0.2/os/ext/CMSIS/include/core_cmFunc.h" 1
 827 005e 81F31188 		MSR basepri, r1
 828              	@ 0 "" 2
 829              	.LVL55:
 830              		.thumb
 831              	.LBE495:
 832              	.LBE496:
 833              	.LBE497:
 834              	.LBE498:
 835              	.LBE499:
 836              	.LBE500:
 837              	.LBB501:
 838              	.LBB502:
 839              		.loc 3 844 0
 840 0062 0021     		movs	r1, #0
 841 0064 FFF7FEFF 		bl	chEvtBroadcastFlagsI
 842              	.LVL56:
 843              	.LBE502:
 844              	.LBE501:
 845              	.LBB503:
 846              	.LBB504:
 847              	.LBB505:
 848              	.LBB506:
 849              	.LBB507:
 850              	.LBB508:
 851              		.loc 2 546 0
 852 0068 0023     		movs	r3, #0
 853              	@ 546 "ChibiOS_3.0.2/os/ext/CMSIS/include/core_cmFunc.h" 1
 854 006a 83F31188 		MSR basepri, r3
 855              	@ 0 "" 2
ARM GAS  /tmp/ccC0USbu.s 			page 16


 856              		.thumb
 857 006e CFE7     		b	.L55
 858              	.L70:
 859              		.align	2
 860              	.L69:
 861 0070 00000000 		.word	.LANCHOR0
 862 0074 20000000 		.word	.LANCHOR0+32
 863              	.LBE508:
 864              	.LBE507:
 865              	.LBE506:
 866              	.LBE505:
 867              	.LBE504:
 868              	.LBE503:
 869              	.LBE509:
 870              	.LBE510:
 871              		.cfi_endproc
 872              	.LFE264:
 873              		.size	Vector98, .-Vector98
 874              		.section	.text.can_lld_init,"ax",%progbits
 875              		.align	2
 876              		.p2align 4,,15
 877              		.global	can_lld_init
 878              		.thumb
 879              		.thumb_func
 880              		.type	can_lld_init, %function
 881              	can_lld_init:
 882              	.LFB265:
 883              		.loc 1 445 0
 884              		.cfi_startproc
 885              		@ args = 0, pretend = 0, frame = 0
 886              		@ frame_needed = 0, uses_anonymous_args = 0
 887 0000 10B5     		push	{r4, lr}
 888              		.cfi_def_cfa_offset 8
 889              		.cfi_offset 4, -8
 890              		.cfi_offset 14, -4
 891              		.loc 1 449 0
 892 0002 064C     		ldr	r4, .L73
 893 0004 2046     		mov	r0, r4
 894 0006 FFF7FEFF 		bl	canObjectInit
 895              	.LVL57:
 896              		.loc 1 460 0
 897 000a 0021     		movs	r1, #0
 898              		.loc 1 450 0
 899 000c 044B     		ldr	r3, .L73+4
 900 000e E362     		str	r3, [r4, #44]
 901              		.loc 1 460 0
 902 0010 0A46     		mov	r2, r1
 903 0012 0E20     		movs	r0, #14
 904              		.loc 1 464 0
 905 0014 BDE81040 		pop	{r4, lr}
 906              		.cfi_restore 14
 907              		.cfi_restore 4
 908              		.cfi_def_cfa_offset 0
 909              		.loc 1 460 0
 910 0018 FFF7FEBF 		b	can_lld_set_filters
 911              	.LVL58:
 912              	.L74:
ARM GAS  /tmp/ccC0USbu.s 			page 17


 913              		.align	2
 914              	.L73:
 915 001c 00000000 		.word	.LANCHOR0
 916 0020 00640040 		.word	1073767424
 917              		.cfi_endproc
 918              	.LFE265:
 919              		.size	can_lld_init, .-can_lld_init
 920              		.section	.text.can_lld_start,"ax",%progbits
 921              		.align	2
 922              		.p2align 4,,15
 923              		.global	can_lld_start
 924              		.thumb
 925              		.thumb_func
 926              		.type	can_lld_start, %function
 927              	can_lld_start:
 928              	.LFB266:
 929              		.loc 1 473 0
 930              		.cfi_startproc
 931              		@ args = 0, pretend = 0, frame = 0
 932              		@ frame_needed = 0, uses_anonymous_args = 0
 933              	.LVL59:
 934              		.loc 1 477 0
 935 0000 184B     		ldr	r3, .L83
 936 0002 9842     		cmp	r0, r3
 937              		.loc 1 473 0
 938 0004 10B5     		push	{r4, lr}
 939              		.cfi_def_cfa_offset 8
 940              		.cfi_offset 4, -8
 941              		.cfi_offset 14, -4
 942              		.loc 1 473 0
 943 0006 0446     		mov	r4, r0
 944              		.loc 1 477 0
 945 0008 15D0     		beq	.L82
 946              	.LVL60:
 947              	.L76:
 948              		.loc 1 507 0
 949 000a E36A     		ldr	r3, [r4, #44]
 950 000c 0122     		movs	r2, #1
 951 000e 1A60     		str	r2, [r3]
 952              		.loc 1 508 0
 953 0010 5A68     		ldr	r2, [r3, #4]
 954 0012 D107     		lsls	r1, r2, #31
 955 0014 07D4     		bmi	.L77
 956              	.L78:
 957              	.LVL61:
 958              	.LBB511:
 959              	.LBB512:
 960              	.LBB513:
 961              		.file 4 "ChibiOS_3.0.2/os/rt/include/chthreads.h"
 962              		.loc 4 268 0
 963 0016 0820     		movs	r0, #8
 964 0018 0121     		movs	r1, #1
 965 001a FFF7FEFF 		bl	chSchGoSleepTimeoutS
 966              	.LVL62:
 967              	.LBE513:
 968              	.LBE512:
 969              	.LBE511:
ARM GAS  /tmp/ccC0USbu.s 			page 18


 970              		.loc 1 508 0
 971 001e E36A     		ldr	r3, [r4, #44]
 972 0020 5A68     		ldr	r2, [r3, #4]
 973 0022 D207     		lsls	r2, r2, #31
 974 0024 F7D5     		bpl	.L78
 975              	.LVL63:
 976              	.L77:
 977              		.loc 1 510 0
 978 0026 6268     		ldr	r2, [r4, #4]
 979              		.loc 1 514 0
 980 0028 0F49     		ldr	r1, .L83+4
 981              		.loc 1 510 0
 982 002a 5068     		ldr	r0, [r2, #4]
 983              		.loc 1 511 0
 984 002c 1268     		ldr	r2, [r2]
 985              		.loc 1 510 0
 986 002e D861     		str	r0, [r3, #28]
 987              		.loc 1 511 0
 988 0030 1A60     		str	r2, [r3]
 989              		.loc 1 514 0
 990 0032 5961     		str	r1, [r3, #20]
 991 0034 10BD     		pop	{r4, pc}
 992              	.LVL64:
 993              	.L82:
 994              		.loc 1 481 0
 995 0036 1320     		movs	r0, #19
 996              	.LVL65:
 997 0038 0B21     		movs	r1, #11
 998 003a FFF7FEFF 		bl	nvicEnableVector
 999              	.LVL66:
 1000              		.loc 1 482 0
 1001 003e 1420     		movs	r0, #20
 1002 0040 0B21     		movs	r1, #11
 1003 0042 FFF7FEFF 		bl	nvicEnableVector
 1004              	.LVL67:
 1005              		.loc 1 483 0
 1006 0046 1520     		movs	r0, #21
 1007 0048 0B21     		movs	r1, #11
 1008 004a FFF7FEFF 		bl	nvicEnableVector
 1009              	.LVL68:
 1010              		.loc 1 484 0
 1011 004e 1620     		movs	r0, #22
 1012 0050 0B21     		movs	r1, #11
 1013 0052 FFF7FEFF 		bl	nvicEnableVector
 1014              	.LVL69:
 1015              		.loc 1 486 0
 1016 0056 054A     		ldr	r2, .L83+8
 1017 0058 136C     		ldr	r3, [r2, #64]
 1018 005a 43F00073 		orr	r3, r3, #33554432
 1019 005e 1364     		str	r3, [r2, #64]
 1020 0060 D3E7     		b	.L76
 1021              	.L84:
 1022 0062 00BF     		.align	2
 1023              	.L83:
 1024 0064 00000000 		.word	.LANCHOR0
 1025 0068 5B8F0100 		.word	102235
 1026 006c 00380240 		.word	1073887232
ARM GAS  /tmp/ccC0USbu.s 			page 19


 1027              		.cfi_endproc
 1028              	.LFE266:
 1029              		.size	can_lld_start, .-can_lld_start
 1030              		.section	.text.can_lld_stop,"ax",%progbits
 1031              		.align	2
 1032              		.p2align 4,,15
 1033              		.global	can_lld_stop
 1034              		.thumb
 1035              		.thumb_func
 1036              		.type	can_lld_stop, %function
 1037              	can_lld_stop:
 1038              	.LFB267:
 1039              		.loc 1 527 0
 1040              		.cfi_startproc
 1041              		@ args = 0, pretend = 0, frame = 0
 1042              		@ frame_needed = 0, uses_anonymous_args = 0
 1043              	.LVL70:
 1044 0000 08B5     		push	{r3, lr}
 1045              		.cfi_def_cfa_offset 8
 1046              		.cfi_offset 3, -8
 1047              		.cfi_offset 14, -4
 1048              		.loc 1 530 0
 1049 0002 0378     		ldrb	r3, [r0]	@ zero_extendqisi2
 1050 0004 032B     		cmp	r3, #3
 1051 0006 00D0     		beq	.L88
 1052              	.LVL71:
 1053              	.L85:
 1054 0008 08BD     		pop	{r3, pc}
 1055              	.LVL72:
 1056              	.L88:
 1057              		.loc 1 532 0
 1058 000a 0D4B     		ldr	r3, .L89
 1059 000c 9842     		cmp	r0, r3
 1060 000e FBD1     		bne	.L85
 1061              		.loc 1 538 0
 1062 0010 0C4B     		ldr	r3, .L89+4
 1063 0012 0D4A     		ldr	r2, .L89+8
 1064 0014 1A60     		str	r2, [r3]
 1065              		.loc 1 539 0
 1066 0016 0022     		movs	r2, #0
 1067 0018 5A61     		str	r2, [r3, #20]
 1068              		.loc 1 543 0
 1069 001a 1320     		movs	r0, #19
 1070              	.LVL73:
 1071 001c FFF7FEFF 		bl	nvicDisableVector
 1072              	.LVL74:
 1073              		.loc 1 544 0
 1074 0020 1420     		movs	r0, #20
 1075 0022 FFF7FEFF 		bl	nvicDisableVector
 1076              	.LVL75:
 1077              		.loc 1 545 0
 1078 0026 1520     		movs	r0, #21
 1079 0028 FFF7FEFF 		bl	nvicDisableVector
 1080              	.LVL76:
 1081              		.loc 1 546 0
 1082 002c 1620     		movs	r0, #22
 1083 002e FFF7FEFF 		bl	nvicDisableVector
ARM GAS  /tmp/ccC0USbu.s 			page 20


 1084              	.LVL77:
 1085              		.loc 1 548 0
 1086 0032 064A     		ldr	r2, .L89+12
 1087 0034 136C     		ldr	r3, [r2, #64]
 1088 0036 23F00073 		bic	r3, r3, #33554432
 1089 003a 1364     		str	r3, [r2, #64]
 1090 003c E4E7     		b	.L85
 1091              	.L90:
 1092 003e 00BF     		.align	2
 1093              	.L89:
 1094 0040 00000000 		.word	.LANCHOR0
 1095 0044 00640040 		.word	1073767424
 1096 0048 02000100 		.word	65538
 1097 004c 00380240 		.word	1073887232
 1098              		.cfi_endproc
 1099              	.LFE267:
 1100              		.size	can_lld_stop, .-can_lld_stop
 1101              		.section	.text.can_lld_is_tx_empty,"ax",%progbits
 1102              		.align	2
 1103              		.p2align 4,,15
 1104              		.global	can_lld_is_tx_empty
 1105              		.thumb
 1106              		.thumb_func
 1107              		.type	can_lld_is_tx_empty, %function
 1108              	can_lld_is_tx_empty:
 1109              	.LFB268:
 1110              		.loc 1 581 0
 1111              		.cfi_startproc
 1112              		@ args = 0, pretend = 0, frame = 0
 1113              		@ frame_needed = 0, uses_anonymous_args = 0
 1114              		@ link register save eliminated.
 1115              	.LVL78:
 1116              		.loc 1 583 0
 1117 0000 0329     		cmp	r1, #3
 1118 0002 1AD8     		bhi	.L98
 1119 0004 DFE801F0 		tbb	[pc, r1]
 1120              	.L94:
 1121 0008 11       		.byte	(.L93-.L94)/2
 1122 0009 0C       		.byte	(.L95-.L94)/2
 1123 000a 07       		.byte	(.L96-.L94)/2
 1124 000b 02       		.byte	(.L97-.L94)/2
 1125              		.p2align 1
 1126              	.L97:
 1127              		.loc 1 591 0
 1128 000c C36A     		ldr	r3, [r0, #44]
 1129 000e 9868     		ldr	r0, [r3, #8]
 1130              	.LVL79:
 1131 0010 C0F30070 		ubfx	r0, r0, #28, #1
 1132 0014 7047     		bx	lr
 1133              	.LVL80:
 1134              	.L96:
 1135              		.loc 1 589 0
 1136 0016 C36A     		ldr	r3, [r0, #44]
 1137 0018 9868     		ldr	r0, [r3, #8]
 1138              	.LVL81:
 1139 001a C0F3C060 		ubfx	r0, r0, #27, #1
 1140 001e 7047     		bx	lr
ARM GAS  /tmp/ccC0USbu.s 			page 21


 1141              	.LVL82:
 1142              	.L95:
 1143              		.loc 1 587 0
 1144 0020 C36A     		ldr	r3, [r0, #44]
 1145 0022 9868     		ldr	r0, [r3, #8]
 1146              	.LVL83:
 1147 0024 C0F38060 		ubfx	r0, r0, #26, #1
 1148 0028 7047     		bx	lr
 1149              	.LVL84:
 1150              	.L93:
 1151              		.loc 1 585 0
 1152 002a C36A     		ldr	r3, [r0, #44]
 1153 002c 9B68     		ldr	r3, [r3, #8]
 1154 002e 13F0E05F 		tst	r3, #469762048
 1155 0032 14BF     		ite	ne
 1156 0034 0120     		movne	r0, #1
 1157              	.LVL85:
 1158 0036 0020     		moveq	r0, #0
 1159 0038 7047     		bx	lr
 1160              	.LVL86:
 1161              	.L98:
 1162              		.loc 1 593 0
 1163 003a 0020     		movs	r0, #0
 1164              	.LVL87:
 1165              		.loc 1 595 0
 1166 003c 7047     		bx	lr
 1167              		.cfi_endproc
 1168              	.LFE268:
 1169              		.size	can_lld_is_tx_empty, .-can_lld_is_tx_empty
 1170 003e 00BF     		.section	.text.can_lld_transmit,"ax",%progbits
 1171              		.align	2
 1172              		.p2align 4,,15
 1173              		.global	can_lld_transmit
 1174              		.thumb
 1175              		.thumb_func
 1176              		.type	can_lld_transmit, %function
 1177              	can_lld_transmit:
 1178              	.LFB269:
 1179              		.loc 1 608 0
 1180              		.cfi_startproc
 1181              		@ args = 0, pretend = 0, frame = 0
 1182              		@ frame_needed = 0, uses_anonymous_args = 0
 1183              		@ link register save eliminated.
 1184              	.LVL88:
 1185 0000 10B4     		push	{r4}
 1186              		.cfi_def_cfa_offset 4
 1187              		.cfi_offset 4, -4
 1188              		.loc 1 613 0
 1189 0002 0329     		cmp	r1, #3
 1190 0004 1BD8     		bhi	.L99
 1191 0006 DFE801F0 		tbb	[pc, r1]
 1192              	.L102:
 1193 000a 2E       		.byte	(.L101-.L102)/2
 1194 000b 2A       		.byte	(.L103-.L102)/2
 1195 000c 1D       		.byte	(.L104-.L102)/2
 1196 000d 02       		.byte	(.L105-.L102)/2
 1197              		.p2align 1
ARM GAS  /tmp/ccC0USbu.s 			page 22


 1198              	.L105:
 1199              		.loc 1 624 0
 1200 000e C06A     		ldr	r0, [r0, #44]
 1201              	.LVL89:
 1202 0010 00F5D070 		add	r0, r0, #416
 1203              	.LVL90:
 1204              	.L106:
 1205              		.loc 1 631 0
 1206 0014 1478     		ldrb	r4, [r2]	@ zero_extendqisi2
 1207 0016 A306     		lsls	r3, r4, #26
 1208 0018 1AD5     		bpl	.L107
 1209              	.L110:
 1210              		.loc 1 632 0
 1211 001a C4F30013 		ubfx	r3, r4, #4, #1
 1212 001e 5168     		ldr	r1, [r2, #4]
 1213              	.LVL91:
 1214 0020 5B00     		lsls	r3, r3, #1
 1215 0022 43EAC103 		orr	r3, r3, r1, lsl #3
 1216 0026 43F00403 		orr	r3, r3, #4
 1217              	.LVL92:
 1218              	.L108:
 1219              		.loc 1 636 0
 1220 002a 04F00F04 		and	r4, r4, #15
 1221 002e 4460     		str	r4, [r0, #4]
 1222              		.loc 1 637 0
 1223 0030 9168     		ldr	r1, [r2, #8]
 1224 0032 8160     		str	r1, [r0, #8]
 1225              		.loc 1 638 0
 1226 0034 D268     		ldr	r2, [r2, #12]
 1227              	.LVL93:
 1228 0036 C260     		str	r2, [r0, #12]
 1229              		.loc 1 639 0
 1230 0038 43F00103 		orr	r3, r3, #1
 1231              	.LVL94:
 1232 003c 0360     		str	r3, [r0]
 1233              	.LVL95:
 1234              	.L99:
 1235              		.loc 1 640 0
 1236 003e 5DF8044B 		ldr	r4, [sp], #4
 1237              		.cfi_remember_state
 1238              		.cfi_restore 4
 1239              		.cfi_def_cfa_offset 0
 1240 0042 7047     		bx	lr
 1241              	.LVL96:
 1242              	.L104:
 1243              		.cfi_restore_state
 1244              		.loc 1 631 0
 1245 0044 1478     		ldrb	r4, [r2]	@ zero_extendqisi2
 1246              		.loc 1 621 0
 1247 0046 C06A     		ldr	r0, [r0, #44]
 1248              	.LVL97:
 1249              		.loc 1 631 0
 1250 0048 A306     		lsls	r3, r4, #26
 1251              		.loc 1 621 0
 1252 004a 00F5C870 		add	r0, r0, #400
 1253              	.LVL98:
 1254              		.loc 1 631 0
ARM GAS  /tmp/ccC0USbu.s 			page 23


 1255 004e E4D4     		bmi	.L110
 1256              	.L107:
 1257              		.loc 1 635 0
 1258 0050 9188     		ldrh	r1, [r2, #4]
 1259              	.LVL99:
 1260 0052 C4F30013 		ubfx	r3, r4, #4, #1
 1261 0056 4905     		lsls	r1, r1, #21
 1262 0058 41EA4303 		orr	r3, r1, r3, lsl #1
 1263              	.LVL100:
 1264 005c E5E7     		b	.L108
 1265              	.LVL101:
 1266              	.L103:
 1267              		.loc 1 618 0
 1268 005e C06A     		ldr	r0, [r0, #44]
 1269              	.LVL102:
 1270 0060 00F5C070 		add	r0, r0, #384
 1271              	.LVL103:
 1272              		.loc 1 619 0
 1273 0064 D6E7     		b	.L106
 1274              	.LVL104:
 1275              	.L101:
 1276              		.loc 1 615 0
 1277 0066 C06A     		ldr	r0, [r0, #44]
 1278              	.LVL105:
 1279 0068 8368     		ldr	r3, [r0, #8]
 1280 006a C3F30163 		ubfx	r3, r3, #24, #2
 1281 006e 1833     		adds	r3, r3, #24
 1282 0070 00EB0310 		add	r0, r0, r3, lsl #4
 1283              	.LVL106:
 1284              		.loc 1 616 0
 1285 0074 CEE7     		b	.L106
 1286              		.cfi_endproc
 1287              	.LFE269:
 1288              		.size	can_lld_transmit, .-can_lld_transmit
 1289 0076 00BF     		.section	.text.can_lld_is_rx_nonempty,"ax",%progbits
 1290              		.align	2
 1291              		.p2align 4,,15
 1292              		.global	can_lld_is_rx_nonempty
 1293              		.thumb
 1294              		.thumb_func
 1295              		.type	can_lld_is_rx_nonempty, %function
 1296              	can_lld_is_rx_nonempty:
 1297              	.LFB270:
 1298              		.loc 1 654 0
 1299              		.cfi_startproc
 1300              		@ args = 0, pretend = 0, frame = 0
 1301              		@ frame_needed = 0, uses_anonymous_args = 0
 1302              		@ link register save eliminated.
 1303              	.LVL107:
 1304              		.loc 1 656 0
 1305 0000 0129     		cmp	r1, #1
 1306 0002 11D0     		beq	.L113
 1307 0004 0AD3     		bcc	.L114
 1308 0006 0229     		cmp	r1, #2
 1309 0008 06D1     		bne	.L122
 1310              		.loc 1 663 0
 1311 000a C36A     		ldr	r3, [r0, #44]
ARM GAS  /tmp/ccC0USbu.s 			page 24


 1312              	.L120:
 1313 000c 1869     		ldr	r0, [r3, #16]
 1314              	.LVL108:
 1315 000e 10F00300 		ands	r0, r0, #3
 1316 0012 18BF     		it	ne
 1317 0014 0120     		movne	r0, #1
 1318 0016 7047     		bx	lr
 1319              	.LVL109:
 1320              	.L122:
 1321              		.loc 1 665 0
 1322 0018 0020     		movs	r0, #0
 1323              	.LVL110:
 1324              		.loc 1 667 0
 1325 001a 7047     		bx	lr
 1326              	.LVL111:
 1327              	.L114:
 1328              		.loc 1 658 0
 1329 001c C36A     		ldr	r3, [r0, #44]
 1330 001e DA68     		ldr	r2, [r3, #12]
 1331 0020 9207     		lsls	r2, r2, #30
 1332 0022 F3D0     		beq	.L120
 1333 0024 0120     		movs	r0, #1
 1334              	.LVL112:
 1335 0026 7047     		bx	lr
 1336              	.LVL113:
 1337              	.L113:
 1338              		.loc 1 661 0
 1339 0028 C36A     		ldr	r3, [r0, #44]
 1340 002a D868     		ldr	r0, [r3, #12]
 1341              	.LVL114:
 1342 002c 10F00300 		ands	r0, r0, #3
 1343 0030 18BF     		it	ne
 1344 0032 0120     		movne	r0, #1
 1345 0034 7047     		bx	lr
 1346              		.cfi_endproc
 1347              	.LFE270:
 1348              		.size	can_lld_is_rx_nonempty, .-can_lld_is_rx_nonempty
 1349 0036 00BF     		.section	.text.can_lld_receive,"ax",%progbits
 1350              		.align	2
 1351              		.p2align 4,,15
 1352              		.global	can_lld_receive
 1353              		.thumb
 1354              		.thumb_func
 1355              		.type	can_lld_receive, %function
 1356              	can_lld_receive:
 1357              	.LFB271:
 1358              		.loc 1 680 0
 1359              		.cfi_startproc
 1360              		@ args = 0, pretend = 0, frame = 0
 1361              		@ frame_needed = 0, uses_anonymous_args = 0
 1362              		@ link register save eliminated.
 1363              	.LVL115:
 1364 0000 10B4     		push	{r4}
 1365              		.cfi_def_cfa_offset 4
 1366              		.cfi_offset 4, -4
 1367              		.loc 1 683 0
 1368 0002 0029     		cmp	r1, #0
ARM GAS  /tmp/ccC0USbu.s 			page 25


 1369 0004 30D1     		bne	.L124
 1370              		.loc 1 684 0
 1371 0006 C36A     		ldr	r3, [r0, #44]
 1372 0008 D968     		ldr	r1, [r3, #12]
 1373              	.LVL116:
 1374 000a 8907     		lsls	r1, r1, #30
 1375 000c 33D0     		beq	.L134
 1376              	.L125:
 1377              	.LVL117:
 1378              		.loc 1 696 0
 1379 000e D3F8B041 		ldr	r4, [r3, #432]
 1380              	.LVL118:
 1381              		.loc 1 697 0
 1382 0012 D3F8B411 		ldr	r1, [r3, #436]
 1383              	.LVL119:
 1384              		.loc 1 698 0
 1385 0016 D3F8B831 		ldr	r3, [r3, #440]
 1386 001a D360     		str	r3, [r2, #12]
 1387              		.loc 1 699 0
 1388 001c C36A     		ldr	r3, [r0, #44]
 1389 001e D3F8BC31 		ldr	r3, [r3, #444]
 1390 0022 1361     		str	r3, [r2, #16]
 1391              		.loc 1 702 0
 1392 0024 C36A     		ldr	r3, [r0, #44]
 1393 0026 2020     		movs	r0, #32
 1394              	.LVL120:
 1395 0028 D860     		str	r0, [r3, #12]
 1396              		.loc 1 706 0
 1397 002a D868     		ldr	r0, [r3, #12]
 1398 002c 8007     		lsls	r0, r0, #30
 1399 002e 41D0     		beq	.L135
 1400              	.L130:
 1401              		.loc 1 730 0
 1402 0030 1379     		ldrb	r3, [r2, #4]	@ zero_extendqisi2
 1403 0032 C4F34000 		ubfx	r0, r4, #1, #1
 1404 0036 60F30413 		bfi	r3, r0, #4, #1
 1405              		.loc 1 731 0
 1406 003a C4F38000 		ubfx	r0, r4, #2, #1
 1407 003e 60F34513 		bfi	r3, r0, #5, #1
 1408 0042 1371     		strb	r3, [r2, #4]
 1409              		.loc 1 732 0
 1410 0044 9B06     		lsls	r3, r3, #26
 1411 0046 2FD5     		bpl	.L131
 1412              		.loc 1 733 0
 1413 0048 9368     		ldr	r3, [r2, #8]
 1414 004a E408     		lsrs	r4, r4, #3
 1415              	.LVL121:
 1416 004c 64F31C03 		bfi	r3, r4, #0, #29
 1417 0050 9360     		str	r3, [r2, #8]
 1418              	.L132:
 1419              		.loc 1 736 0
 1420 0052 1379     		ldrb	r3, [r2, #4]	@ zero_extendqisi2
 1421              		.loc 1 739 0
 1422 0054 5DF8044B 		ldr	r4, [sp], #4
 1423              		.cfi_remember_state
 1424              		.cfi_restore 4
 1425              		.cfi_def_cfa_offset 0
ARM GAS  /tmp/ccC0USbu.s 			page 26


 1426              		.loc 1 737 0
 1427 0058 080A     		lsrs	r0, r1, #8
 1428              		.loc 1 736 0
 1429 005a 61F30303 		bfi	r3, r1, #0, #4
 1430              		.loc 1 738 0
 1431 005e 090C     		lsrs	r1, r1, #16
 1432              	.LVL122:
 1433              		.loc 1 736 0
 1434 0060 1371     		strb	r3, [r2, #4]
 1435              		.loc 1 737 0
 1436 0062 1070     		strb	r0, [r2]
 1437              		.loc 1 738 0
 1438 0064 5180     		strh	r1, [r2, #2]	@ movhi
 1439              		.loc 1 739 0
 1440 0066 7047     		bx	lr
 1441              	.LVL123:
 1442              	.L124:
 1443              		.cfi_restore_state
 1444              		.loc 1 693 0
 1445 0068 0129     		cmp	r1, #1
 1446 006a 28D0     		beq	.L128
 1447 006c 0229     		cmp	r1, #2
 1448 006e 28D0     		beq	.L136
 1449              	.LVL124:
 1450              	.L123:
 1451              		.loc 1 739 0
 1452 0070 5DF8044B 		ldr	r4, [sp], #4
 1453              		.cfi_remember_state
 1454              		.cfi_restore 4
 1455              		.cfi_def_cfa_offset 0
 1456 0074 7047     		bx	lr
 1457              	.L134:
 1458              		.cfi_restore_state
 1459              		.loc 1 686 0
 1460 0076 1969     		ldr	r1, [r3, #16]
 1461 0078 8C07     		lsls	r4, r1, #30
 1462 007a F9D0     		beq	.L123
 1463              	.L126:
 1464              	.LVL125:
 1465              		.loc 1 711 0
 1466 007c D3F8C041 		ldr	r4, [r3, #448]
 1467              	.LVL126:
 1468              		.loc 1 712 0
 1469 0080 D3F8C411 		ldr	r1, [r3, #452]
 1470              	.LVL127:
 1471              		.loc 1 713 0
 1472 0084 D3F8C831 		ldr	r3, [r3, #456]
 1473 0088 D360     		str	r3, [r2, #12]
 1474              		.loc 1 714 0
 1475 008a C36A     		ldr	r3, [r0, #44]
 1476 008c D3F8CC31 		ldr	r3, [r3, #460]
 1477 0090 1361     		str	r3, [r2, #16]
 1478              		.loc 1 717 0
 1479 0092 C36A     		ldr	r3, [r0, #44]
 1480 0094 2020     		movs	r0, #32
 1481              	.LVL128:
 1482 0096 1861     		str	r0, [r3, #16]
ARM GAS  /tmp/ccC0USbu.s 			page 27


 1483              		.loc 1 721 0
 1484 0098 1869     		ldr	r0, [r3, #16]
 1485 009a 8007     		lsls	r0, r0, #30
 1486 009c C8D1     		bne	.L130
 1487              		.loc 1 722 0
 1488 009e 5869     		ldr	r0, [r3, #20]
 1489 00a0 40F01000 		orr	r0, r0, #16
 1490 00a4 5861     		str	r0, [r3, #20]
 1491 00a6 C3E7     		b	.L130
 1492              	.L131:
 1493              		.loc 1 735 0
 1494 00a8 1389     		ldrh	r3, [r2, #8]
 1495 00aa 640D     		lsrs	r4, r4, #21
 1496              	.LVL129:
 1497 00ac 64F30A03 		bfi	r3, r4, #0, #11
 1498 00b0 1381     		strh	r3, [r2, #8]	@ movhi
 1499 00b2 CEE7     		b	.L132
 1500              	.LVL130:
 1501              	.L135:
 1502              		.loc 1 707 0
 1503 00b4 5869     		ldr	r0, [r3, #20]
 1504 00b6 40F00200 		orr	r0, r0, #2
 1505 00ba 5861     		str	r0, [r3, #20]
 1506 00bc B8E7     		b	.L130
 1507              	.LVL131:
 1508              	.L128:
 1509 00be C36A     		ldr	r3, [r0, #44]
 1510 00c0 A5E7     		b	.L125
 1511              	.L136:
 1512 00c2 C36A     		ldr	r3, [r0, #44]
 1513 00c4 DAE7     		b	.L126
 1514              		.cfi_endproc
 1515              	.LFE271:
 1516              		.size	can_lld_receive, .-can_lld_receive
 1517              		.section	.text.can_lld_sleep,"ax",%progbits
 1518              		.align	2
 1519              		.p2align 4,,15
 1520              		.global	can_lld_sleep
 1521              		.thumb
 1522              		.thumb_func
 1523              		.type	can_lld_sleep, %function
 1524              	can_lld_sleep:
 1525              	.LFB272:
 1526              		.loc 1 749 0
 1527              		.cfi_startproc
 1528              		@ args = 0, pretend = 0, frame = 0
 1529              		@ frame_needed = 0, uses_anonymous_args = 0
 1530              		@ link register save eliminated.
 1531              	.LVL132:
 1532              		.loc 1 751 0
 1533 0000 C26A     		ldr	r2, [r0, #44]
 1534 0002 1368     		ldr	r3, [r2]
 1535 0004 43F00203 		orr	r3, r3, #2
 1536 0008 1360     		str	r3, [r2]
 1537 000a 7047     		bx	lr
 1538              		.cfi_endproc
 1539              	.LFE272:
ARM GAS  /tmp/ccC0USbu.s 			page 28


 1540              		.size	can_lld_sleep, .-can_lld_sleep
 1541              		.section	.text.can_lld_wakeup,"ax",%progbits
 1542              		.align	2
 1543              		.p2align 4,,15
 1544              		.global	can_lld_wakeup
 1545              		.thumb
 1546              		.thumb_func
 1547              		.type	can_lld_wakeup, %function
 1548              	can_lld_wakeup:
 1549              	.LFB273:
 1550              		.loc 1 761 0
 1551              		.cfi_startproc
 1552              		@ args = 0, pretend = 0, frame = 0
 1553              		@ frame_needed = 0, uses_anonymous_args = 0
 1554              		@ link register save eliminated.
 1555              	.LVL133:
 1556              		.loc 1 763 0
 1557 0000 C26A     		ldr	r2, [r0, #44]
 1558 0002 1368     		ldr	r3, [r2]
 1559 0004 23F00203 		bic	r3, r3, #2
 1560 0008 1360     		str	r3, [r2]
 1561 000a 7047     		bx	lr
 1562              		.cfi_endproc
 1563              	.LFE273:
 1564              		.size	can_lld_wakeup, .-can_lld_wakeup
 1565              		.section	.text.canSTM32SetFilters,"ax",%progbits
 1566              		.align	2
 1567              		.p2align 4,,15
 1568              		.global	canSTM32SetFilters
 1569              		.thumb
 1570              		.thumb_func
 1571              		.type	canSTM32SetFilters, %function
 1572              	canSTM32SetFilters:
 1573              	.LFB274:
 1574              		.loc 1 779 0
 1575              		.cfi_startproc
 1576              		@ args = 0, pretend = 0, frame = 0
 1577              		@ frame_needed = 0, uses_anonymous_args = 0
 1578              		@ link register save eliminated.
 1579              	.LVL134:
 1580              		.loc 1 791 0
 1581 0000 FFF7FEBF 		b	can_lld_set_filters
 1582              	.LVL135:
 1583              		.cfi_endproc
 1584              	.LFE274:
 1585              		.size	canSTM32SetFilters, .-canSTM32SetFilters
 1586              		.global	CAND1
 1587              		.section	.bss.CAND1,"aw",%nobits
 1588              		.align	2
 1589              		.set	.LANCHOR0,. + 0
 1590              		.type	CAND1, %object
 1591              		.size	CAND1, 48
 1592              	CAND1:
 1593 0000 00000000 		.space	48
 1593      00000000 
 1593      00000000 
 1593      00000000 
ARM GAS  /tmp/ccC0USbu.s 			page 29


 1593      00000000 
 1594              		.text
 1595              	.Letext0:
 1596              		.file 5 "/usr/lib/gcc/arm-none-eabi/4.9.3/include/stddef.h"
 1597              		.file 6 "/usr/arm-none-eabi/include/machine/_default_types.h"
 1598              		.file 7 "/usr/arm-none-eabi/include/sys/_stdint.h"
 1599              		.file 8 "ChibiOS_3.0.2/os/rt/ports/ARMCMx/compilers/GCC/chtypes.h"
 1600              		.file 9 "ChibiOS_3.0.2/os/rt/include/chsystypes.h"
 1601              		.file 10 "ChibiOS_3.0.2/os/rt/include/chschd.h"
 1602              		.file 11 "ChibiOS_3.0.2/os/ext/CMSIS/ST/stm32f407xx.h"
 1603              		.file 12 "ChibiOS_3.0.2/os/rt/ports/ARMCMx/chcore.h"
 1604              		.file 13 "ChibiOS_3.0.2/os/rt/ports/ARMCMx/chcore_v7m.h"
 1605              		.file 14 "ChibiOS_3.0.2/os/rt/include/chtm.h"
 1606              		.file 15 "ChibiOS_3.0.2/os/rt/include/chsem.h"
 1607              		.file 16 "ChibiOS_3.0.2/os/rt/include/chmtx.h"
 1608              		.file 17 "ChibiOS_3.0.2/os/rt/include/chevents.h"
 1609              		.file 18 "ChibiOS_3.0.2/os/hal/include/can.h"
 1610              		.file 19 "ChibiOS_3.0.2/os/hal/ports/STM32/LLD/can_lld.h"
 1611              		.file 20 "ChibiOS_3.0.2/os/rt/include/chsys.h"
 1612              		.file 21 "ChibiOS_3.0.2/os/ext/CMSIS/include/core_cm4.h"
 1613              		.file 22 "ChibiOS_3.0.2/os/hal/ports/common/ARMCMx/nvic.h"