ARM GAS  /tmp/ccoqy7aW.s 			page 1


   1              		.syntax unified
   2              		.cpu cortex-m4
   3              		.eabi_attribute 27, 1
   4              		.eabi_attribute 28, 1
   5              		.fpu fpv4-sp-d16
   6              		.eabi_attribute 20, 1
   7              		.eabi_attribute 21, 1
   8              		.eabi_attribute 23, 3
   9              		.eabi_attribute 24, 1
  10              		.eabi_attribute 25, 1
  11              		.eabi_attribute 26, 1
  12              		.eabi_attribute 30, 2
  13              		.eabi_attribute 34, 1
  14              		.eabi_attribute 18, 4
  15              		.thumb
  16              		.file	"chcond.c"
  17              		.text
  18              	.Ltext0:
  19              		.cfi_sections	.debug_frame
  20              		.section	.text.chCondObjectInit,"ax",%progbits
  21              		.align	2
  22              		.p2align 4,,15
  23              		.global	chCondObjectInit
  24              		.thumb
  25              		.thumb_func
  26              		.type	chCondObjectInit, %function
  27              	chCondObjectInit:
  28              	.LFB219:
  29              		.file 1 "ChibiOS_3.0.2/os/rt/src/chcond.c"
  30              		.loc 1 75 0
  31              		.cfi_startproc
  32              		@ args = 0, pretend = 0, frame = 0
  33              		@ frame_needed = 0, uses_anonymous_args = 0
  34              		@ link register save eliminated.
  35              	.LVL0:
  36              	.LBB83:
  37              	.LBB84:
  38              		.file 2 "ChibiOS_3.0.2/os/rt/include/chschd.h"
  39              		.loc 2 604 0
  40 0000 0060     		str	r0, [r0]
  41              		.loc 2 605 0
  42 0002 4060     		str	r0, [r0, #4]
  43 0004 7047     		bx	lr
  44              	.LBE84:
  45              	.LBE83:
  46              		.cfi_endproc
  47              	.LFE219:
  48              		.size	chCondObjectInit, .-chCondObjectInit
  49 0006 00BF     		.section	.text.chCondSignal,"ax",%progbits
  50              		.align	2
  51              		.p2align 4,,15
  52              		.global	chCondSignal
  53              		.thumb
  54              		.thumb_func
  55              		.type	chCondSignal, %function
  56              	chCondSignal:
  57              	.LFB220:
ARM GAS  /tmp/ccoqy7aW.s 			page 2


  58              		.loc 1 89 0
  59              		.cfi_startproc
  60              		@ args = 0, pretend = 0, frame = 0
  61              		@ frame_needed = 0, uses_anonymous_args = 0
  62              	.LVL1:
  63 0000 08B5     		push	{r3, lr}
  64              		.cfi_def_cfa_offset 8
  65              		.cfi_offset 3, -8
  66              		.cfi_offset 14, -4
  67              	.LBB85:
  68              	.LBB86:
  69              	.LBB87:
  70              	.LBB88:
  71              		.file 3 "ChibiOS_3.0.2/os/ext/CMSIS/include/core_cmFunc.h"
  72              		.loc 3 546 0
  73 0002 2023     		movs	r3, #32
  74              	@ 546 "ChibiOS_3.0.2/os/ext/CMSIS/include/core_cmFunc.h" 1
  75 0004 83F31188 		MSR basepri, r3
  76              	@ 0 "" 2
  77              	.LVL2:
  78              		.thumb
  79              	.LBE88:
  80              	.LBE87:
  81              	.LBE86:
  82              	.LBE85:
  83              	.LBB89:
  84              	.LBB90:
  85              		.loc 2 631 0
  86 0008 0268     		ldr	r2, [r0]
  87              	.LBE90:
  88              	.LBE89:
  89              		.loc 1 94 0
  90 000a 8242     		cmp	r2, r0
  91 000c 07D0     		beq	.L3
  92              	.LBB91:
  93              	.LBB92:
  94              		.loc 2 674 0
  95 000e 1168     		ldr	r1, [r2]
  96 0010 0160     		str	r1, [r0]
  97 0012 0346     		mov	r3, r0
  98              	.LVL3:
  99              		.loc 2 675 0
 100 0014 4B60     		str	r3, [r1, #4]
 101              	.LBE92:
 102              	.LBE91:
 103              		.loc 1 95 0
 104 0016 1046     		mov	r0, r2
 105              	.LVL4:
 106 0018 0021     		movs	r1, #0
 107 001a FFF7FEFF 		bl	chSchWakeupS
 108              	.LVL5:
 109              	.L3:
 110              	.LBB93:
 111              	.LBB94:
 112              	.LBB95:
 113              	.LBB96:
 114              	.LBB97:
ARM GAS  /tmp/ccoqy7aW.s 			page 3


 115              		.loc 3 546 0
 116 001e 0023     		movs	r3, #0
 117              	@ 546 "ChibiOS_3.0.2/os/ext/CMSIS/include/core_cmFunc.h" 1
 118 0020 83F31188 		MSR basepri, r3
 119              	@ 0 "" 2
 120              		.thumb
 121 0024 08BD     		pop	{r3, pc}
 122              	.LBE97:
 123              	.LBE96:
 124              	.LBE95:
 125              	.LBE94:
 126              	.LBE93:
 127              		.cfi_endproc
 128              	.LFE220:
 129              		.size	chCondSignal, .-chCondSignal
 130 0026 00BF     		.section	.text.chCondSignalI,"ax",%progbits
 131              		.align	2
 132              		.p2align 4,,15
 133              		.global	chCondSignalI
 134              		.thumb
 135              		.thumb_func
 136              		.type	chCondSignalI, %function
 137              	chCondSignalI:
 138              	.LFB221:
 139              		.loc 1 111 0
 140              		.cfi_startproc
 141              		@ args = 0, pretend = 0, frame = 0
 142              		@ frame_needed = 0, uses_anonymous_args = 0
 143              		@ link register save eliminated.
 144              	.LVL6:
 145              	.LBB98:
 146              	.LBB99:
 147              		.loc 2 631 0
 148 0000 0368     		ldr	r3, [r0]
 149              	.LBE99:
 150              	.LBE98:
 151              		.loc 1 116 0
 152 0002 9842     		cmp	r0, r3
 153 0004 07D0     		beq	.L6
 154              	.LVL7:
 155              	.LBB100:
 156              	.LBB101:
 157              	.LBB102:
 158              		.loc 2 674 0
 159 0006 1A68     		ldr	r2, [r3]
 160 0008 0260     		str	r2, [r0]
 161              	.LBE102:
 162              	.LBE101:
 163              		.loc 1 118 0
 164 000a 0021     		movs	r1, #0
 165              	.LBB104:
 166              	.LBB103:
 167              		.loc 2 675 0
 168 000c 5060     		str	r0, [r2, #4]
 169              	.LBE103:
 170              	.LBE104:
 171              		.loc 1 119 0
ARM GAS  /tmp/ccoqy7aW.s 			page 4


 172 000e 1846     		mov	r0, r3
 173              	.LVL8:
 174              		.loc 1 118 0
 175 0010 5962     		str	r1, [r3, #36]
 176              		.loc 1 119 0
 177 0012 FFF7FEBF 		b	chSchReadyI
 178              	.LVL9:
 179              	.L6:
 180 0016 7047     		bx	lr
 181              	.LBE100:
 182              		.cfi_endproc
 183              	.LFE221:
 184              		.size	chCondSignalI, .-chCondSignalI
 185              		.section	.text.chCondBroadcastI,"ax",%progbits
 186              		.align	2
 187              		.p2align 4,,15
 188              		.global	chCondBroadcastI
 189              		.thumb
 190              		.thumb_func
 191              		.type	chCondBroadcastI, %function
 192              	chCondBroadcastI:
 193              	.LFB223:
 194              		.loc 1 149 0
 195              		.cfi_startproc
 196              		@ args = 0, pretend = 0, frame = 0
 197              		@ frame_needed = 0, uses_anonymous_args = 0
 198              	.LVL10:
 199 0000 38B5     		push	{r3, r4, r5, lr}
 200              		.cfi_def_cfa_offset 16
 201              		.cfi_offset 3, -16
 202              		.cfi_offset 4, -12
 203              		.cfi_offset 5, -8
 204              		.cfi_offset 14, -4
 205              		.loc 1 149 0
 206 0002 0446     		mov	r4, r0
 207              	.LVL11:
 208              	.LBB105:
 209              	.LBB106:
 210              		.loc 2 631 0
 211 0004 0068     		ldr	r0, [r0]
 212              	.LVL12:
 213              	.LBE106:
 214              	.LBE105:
 215              		.loc 1 157 0
 216 0006 8442     		cmp	r4, r0
 217 0008 0AD0     		beq	.L8
 218              		.loc 1 158 0
 219 000a 6FF00105 		mvn	r5, #1
 220              	.L10:
 221              	.LVL13:
 222              	.LBB108:
 223              	.LBB109:
 224              		.loc 2 674 0
 225 000e 0368     		ldr	r3, [r0]
 226 0010 2360     		str	r3, [r4]
 227              		.loc 2 675 0
 228 0012 5C60     		str	r4, [r3, #4]
ARM GAS  /tmp/ccoqy7aW.s 			page 5


 229              	.LBE109:
 230              	.LBE108:
 231              		.loc 1 158 0
 232 0014 FFF7FEFF 		bl	chSchReadyI
 233              	.LVL14:
 234 0018 4562     		str	r5, [r0, #36]
 235              	.LBB110:
 236              	.LBB107:
 237              		.loc 2 631 0
 238 001a 2068     		ldr	r0, [r4]
 239              	.LBE107:
 240              	.LBE110:
 241              		.loc 1 157 0
 242 001c A042     		cmp	r0, r4
 243 001e F6D1     		bne	.L10
 244              	.LVL15:
 245              	.L8:
 246 0020 38BD     		pop	{r3, r4, r5, pc}
 247              		.cfi_endproc
 248              	.LFE223:
 249              		.size	chCondBroadcastI, .-chCondBroadcastI
 250 0022 00BF     		.section	.text.chCondBroadcast,"ax",%progbits
 251              		.align	2
 252              		.p2align 4,,15
 253              		.global	chCondBroadcast
 254              		.thumb
 255              		.thumb_func
 256              		.type	chCondBroadcast, %function
 257              	chCondBroadcast:
 258              	.LFB222:
 259              		.loc 1 130 0
 260              		.cfi_startproc
 261              		@ args = 0, pretend = 0, frame = 0
 262              		@ frame_needed = 0, uses_anonymous_args = 0
 263              	.LVL16:
 264 0000 08B5     		push	{r3, lr}
 265              		.cfi_def_cfa_offset 8
 266              		.cfi_offset 3, -8
 267              		.cfi_offset 14, -4
 268              	.LBB111:
 269              	.LBB112:
 270              	.LBB113:
 271              	.LBB114:
 272              		.loc 3 546 0
 273 0002 2023     		movs	r3, #32
 274              	@ 546 "ChibiOS_3.0.2/os/ext/CMSIS/include/core_cmFunc.h" 1
 275 0004 83F31188 		MSR basepri, r3
 276              	@ 0 "" 2
 277              		.thumb
 278              	.LBE114:
 279              	.LBE113:
 280              	.LBE112:
 281              	.LBE111:
 282              		.loc 1 133 0
 283 0008 FFF7FEFF 		bl	chCondBroadcastI
 284              	.LVL17:
 285              		.loc 1 134 0
ARM GAS  /tmp/ccoqy7aW.s 			page 6


 286 000c FFF7FEFF 		bl	chSchRescheduleS
 287              	.LVL18:
 288              	.LBB115:
 289              	.LBB116:
 290              	.LBB117:
 291              	.LBB118:
 292              	.LBB119:
 293              		.loc 3 546 0
 294 0010 0023     		movs	r3, #0
 295              	@ 546 "ChibiOS_3.0.2/os/ext/CMSIS/include/core_cmFunc.h" 1
 296 0012 83F31188 		MSR basepri, r3
 297              	@ 0 "" 2
 298              		.thumb
 299 0016 08BD     		pop	{r3, pc}
 300              	.LBE119:
 301              	.LBE118:
 302              	.LBE117:
 303              	.LBE116:
 304              	.LBE115:
 305              		.cfi_endproc
 306              	.LFE222:
 307              		.size	chCondBroadcast, .-chCondBroadcast
 308              		.section	.text.chCondWaitS,"ax",%progbits
 309              		.align	2
 310              		.p2align 4,,15
 311              		.global	chCondWaitS
 312              		.thumb
 313              		.thumb_func
 314              		.type	chCondWaitS, %function
 315              	chCondWaitS:
 316              	.LFB225:
 317              		.loc 1 205 0
 318              		.cfi_startproc
 319              		@ args = 0, pretend = 0, frame = 0
 320              		@ frame_needed = 0, uses_anonymous_args = 0
 321              	.LVL19:
 322              		.loc 1 206 0
 323 0000 0F4B     		ldr	r3, .L24
 324              		.loc 1 205 0
 325 0002 70B5     		push	{r4, r5, r6, lr}
 326              		.cfi_def_cfa_offset 16
 327              		.cfi_offset 4, -16
 328              		.cfi_offset 5, -12
 329              		.cfi_offset 6, -8
 330              		.cfi_offset 14, -4
 331              		.loc 1 206 0
 332 0004 9C69     		ldr	r4, [r3, #24]
 333              	.LVL20:
 334              	.LBB120:
 335              	.LBB121:
 336              		.file 4 "ChibiOS_3.0.2/os/rt/include/chmtx.h"
 337              		.loc 4 146 0
 338 0006 E66B     		ldr	r6, [r4, #60]
 339              	.LBE121:
 340              	.LBE120:
 341              		.loc 1 205 0
 342 0008 0546     		mov	r5, r0
ARM GAS  /tmp/ccoqy7aW.s 			page 7


 343              		.loc 1 216 0
 344 000a 3046     		mov	r0, r6
 345              	.LVL21:
 346 000c FFF7FEFF 		bl	chMtxUnlockS
 347              	.LVL22:
 348              		.loc 1 220 0
 349 0010 6562     		str	r5, [r4, #36]
 350              	.LVL23:
 351              	.LBB122:
 352              	.LBB123:
 353              		.loc 2 653 0
 354 0012 2B46     		mov	r3, r5
 355 0014 03E0     		b	.L18
 356              	.LVL24:
 357              	.L23:
 358              		.loc 2 656 0
 359 0016 9968     		ldr	r1, [r3, #8]
 360 0018 A268     		ldr	r2, [r4, #8]
 361 001a 9142     		cmp	r1, r2
 362 001c 02D3     		bcc	.L19
 363              	.L18:
 364              		.loc 2 655 0
 365 001e 1B68     		ldr	r3, [r3]
 366              	.LVL25:
 367              		.loc 2 656 0
 368 0020 9D42     		cmp	r5, r3
 369 0022 F8D1     		bne	.L23
 370              	.L19:
 371              		.loc 2 658 0
 372 0024 5A68     		ldr	r2, [r3, #4]
 373 0026 6260     		str	r2, [r4, #4]
 374              		.loc 2 657 0
 375 0028 2360     		str	r3, [r4]
 376              	.LBE123:
 377              	.LBE122:
 378              		.loc 1 222 0
 379 002a 0720     		movs	r0, #7
 380              	.LBB125:
 381              	.LBB124:
 382              		.loc 2 659 0
 383 002c 1460     		str	r4, [r2]
 384              		.loc 2 660 0
 385 002e 5C60     		str	r4, [r3, #4]
 386              	.LBE124:
 387              	.LBE125:
 388              		.loc 1 222 0
 389 0030 FFF7FEFF 		bl	chSchGoSleepS
 390              	.LVL26:
 391              		.loc 1 223 0
 392 0034 646A     		ldr	r4, [r4, #36]
 393              	.LVL27:
 394              		.loc 1 224 0
 395 0036 3046     		mov	r0, r6
 396 0038 FFF7FEFF 		bl	chMtxLockS
 397              	.LVL28:
 398              		.loc 1 227 0
 399 003c 2046     		mov	r0, r4
ARM GAS  /tmp/ccoqy7aW.s 			page 8


 400 003e 70BD     		pop	{r4, r5, r6, pc}
 401              	.LVL29:
 402              	.L25:
 403              		.align	2
 404              	.L24:
 405 0040 00000000 		.word	ch
 406              		.cfi_endproc
 407              	.LFE225:
 408              		.size	chCondWaitS, .-chCondWaitS
 409              		.section	.text.chCondWait,"ax",%progbits
 410              		.align	2
 411              		.p2align 4,,15
 412              		.global	chCondWait
 413              		.thumb
 414              		.thumb_func
 415              		.type	chCondWait, %function
 416              	chCondWait:
 417              	.LFB224:
 418              		.loc 1 179 0
 419              		.cfi_startproc
 420              		@ args = 0, pretend = 0, frame = 0
 421              		@ frame_needed = 0, uses_anonymous_args = 0
 422              	.LVL30:
 423 0000 08B5     		push	{r3, lr}
 424              		.cfi_def_cfa_offset 8
 425              		.cfi_offset 3, -8
 426              		.cfi_offset 14, -4
 427              	.LBB126:
 428              	.LBB127:
 429              	.LBB128:
 430              	.LBB129:
 431              		.loc 3 546 0
 432 0002 2023     		movs	r3, #32
 433              	@ 546 "ChibiOS_3.0.2/os/ext/CMSIS/include/core_cmFunc.h" 1
 434 0004 83F31188 		MSR basepri, r3
 435              	@ 0 "" 2
 436              		.thumb
 437              	.LBE129:
 438              	.LBE128:
 439              	.LBE127:
 440              	.LBE126:
 441              		.loc 1 183 0
 442 0008 FFF7FEFF 		bl	chCondWaitS
 443              	.LVL31:
 444              	.LBB130:
 445              	.LBB131:
 446              	.LBB132:
 447              	.LBB133:
 448              	.LBB134:
 449              		.loc 3 546 0
 450 000c 0023     		movs	r3, #0
 451              	@ 546 "ChibiOS_3.0.2/os/ext/CMSIS/include/core_cmFunc.h" 1
 452 000e 83F31188 		MSR basepri, r3
 453              	@ 0 "" 2
 454              		.thumb
 455              	.LBE134:
 456              	.LBE133:
ARM GAS  /tmp/ccoqy7aW.s 			page 9


 457              	.LBE132:
 458              	.LBE131:
 459              	.LBE130:
 460              		.loc 1 186 0
 461 0012 08BD     		pop	{r3, pc}
 462              		.cfi_endproc
 463              	.LFE224:
 464              		.size	chCondWait, .-chCondWait
 465              		.section	.text.chCondWaitTimeoutS,"ax",%progbits
 466              		.align	2
 467              		.p2align 4,,15
 468              		.global	chCondWaitTimeoutS
 469              		.thumb
 470              		.thumb_func
 471              		.type	chCondWaitTimeoutS, %function
 472              	chCondWaitTimeoutS:
 473              	.LFB227:
 474              		.loc 1 296 0
 475              		.cfi_startproc
 476              		@ args = 0, pretend = 0, frame = 0
 477              		@ frame_needed = 0, uses_anonymous_args = 0
 478              	.LVL32:
 479 0000 F8B5     		push	{r3, r4, r5, r6, r7, lr}
 480              		.cfi_def_cfa_offset 24
 481              		.cfi_offset 3, -24
 482              		.cfi_offset 4, -20
 483              		.cfi_offset 5, -16
 484              		.cfi_offset 6, -12
 485              		.cfi_offset 7, -8
 486              		.cfi_offset 14, -4
 487              	.LBB135:
 488              	.LBB136:
 489              	.LBB137:
 490              	.LBB138:
 491              		.file 5 "ChibiOS_3.0.2/os/rt/include/chthreads.h"
 492              		.loc 5 176 0
 493 0002 124C     		ldr	r4, .L36
 494              	.LBE138:
 495              	.LBE137:
 496              		.loc 4 146 0
 497 0004 A369     		ldr	r3, [r4, #24]
 498 0006 DE6B     		ldr	r6, [r3, #60]
 499              	.LBE136:
 500              	.LBE135:
 501              		.loc 1 296 0
 502 0008 0546     		mov	r5, r0
 503              		.loc 1 306 0
 504 000a 3046     		mov	r0, r6
 505              	.LVL33:
 506              		.loc 1 296 0
 507 000c 0F46     		mov	r7, r1
 508              		.loc 1 306 0
 509 000e FFF7FEFF 		bl	chMtxUnlockS
 510              	.LVL34:
 511              		.loc 1 310 0
 512 0012 A469     		ldr	r4, [r4, #24]
 513              	.LBB139:
ARM GAS  /tmp/ccoqy7aW.s 			page 10


 514              	.LBB140:
 515              		.loc 2 653 0
 516 0014 2B46     		mov	r3, r5
 517              	.LBE140:
 518              	.LBE139:
 519              		.loc 1 310 0
 520 0016 6562     		str	r5, [r4, #36]
 521              	.LVL35:
 522 0018 03E0     		b	.L32
 523              	.LVL36:
 524              	.L29:
 525              	.LBB144:
 526              	.LBB141:
 527              		.loc 2 656 0
 528 001a 9868     		ldr	r0, [r3, #8]
 529 001c A268     		ldr	r2, [r4, #8]
 530 001e 9042     		cmp	r0, r2
 531 0020 02D3     		bcc	.L33
 532              	.L32:
 533              		.loc 2 655 0
 534 0022 1B68     		ldr	r3, [r3]
 535              	.LVL37:
 536              		.loc 2 656 0
 537 0024 9D42     		cmp	r5, r3
 538 0026 F8D1     		bne	.L29
 539              	.L33:
 540              		.loc 2 658 0
 541 0028 5A68     		ldr	r2, [r3, #4]
 542 002a 6260     		str	r2, [r4, #4]
 543              		.loc 2 657 0
 544 002c 2360     		str	r3, [r4]
 545              	.LBE141:
 546              	.LBE144:
 547              		.loc 1 312 0
 548 002e 3946     		mov	r1, r7
 549              	.LBB145:
 550              	.LBB142:
 551              		.loc 2 659 0
 552 0030 1460     		str	r4, [r2]
 553              	.LBE142:
 554              	.LBE145:
 555              		.loc 1 312 0
 556 0032 0720     		movs	r0, #7
 557              	.LBB146:
 558              	.LBB143:
 559              		.loc 2 660 0
 560 0034 5C60     		str	r4, [r3, #4]
 561              	.LBE143:
 562              	.LBE146:
 563              		.loc 1 312 0
 564 0036 FFF7FEFF 		bl	chSchGoSleepTimeoutS
 565              	.LVL38:
 566              		.loc 1 313 0
 567 003a 431C     		adds	r3, r0, #1
 568              		.loc 1 312 0
 569 003c 0446     		mov	r4, r0
 570              	.LVL39:
ARM GAS  /tmp/ccoqy7aW.s 			page 11


 571              		.loc 1 313 0
 572 003e 02D0     		beq	.L31
 573              		.loc 1 314 0
 574 0040 3046     		mov	r0, r6
 575              	.LVL40:
 576 0042 FFF7FEFF 		bl	chMtxLockS
 577              	.LVL41:
 578              	.L31:
 579              		.loc 1 318 0
 580 0046 2046     		mov	r0, r4
 581 0048 F8BD     		pop	{r3, r4, r5, r6, r7, pc}
 582              	.LVL42:
 583              	.L37:
 584 004a 00BF     		.align	2
 585              	.L36:
 586 004c 00000000 		.word	ch
 587              		.cfi_endproc
 588              	.LFE227:
 589              		.size	chCondWaitTimeoutS, .-chCondWaitTimeoutS
 590              		.section	.text.chCondWaitTimeout,"ax",%progbits
 591              		.align	2
 592              		.p2align 4,,15
 593              		.global	chCondWaitTimeout
 594              		.thumb
 595              		.thumb_func
 596              		.type	chCondWaitTimeout, %function
 597              	chCondWaitTimeout:
 598              	.LFB226:
 599              		.loc 1 258 0
 600              		.cfi_startproc
 601              		@ args = 0, pretend = 0, frame = 0
 602              		@ frame_needed = 0, uses_anonymous_args = 0
 603              	.LVL43:
 604 0000 08B5     		push	{r3, lr}
 605              		.cfi_def_cfa_offset 8
 606              		.cfi_offset 3, -8
 607              		.cfi_offset 14, -4
 608              	.LBB147:
 609              	.LBB148:
 610              	.LBB149:
 611              	.LBB150:
 612              		.loc 3 546 0
 613 0002 2023     		movs	r3, #32
 614              	@ 546 "ChibiOS_3.0.2/os/ext/CMSIS/include/core_cmFunc.h" 1
 615 0004 83F31188 		MSR basepri, r3
 616              	@ 0 "" 2
 617              		.thumb
 618              	.LBE150:
 619              	.LBE149:
 620              	.LBE148:
 621              	.LBE147:
 622              		.loc 1 262 0
 623 0008 FFF7FEFF 		bl	chCondWaitTimeoutS
 624              	.LVL44:
 625              	.LBB151:
 626              	.LBB152:
 627              	.LBB153:
ARM GAS  /tmp/ccoqy7aW.s 			page 12


 628              	.LBB154:
 629              	.LBB155:
 630              		.loc 3 546 0
 631 000c 0023     		movs	r3, #0
 632              	@ 546 "ChibiOS_3.0.2/os/ext/CMSIS/include/core_cmFunc.h" 1
 633 000e 83F31188 		MSR basepri, r3
 634              	@ 0 "" 2
 635              		.thumb
 636              	.LBE155:
 637              	.LBE154:
 638              	.LBE153:
 639              	.LBE152:
 640              	.LBE151:
 641              		.loc 1 266 0
 642 0012 08BD     		pop	{r3, pc}
 643              		.cfi_endproc
 644              	.LFE226:
 645              		.size	chCondWaitTimeout, .-chCondWaitTimeout
 646              		.text
 647              	.Letext0:
 648              		.file 6 "/usr/arm-none-eabi/include/machine/_default_types.h"
 649              		.file 7 "/usr/arm-none-eabi/include/sys/_stdint.h"
 650              		.file 8 "ChibiOS_3.0.2/os/rt/ports/ARMCMx/compilers/GCC/chtypes.h"
 651              		.file 9 "ChibiOS_3.0.2/os/rt/include/chsystypes.h"
 652              		.file 10 "ChibiOS_3.0.2/os/rt/ports/ARMCMx/chcore.h"
 653              		.file 11 "ChibiOS_3.0.2/os/rt/ports/ARMCMx/chcore_v7m.h"
 654              		.file 12 "ChibiOS_3.0.2/os/rt/include/chtm.h"
 655              		.file 13 "ChibiOS_3.0.2/os/rt/include/chsem.h"
 656              		.file 14 "ChibiOS_3.0.2/os/rt/include/chcond.h"
 657              		.file 15 "ChibiOS_3.0.2/os/rt/include/chsys.h"
 658              		.file 16 "ChibiOS_3.0.2/os/ext/CMSIS/include/core_cm4.h"