ARM GAS  /tmp/cciAJsFK.s 			page 1


   1              		.syntax unified
   2              		.cpu cortex-m4
   3              		.eabi_attribute 27, 1
   4              		.eabi_attribute 28, 1
   5              		.fpu fpv4-sp-d16
   6              		.eabi_attribute 20, 1
   7              		.eabi_attribute 21, 1
   8              		.eabi_attribute 23, 3
   9              		.eabi_attribute 24, 1
  10              		.eabi_attribute 25, 1
  11              		.eabi_attribute 26, 1
  12              		.eabi_attribute 30, 2
  13              		.eabi_attribute 34, 1
  14              		.eabi_attribute 18, 4
  15              		.thumb
  16              		.file	"chmempools.c"
  17              		.text
  18              	.Ltext0:
  19              		.cfi_sections	.debug_frame
  20              		.section	.text.chPoolObjectInit,"ax",%progbits
  21              		.align	2
  22              		.p2align 4,,15
  23              		.global	chPoolObjectInit
  24              		.thumb
  25              		.thumb_func
  26              		.type	chPoolObjectInit, %function
  27              	chPoolObjectInit:
  28              	.LFB219:
  29              		.file 1 "ChibiOS_3.0.2/os/rt/src/chmempools.c"
  30              		.loc 1 75 0
  31              		.cfi_startproc
  32              		@ args = 0, pretend = 0, frame = 0
  33              		@ frame_needed = 0, uses_anonymous_args = 0
  34              		@ link register save eliminated.
  35              	.LVL0:
  36              		.loc 1 79 0
  37 0000 0023     		movs	r3, #0
  38              		.loc 1 80 0
  39 0002 4160     		str	r1, [r0, #4]
  40              		.loc 1 81 0
  41 0004 8260     		str	r2, [r0, #8]
  42              		.loc 1 79 0
  43 0006 0360     		str	r3, [r0]
  44 0008 7047     		bx	lr
  45              		.cfi_endproc
  46              	.LFE219:
  47              		.size	chPoolObjectInit, .-chPoolObjectInit
  48 000a 00BF     		.section	.text.chPoolLoadArray,"ax",%progbits
  49              		.align	2
  50              		.p2align 4,,15
  51              		.global	chPoolLoadArray
  52              		.thumb
  53              		.thumb_func
  54              		.type	chPoolLoadArray, %function
  55              	chPoolLoadArray:
  56              	.LFB220:
  57              		.loc 1 97 0
ARM GAS  /tmp/cciAJsFK.s 			page 2


  58              		.cfi_startproc
  59              		@ args = 0, pretend = 0, frame = 0
  60              		@ frame_needed = 0, uses_anonymous_args = 0
  61              		@ link register save eliminated.
  62              	.LVL1:
  63              		.loc 1 101 0
  64 0000 72B1     		cbz	r2, .L9
  65              		.loc 1 97 0
  66 0002 30B4     		push	{r4, r5}
  67              		.cfi_def_cfa_offset 8
  68              		.cfi_offset 4, -8
  69              		.cfi_offset 5, -4
  70              	.LBB77:
  71              	.LBB78:
  72              	.LBB79:
  73              	.LBB80:
  74              	.LBB81:
  75              	.LBB82:
  76              		.file 2 "ChibiOS_3.0.2/os/ext/CMSIS/include/core_cmFunc.h"
  77              		.loc 2 546 0
  78 0004 2025     		movs	r5, #32
  79              	.LBE82:
  80              	.LBE81:
  81              	.LBE80:
  82              	.LBE79:
  83              	.LBB86:
  84              	.LBB87:
  85              	.LBB88:
  86              	.LBB89:
  87              	.LBB90:
  88 0006 0024     		movs	r4, #0
  89              	.LVL2:
  90              	.L4:
  91              	.LBE90:
  92              	.LBE89:
  93              	.LBE88:
  94              	.LBE87:
  95              	.LBE86:
  96              	.LBB95:
  97              	.LBB85:
  98              	.LBB84:
  99              	.LBB83:
 100              	@ 546 "ChibiOS_3.0.2/os/ext/CMSIS/include/core_cmFunc.h" 1
 101 0008 85F31188 		MSR basepri, r5
 102              	@ 0 "" 2
 103              	.LVL3:
 104              		.thumb
 105              	.LBE83:
 106              	.LBE84:
 107              	.LBE85:
 108              	.LBE95:
 109              	.LBB96:
 110              	.LBB97:
 111              		.loc 1 177 0
 112 000c 0368     		ldr	r3, [r0]
 113 000e 0B60     		str	r3, [r1]
 114              		.loc 1 178 0
ARM GAS  /tmp/cciAJsFK.s 			page 3


 115 0010 0160     		str	r1, [r0]
 116              	.LVL4:
 117              	.LBE97:
 118              	.LBE96:
 119              	.LBB98:
 120              	.LBB94:
 121              	.LBB93:
 122              	.LBB92:
 123              	.LBB91:
 124              		.loc 2 546 0
 125              	@ 546 "ChibiOS_3.0.2/os/ext/CMSIS/include/core_cmFunc.h" 1
 126 0012 84F31188 		MSR basepri, r4
 127              	@ 0 "" 2
 128              		.thumb
 129              	.LBE91:
 130              	.LBE92:
 131              	.LBE93:
 132              	.LBE94:
 133              	.LBE98:
 134              	.LBE78:
 135              	.LBE77:
 136              		.loc 1 104 0
 137 0016 4368     		ldr	r3, [r0, #4]
 138              		.loc 1 101 0
 139 0018 013A     		subs	r2, r2, #1
 140              	.LVL5:
 141              		.loc 1 104 0
 142 001a 1944     		add	r1, r1, r3
 143              	.LVL6:
 144              		.loc 1 101 0
 145 001c F4D1     		bne	.L4
 146              		.loc 1 108 0
 147 001e 30BC     		pop	{r4, r5}
 148              		.cfi_restore 5
 149              		.cfi_restore 4
 150              		.cfi_def_cfa_offset 0
 151              	.LVL7:
 152              	.L9:
 153 0020 7047     		bx	lr
 154              		.cfi_endproc
 155              	.LFE220:
 156              		.size	chPoolLoadArray, .-chPoolLoadArray
 157 0022 00BF     		.section	.text.chPoolAllocI,"ax",%progbits
 158              		.align	2
 159              		.p2align 4,,15
 160              		.global	chPoolAllocI
 161              		.thumb
 162              		.thumb_func
 163              		.type	chPoolAllocI, %function
 164              	chPoolAllocI:
 165              	.LFB221:
 166              		.loc 1 120 0
 167              		.cfi_startproc
 168              		@ args = 0, pretend = 0, frame = 0
 169              		@ frame_needed = 0, uses_anonymous_args = 0
 170              		@ link register save eliminated.
 171              	.LVL8:
ARM GAS  /tmp/cciAJsFK.s 			page 4


 172              		.loc 1 126 0
 173 0000 0368     		ldr	r3, [r0]
 174              	.LVL9:
 175              		.loc 1 128 0
 176 0002 1BB1     		cbz	r3, .L12
 177              		.loc 1 129 0
 178 0004 1A68     		ldr	r2, [r3]
 179 0006 0260     		str	r2, [r0]
 180              	.L13:
 181              		.loc 1 137 0
 182 0008 1846     		mov	r0, r3
 183              	.LVL10:
 184 000a 7047     		bx	lr
 185              	.LVL11:
 186              	.L12:
 187              		.loc 1 131 0
 188 000c 8268     		ldr	r2, [r0, #8]
 189 000e 002A     		cmp	r2, #0
 190 0010 FAD0     		beq	.L13
 191              		.loc 1 132 0
 192 0012 4068     		ldr	r0, [r0, #4]
 193              	.LVL12:
 194 0014 1047     		bx	r2
 195              	.LVL13:
 196              		.cfi_endproc
 197              	.LFE221:
 198              		.size	chPoolAllocI, .-chPoolAllocI
 199 0016 00BF     		.section	.text.chPoolAlloc,"ax",%progbits
 200              		.align	2
 201              		.p2align 4,,15
 202              		.global	chPoolAlloc
 203              		.thumb
 204              		.thumb_func
 205              		.type	chPoolAlloc, %function
 206              	chPoolAlloc:
 207              	.LFB222:
 208              		.loc 1 149 0
 209              		.cfi_startproc
 210              		@ args = 0, pretend = 0, frame = 0
 211              		@ frame_needed = 0, uses_anonymous_args = 0
 212              	.LVL14:
 213 0000 08B5     		push	{r3, lr}
 214              		.cfi_def_cfa_offset 8
 215              		.cfi_offset 3, -8
 216              		.cfi_offset 14, -4
 217              	.LBB99:
 218              	.LBB100:
 219              	.LBB101:
 220              	.LBB102:
 221              		.loc 2 546 0
 222 0002 2022     		movs	r2, #32
 223              	.LBE102:
 224              	.LBE101:
 225              	.LBE100:
 226              	.LBE99:
 227              		.loc 1 149 0
 228 0004 0346     		mov	r3, r0
ARM GAS  /tmp/cciAJsFK.s 			page 5


 229              	.LBB106:
 230              	.LBB105:
 231              	.LBB104:
 232              	.LBB103:
 233              		.loc 2 546 0
 234              	@ 546 "ChibiOS_3.0.2/os/ext/CMSIS/include/core_cmFunc.h" 1
 235 0006 82F31188 		MSR basepri, r2
 236              	@ 0 "" 2
 237              	.LVL15:
 238              		.thumb
 239              	.LBE103:
 240              	.LBE104:
 241              	.LBE105:
 242              	.LBE106:
 243              	.LBB107:
 244              	.LBB108:
 245              		.loc 1 126 0
 246 000a 0068     		ldr	r0, [r0]
 247              	.LVL16:
 248              		.loc 1 128 0
 249 000c 28B1     		cbz	r0, .L18
 250              		.loc 1 129 0
 251 000e 0268     		ldr	r2, [r0]
 252 0010 1A60     		str	r2, [r3]
 253              	.L19:
 254              	.LVL17:
 255              	.LBE108:
 256              	.LBE107:
 257              	.LBB110:
 258              	.LBB111:
 259              	.LBB112:
 260              	.LBB113:
 261              	.LBB114:
 262              		.loc 2 546 0
 263 0012 0023     		movs	r3, #0
 264              	.LVL18:
 265              	@ 546 "ChibiOS_3.0.2/os/ext/CMSIS/include/core_cmFunc.h" 1
 266 0014 83F31188 		MSR basepri, r3
 267              	@ 0 "" 2
 268              		.thumb
 269              	.LBE114:
 270              	.LBE113:
 271              	.LBE112:
 272              	.LBE111:
 273              	.LBE110:
 274              		.loc 1 157 0
 275 0018 08BD     		pop	{r3, pc}
 276              	.LVL19:
 277              	.L18:
 278              	.LBB119:
 279              	.LBB109:
 280              		.loc 1 131 0
 281 001a 9A68     		ldr	r2, [r3, #8]
 282 001c 002A     		cmp	r2, #0
 283 001e F8D0     		beq	.L19
 284              		.loc 1 132 0
 285 0020 5868     		ldr	r0, [r3, #4]
ARM GAS  /tmp/cciAJsFK.s 			page 6


 286              	.LVL20:
 287 0022 9047     		blx	r2
 288              	.LVL21:
 289              	.LBE109:
 290              	.LBE119:
 291              	.LBB120:
 292              	.LBB118:
 293              	.LBB117:
 294              	.LBB116:
 295              	.LBB115:
 296              		.loc 2 546 0
 297 0024 0023     		movs	r3, #0
 298              	@ 546 "ChibiOS_3.0.2/os/ext/CMSIS/include/core_cmFunc.h" 1
 299 0026 83F31188 		MSR basepri, r3
 300              	@ 0 "" 2
 301              		.thumb
 302              	.LBE115:
 303              	.LBE116:
 304              	.LBE117:
 305              	.LBE118:
 306              	.LBE120:
 307              		.loc 1 157 0
 308 002a 08BD     		pop	{r3, pc}
 309              		.cfi_endproc
 310              	.LFE222:
 311              		.size	chPoolAlloc, .-chPoolAlloc
 312              		.section	.text.chPoolFreeI,"ax",%progbits
 313              		.align	2
 314              		.p2align 4,,15
 315              		.global	chPoolFreeI
 316              		.thumb
 317              		.thumb_func
 318              		.type	chPoolFreeI, %function
 319              	chPoolFreeI:
 320              	.LFB223:
 321              		.loc 1 171 0
 322              		.cfi_startproc
 323              		@ args = 0, pretend = 0, frame = 0
 324              		@ frame_needed = 0, uses_anonymous_args = 0
 325              		@ link register save eliminated.
 326              	.LVL22:
 327              		.loc 1 177 0
 328 0000 0368     		ldr	r3, [r0]
 329 0002 0B60     		str	r3, [r1]
 330              		.loc 1 178 0
 331 0004 0160     		str	r1, [r0]
 332 0006 7047     		bx	lr
 333              		.cfi_endproc
 334              	.LFE223:
 335              		.size	chPoolFreeI, .-chPoolFreeI
 336              		.section	.text.chPoolFree,"ax",%progbits
 337              		.align	2
 338              		.p2align 4,,15
 339              		.global	chPoolFree
 340              		.thumb
 341              		.thumb_func
 342              		.type	chPoolFree, %function
ARM GAS  /tmp/cciAJsFK.s 			page 7


 343              	chPoolFree:
 344              	.LFB224:
 345              		.loc 1 193 0
 346              		.cfi_startproc
 347              		@ args = 0, pretend = 0, frame = 0
 348              		@ frame_needed = 0, uses_anonymous_args = 0
 349              		@ link register save eliminated.
 350              	.LVL23:
 351              	.LBB121:
 352              	.LBB122:
 353              	.LBB123:
 354              	.LBB124:
 355              		.loc 2 546 0
 356 0000 2023     		movs	r3, #32
 357              	@ 546 "ChibiOS_3.0.2/os/ext/CMSIS/include/core_cmFunc.h" 1
 358 0002 83F31188 		MSR basepri, r3
 359              	@ 0 "" 2
 360              	.LVL24:
 361              		.thumb
 362              	.LBE124:
 363              	.LBE123:
 364              	.LBE122:
 365              	.LBE121:
 366              	.LBB125:
 367              	.LBB126:
 368              		.loc 1 177 0
 369 0006 0368     		ldr	r3, [r0]
 370 0008 0B60     		str	r3, [r1]
 371              	.LBE126:
 372              	.LBE125:
 373              	.LBB128:
 374              	.LBB129:
 375              	.LBB130:
 376              	.LBB131:
 377              	.LBB132:
 378              		.loc 2 546 0
 379 000a 0023     		movs	r3, #0
 380              	.LBE132:
 381              	.LBE131:
 382              	.LBE130:
 383              	.LBE129:
 384              	.LBE128:
 385              	.LBB137:
 386              	.LBB127:
 387              		.loc 1 178 0
 388 000c 0160     		str	r1, [r0]
 389              	.LVL25:
 390              	.LBE127:
 391              	.LBE137:
 392              	.LBB138:
 393              	.LBB136:
 394              	.LBB135:
 395              	.LBB134:
 396              	.LBB133:
 397              		.loc 2 546 0
 398              	@ 546 "ChibiOS_3.0.2/os/ext/CMSIS/include/core_cmFunc.h" 1
 399 000e 83F31188 		MSR basepri, r3
ARM GAS  /tmp/cciAJsFK.s 			page 8


 400              	@ 0 "" 2
 401              		.thumb
 402 0012 7047     		bx	lr
 403              	.LBE133:
 404              	.LBE134:
 405              	.LBE135:
 406              	.LBE136:
 407              	.LBE138:
 408              		.cfi_endproc
 409              	.LFE224:
 410              		.size	chPoolFree, .-chPoolFree
 411              		.text
 412              	.Letext0:
 413              		.file 3 "/usr/lib/gcc/arm-none-eabi/4.9.3/include/stddef.h"
 414              		.file 4 "/usr/arm-none-eabi/include/machine/_default_types.h"
 415              		.file 5 "/usr/arm-none-eabi/include/sys/_stdint.h"
 416              		.file 6 "ChibiOS_3.0.2/os/rt/ports/ARMCMx/compilers/GCC/chtypes.h"
 417              		.file 7 "ChibiOS_3.0.2/os/rt/include/chsystypes.h"
 418              		.file 8 "ChibiOS_3.0.2/os/rt/include/chschd.h"
 419              		.file 9 "ChibiOS_3.0.2/os/rt/ports/ARMCMx/chcore.h"
 420              		.file 10 "ChibiOS_3.0.2/os/rt/ports/ARMCMx/chcore_v7m.h"
 421              		.file 11 "ChibiOS_3.0.2/os/rt/include/chtm.h"
 422              		.file 12 "ChibiOS_3.0.2/os/rt/include/chsem.h"
 423              		.file 13 "ChibiOS_3.0.2/os/rt/include/chmtx.h"
 424              		.file 14 "ChibiOS_3.0.2/os/rt/include/chmemcore.h"
 425              		.file 15 "ChibiOS_3.0.2/os/rt/include/chmempools.h"
 426              		.file 16 "ChibiOS_3.0.2/os/rt/include/chsys.h"
 427              		.file 17 "ChibiOS_3.0.2/os/ext/CMSIS/include/core_cm4.h"