ARM GAS  /tmp/ccOY2adz.s 			page 1


   1              		.syntax unified
   2              		.cpu cortex-m4
   3              		.eabi_attribute 27, 1
   4              		.eabi_attribute 28, 1
   5              		.fpu fpv4-sp-d16
   6              		.eabi_attribute 20, 1
   7              		.eabi_attribute 21, 1
   8              		.eabi_attribute 23, 3
   9              		.eabi_attribute 24, 1
  10              		.eabi_attribute 25, 1
  11              		.eabi_attribute 26, 1
  12              		.eabi_attribute 30, 2
  13              		.eabi_attribute 34, 1
  14              		.eabi_attribute 18, 4
  15              		.thumb
  16              		.file	"chmemcore.c"
  17              		.text
  18              	.Ltext0:
  19              		.cfi_sections	.debug_frame
  20              		.section	.text._core_init,"ax",%progbits
  21              		.align	2
  22              		.p2align 4,,15
  23              		.global	_core_init
  24              		.thumb
  25              		.thumb_func
  26              		.type	_core_init, %function
  27              	_core_init:
  28              	.LFB219:
  29              		.file 1 "ChibiOS_3.0.2/os/rt/src/chmemcore.c"
  30              		.loc 1 78 0
  31              		.cfi_startproc
  32              		@ args = 0, pretend = 0, frame = 0
  33              		@ frame_needed = 0, uses_anonymous_args = 0
  34              		@ link register save eliminated.
  35              		.loc 1 84 0
  36 0000 054A     		ldr	r2, .L2
  37              		.loc 1 85 0
  38 0002 064B     		ldr	r3, .L2+4
  39              		.loc 1 84 0
  40 0004 0648     		ldr	r0, .L2+8
  41              		.loc 1 85 0
  42 0006 0749     		ldr	r1, .L2+12
  43              		.loc 1 84 0
  44 0008 22F00702 		bic	r2, r2, #7
  45              		.loc 1 85 0
  46 000c 23F00703 		bic	r3, r3, #7
  47              		.loc 1 84 0
  48 0010 0260     		str	r2, [r0]
  49              		.loc 1 85 0
  50 0012 0B60     		str	r3, [r1]
  51 0014 7047     		bx	lr
  52              	.L3:
  53 0016 00BF     		.align	2
  54              	.L2:
  55 0018 07000000 		.word	__heap_base__+7
  56 001c 00000000 		.word	__heap_end__
  57 0020 00000000 		.word	.LANCHOR0
ARM GAS  /tmp/ccOY2adz.s 			page 2


  58 0024 00000000 		.word	.LANCHOR1
  59              		.cfi_endproc
  60              	.LFE219:
  61              		.size	_core_init, .-_core_init
  62              		.section	.text.chCoreAlloc,"ax",%progbits
  63              		.align	2
  64              		.p2align 4,,15
  65              		.global	chCoreAlloc
  66              		.thumb
  67              		.thumb_func
  68              		.type	chCoreAlloc, %function
  69              	chCoreAlloc:
  70              	.LFB220:
  71              		.loc 1 109 0
  72              		.cfi_startproc
  73              		@ args = 0, pretend = 0, frame = 0
  74              		@ frame_needed = 0, uses_anonymous_args = 0
  75              		@ link register save eliminated.
  76              	.LVL0:
  77 0000 10B4     		push	{r4}
  78              		.cfi_def_cfa_offset 4
  79              		.cfi_offset 4, -4
  80              	.LBB26:
  81              	.LBB27:
  82              	.LBB28:
  83              	.LBB29:
  84              		.file 2 "ChibiOS_3.0.2/os/ext/CMSIS/include/core_cmFunc.h"
  85              		.loc 2 546 0
  86 0002 2023     		movs	r3, #32
  87              	@ 546 "ChibiOS_3.0.2/os/ext/CMSIS/include/core_cmFunc.h" 1
  88 0004 83F31188 		MSR basepri, r3
  89              	@ 0 "" 2
  90              	.LVL1:
  91              		.thumb
  92              	.LBE29:
  93              	.LBE28:
  94              	.LBE27:
  95              	.LBE26:
  96              	.LBB30:
  97              	.LBB31:
  98              		.loc 1 138 0
  99 0008 094C     		ldr	r4, .L8
 100 000a 0A4B     		ldr	r3, .L8+4
 101 000c 2268     		ldr	r2, [r4]
 102 000e 1968     		ldr	r1, [r3]
 103              		.loc 1 136 0
 104 0010 C31D     		adds	r3, r0, #7
 105 0012 23F00703 		bic	r3, r3, #7
 106              	.LVL2:
 107              		.loc 1 138 0
 108 0016 891A     		subs	r1, r1, r2
 109 0018 8B42     		cmp	r3, r1
 110              	.LVL3:
 111              		.loc 1 143 0
 112 001a 9DBF     		ittte	ls
 113 001c 9B18     		addls	r3, r3, r2
 114              	.LVL4:
ARM GAS  /tmp/ccOY2adz.s 			page 3


 115 001e 2360     		strls	r3, [r4]
 116              		.loc 1 145 0
 117 0020 1046     		movls	r0, r2
 118              	.LVL5:
 119              		.loc 1 140 0
 120 0022 0020     		movhi	r0, #0
 121              	.LVL6:
 122              	.LBE31:
 123              	.LBE30:
 124              	.LBB32:
 125              	.LBB33:
 126              	.LBB34:
 127              	.LBB35:
 128              	.LBB36:
 129              		.loc 2 546 0
 130 0024 0023     		movs	r3, #0
 131              	@ 546 "ChibiOS_3.0.2/os/ext/CMSIS/include/core_cmFunc.h" 1
 132 0026 83F31188 		MSR basepri, r3
 133              	@ 0 "" 2
 134              		.thumb
 135              	.LBE36:
 136              	.LBE35:
 137              	.LBE34:
 138              	.LBE33:
 139              	.LBE32:
 140              		.loc 1 117 0
 141 002a 5DF8044B 		ldr	r4, [sp], #4
 142              		.cfi_restore 4
 143              		.cfi_def_cfa_offset 0
 144 002e 7047     		bx	lr
 145              	.L9:
 146              		.align	2
 147              	.L8:
 148 0030 00000000 		.word	.LANCHOR0
 149 0034 00000000 		.word	.LANCHOR1
 150              		.cfi_endproc
 151              	.LFE220:
 152              		.size	chCoreAlloc, .-chCoreAlloc
 153              		.section	.text.chCoreAllocI,"ax",%progbits
 154              		.align	2
 155              		.p2align 4,,15
 156              		.global	chCoreAllocI
 157              		.thumb
 158              		.thumb_func
 159              		.type	chCoreAllocI, %function
 160              	chCoreAllocI:
 161              	.LFB221:
 162              		.loc 1 131 0
 163              		.cfi_startproc
 164              		@ args = 0, pretend = 0, frame = 0
 165              		@ frame_needed = 0, uses_anonymous_args = 0
 166              		@ link register save eliminated.
 167              	.LVL7:
 168 0000 10B4     		push	{r4}
 169              		.cfi_def_cfa_offset 4
 170              		.cfi_offset 4, -4
 171              		.loc 1 138 0
ARM GAS  /tmp/ccOY2adz.s 			page 4


 172 0002 084B     		ldr	r3, .L14
 173 0004 084C     		ldr	r4, .L14+4
 174 0006 1968     		ldr	r1, [r3]
 175 0008 2268     		ldr	r2, [r4]
 176              		.loc 1 136 0
 177 000a 0730     		adds	r0, r0, #7
 178              	.LVL8:
 179 000c 20F00703 		bic	r3, r0, #7
 180              	.LVL9:
 181              		.loc 1 138 0
 182 0010 891A     		subs	r1, r1, r2
 183 0012 8B42     		cmp	r3, r1
 184              	.LVL10:
 185              		.loc 1 143 0
 186 0014 9DBF     		ittte	ls
 187 0016 9B18     		addls	r3, r3, r2
 188              	.LVL11:
 189 0018 2360     		strls	r3, [r4]
 190              		.loc 1 145 0
 191 001a 1046     		movls	r0, r2
 192              	.LVL12:
 193              		.loc 1 140 0
 194 001c 0020     		movhi	r0, #0
 195              		.loc 1 146 0
 196 001e 5DF8044B 		ldr	r4, [sp], #4
 197              		.cfi_restore 4
 198              		.cfi_def_cfa_offset 0
 199 0022 7047     		bx	lr
 200              	.L15:
 201              		.align	2
 202              	.L14:
 203 0024 00000000 		.word	.LANCHOR1
 204 0028 00000000 		.word	.LANCHOR0
 205              		.cfi_endproc
 206              	.LFE221:
 207              		.size	chCoreAllocI, .-chCoreAllocI
 208              		.section	.text.chCoreGetStatusX,"ax",%progbits
 209              		.align	2
 210              		.p2align 4,,15
 211              		.global	chCoreGetStatusX
 212              		.thumb
 213              		.thumb_func
 214              		.type	chCoreGetStatusX, %function
 215              	chCoreGetStatusX:
 216              	.LFB222:
 217              		.loc 1 155 0
 218              		.cfi_startproc
 219              		@ args = 0, pretend = 0, frame = 0
 220              		@ frame_needed = 0, uses_anonymous_args = 0
 221              		@ link register save eliminated.
 222              		.loc 1 158 0
 223 0000 024A     		ldr	r2, .L17
 224 0002 034B     		ldr	r3, .L17+4
 225 0004 1068     		ldr	r0, [r2]
 226 0006 1B68     		ldr	r3, [r3]
 227              		.loc 1 160 0
 228 0008 C01A     		subs	r0, r0, r3
ARM GAS  /tmp/ccOY2adz.s 			page 5


 229 000a 7047     		bx	lr
 230              	.L18:
 231              		.align	2
 232              	.L17:
 233 000c 00000000 		.word	.LANCHOR1
 234 0010 00000000 		.word	.LANCHOR0
 235              		.cfi_endproc
 236              	.LFE222:
 237              		.size	chCoreGetStatusX, .-chCoreGetStatusX
 238              		.section	.bss.endmem,"aw",%nobits
 239              		.align	2
 240              		.set	.LANCHOR1,. + 0
 241              		.type	endmem, %object
 242              		.size	endmem, 4
 243              	endmem:
 244 0000 00000000 		.space	4
 245              		.section	.bss.nextmem,"aw",%nobits
 246              		.align	2
 247              		.set	.LANCHOR0,. + 0
 248              		.type	nextmem, %object
 249              		.size	nextmem, 4
 250              	nextmem:
 251 0000 00000000 		.space	4
 252              		.text
 253              	.Letext0:
 254              		.file 3 "/usr/lib/gcc/arm-none-eabi/4.9.3/include/stddef.h"
 255              		.file 4 "/usr/arm-none-eabi/include/machine/_default_types.h"
 256              		.file 5 "/usr/arm-none-eabi/include/sys/_stdint.h"
 257              		.file 6 "ChibiOS_3.0.2/os/rt/ports/ARMCMx/compilers/GCC/chtypes.h"
 258              		.file 7 "ChibiOS_3.0.2/os/rt/include/chsystypes.h"
 259              		.file 8 "ChibiOS_3.0.2/os/rt/include/chschd.h"
 260              		.file 9 "ChibiOS_3.0.2/os/rt/ports/ARMCMx/chcore.h"
 261              		.file 10 "ChibiOS_3.0.2/os/rt/ports/ARMCMx/chcore_v7m.h"
 262              		.file 11 "ChibiOS_3.0.2/os/rt/include/chtm.h"
 263              		.file 12 "ChibiOS_3.0.2/os/rt/include/chsem.h"
 264              		.file 13 "ChibiOS_3.0.2/os/rt/include/chmtx.h"
 265              		.file 14 "ChibiOS_3.0.2/os/rt/include/chsys.h"
 266              		.file 15 "ChibiOS_3.0.2/os/ext/CMSIS/include/core_cm4.h"