ARM GAS  /tmp/ccugrocP.s 			page 1


   1              		.syntax unified
   2              		.cpu cortex-m4
   3              		.eabi_attribute 27, 1
   4              		.eabi_attribute 28, 1
   5              		.fpu fpv4-sp-d16
   6              		.eabi_attribute 20, 1
   7              		.eabi_attribute 21, 1
   8              		.eabi_attribute 23, 3
   9              		.eabi_attribute 24, 1
  10              		.eabi_attribute 25, 1
  11              		.eabi_attribute 26, 1
  12              		.eabi_attribute 30, 2
  13              		.eabi_attribute 34, 1
  14              		.eabi_attribute 18, 4
  15              		.thumb
  16              		.file	"chmtx.c"
  17              		.text
  18              	.Ltext0:
  19              		.cfi_sections	.debug_frame
  20              		.section	.text.chMtxObjectInit,"ax",%progbits
  21              		.align	2
  22              		.p2align 4,,15
  23              		.global	chMtxObjectInit
  24              		.thumb
  25              		.thumb_func
  26              		.type	chMtxObjectInit, %function
  27              	chMtxObjectInit:
  28              	.LFB219:
  29              		.file 1 "ChibiOS_3.0.2/os/rt/src/chmtx.c"
  30              		.loc 1 103 0
  31              		.cfi_startproc
  32              		@ args = 0, pretend = 0, frame = 0
  33              		@ frame_needed = 0, uses_anonymous_args = 0
  34              		@ link register save eliminated.
  35              	.LVL0:
  36              		.loc 1 108 0
  37 0000 0023     		movs	r3, #0
  38              	.LBB103:
  39              	.LBB104:
  40              		.file 2 "ChibiOS_3.0.2/os/rt/include/chschd.h"
  41              		.loc 2 604 0
  42 0002 0060     		str	r0, [r0]
  43              		.loc 2 605 0
  44 0004 4060     		str	r0, [r0, #4]
  45              	.LBE104:
  46              	.LBE103:
  47              		.loc 1 108 0
  48 0006 8360     		str	r3, [r0, #8]
  49 0008 7047     		bx	lr
  50              		.cfi_endproc
  51              	.LFE219:
  52              		.size	chMtxObjectInit, .-chMtxObjectInit
  53 000a 00BF     		.section	.text.chMtxLockS,"ax",%progbits
  54              		.align	2
  55              		.p2align 4,,15
  56              		.global	chMtxLockS
  57              		.thumb
ARM GAS  /tmp/ccugrocP.s 			page 2


  58              		.thumb_func
  59              		.type	chMtxLockS, %function
  60              	chMtxLockS:
  61              	.LFB221:
  62              		.loc 1 139 0
  63              		.cfi_startproc
  64              		@ args = 0, pretend = 0, frame = 0
  65              		@ frame_needed = 0, uses_anonymous_args = 0
  66              	.LVL1:
  67              		.loc 1 140 0
  68 0000 304B     		ldr	r3, .L28
  69              		.loc 1 146 0
  70 0002 8268     		ldr	r2, [r0, #8]
  71              		.loc 1 139 0
  72 0004 70B5     		push	{r4, r5, r6, lr}
  73              		.cfi_def_cfa_offset 16
  74              		.cfi_offset 4, -16
  75              		.cfi_offset 5, -12
  76              		.cfi_offset 6, -8
  77              		.cfi_offset 14, -4
  78              		.loc 1 140 0
  79 0006 9C69     		ldr	r4, [r3, #24]
  80              	.LVL2:
  81              		.loc 1 146 0
  82 0008 002A     		cmp	r2, #0
  83 000a 55D0     		beq	.L3
  84              	.LBB105:
  85              		.loc 1 165 0
  86 000c A168     		ldr	r1, [r4, #8]
  87 000e 9368     		ldr	r3, [r2, #8]
  88 0010 9942     		cmp	r1, r3
  89 0012 0546     		mov	r5, r0
  90              	.LVL3:
  91 0014 06D9     		bls	.L5
  92              	.LVL4:
  93              	.L10:
  94              		.loc 1 170 0
  95 0016 137F     		ldrb	r3, [r2, #28]	@ zero_extendqisi2
  96              		.loc 1 167 0
  97 0018 9160     		str	r1, [r2, #8]
  98              		.loc 1 170 0
  99 001a 062B     		cmp	r3, #6
 100 001c 33D0     		beq	.L6
 101 001e 072B     		cmp	r3, #7
 102 0020 1DD0     		beq	.L7
 103 0022 9BB1     		cbz	r3, .L27
 104              	.LVL5:
 105              	.L5:
 106              	.LBB106:
 107              	.LBB107:
 108              		.loc 2 653 0
 109 0024 2B46     		mov	r3, r5
 110 0026 03E0     		b	.L18
 111              	.LVL6:
 112              	.L17:
 113              		.loc 2 656 0
 114 0028 9968     		ldr	r1, [r3, #8]
ARM GAS  /tmp/ccugrocP.s 			page 3


 115 002a A268     		ldr	r2, [r4, #8]
 116 002c 9142     		cmp	r1, r2
 117 002e 02D3     		bcc	.L19
 118              	.L18:
 119              		.loc 2 655 0
 120 0030 1B68     		ldr	r3, [r3]
 121              	.LVL7:
 122              		.loc 2 656 0
 123 0032 9D42     		cmp	r5, r3
 124 0034 F8D1     		bne	.L17
 125              	.L19:
 126              		.loc 2 658 0
 127 0036 5A68     		ldr	r2, [r3, #4]
 128 0038 6260     		str	r2, [r4, #4]
 129              		.loc 2 657 0
 130 003a 2360     		str	r3, [r4]
 131              		.loc 2 659 0
 132 003c 1460     		str	r4, [r2]
 133              		.loc 2 660 0
 134 003e 5C60     		str	r4, [r3, #4]
 135              	.LBE107:
 136              	.LBE106:
 137              		.loc 1 213 0
 138 0040 6562     		str	r5, [r4, #36]
 139              		.loc 1 214 0
 140 0042 0620     		movs	r0, #6
 141              	.LBE105:
 142              		.loc 1 236 0
 143 0044 BDE87040 		pop	{r4, r5, r6, lr}
 144              		.cfi_remember_state
 145              		.cfi_restore 14
 146              		.cfi_restore 6
 147              		.cfi_restore 5
 148              		.cfi_restore 4
 149              		.cfi_def_cfa_offset 0
 150              	.LVL8:
 151              	.LBB124:
 152              		.loc 1 214 0
 153 0048 FFF7FEBF 		b	chSchGoSleepS
 154              	.LVL9:
 155              	.L27:
 156              		.cfi_restore_state
 157              	.LBB108:
 158              	.LBB109:
 159              		.loc 2 691 0
 160 004c 92E80A00 		ldmia	r2, {r1, r3}
 161 0050 1960     		str	r1, [r3]
 162              		.loc 2 692 0
 163 0052 1168     		ldr	r1, [r2]
 164              	.LBE109:
 165              	.LBE108:
 166              		.loc 1 202 0
 167 0054 1046     		mov	r0, r2
 168              	.LBB111:
 169              	.LBB110:
 170              		.loc 2 692 0
 171 0056 4B60     		str	r3, [r1, #4]
ARM GAS  /tmp/ccugrocP.s 			page 4


 172              	.LBE110:
 173              	.LBE111:
 174              		.loc 1 202 0
 175 0058 FFF7FEFF 		bl	chSchReadyI
 176              	.LVL10:
 177              		.loc 1 203 0
 178 005c E2E7     		b	.L5
 179              	.LVL11:
 180              	.L7:
 181              	.LBB112:
 182              	.LBB113:
 183              		.loc 2 691 0
 184 005e 92E80900 		ldmia	r2, {r0, r3}
 185 0062 1860     		str	r0, [r3]
 186              	.LBE113:
 187              	.LBE112:
 188              		.loc 1 193 0
 189 0064 566A     		ldr	r6, [r2, #36]
 190              	.LVL12:
 191              	.LBB115:
 192              	.LBB114:
 193              		.loc 2 692 0
 194 0066 1068     		ldr	r0, [r2]
 195 0068 4360     		str	r3, [r0, #4]
 196              	.LBE114:
 197              	.LBE115:
 198              	.LBB116:
 199              	.LBB117:
 200              		.loc 2 653 0
 201 006a 3346     		mov	r3, r6
 202 006c 02E0     		b	.L15
 203              	.LVL13:
 204              	.L14:
 205              		.loc 2 656 0
 206 006e 9868     		ldr	r0, [r3, #8]
 207 0070 8842     		cmp	r0, r1
 208 0072 02D3     		bcc	.L16
 209              	.L15:
 210              		.loc 2 655 0
 211 0074 1B68     		ldr	r3, [r3]
 212              	.LVL14:
 213              		.loc 2 656 0
 214 0076 9E42     		cmp	r6, r3
 215 0078 F9D1     		bne	.L14
 216              	.L16:
 217              		.loc 2 658 0
 218 007a 5968     		ldr	r1, [r3, #4]
 219 007c 5160     		str	r1, [r2, #4]
 220              		.loc 2 657 0
 221 007e 1360     		str	r3, [r2]
 222              		.loc 2 659 0
 223 0080 0A60     		str	r2, [r1]
 224              		.loc 2 660 0
 225 0082 5A60     		str	r2, [r3, #4]
 226 0084 CEE7     		b	.L5
 227              	.LVL15:
 228              	.L6:
ARM GAS  /tmp/ccugrocP.s 			page 5


 229              	.LBE117:
 230              	.LBE116:
 231              	.LBB118:
 232              	.LBB119:
 233              		.loc 2 691 0
 234 0086 92E80900 		ldmia	r2, {r0, r3}
 235 008a 1860     		str	r0, [r3]
 236              	.LBE119:
 237              	.LBE118:
 238              		.loc 1 173 0
 239 008c 566A     		ldr	r6, [r2, #36]
 240              	.LVL16:
 241              	.LBB121:
 242              	.LBB120:
 243              		.loc 2 692 0
 244 008e 1068     		ldr	r0, [r2]
 245 0090 4360     		str	r3, [r0, #4]
 246              	.LBE120:
 247              	.LBE121:
 248              	.LBB122:
 249              	.LBB123:
 250              		.loc 2 653 0
 251 0092 3346     		mov	r3, r6
 252 0094 02E0     		b	.L12
 253              	.LVL17:
 254              	.L9:
 255              		.loc 2 656 0
 256 0096 9868     		ldr	r0, [r3, #8]
 257 0098 8842     		cmp	r0, r1
 258 009a 02D3     		bcc	.L13
 259              	.L12:
 260              		.loc 2 655 0
 261 009c 1B68     		ldr	r3, [r3]
 262              	.LVL18:
 263              		.loc 2 656 0
 264 009e 9E42     		cmp	r6, r3
 265 00a0 F9D1     		bne	.L9
 266              	.L13:
 267              		.loc 2 658 0
 268 00a2 5968     		ldr	r1, [r3, #4]
 269 00a4 5160     		str	r1, [r2, #4]
 270              		.loc 2 657 0
 271 00a6 1360     		str	r3, [r2]
 272              		.loc 2 659 0
 273 00a8 0A60     		str	r2, [r1]
 274              		.loc 2 660 0
 275 00aa 5A60     		str	r2, [r3, #4]
 276              	.LBE123:
 277              	.LBE122:
 278              		.loc 1 174 0
 279 00ac B268     		ldr	r2, [r6, #8]
 280              	.LVL19:
 281              		.loc 1 165 0
 282 00ae A168     		ldr	r1, [r4, #8]
 283 00b0 9368     		ldr	r3, [r2, #8]
 284              	.LVL20:
 285 00b2 8B42     		cmp	r3, r1
ARM GAS  /tmp/ccugrocP.s 			page 6


 286 00b4 AFD3     		bcc	.L10
 287 00b6 B5E7     		b	.L5
 288              	.LVL21:
 289              	.L3:
 290              	.LBE124:
 291              		.loc 1 233 0
 292 00b8 E36B     		ldr	r3, [r4, #60]
 293 00ba C360     		str	r3, [r0, #12]
 294              		.loc 1 232 0
 295 00bc 8460     		str	r4, [r0, #8]
 296              		.loc 1 234 0
 297 00be E063     		str	r0, [r4, #60]
 298 00c0 70BD     		pop	{r4, r5, r6, pc}
 299              	.LVL22:
 300              	.L29:
 301 00c2 00BF     		.align	2
 302              	.L28:
 303 00c4 00000000 		.word	ch
 304              		.cfi_endproc
 305              	.LFE221:
 306              		.size	chMtxLockS, .-chMtxLockS
 307              		.section	.text.chMtxLock,"ax",%progbits
 308              		.align	2
 309              		.p2align 4,,15
 310              		.global	chMtxLock
 311              		.thumb
 312              		.thumb_func
 313              		.type	chMtxLock, %function
 314              	chMtxLock:
 315              	.LFB220:
 316              		.loc 1 123 0
 317              		.cfi_startproc
 318              		@ args = 0, pretend = 0, frame = 0
 319              		@ frame_needed = 0, uses_anonymous_args = 0
 320              	.LVL23:
 321 0000 08B5     		push	{r3, lr}
 322              		.cfi_def_cfa_offset 8
 323              		.cfi_offset 3, -8
 324              		.cfi_offset 14, -4
 325              	.LBB125:
 326              	.LBB126:
 327              	.LBB127:
 328              	.LBB128:
 329              		.file 3 "ChibiOS_3.0.2/os/ext/CMSIS/include/core_cmFunc.h"
 330              		.loc 3 546 0
 331 0002 2023     		movs	r3, #32
 332              	@ 546 "ChibiOS_3.0.2/os/ext/CMSIS/include/core_cmFunc.h" 1
 333 0004 83F31188 		MSR basepri, r3
 334              	@ 0 "" 2
 335              		.thumb
 336              	.LBE128:
 337              	.LBE127:
 338              	.LBE126:
 339              	.LBE125:
 340              		.loc 1 126 0
 341 0008 FFF7FEFF 		bl	chMtxLockS
 342              	.LVL24:
ARM GAS  /tmp/ccugrocP.s 			page 7


 343              	.LBB129:
 344              	.LBB130:
 345              	.LBB131:
 346              	.LBB132:
 347              	.LBB133:
 348              		.loc 3 546 0
 349 000c 0023     		movs	r3, #0
 350              	@ 546 "ChibiOS_3.0.2/os/ext/CMSIS/include/core_cmFunc.h" 1
 351 000e 83F31188 		MSR basepri, r3
 352              	@ 0 "" 2
 353              		.thumb
 354 0012 08BD     		pop	{r3, pc}
 355              	.LBE133:
 356              	.LBE132:
 357              	.LBE131:
 358              	.LBE130:
 359              	.LBE129:
 360              		.cfi_endproc
 361              	.LFE220:
 362              		.size	chMtxLock, .-chMtxLock
 363              		.section	.text.chMtxTryLock,"ax",%progbits
 364              		.align	2
 365              		.p2align 4,,15
 366              		.global	chMtxTryLock
 367              		.thumb
 368              		.thumb_func
 369              		.type	chMtxTryLock, %function
 370              	chMtxTryLock:
 371              	.LFB222:
 372              		.loc 1 255 0
 373              		.cfi_startproc
 374              		@ args = 0, pretend = 0, frame = 0
 375              		@ frame_needed = 0, uses_anonymous_args = 0
 376              		@ link register save eliminated.
 377              	.LVL25:
 378              		.loc 1 255 0
 379 0000 0346     		mov	r3, r0
 380              	.LBB147:
 381              	.LBB148:
 382              	.LBB149:
 383              	.LBB150:
 384              		.loc 3 546 0
 385 0002 2022     		movs	r2, #32
 386              	@ 546 "ChibiOS_3.0.2/os/ext/CMSIS/include/core_cmFunc.h" 1
 387 0004 82F31188 		MSR basepri, r2
 388              	@ 0 "" 2
 389              	.LVL26:
 390              		.thumb
 391              	.LBE150:
 392              	.LBE149:
 393              	.LBE148:
 394              	.LBE147:
 395              	.LBB151:
 396              	.LBB152:
 397              		.loc 1 287 0
 398 0008 8268     		ldr	r2, [r0, #8]
 399              		.loc 1 297 0
ARM GAS  /tmp/ccugrocP.s 			page 8


 400 000a 0020     		movs	r0, #0
 401              	.LVL27:
 402              		.loc 1 287 0
 403 000c 1AB1     		cbz	r2, .L35
 404              	.LVL28:
 405              	.LBE152:
 406              	.LBE151:
 407              	.LBB156:
 408              	.LBB157:
 409              	.LBB158:
 410              	.LBB159:
 411              	.LBB160:
 412              		.loc 3 546 0
 413 000e 0023     		movs	r3, #0
 414              	.LVL29:
 415              	@ 546 "ChibiOS_3.0.2/os/ext/CMSIS/include/core_cmFunc.h" 1
 416 0010 83F31188 		MSR basepri, r3
 417              	@ 0 "" 2
 418              		.thumb
 419              	.LBE160:
 420              	.LBE159:
 421              	.LBE158:
 422              	.LBE157:
 423              	.LBE156:
 424              		.loc 1 263 0
 425 0014 7047     		bx	lr
 426              	.LVL30:
 427              	.L35:
 428              	.LBB165:
 429              	.LBB155:
 430              	.LBB153:
 431              	.LBB154:
 432              		.loc 1 305 0
 433 0016 054A     		ldr	r2, .L36
 434 0018 9269     		ldr	r2, [r2, #24]
 435 001a 9A60     		str	r2, [r3, #8]
 436              		.loc 1 306 0
 437 001c D16B     		ldr	r1, [r2, #60]
 438 001e D960     		str	r1, [r3, #12]
 439              		.loc 1 307 0
 440 0020 0120     		movs	r0, #1
 441 0022 D363     		str	r3, [r2, #60]
 442              	.LVL31:
 443              	.LBE154:
 444              	.LBE153:
 445              	.LBE155:
 446              	.LBE165:
 447              	.LBB166:
 448              	.LBB164:
 449              	.LBB163:
 450              	.LBB162:
 451              	.LBB161:
 452              		.loc 3 546 0
 453 0024 0023     		movs	r3, #0
 454              	.LVL32:
 455              	@ 546 "ChibiOS_3.0.2/os/ext/CMSIS/include/core_cmFunc.h" 1
 456 0026 83F31188 		MSR basepri, r3
ARM GAS  /tmp/ccugrocP.s 			page 9


 457              	@ 0 "" 2
 458              		.thumb
 459              	.LBE161:
 460              	.LBE162:
 461              	.LBE163:
 462              	.LBE164:
 463              	.LBE166:
 464              		.loc 1 263 0
 465 002a 7047     		bx	lr
 466              	.L37:
 467              		.align	2
 468              	.L36:
 469 002c 00000000 		.word	ch
 470              		.cfi_endproc
 471              	.LFE222:
 472              		.size	chMtxTryLock, .-chMtxTryLock
 473              		.section	.text.chMtxTryLockS,"ax",%progbits
 474              		.align	2
 475              		.p2align 4,,15
 476              		.global	chMtxTryLockS
 477              		.thumb
 478              		.thumb_func
 479              		.type	chMtxTryLockS, %function
 480              	chMtxTryLockS:
 481              	.LFB223:
 482              		.loc 1 282 0
 483              		.cfi_startproc
 484              		@ args = 0, pretend = 0, frame = 0
 485              		@ frame_needed = 0, uses_anonymous_args = 0
 486              		@ link register save eliminated.
 487              	.LVL33:
 488              		.loc 1 287 0
 489 0000 8268     		ldr	r2, [r0, #8]
 490              		.loc 1 282 0
 491 0002 0346     		mov	r3, r0
 492              		.loc 1 287 0
 493 0004 0AB1     		cbz	r2, .L41
 494              		.loc 1 297 0
 495 0006 0020     		movs	r0, #0
 496              	.LVL34:
 497              		.loc 1 309 0
 498 0008 7047     		bx	lr
 499              	.LVL35:
 500              	.L41:
 501              	.LBB169:
 502              	.LBB170:
 503              		.loc 1 305 0
 504 000a 044A     		ldr	r2, .L42
 505 000c 9269     		ldr	r2, [r2, #24]
 506 000e 8260     		str	r2, [r0, #8]
 507              		.loc 1 306 0
 508 0010 D16B     		ldr	r1, [r2, #60]
 509 0012 C160     		str	r1, [r0, #12]
 510              		.loc 1 307 0
 511 0014 0120     		movs	r0, #1
 512              	.LVL36:
 513 0016 D363     		str	r3, [r2, #60]
ARM GAS  /tmp/ccugrocP.s 			page 10


 514 0018 7047     		bx	lr
 515              	.L43:
 516 001a 00BF     		.align	2
 517              	.L42:
 518 001c 00000000 		.word	ch
 519              	.LBE170:
 520              	.LBE169:
 521              		.cfi_endproc
 522              	.LFE223:
 523              		.size	chMtxTryLockS, .-chMtxTryLockS
 524              		.section	.text.chMtxUnlock,"ax",%progbits
 525              		.align	2
 526              		.p2align 4,,15
 527              		.global	chMtxUnlock
 528              		.thumb
 529              		.thumb_func
 530              		.type	chMtxUnlock, %function
 531              	chMtxUnlock:
 532              	.LFB224:
 533              		.loc 1 323 0
 534              		.cfi_startproc
 535              		@ args = 0, pretend = 0, frame = 0
 536              		@ frame_needed = 0, uses_anonymous_args = 0
 537              	.LVL37:
 538              		.loc 1 324 0
 539 0000 174B     		ldr	r3, .L55
 540              		.loc 1 323 0
 541 0002 70B5     		push	{r4, r5, r6, lr}
 542              		.cfi_def_cfa_offset 16
 543              		.cfi_offset 4, -16
 544              		.cfi_offset 5, -12
 545              		.cfi_offset 6, -8
 546              		.cfi_offset 14, -4
 547              		.loc 1 324 0
 548 0004 9D69     		ldr	r5, [r3, #24]
 549              	.LVL38:
 550              	.LBB171:
 551              	.LBB172:
 552              	.LBB173:
 553              	.LBB174:
 554              		.loc 3 546 0
 555 0006 2023     		movs	r3, #32
 556              	@ 546 "ChibiOS_3.0.2/os/ext/CMSIS/include/core_cmFunc.h" 1
 557 0008 83F31188 		MSR basepri, r3
 558              	@ 0 "" 2
 559              		.thumb
 560              	.LBE174:
 561              	.LBE173:
 562              	.LBE172:
 563              	.LBE171:
 564              	.LBB175:
 565              	.LBB176:
 566              	.LBB177:
 567              	.LBB178:
 568              		.loc 2 631 0
 569 000c 0468     		ldr	r4, [r0]
 570              	.LBE178:
ARM GAS  /tmp/ccugrocP.s 			page 11


 571              	.LBE177:
 572              	.LBE176:
 573              	.LBE175:
 574              		.loc 1 344 0
 575 000e C368     		ldr	r3, [r0, #12]
 576 0010 EB63     		str	r3, [r5, #60]
 577              	.LVL39:
 578              		.loc 1 347 0
 579 0012 A042     		cmp	r0, r4
 580 0014 1DD0     		beq	.L45
 581              	.LBB179:
 582              		.loc 1 352 0
 583 0016 296C     		ldr	r1, [r5, #64]
 584              	.LVL40:
 585              		.loc 1 354 0
 586 0018 4BB1     		cbz	r3, .L46
 587              	.L48:
 588              	.LVL41:
 589              	.LBB180:
 590              	.LBB181:
 591              	.LBB182:
 592              	.LBB183:
 593              		.loc 2 631 0
 594 001a 1A68     		ldr	r2, [r3]
 595              	.LBE183:
 596              	.LBE182:
 597              	.LBE181:
 598              	.LBE180:
 599              		.loc 1 358 0
 600 001c 9342     		cmp	r3, r2
 601 001e 03D0     		beq	.L47
 602              		.loc 1 359 0 discriminator 1
 603 0020 9268     		ldr	r2, [r2, #8]
 604 0022 9142     		cmp	r1, r2
 605 0024 38BF     		it	cc
 606 0026 1146     		movcc	r1, r2
 607              	.LVL42:
 608              	.L47:
 609              		.loc 1 362 0
 610 0028 DB68     		ldr	r3, [r3, #12]
 611              	.LVL43:
 612              		.loc 1 354 0
 613 002a 002B     		cmp	r3, #0
 614 002c F5D1     		bne	.L48
 615              	.L46:
 616 002e 0346     		mov	r3, r0
 617              	.LVL44:
 618              	.LBB184:
 619              	.LBB185:
 620              		.loc 2 674 0
 621 0030 2268     		ldr	r2, [r4]
 622              	.LBE185:
 623              	.LBE184:
 624              		.loc 1 376 0
 625 0032 E66B     		ldr	r6, [r4, #60]
 626              		.loc 1 367 0
 627 0034 A960     		str	r1, [r5, #8]
ARM GAS  /tmp/ccugrocP.s 			page 12


 628              	.LVL45:
 629              		.loc 1 383 0
 630 0036 2046     		mov	r0, r4
 631              	.LVL46:
 632              	.LBB187:
 633              	.LBB186:
 634              		.loc 2 674 0
 635 0038 1A60     		str	r2, [r3]
 636              		.loc 2 675 0
 637 003a 5360     		str	r3, [r2, #4]
 638              	.LBE186:
 639              	.LBE187:
 640              		.loc 1 375 0
 641 003c 9C60     		str	r4, [r3, #8]
 642              		.loc 1 376 0
 643 003e DE60     		str	r6, [r3, #12]
 644              		.loc 1 377 0
 645 0040 E363     		str	r3, [r4, #60]
 646              		.loc 1 383 0
 647 0042 FFF7FEFF 		bl	chSchReadyI
 648              	.LVL47:
 649              		.loc 1 384 0
 650 0046 FFF7FEFF 		bl	chSchRescheduleS
 651              	.LVL48:
 652              	.LBE179:
 653              	.LBB188:
 654              	.LBB189:
 655              	.LBB190:
 656              	.LBB191:
 657              	.LBB192:
 658              		.loc 3 546 0
 659 004a 0023     		movs	r3, #0
 660              	@ 546 "ChibiOS_3.0.2/os/ext/CMSIS/include/core_cmFunc.h" 1
 661 004c 83F31188 		MSR basepri, r3
 662              	@ 0 "" 2
 663              		.thumb
 664 0050 70BD     		pop	{r4, r5, r6, pc}
 665              	.LVL49:
 666              	.L45:
 667              	.LBE192:
 668              	.LBE191:
 669              	.LBE190:
 670              	.LBE189:
 671              	.LBE188:
 672              		.loc 1 387 0
 673 0052 0023     		movs	r3, #0
 674 0054 8360     		str	r3, [r0, #8]
 675              	.LVL50:
 676              	.LBB197:
 677              	.LBB196:
 678              	.LBB195:
 679              	.LBB194:
 680              	.LBB193:
 681              		.loc 3 546 0
 682 0056 0023     		movs	r3, #0
 683              	@ 546 "ChibiOS_3.0.2/os/ext/CMSIS/include/core_cmFunc.h" 1
 684 0058 83F31188 		MSR basepri, r3
ARM GAS  /tmp/ccugrocP.s 			page 13


 685              	@ 0 "" 2
 686              		.thumb
 687 005c 70BD     		pop	{r4, r5, r6, pc}
 688              	.LVL51:
 689              	.L56:
 690 005e 00BF     		.align	2
 691              	.L55:
 692 0060 00000000 		.word	ch
 693              	.LBE193:
 694              	.LBE194:
 695              	.LBE195:
 696              	.LBE196:
 697              	.LBE197:
 698              		.cfi_endproc
 699              	.LFE224:
 700              		.size	chMtxUnlock, .-chMtxUnlock
 701              		.section	.text.chMtxUnlockS,"ax",%progbits
 702              		.align	2
 703              		.p2align 4,,15
 704              		.global	chMtxUnlockS
 705              		.thumb
 706              		.thumb_func
 707              		.type	chMtxUnlockS, %function
 708              	chMtxUnlockS:
 709              	.LFB225:
 710              		.loc 1 410 0
 711              		.cfi_startproc
 712              		@ args = 0, pretend = 0, frame = 0
 713              		@ frame_needed = 0, uses_anonymous_args = 0
 714              		@ link register save eliminated.
 715              	.LVL52:
 716              		.loc 1 411 0
 717 0000 124B     		ldr	r3, .L67
 718              		.loc 1 410 0
 719 0002 30B4     		push	{r4, r5}
 720              		.cfi_def_cfa_offset 8
 721              		.cfi_offset 4, -8
 722              		.cfi_offset 5, -4
 723              		.loc 1 410 0
 724 0004 0446     		mov	r4, r0
 725              	.LBB198:
 726              	.LBB199:
 727              	.LBB200:
 728              	.LBB201:
 729              		.loc 2 631 0
 730 0006 0568     		ldr	r5, [r0]
 731              	.LBE201:
 732              	.LBE200:
 733              	.LBE199:
 734              	.LBE198:
 735              		.loc 1 411 0
 736 0008 9869     		ldr	r0, [r3, #24]
 737              	.LVL53:
 738              		.loc 1 430 0
 739 000a E368     		ldr	r3, [r4, #12]
 740 000c C363     		str	r3, [r0, #60]
 741              	.LVL54:
ARM GAS  /tmp/ccugrocP.s 			page 14


 742              		.loc 1 433 0
 743 000e AC42     		cmp	r4, r5
 744 0010 17D0     		beq	.L58
 745              	.LBB202:
 746              		.loc 1 438 0
 747 0012 016C     		ldr	r1, [r0, #64]
 748              	.LVL55:
 749              		.loc 1 440 0
 750 0014 4BB1     		cbz	r3, .L59
 751              	.L61:
 752              	.LVL56:
 753              	.LBB203:
 754              	.LBB204:
 755              	.LBB205:
 756              	.LBB206:
 757              		.loc 2 631 0
 758 0016 1A68     		ldr	r2, [r3]
 759              	.LBE206:
 760              	.LBE205:
 761              	.LBE204:
 762              	.LBE203:
 763              		.loc 1 444 0
 764 0018 9342     		cmp	r3, r2
 765 001a 03D0     		beq	.L60
 766              		.loc 1 445 0 discriminator 1
 767 001c 9268     		ldr	r2, [r2, #8]
 768 001e 9142     		cmp	r1, r2
 769 0020 38BF     		it	cc
 770 0022 1146     		movcc	r1, r2
 771              	.LVL57:
 772              	.L60:
 773              		.loc 1 448 0
 774 0024 DB68     		ldr	r3, [r3, #12]
 775              	.LVL58:
 776              		.loc 1 440 0
 777 0026 002B     		cmp	r3, #0
 778 0028 F5D1     		bne	.L61
 779              	.L59:
 780              	.LBB207:
 781              	.LBB208:
 782              		.loc 2 674 0
 783 002a 2B68     		ldr	r3, [r5]
 784              	.LVL59:
 785              	.LBE208:
 786              	.LBE207:
 787              		.loc 1 462 0
 788 002c EA6B     		ldr	r2, [r5, #60]
 789              		.loc 1 453 0
 790 002e 8160     		str	r1, [r0, #8]
 791              	.LVL60:
 792              	.LBB211:
 793              	.LBB209:
 794              		.loc 2 674 0
 795 0030 2360     		str	r3, [r4]
 796              	.LBE209:
 797              	.LBE211:
 798              		.loc 1 464 0
ARM GAS  /tmp/ccugrocP.s 			page 15


 799 0032 2846     		mov	r0, r5
 800              	.LVL61:
 801              	.LBB212:
 802              	.LBB210:
 803              		.loc 2 675 0
 804 0034 5C60     		str	r4, [r3, #4]
 805              	.LBE210:
 806              	.LBE212:
 807              		.loc 1 461 0
 808 0036 A560     		str	r5, [r4, #8]
 809              		.loc 1 462 0
 810 0038 E260     		str	r2, [r4, #12]
 811              		.loc 1 463 0
 812 003a EC63     		str	r4, [r5, #60]
 813              	.LBE202:
 814              		.loc 1 472 0
 815 003c 30BC     		pop	{r4, r5}
 816              		.cfi_remember_state
 817              		.cfi_restore 5
 818              		.cfi_restore 4
 819              		.cfi_def_cfa_offset 0
 820              	.LVL62:
 821              	.LBB213:
 822              		.loc 1 464 0
 823 003e FFF7FEBF 		b	chSchReadyI
 824              	.LVL63:
 825              	.L58:
 826              		.cfi_restore_state
 827              	.LBE213:
 828              		.loc 1 467 0
 829 0042 0023     		movs	r3, #0
 830 0044 A360     		str	r3, [r4, #8]
 831              		.loc 1 472 0
 832 0046 30BC     		pop	{r4, r5}
 833              		.cfi_restore 5
 834              		.cfi_restore 4
 835              		.cfi_def_cfa_offset 0
 836              	.LVL64:
 837 0048 7047     		bx	lr
 838              	.L68:
 839 004a 00BF     		.align	2
 840              	.L67:
 841 004c 00000000 		.word	ch
 842              		.cfi_endproc
 843              	.LFE225:
 844              		.size	chMtxUnlockS, .-chMtxUnlockS
 845              		.section	.text.chMtxUnlockAll,"ax",%progbits
 846              		.align	2
 847              		.p2align 4,,15
 848              		.global	chMtxUnlockAll
 849              		.thumb
 850              		.thumb_func
 851              		.type	chMtxUnlockAll, %function
 852              	chMtxUnlockAll:
 853              	.LFB226:
 854              		.loc 1 485 0
 855              		.cfi_startproc
ARM GAS  /tmp/ccugrocP.s 			page 16


 856              		@ args = 0, pretend = 0, frame = 0
 857              		@ frame_needed = 0, uses_anonymous_args = 0
 858              		.loc 1 486 0
 859 0000 134A     		ldr	r2, .L81
 860              		.loc 1 485 0
 861 0002 70B5     		push	{r4, r5, r6, lr}
 862              		.cfi_def_cfa_offset 16
 863              		.cfi_offset 4, -16
 864              		.cfi_offset 5, -12
 865              		.cfi_offset 6, -8
 866              		.cfi_offset 14, -4
 867              	.LBB214:
 868              	.LBB215:
 869              	.LBB216:
 870              	.LBB217:
 871              		.loc 3 546 0
 872 0004 2023     		movs	r3, #32
 873              	.LBE217:
 874              	.LBE216:
 875              	.LBE215:
 876              	.LBE214:
 877              		.loc 1 486 0
 878 0006 9469     		ldr	r4, [r2, #24]
 879              	.LVL65:
 880              	.LBB221:
 881              	.LBB220:
 882              	.LBB219:
 883              	.LBB218:
 884              		.loc 3 546 0
 885              	@ 546 "ChibiOS_3.0.2/os/ext/CMSIS/include/core_cmFunc.h" 1
 886 0008 83F31188 		MSR basepri, r3
 887              	@ 0 "" 2
 888              		.thumb
 889              	.LBE218:
 890              	.LBE219:
 891              	.LBE220:
 892              	.LBE221:
 893              		.loc 1 489 0
 894 000c E36B     		ldr	r3, [r4, #60]
 895 000e D3B1     		cbz	r3, .L70
 896              	.LBB222:
 897              		.loc 1 507 0
 898 0010 0026     		movs	r6, #0
 899 0012 0AE0     		b	.L73
 900              	.LVL66:
 901              	.L80:
 902              	.LBB223:
 903              	.LBB224:
 904              	.LBB225:
 905              		.loc 2 674 0
 906 0014 1168     		ldr	r1, [r2]
 907              	.LBE225:
 908              	.LBE224:
 909              		.loc 1 499 0
 910 0016 D56B     		ldr	r5, [r2, #60]
 911              	.LBB227:
 912              	.LBB226:
ARM GAS  /tmp/ccugrocP.s 			page 17


 913              		.loc 2 674 0
 914 0018 1960     		str	r1, [r3]
 915              		.loc 2 675 0
 916 001a 4B60     		str	r3, [r1, #4]
 917              	.LBE226:
 918              	.LBE227:
 919              		.loc 1 498 0
 920 001c 9A60     		str	r2, [r3, #8]
 921              		.loc 1 499 0
 922 001e DD60     		str	r5, [r3, #12]
 923              		.loc 1 500 0
 924 0020 D363     		str	r3, [r2, #60]
 925              		.loc 1 501 0
 926 0022 FFF7FEFF 		bl	chSchReadyI
 927              	.LVL67:
 928              	.LBE223:
 929              	.LBE222:
 930              		.loc 1 509 0
 931 0026 E36B     		ldr	r3, [r4, #60]
 932 0028 4BB1     		cbz	r3, .L79
 933              	.L73:
 934              	.LVL68:
 935              	.LBB233:
 936              	.LBB228:
 937              	.LBB229:
 938              	.LBB230:
 939              	.LBB231:
 940              		.loc 2 631 0
 941 002a 1A68     		ldr	r2, [r3]
 942              	.LVL69:
 943              	.LBE231:
 944              	.LBE230:
 945              	.LBE229:
 946              	.LBE228:
 947              		.loc 1 492 0
 948 002c D968     		ldr	r1, [r3, #12]
 949 002e E163     		str	r1, [r4, #60]
 950              	.LVL70:
 951              		.loc 1 493 0
 952 0030 9342     		cmp	r3, r2
 953              	.LBB232:
 954              		.loc 1 501 0
 955 0032 1046     		mov	r0, r2
 956              	.LBE232:
 957              		.loc 1 493 0
 958 0034 EED1     		bne	.L80
 959              		.loc 1 507 0
 960 0036 9E60     		str	r6, [r3, #8]
 961              	.LBE233:
 962              		.loc 1 509 0
 963 0038 E36B     		ldr	r3, [r4, #60]
 964              	.LVL71:
 965 003a 002B     		cmp	r3, #0
 966 003c F5D1     		bne	.L73
 967              	.LVL72:
 968              	.L79:
 969              		.loc 1 510 0
ARM GAS  /tmp/ccugrocP.s 			page 18


 970 003e 236C     		ldr	r3, [r4, #64]
 971 0040 A360     		str	r3, [r4, #8]
 972              		.loc 1 511 0
 973 0042 FFF7FEFF 		bl	chSchRescheduleS
 974              	.LVL73:
 975              	.L70:
 976              	.LBB234:
 977              	.LBB235:
 978              	.LBB236:
 979              	.LBB237:
 980              	.LBB238:
 981              		.loc 3 546 0
 982 0046 0023     		movs	r3, #0
 983              	@ 546 "ChibiOS_3.0.2/os/ext/CMSIS/include/core_cmFunc.h" 1
 984 0048 83F31188 		MSR basepri, r3
 985              	@ 0 "" 2
 986              		.thumb
 987 004c 70BD     		pop	{r4, r5, r6, pc}
 988              	.LVL74:
 989              	.L82:
 990 004e 00BF     		.align	2
 991              	.L81:
 992 0050 00000000 		.word	ch
 993              	.LBE238:
 994              	.LBE237:
 995              	.LBE236:
 996              	.LBE235:
 997              	.LBE234:
 998              		.cfi_endproc
 999              	.LFE226:
 1000              		.size	chMtxUnlockAll, .-chMtxUnlockAll
 1001              		.text
 1002              	.Letext0:
 1003              		.file 4 "/usr/arm-none-eabi/include/machine/_default_types.h"
 1004              		.file 5 "/usr/arm-none-eabi/include/sys/_stdint.h"
 1005              		.file 6 "ChibiOS_3.0.2/os/rt/ports/ARMCMx/compilers/GCC/chtypes.h"
 1006              		.file 7 "ChibiOS_3.0.2/os/rt/include/chsystypes.h"
 1007              		.file 8 "ChibiOS_3.0.2/os/rt/ports/ARMCMx/chcore.h"
 1008              		.file 9 "ChibiOS_3.0.2/os/rt/ports/ARMCMx/chcore_v7m.h"
 1009              		.file 10 "ChibiOS_3.0.2/os/rt/include/chtm.h"
 1010              		.file 11 "ChibiOS_3.0.2/os/rt/include/chsem.h"
 1011              		.file 12 "ChibiOS_3.0.2/os/rt/include/chmtx.h"
 1012              		.file 13 "ChibiOS_3.0.2/os/rt/include/chsys.h"
 1013              		.file 14 "ChibiOS_3.0.2/os/ext/CMSIS/include/core_cm4.h"