ARM GAS  /tmp/ccugrocP.s 			page 1


   1              		.syntax unified
   2              		.cpu cortex-m4
   3              		.eabi_attribute 27, 1
   4              		.eabi_attribute 28, 1
   5              		.fpu fpv4-sp-d16
   6              		.eabi_attribute 20, 1
   7              		.eabi_attribute 21, 1
   8              		.eabi_attribute 23, 3
   9              		.eabi_attribute 24, 1
  10              		.eabi_attribute 25, 1
  11              		.eabi_attribute 26, 1
  12              		.eabi_attribute 30, 2
  13              		.eabi_attribute 34, 1
  14              		.eabi_attribute 18, 4
  15              		.thumb
  16              		.file	"chmtx.c"
  17              		.text
  18              	.Ltext0:
  19              		.cfi_sections	.debug_frame
  20              		.section	.text.chMtxObjectInit,"ax",%progbits
  21              		.align	2
  22              		.p2align 4,,15
  23              		.global	chMtxObjectInit
  24              		.thumb
  25              		.thumb_func
  26              		.type	chMtxObjectInit, %function
  27              	chMtxObjectInit:
  28              	.LFB219:
  29              		.file 1 "ChibiOS_3.0.2/os/rt/src/chmtx.c"
  30              		.loc 1 103 0
  31              		.cfi_startproc
  32              		@ args = 0, pretend = 0, frame = 0
  33              		@ frame_needed = 0, uses_anonymous_args = 0
  34              		@ link register save eliminated.
  35              	.LVL0:
  36              		.loc 1 108 0
  37 0000 0023     		movs	r3, #0
  38              	.LBB103:
  39              	.LBB104:
  40              		.file 2 "ChibiOS_3.0.2/os/rt/include/chschd.h"
  41              		.loc 2 604 0
  42 0002 0060     		str	r0, [r0]
  43              		.loc 2 605 0
  44 0004 4060     		str	r0, [r0, #4]
  45              	.LBE104:
  46              	.LBE103:
  47              		.loc 1 108 0
  48 0006 8360     		str	r3, [r0, #8]
  49 0008 7047     		bx	lr
  50              		.cfi_endproc
  51              	.LFE219:
  52              		.size	chMtxObjectInit, .-chMtxObjectInit
  53 000a 00BF     		.section	.text.chMtxLockS,"ax",%progbits
  54              		.align	2
  55              		.p2align 4,,15
  56              		.global	chMtxLockS
  57              		.thumb
ARM GAS  /tmp/ccugrocP.s 			page 2


  58              		.thumb_func
  59              		.type	chMtxLockS, %function
  60              	chMtxLockS:
  61              	.LFB221:
  62              		.loc 1 139 0
  63              		.cfi_startproc
  64              		@ args = 0, pretend = 0, frame = 0
  65              		@ frame_needed = 0, uses_anonymous_args = 0
  66              	.LVL1:
  67              		.loc 1 140 0
  68 0000 304B     		ldr	r3, .L28
  69              		.loc 1 146 0
  70 0002 8268     		ldr	r2, [r0, #8]
  71              		.loc 1 139 0
  72 0004 70B5     		push	{r4, r5, r6, lr}
  73              		.cfi_def_cfa_offset 16
  74              		.cfi_offset 4, -16
  75              		.cfi_offset 5, -12
  76              		.cfi_offset 6, -8
  77              		.cfi_offset 14, -4
  78              		.loc 1 140 0
  79 0006 9C69     		ldr	r4, [r3, #24]
  80              	.LVL2:
  81              		.loc 1 146 0
  82 0008 002A     		cmp	r2, #0
  83 000a 55D0     		beq	.L3
  84              	.LBB105:
  85              		.loc 1 165 0
  86 000c A168     		ldr	r1, [r4, #8]
  87 000e 9368     		ldr	r3, [r2, #8]
  88 0010 9942     		cmp	r1, r3
  89 0012 0546     		mov	r5, r0
  90              	.LVL3:
  91 0014 06D9     		bls	.L5
  92              	.LVL4:
  93              	.L10:
  94              		.loc 1 170 0
  95 0016 137F     		ldrb	r3, [r2, #28]	@ zero_extendqisi2
  96              		.loc 1 167 0
  97 0018 9160     		str	r1, [r2, #8]
  98              		.loc 1 170 0
  99 001a 062B     		cmp	r3, #6
 100 001c 33D0     		beq	.L6
 101 001e 072B     		cmp	r3, #7
 102 0020 1DD0     		beq	.L7
 103 0022 9BB1     		cbz	r3, .L27
 104              	.LVL5:
 105              	.L5:
 106              	.LBB106:
 107              	.LBB107:
 108              		.loc 2 653 0
 109 0024 2B46     		mov	r3, r5
 110 0026 03E0     		b	.L18
 111              	.LVL6:
 112              	.L17:
 113              		.loc 2 656 0
 114 0028 9968     		ldr	r1, [r3, #8]
ARM GAS  /tmp/ccugrocP.s 			page 3


 115 002a A268     		ldr	r2, [r4, #8]
 116 002c 9142     		cmp	r1, r2
 117 002e 02D3     		bcc	.L19
 118              	.L18:
 119              		.loc 2 655 0
 120 0030 1B68     		ldr	r3, [r3]
 121              	.LVL7:
 122              		.loc 2 656 0
 123 0032 9D42     		cmp	r5, r3
 124 0034 F8D1     		bne	.L17
 125              	.L19:
 126              		.loc 2 658 0
 127 0036 5A68     		ldr	r2, [r3, #4]
 128 0038 6260     		str	r2, [r4, #4]
 129              		.loc 2 657 0
 130 003a 2360     		str	r3, [r4]
 131              		.loc 2 659 0
 132 003c 1460     		str	r4, [r2]
 133              		.loc 2 660 0
 134 003e 5C60     		str	r4, [r3, #4]
 135              	.LBE107:
 136              	.LBE106:
 137              		.loc 1 213 0
 138 0040 6562     		str	r5, [r4, #36]
 139              		.loc 1 214 0
 140 0042 0620     		movs	r0, #6
 141              	.LBE105:
 142              		.loc 1 236 0
 143 0044 BDE87040 		pop	{r4, r5, r6, lr}
 144              		.cfi_remember_state
 145              		.cfi_restore 14
 146              		.cfi_restore 6
 147              		.cfi_restore 5
 148              		.cfi_restore 4
 149              		.cfi_def_cfa_offset 0
 150              	.LVL8:
 151              	.LBB124:
 152              		.loc 1 214 0
 153 0048 FFF7FEBF 		b	chSchGoSleepS
 154              	.LVL9:
 155              	.L27:
 156              		.cfi_restore_state
 157              	.LBB108:
 158              	.LBB109:
 159              		.loc 2 691 0
 160 004c 92E80A00 		ldmia	r2, {r1, r3}
 161 0050 1960     		str	r1, [r3]
 162              		.loc 2 692 0
 163 0052 1168     		ldr	r1, [r2]
 164              	.LBE109:
 165              	.LBE108:
 166              		.loc 1 202 0
 167 0054 1046     		mov	r0, r2
 168              	.LBB111:
 169              	.LBB110:
 170              		.loc 2 692 0
 171 0056 4B60     		str	r3, [r1, #4]
ARM GAS  /tmp/ccugrocP.s 			page 4


 172              	.LBE110:
 173              	.LBE111:
 174              		.loc 1 202 0
 175 0058 FFF7FEFF 		bl	chSchReadyI
 176              	.LVL10:
 177              		.loc 1 203 0
 178 005c E2E7     		b	.L5
 179              	.LVL11:
 180              	.L7:
 181              	.LBB112:
 182              	.LBB113:
 183              		.loc 2 691 0
 184 005e 92E80900 		ldmia	r2, {r0, r3}
 185 0062 1860     		str	r0, [r3]
 186              	.LBE113:
 187              	.LBE112:
 188              		.loc 1 193 0
 189 0064 566A     		ldr	r6, [r2, #36]
 190              	.LVL12:
 191              	.LBB115:
 192              	.LBB114:
 193              		.loc 2 692 0
 194 0066 1068     		ldr	r0, [r2]
 195 0068 4360     		str	r3, [r0, #4]
 196              	.LBE114:
 197              	.LBE115:
 198              	.LBB116:
 199              	.LBB117:
 200              		.loc 2 653 0
 201 006a 3346     		mov	r3, r6
 202 006c 02E0     		b	.L15
 203              	.LVL13:
 204              	.L14:
 205              		.loc 2 656 0
 206 006e 9868     		ldr	r0, [r3, #8]
 207 0070 8842     		cmp	r0, r1
 208 0072 02D3     		bcc	.L16
 209              	.L15:
 210              		.loc 2 655 0
 211 0074 1B68     		ldr	r3, [r3]
 212              	.LVL14:
 213              		.loc 2 656 0
 214 0076 9E42     		cmp	r6, r3
 215 0078 F9D1     		bne	.L14
 216              	.L16:
 217              		.loc 2 658 0
 218 007a 5968     		ldr	r1, [r3, #4]
 219 007c 5160     		str	r1, [r2, #4]
 220              		.loc 2 657 0
 221 007e 1360     		str	r3, [r2]
 222              		.loc 2 659 0
 223 0080 0A60     		str	r2, [r1]
 224              		.loc 2 660 0
 225 0082 5A60     		str	r2, [r3, #4]
 226 0084 CEE7     		b	.L5
 227              	.LVL15:
 228              	.L6:
ARM GAS  /tmp/ccugrocP.s 			page 5


 229              	.LBE117:
 230              	.LBE116:
 231              	.LBB118:
 232              	.LBB119:
 233              		.loc 2 691 0
 234 0086 92E80900 		ldmia	r2, {r0, r3}
 235 008a 1860     		str	r0, [r3]
 236              	.LBE119:
 237              	.LBE118:
 238              		.loc 1 173 0
 239 008c 566A     		ldr	r6, [r2, #36]
 240              	.LVL16:
 241              	.LBB121:
 242              	.LBB120:
 243              		.loc 2 692 0
 244 008e 1068     		ldr	r0, [r2]
 245 0090 4360     		str	r3, [r0, #4]
 246              	.LBE120:
 247              	.LBE121:
 248              	.LBB122:
 249              	.LBB123:
 250              		.loc 2 653 0
 251 0092 3346     		mov	r3, r6
 252 0094 02E0     		b	.L12
 253              	.LVL17:
 254              	.L9:
 255              		.loc 2 656 0
 256 0096 9868     		ldr	r0, [r3, #8]
 257 0098 8842     		cmp	r0, r1
 258 009a 02D3     		bcc	.L13
 259              	.L12:
 260              		.loc 2 655 0
 261 009c 1B68     		ldr	r3, [r3]
 262              	.LVL18:
 263              		.loc 2 656 0
 264 009e 9E42     		cmp	r6, r3
 265 00a0 F9D1     		bne	.L9
 266              	.L13:
 267              		.loc 2 658 0
 268 00a2 5968     		ldr	r1, [r3, #4]
 269 00a4 5160     		str	r1, [r2, #4]
 270              		.loc 2 657 0
 271 00a6 1360     		str	r3, [r2]
 272              		.loc 2 659 0
 273 00a8 0A60     		str	r2, [r1]
 274              		.loc 2 660 0
 275 00aa 5A60     		str	r2, [r3, #4]
 276              	.LBE123:
 277              	.LBE122:
 278              		.loc 1 174 0
 279 00ac B268     		ldr	r2, [r6, #8]
 280              	.LVL19:
 281              		.loc 1 165 0
 282 00ae A168     		ldr	r1, [r4, #8]
 283 00b0 9368     		ldr	r3, [r2, #8]
 284              	.LVL20:
 285 00b2 8B42     		cmp	r3, r1
ARM GAS  /tmp/ccugrocP.s 			page 6


 286 00b4 AFD3     		bcc	.L10
 287 00b6 B5E7     		b	.L5
 288              	.LVL21:
 289              	.L3:
 290              	.LBE124:
 291              		.loc 1 233 0
 292 00b8 E36B     		ldr	r3, [r4, #60]
 293 00ba C360     		str	r3, [r0, #12]
 294              		.loc 1 232 0
 295 00bc 8460     		str	r4, [r0, #8]
 296              		.loc 1 234 0
 297 00be E063     		str	r0, [r4, #60]
 298 00c0 70BD     		pop	{r4, r5, r6, pc}
 299              	.LVL22:
 300              	.L29:
 301 00c2 00BF     		.align	2
 302              	.L28:
 303 00c4 00000000 		.word	ch
 304              		.cfi_endproc
 305              	.LFE221:
 306              		.size	chMtxLockS, .-chMtxLockS
 307              		.section	.text.chMtxLock,"ax",%progbits
 308              		.align	2
 309              		.p2align 4,,15
 310              		.global	chMtxLock
 311              		.thumb
 312              		.thumb_func
 313              		.type	chMtxLock, %function
 314              	chMtxLock:
 315              	.LFB220:
 316              		.loc 1 123 0
 317              		.cfi_startproc
 318              		@ args = 0, pretend = 0, frame = 0
 319              		@ frame_needed = 0, uses_anonymous_args = 0
 320              	.LVL23:
 321 0000 08B5     		push	{r3, lr}
 322              		.cfi_def_cfa_offset 8
 323              		.cfi_offset 3, -8
 324              		.cfi_offset 14, -4
 325              	.LBB125:
 326              	.LBB126:
 327              	.LBB127:
 328              	.LBB128:
 329              		.file 3 "ChibiOS_3.0.2/os/ext/CMSIS/include/core_cmFunc.h"
 330              		.loc 3 546 0
 331 0002 2023     		movs	r3, #32
 332              	@ 546 "ChibiOS_3.0.2/os/ext/CMSIS/include/core_cmFunc.h" 1
 333 0004 83F31188 		MSR basepri, r3
 334              	@ 0 "" 2
 335              		.thumb
 336              	.LBE128:
 337              	.LBE127:
 338              	.LBE126:
 339              	.LBE125:
 340              		.loc 1 126 0
 341 0008 FFF7FEFF 		bl	chMtxLockS
 342              	.LVL24:
ARM GAS  /tmp/ccugrocP.s 			page 7


 343              	.LBB129:
 344              	.LBB130:
 345              	.LBB131:
 346              	.LBB132:
 347              	.LBB133:
 348              		.loc 3 546 0
 349 000c 0023     		movs	r3, #0
 350              	@ 546 "ChibiOS_3.0.2/os/ext/CMSIS/include/core_cmFunc.h" 1
 351 000e 83F31188 		MSR basepri, r3
 352              	@ 0 "" 2
 353              		.thumb
 354 0012 08BD     		pop	{r3, pc}
 355              	.LBE133:
 356              	.LBE132:
 357              	.LBE131:
 358              	.LBE130:
 359              	.LBE129:
 360              		.cfi_endproc
 361              	.LFE220:
 362              		.size	chMtxLock, .-chMtxLock
 363              		.section	.text.chMtxTryLock,"ax",%progbits
 364              		.align	2
 365              		.p2align 4,,15
 366              		.global	chMtxTryLock
 367              		.thumb
 368              		.thumb_func
 369              		.type	chMtxTryLock, %function
 370              	chMtxTryLock:
 371              	.LFB222:
 372              		.loc 1 255 0
 373              		.cfi_startproc
 374              		@ args = 0, pretend = 0, frame = 0
 375              		@ frame_needed = 0, uses_anonymous_args = 0
 376              		@ link register save eliminated.
 377              	.LVL25:
 378              		.loc 1 255 0
 379 0000 0346     		mov	r3, r0
 380              	.LBB147:
 381              	.LBB148:
 382              	.LBB149:
 383              	.LBB150:
 384              		.loc 3 546 0
 385 0002 2022     		movs	r2, #32
 386              	@ 546 "ChibiOS_3.0.2/os/ext/CMSIS/include/core_cmFunc.h" 1
 387 0004 82F31188 		MSR basepri, r2
 388              	@ 0 "" 2
 389              	.LVL26:
 390              		.thumb
 391              	.LBE150:
 392              	.LBE149:
 393              	.LBE148:
 394              	.LBE147:
 395              	.LBB151:
 396              	.LBB152:
 397              		.loc 1 287 0
 398 0008 8268     		ldr	r2, [r0, #8]
 399              		.loc 1 297 0
ARM GAS  /tmp/ccugrocP.s 			page 8


 400 000a 0020     		movs	r0, #0
 401              	.LVL27:
 402              		.loc 1 287 0
 403 000c 1AB1     		cbz	r2, .L35
 404              	.LVL28:
 405              	.LBE152:
 406              	.LBE151:
 407              	.LBB156:
 408              	.LBB157:
 409              	.LBB158:
 410              	.LBB159:
 411              	.LBB160:
 412              		.loc 3 546 0
 413 000e 0023     		movs	r3, #0
 414              	.LVL29:
 415              	@ 546 "ChibiOS_3.0.2/os/ext/CMSIS/include/core_cmFunc.h" 1
 416 0010 83F31188 		MSR basepri, r3
 417              	@ 0 "" 2
 418              		.thumb
 419              	.LBE160:
 420              	.LBE159:
 421              	.LBE158:
 422              	.LBE157:
 423              	.LBE156:
 424              		.loc 1 263 0
 425 0014 7047     		bx	lr
 426              	.LVL30:
 427              	.L35:
 428              	.LBB165:
 429              	.LBB155:
 430              	.LBB153:
 431              	.LBB154:
 432              		.loc 1 305 0
 433 0016 054A     		ldr	r2, .L36
 434 0018 9269     		ldr	r2, [r2, #24]
 435 001a 9A60     		str	r2, [r3, #8]
 436              		.loc 1 306 0
 437 001c D16B     		ldr	r1, [r2, #60]
 438 001e D960     		str	r1, [r3, #12]
 439              		.loc 1 307 0
 440 0020 0120     		movs	r0, #1
 441 0022 D363     		str	r3, [r2, #60]
 442              	.LVL31:
 443              	.LBE154:
 444              	.LBE153:
 445              	.LBE155:
 446              	.LBE165:
 447              	.LBB166:
 448              	.LBB164:
 449              	.LBB163:
 450              	.LBB162:
 451              	.LBB161:
 452              		.loc 3 546 0
 453 0024 0023     		movs	r3, #0
 454              	.LVL32:
 455              	@ 546 "ChibiOS_3.0.2/os/ext/CMSIS/include/core_cmFunc.h" 1
 456 0026 83F31188 		MSR basepri, r3
ARM GAS  /tmp/ccugrocP.s 			page 9


 457              	@ 0 "" 2
 458              		.thumb
 459              	.LBE161:
 460              	.LBE162:
 461              	.LBE163:
 462              	.LBE164:
 463              	.LBE166:
 464              		.loc 1 263 0
 465 002a 7047     		bx	lr
 466              	.L37:
 467              		.align	2
 468              	.L36:
 469 002c 00000000 		.word	ch
 470              		.cfi_endproc
 471              	.LFE222:
 472              		.size	chMtxTryLock, .-chMtxTryLock
 473              		.section	.text.chMtxTryLockS,"ax",%progbits
 474              		.align	2
 475              		.p2align 4,,15
 476              		.global	chMtxTryLockS
 477              		.thumb
 478              		.thumb_func
 479              		.type	chMtxTryLockS, %function
 480              	chMtxTryLockS:
 481              	.LFB223:
 482              		.loc 1 282 0
 483              		.cfi_startproc
 484              		@ args = 0, pretend = 0, frame = 0
 485              		@ frame_needed = 0, uses_anonymous_args = 0
 486              		@ link register save eliminated.
 487              	.LVL33:
 488              		.loc 1 287 0
 489 0000 8268     		ldr	r2, [r0, #8]
 490              		.loc 1 282 0
 491 0002 0346     		mov	r3, r0
 492              		.loc 1 287 0
 493 0004 0AB1     		cbz	r2, .L41
 494              		.loc 1 297 0
 495 0006 0020     		movs	r0, #0
 496              	.LVL34:
 497              		.loc 1 309 0
 498 0008 7047     		bx	lr
 499              	.LVL35:
 500              	.L41:
 501              	.LBB169:
 502              	.LBB170:
 503              		.loc 1 305 0
 504 000a 044A     		ldr	r2, .L42
 505 000c 9269     		ldr	r2, [r2, #24]
 506 000e 8260     		str	r2, [r0, #8]
 507              		.loc 1 306 0
 508 0010 D16B     		ldr	r1, [r2, #60]
 509 0012 C160     		str	r1, [r0, #12]
 510              		.loc 1 307 0
 511 0014 0120     		movs	r0, #1
 512              	.LVL36:
 513 0016 D363     		str	r3, [r2, #60]
ARM GAS  /tmp/ccugrocP.s 			page 10


 514 0018 7047     		bx	lr
 515              	.L43:
 516 001a 00BF     		.align	2
 517              	.L42:
 518 001c 00000000 		.word	ch
 519              	.LBE170:
 520              	.LBE169:
 521              		.cfi_endproc
 522              	.LFE223:
 523              		.size	chMtxTryLockS, .-chMtxTryLockS
 524              		.section	.text.chMtxUnlock,"ax",%progbits
 525              		.align	2
 526              		.p2align 4,,15
 527              		.global	chMtxUnlock
 528              		.thumb
 529              		.thumb_func
 530              		.type	chMtxUnlock, %function
 531              	chMtxUnlock:
 532              	.LFB224:
 533              		.loc 1 323 0
 534              		.cfi_startproc
 535              		@ args = 0, pretend = 0, frame = 0
 536              		@ frame_needed = 0, uses_anonymous_args = 0
 537              	.LVL37:
 538              		.loc 1 324 0
 539 0000 174B     		ldr	r3, .L55
 540              		.loc 1 323 0
 541 0002 70B5     		push	{r4, r5, r6, lr}
 542              		.cfi_def_cfa_offset 16
 543              		.cfi_offset 4, -16
 544              		.cfi_offset 5, -12
 545              		.cfi_offset 6, -8
 546              		.cfi_offset 14, -4
 547              		.loc 1 324 0
 548 0004 9D69     		ldr	r5, [r3, #24]
 549              	.LVL38:
 550              	.LBB171:
 551              	.LBB172:
 552              	.LBB173:
 553              	.LBB174:
 554              		.loc 3 546 0
 555 0006 2023     		movs	r3, #32
 556              	@ 546 "ChibiOS_3.0.2/os/ext/CMSIS/include/core_cmFunc.h" 1
 557 0008 83F31188 		MSR basepri, r3
 558              	@ 0 "" 2
 559              		.thumb
 560              	.LBE174:
 561              	.LBE173:
 562              	.LBE172:
 563              	.LBE171:
 564              	.LBB175:
 565              	.LBB176:
 566              	.LBB177:
 567              	.LBB178:
 568              		.loc 2 631 0
 569 000c 0468     		ldr	r4, [r0]
 570              	.LBE178:
ARM GAS  /tmp/ccugrocP.s 			page 11


 571              	.LBE177:
 572              	.LBE176:
 573              	.LBE175:
 574              		.loc 1 344 0
 575 000e C368     		ldr	r3, [r0, #12]
 576 0010 EB63     		str	r3, [r5, #60]
 577              	.LVL39:
 578              		.loc 1 347 0
 579 0012 A042     		cmp	r0, r4
 580 0014 1DD0     		beq	.L45
 581              	.LBB179:
 582              		.loc 1 352 0
 583 0016 296C     		ldr	r1, [r5, #64]
 584              	.LVL40:
 585              		.loc 1 354 0
 586 0018 4BB1     		cbz	r3, .L46
 587              	.L48:
 588              	.LVL41:
 589              	.LBB180:
 590              	.LBB181:
 591              	.LBB182:
 592              	.LBB183:
 593              		.loc 2 631 0
 594 001a 1A68     		ldr	r2, [r3]
 595              	.LBE183:
 596              	.LBE182:
 597              	.LBE181:
 598              	.LBE180:
 599              		.loc 1 358 0
 600 001c 9342     		cmp	r3, r2
 601 001e 03D0     		beq	.L47
 602              		.loc 1 359 0 discriminator 1
 603 0020 9268     		ldr	r2, [r2, #8]
 604 0022 9142     		cmp	r1, r2
 605 0024 38BF     		it	cc
 606 0026 1146     		movcc	r1, r2
 607              	.LVL42:
 608              	.L47:
 609              		.loc 1 362 0
 610 0028 DB68     		ldr	r3, [r3, #12]
 611              	.LVL43:
 612              		.loc 1 354 0
 613 002a 002B     		cmp	r3, #0
 614 002c F5D1     		bne	.L48
 615              	.L46:
 616 002e 0346     		mov	r3, r0
 617              	.LVL44:
 618              	.LBB184:
 619              	.LBB185:
 620              		.loc 2 674 0
 621 0030 2268     		ldr	r2, [r4]
 622              	.LBE185:
 623              	.LBE184:
 624              		.loc 1 376 0
 625 0032 E66B     		ldr	r6, [r4, #60]
 626              		.loc 1 367 0
 627 0034 A960     		str	r1, [r5, #8]
ARM GAS  /tmp/ccugrocP.s 			page 12


 628              	.LVL45:
 629              		.loc 1 383 0
 630 0036 2046     		mov	r0, r4
 631              	.LVL46:
 632              	.LBB187:
 633              	.LBB186:
 634              		.loc 2 674 0
 635 0038 1A60     		str	r2, [r3]
 636              		.loc 2 675 0
 637 003a 5360     		str	r3, [r2, #4]
 638              	.LBE186:
 639              	.LBE187:
 640              		.loc 1 375 0
 641 003c 9C60     		str	r4, [r3, #8]
 642              		.loc 1 376 0
 643 003e DE60     		str	r6, [r3, #12]
 644              		.loc 1 377 0
 645 0040 E363     		str	r3, [r4, #60]
 646              		.loc 1 383 0
 647 0042 FFF7FEFF 		bl	chSchReadyI
 648              	.LVL47:
 649              		.loc 1 384 0
 650 0046 FFF7FEFF 		bl	chSchRescheduleS
 651              	.LVL48:
 652              	.LBE179:
 653              	.LBB188:
 654              	.LBB189:
 655              	.LBB190:
 656              	.LBB191:
 657              	.LBB192:
 658              		.loc 3 546 0
 659 004a 0023     		movs	r3, #0
 660              	@ 546 "ChibiOS_3.0.2/os/ext/CMSIS/include/core_cmFunc.h" 1
 661 004c 83F31188 		MSR basepri, r3
 662              	@ 0 "" 2
 663              		.thumb
 664 0050 70BD     		pop	{r4, r5, r6, pc}
 665              	.LVL49:
 666              	.L45:
 667              	.LBE192:
 668              	.LBE191:
 669              	.LBE190:
 670              	.LBE189:
 671              	.LBE188:
 672              		.loc 1 387 0
 673 0052 0023     		movs	r3, #0
 674 0054 8360     		str	r3, [r0, #8]
 675              	.LVL50:
 676              	.LBB197:
 677              	.LBB196:
 678              	.LBB195:
 679              	.LBB194:
 680              	.LBB193:
 681              		.loc 3 546 0
 682 0056 0023     		movs	r3, #0
 683              	@ 546 "ChibiOS_3.0.2/os/ext/CMSIS/include/core_cmFunc.h" 1
 684 0058 83F31188 		MSR basepri, r3
ARM GAS  /tmp/ccugrocP.s 			page 13


 685              	@ 0 "" 2
 686              		.thumb
 687 005c 70BD     		pop	{r4, r5, r6, pc}
 688              	.LVL51:
 689              	.L56:
 690 005e 00BF     		.align	2
 691              	.L55:
 692 0060 00000000 		.word	ch
 693              	.LBE193:
 694              	.LBE194:
 695              	.LBE195:
 696              	.LBE196:
 697              	.LBE197:
 698              		.cfi_endproc
 699              	.LFE224:
 700              		.size	chMtxUnlock, .-chMtxUnlock
 701              		.section	.text.chMtxUnlockS,"ax",%progbits
 702              		.align	2
 703              		.p2align 4,,15
 704              		.global	chMtxUnlockS
 705              		.thumb
 706              		.thumb_func
 707              		.type	chMtxUnlockS, %function
 708              	chMtxUnlockS:
 709              	.LFB225:
 710              		.loc 1 410 0
 711              		.cfi_startproc
 712              		@ args = 0, pretend = 0, frame = 0
 713              		@ frame_needed = 0, uses_anonymous_args = 0
 714              		@ link register save eliminated.
 715              	.LVL52:
 716              		.loc 1 411 0
 717 0000 124B     		ldr	r3, .L67
 718              		.loc 1 410 0
 719 0002 30B4     		push	{r4, r5}
 720              		.cfi_def_cfa_offset 8
 721              		.cfi_offset 4, -8
 722              		.cfi_offset 5, -4
 723              		.loc 1 410 0
 724 0004 0446     		mov	r4, r0
 725              	.LBB198:
 726              	.LBB199:
 727              	.LBB200:
 728              	.LBB201:
 729              		.loc 2 631 0
 730 0006 0568     		ldr	r5, [r0]
 731              	.LBE201:
 732              	.LBE200:
 733              	.LBE199:
 734              	.LBE198:
 735              		.loc 1 411 0
 736 0008 9869     		ldr	r0, [r3, #24]
 737              	.LVL53:
 738              		.loc 1 430 0
 739 000a E368     		ldr	r3, [r4, #12]
 740 000c C363     		str	r3, [r0, #60]
 741              	.LVL54:
ARM GAS  /tmp/ccugrocP.s 			page 14


 742              		.loc 1 433 0
 743 000e AC42     		cmp	r4, r5
 744 0010 17D0     		beq	.L58
 745              	.LBB202:
 746              		.loc 1 438 0
 747 0012 016C     		ldr	r1, [r0, #64]
 748              	.LVL55:
 749              		.loc 1 440 0
 750 0014 4BB1     		cbz	r3, .L59
 751              	.L61:
 752              	.LVL56:
 753              	.LBB203:
 754              	.LBB204:
 755              	.LBB205:
 756              	.LBB206:
 757              		.loc 2 631 0
 758 0016 1A68     		ldr	r2, [r3]
 759              	.LBE206:
 760              	.LBE205:
 761              	.LBE204:
 762              	.LBE203:
 763              		.loc 1 444 0
 764 0018 9342     		cmp	r3, r2
 765 001a 03D0     		beq	.L60
 766              		.loc 1 445 0 discriminator 1
 767 001c 9268     		ldr	r2, [r2, #8]
 768 001e 9142     		cmp	r1, r2
 769 0020 38BF     		it	cc
 770 0022 1146     		movcc	r1, r2
 771              	.LVL57:
 772              	.L60:
 773              		.loc 1 448 0
 774 0024 DB68     		ldr	r3, [r3, #12]
 775              	.LVL58:
 776              		.loc 1 440 0
 777 0026 002B     		cmp	r3, #0
 778 0028 F5D1     		bne	.L61
 779              	.L59:
 780              	.LBB207:
 781              	.LBB208:
 782              		.loc 2 674 0
 783 002a 2B68     		ldr	r3, [r5]
 784              	.LVL59:
 785              	.LBE208:
 786              	.LBE207:
 787              		.loc 1 462 0
 788 002c EA6B     		ldr	r2, [r5, #60]
 789              		.loc 1 453 0
 790 002e 8160     		str	r1, [r0, #8]
 791              	.LVL60:
 792              	.LBB211:
 793              	.LBB209:
 794              		.loc 2 674 0
 795 0030 2360     		str	r3, [r4]
 796              	.LBE209:
 797              	.LBE211:
 798              		.loc 1 464 0
ARM GAS  /tmp/ccugrocP.s 			page 15


 799 0032 2846     		mov	r0, r5
 800              	.LVL61:
 801              	.LBB212:
 802              	.LBB210:
 803              		.loc 2 675 0
 804 0034 5C60     		str	r4, [r3, #4]
 805              	.LBE210:
 806              	.LBE212:
 807              		.loc 1 461 0
 808 0036 A560     		str	r5, [r4, #8]
 809              		.loc 1 462 0
 810 0038 E260     		str	r2, [r4, #12]
 811              		.loc 1 463 0
 812 003a EC63     		str	r4, [r5, #60]
 813              	.LBE202:
 814              		.loc 1 472 0
 815 003c 30BC     		pop	{r4, r5}
 816              		.cfi_remember_state
 817              		.cfi_restore 5
 818              		.cfi_restore 4
 819              		.cfi_def_cfa_offset 0
 820              	.LVL62:
 821              	.LBB213:
 822              		.loc 1 464 0
 823 003e FFF7FEBF 		b	chSchReadyI
 824              	.LVL63:
 825              	.L58:
 826              		.cfi_restore_state
 827              	.LBE213:
 828              		.loc 1 467 0
 829 0042 0023     		movs	r3, #0
 830 0044 A360     		str	r3, [r4, #8]
 831              		.loc 1 472 0
 832 0046 30BC     		pop	{r4, r5}
 833              		.cfi_restore 5
 834              		.cfi_restore 4
 835              		.cfi_def_cfa_offset 0
 836              	.LVL64:
 837 0048 7047     		bx	lr
 838              	.L68:
 839 004a 00BF     		.align	2
 840              	.L67:
 841 004c 00000000 		.word	ch
 842              		.cfi_endproc
 843              	.LFE225:
 844              		.size	chMtxUnlockS, .-chMtxUnlockS
 845              		.section	.text.chMtxUnlockAll,"ax",%progbits
 846              		.align	2
 847              		.p2align 4,,15
 848              		.global	chMtxUnlockAll
 849              		.thumb
 850              		.thumb_func
 851              		.type	chMtxUnlockAll, %function
 852              	chMtxUnlockAll:
 853              	.LFB226:
 854              		.loc 1 485 0
 855              		.cfi_startproc
ARM GAS  /tmp/ccugrocP.s 			page 16


 856              		@ args = 0, pretend = 0, frame = 0
 857              		@ frame_needed = 0, uses_anonymous_args = 0
 858              		.loc 1 486 0
 859 0000 134A     		ldr	r2, .L81
 860              		.loc 1 485 0
 861 0002 70B5     		push	{r4, r5, r6, lr}
 862              		.cfi_def_cfa_offset 16
 863              		.cfi_offset 4, -16
 864              		.cfi_offset 5, -12
 865              		.cfi_offset 6, -8
 866              		.cfi_offset 14, -4
 867              	.LBB214:
 868              	.LBB215:
 869              	.LBB216:
 870              	.LBB217:
 871              		.loc 3 546 0
 872 0004 2023     		movs	r3, #32
 873              	.LBE217:
 874              	.LBE216:
 875              	.LBE215:
 876              	.LBE214:
 877              		.loc 1 486 0
 878 0006 9469     		ldr	r4, [r2, #24]
 879              	.LVL65:
 880              	.LBB221:
 881              	.LBB220:
 882              	.LBB219:
 883              	.LBB218:
 884              		.loc 3 546 0
 885              	@ 546 "ChibiOS_3.0.2/os/ext/CMSIS/include/core_cmFunc.h" 1
 886 0008 83F31188 		MSR basepri, r3
 887              	@ 0 "" 2
 888              		.thumb
 889              	.LBE218:
 890              	.LBE219:
 891              	.LBE220:
 892              	.LBE221:
 893              		.loc 1 489 0
 894 000c E36B     		ldr	r3, [r4, #60]
 895 000e D3B1     		cbz	r3, .L70
 896              	.LBB222:
 897              		.loc 1 507 0
 898 0010 0026     		movs	r6, #0
 899 0012 0AE0     		b	.L73
 900              	.LVL66:
 901              	.L80:
 902              	.LBB223:
 903              	.LBB224:
 904              	.LBB225:
 905              		.loc 2 674 0
 906 0014 1168     		ldr	r1, [r2]
 907              	.LBE225:
 908              	.LBE224:
 909              		.loc 1 499 0
 910 0016 D56B     		ldr	r5, [r2, #60]
 911              	.LBB227:
 912              	.LBB226:
ARM GAS  /tmp/ccugrocP.s 			page 17


 913              		.loc 2 674 0
 914 0018 1960     		str	r1, [r3]
 915              		.loc 2 675 0
 916 001a 4B60     		str	r3, [r1, #4]
 917              	.LBE226:
 918              	.LBE227:
 919              		.loc 1 498 0
 920 001c 9A60     		str	r2, [r3, #8]
 921              		.loc 1 499 0
 922 001e DD60     		str	r5, [r3, #12]
 923              		.loc 1 500 0
 924 0020 D363     		str	r3, [r2, #60]
 925              		.loc 1 501 0
 926 0022 FFF7FEFF 		bl	chSchReadyI
 927              	.LVL67:
 928              	.LBE223:
 929              	.LBE222:
 930              		.loc 1 509 0
 931 0026 E36B     		ldr	r3, [r4, #60]
 932 0028 4BB1     		cbz	r3, .L79
 933              	.L73:
 934              	.LVL68:
 935              	.LBB233:
 936              	.LBB228:
 937              	.LBB229:
 938              	.LBB230:
 939              	.LBB231:
 940              		.loc 2 631 0
 941 002a 1A68     		ldr	r2, [r3]
 942              	.LVL69:
 943              	.LBE231:
 944              	.LBE230:
 945              	.LBE229:
 946              	.LBE228:
 947              		.loc 1 492 0
 948 002c D968     		ldr	r1, [r3, #12]
 949 002e E163     		str	r1, [r4, #60]
 950              	.LVL70:
 951              		.loc 1 493 0
 952 0030 9342     		cmp	r3, r2
 953              	.LBB232:
 954              		.loc 1 501 0
 955 0032 1046     		mov	r0, r2
 956              	.LBE232:
 957              		.loc 1 493 0
 958 0034 EED1     		bne	.L80
 959              		.loc 1 507 0
 960 0036 9E60     		str	r6, [r3, #8]
 961              	.LBE233:
 962              		.loc 1 509 0
 963 0038 E36B     		ldr	r3, [r4, #60]
 964              	.LVL71:
 965 003a 002B     		cmp	r3, #0
 966 003c F5D1     		bne	.L73
 967              	.LVL72:
 968              	.L79:
 969              		.loc 1 510 0
ARM GAS  /tmp/ccugrocP.s 			page 18


 970 003e 236C     		ldr	r3, [r4, #64]
 971 0040 A360     		str	r3, [r4, #8]
 972              		.loc 1 511 0
 973 0042 FFF7FEFF 		bl	chSchRescheduleS
 974              	.LVL73:
 975              	.L70:
 976              	.LBB234:
 977              	.LBB235:
 978              	.LBB236:
 979              	.LBB237:
 980              	.LBB238:
 981              		.loc 3 546 0
 982 0046 0023     		movs	r3, #0
 983              	@ 546 "ChibiOS_3.0.2/os/ext/CMSIS/include/core_cmFunc.h" 1
 984 0048 83F31188 		MSR basepri, r3
 985              	@ 0 "" 2
 986              		.thumb
 987 004c 70BD     		pop	{r4, r5, r6, pc}
 988              	.LVL74:
 989              	.L82:
 990 004e 00BF     		.align	2
 991              	.L81:
 992 0050 00000000 		.word	ch
 993              	.LBE238:
 994              	.LBE237:
 995              	.LBE236:
 996              	.LBE235:
 997              	.LBE234:
 998              		.cfi_endproc
 999              	.LFE226:
 1000              		.size	chMtxUnlockAll, .-chMtxUnlockAll
 1001              		.text
 1002              	.Letext0:
 1003              		.file 4 "/usr/arm-none-eabi/include/machine/_default_types.h"
 1004              		.file 5 "/usr/arm-none-eabi/include/sys/_stdint.h"
 1005              		.file 6 "ChibiOS_3.0.2/os/rt/ports/ARMCMx/compilers/GCC/chtypes.h"
 1006              		.file 7 "ChibiOS_3.0.2/os/rt/include/chsystypes.h"
 1007              		.file 8 "ChibiOS_3.0.2/os/rt/ports/ARMCMx/chcore.h"
 1008              		.file 9 "ChibiOS_3.0.2/os/rt/ports/ARMCMx/chcore_v7m.h"
 1009              		.file 10 "ChibiOS_3.0.2/os/rt/include/chtm.h"
 1010              		.file 11 "ChibiOS_3.0.2/os/rt/include/chsem.h"
 1011              		.file 12 "ChibiOS_3.0.2/os/rt/include/chmtx.h"
 1012              		.file 13 "ChibiOS_3.0.2/os/rt/include/chsys.h"
 1013              		.file 14 "ChibiOS_3.0.2/os/ext/CMSIS/include/core_cm4.h"
 1014              		.section	.debug_info,"",%progbits
 1015              	.Ldebug_info0:
 1016 0000 DF100000 		.4byte	0x10df
 1017 0004 0400     		.2byte	0x4
 1018 0006 00000000 		.4byte	.Ldebug_abbrev0
 1019 000a 04       		.byte	0x4
 1020 000b 01       		.uleb128 0x1
 1021 000c A1040000 		.4byte	.LASF128
 1022 0010 01       		.byte	0x1
 1023 0011 25060000 		.4byte	.LASF129
 1024 0015 EE030000 		.4byte	.LASF130
 1025 0019 58010000 		.4byte	.Ldebug_ranges0+0x158
 1026 001d 00000000 		.4byte	0
ARM GAS  /tmp/ccugrocP.s 			page 19


 1027 0021 00000000 		.4byte	.Ldebug_line0
 1028 0025 02       		.uleb128 0x2
 1029 0026 04       		.byte	0x4
 1030 0027 05       		.byte	0x5
 1031 0028 696E7400 		.ascii	"int\000"
 1032 002c 03       		.uleb128 0x3
 1033 002d 04       		.byte	0x4
 1034 002e 07       		.byte	0x7
 1035 002f C7010000 		.4byte	.LASF0
 1036 0033 03       		.uleb128 0x3
 1037 0034 01       		.byte	0x1
 1038 0035 06       		.byte	0x6
 1039 0036 D7000000 		.4byte	.LASF1
 1040 003a 04       		.uleb128 0x4
 1041 003b 23000000 		.4byte	.LASF5
 1042 003f 04       		.byte	0x4
 1043 0040 1D       		.byte	0x1d
 1044 0041 45000000 		.4byte	0x45
 1045 0045 03       		.uleb128 0x3
 1046 0046 01       		.byte	0x1
 1047 0047 08       		.byte	0x8
 1048 0048 8A030000 		.4byte	.LASF2
 1049 004c 03       		.uleb128 0x3
 1050 004d 02       		.byte	0x2
 1051 004e 05       		.byte	0x5
 1052 004f AA030000 		.4byte	.LASF3
 1053 0053 03       		.uleb128 0x3
 1054 0054 02       		.byte	0x2
 1055 0055 07       		.byte	0x7
 1056 0056 04020000 		.4byte	.LASF4
 1057 005a 04       		.uleb128 0x4
 1058 005b 79020000 		.4byte	.LASF6
 1059 005f 04       		.byte	0x4
 1060 0060 3F       		.byte	0x3f
 1061 0061 65000000 		.4byte	0x65
 1062 0065 03       		.uleb128 0x3
 1063 0066 04       		.byte	0x4
 1064 0067 05       		.byte	0x5
 1065 0068 1A010000 		.4byte	.LASF7
 1066 006c 04       		.uleb128 0x4
 1067 006d F5050000 		.4byte	.LASF8
 1068 0071 04       		.byte	0x4
 1069 0072 41       		.byte	0x41
 1070 0073 77000000 		.4byte	0x77
 1071 0077 03       		.uleb128 0x3
 1072 0078 04       		.byte	0x4
 1073 0079 07       		.byte	0x7
 1074 007a 8A040000 		.4byte	.LASF9
 1075 007e 03       		.uleb128 0x3
 1076 007f 08       		.byte	0x8
 1077 0080 05       		.byte	0x5
 1078 0081 91010000 		.4byte	.LASF10
 1079 0085 04       		.uleb128 0x4
 1080 0086 2A030000 		.4byte	.LASF11
 1081 008a 04       		.byte	0x4
 1082 008b 5B       		.byte	0x5b
 1083 008c 90000000 		.4byte	0x90
ARM GAS  /tmp/ccugrocP.s 			page 20


 1084 0090 03       		.uleb128 0x3
 1085 0091 08       		.byte	0x8
 1086 0092 07       		.byte	0x7
 1087 0093 5D000000 		.4byte	.LASF12
 1088 0097 04       		.uleb128 0x4
 1089 0098 8B060000 		.4byte	.LASF13
 1090 009c 05       		.byte	0x5
 1091 009d 14       		.byte	0x14
 1092 009e 3A000000 		.4byte	0x3a
 1093 00a2 04       		.uleb128 0x4
 1094 00a3 82030000 		.4byte	.LASF14
 1095 00a7 05       		.byte	0x5
 1096 00a8 1F       		.byte	0x1f
 1097 00a9 5A000000 		.4byte	0x5a
 1098 00ad 04       		.uleb128 0x4
 1099 00ae 56040000 		.4byte	.LASF15
 1100 00b2 05       		.byte	0x5
 1101 00b3 20       		.byte	0x20
 1102 00b4 6C000000 		.4byte	0x6c
 1103 00b8 04       		.uleb128 0x4
 1104 00b9 1A000000 		.4byte	.LASF16
 1105 00bd 05       		.byte	0x5
 1106 00be 26       		.byte	0x26
 1107 00bf 85000000 		.4byte	0x85
 1108 00c3 05       		.uleb128 0x5
 1109 00c4 A2000000 		.4byte	0xa2
 1110 00c8 04       		.uleb128 0x4
 1111 00c9 4D060000 		.4byte	.LASF17
 1112 00cd 06       		.byte	0x6
 1113 00ce 45       		.byte	0x45
 1114 00cf AD000000 		.4byte	0xad
 1115 00d3 04       		.uleb128 0x4
 1116 00d4 4A020000 		.4byte	.LASF18
 1117 00d8 06       		.byte	0x6
 1118 00d9 48       		.byte	0x48
 1119 00da 97000000 		.4byte	0x97
 1120 00de 04       		.uleb128 0x4
 1121 00df 31010000 		.4byte	.LASF19
 1122 00e3 06       		.byte	0x6
 1123 00e4 49       		.byte	0x49
 1124 00e5 97000000 		.4byte	0x97
 1125 00e9 04       		.uleb128 0x4
 1126 00ea 35030000 		.4byte	.LASF20
 1127 00ee 06       		.byte	0x6
 1128 00ef 4A       		.byte	0x4a
 1129 00f0 97000000 		.4byte	0x97
 1130 00f4 04       		.uleb128 0x4
 1131 00f5 06010000 		.4byte	.LASF21
 1132 00f9 06       		.byte	0x6
 1133 00fa 4B       		.byte	0x4b
 1134 00fb 97000000 		.4byte	0x97
 1135 00ff 04       		.uleb128 0x4
 1136 0100 54030000 		.4byte	.LASF22
 1137 0104 06       		.byte	0x6
 1138 0105 4C       		.byte	0x4c
 1139 0106 AD000000 		.4byte	0xad
 1140 010a 04       		.uleb128 0x4
ARM GAS  /tmp/ccugrocP.s 			page 21


 1141 010b 21020000 		.4byte	.LASF23
 1142 010f 06       		.byte	0x6
 1143 0110 4D       		.byte	0x4d
 1144 0111 A2000000 		.4byte	0xa2
 1145 0115 04       		.uleb128 0x4
 1146 0116 60020000 		.4byte	.LASF24
 1147 011a 06       		.byte	0x6
 1148 011b 4F       		.byte	0x4f
 1149 011c AD000000 		.4byte	0xad
 1150 0120 04       		.uleb128 0x4
 1151 0121 B4010000 		.4byte	.LASF25
 1152 0125 06       		.byte	0x6
 1153 0126 51       		.byte	0x51
 1154 0127 A2000000 		.4byte	0xa2
 1155 012b 04       		.uleb128 0x4
 1156 012c D7050000 		.4byte	.LASF26
 1157 0130 07       		.byte	0x7
 1158 0131 33       		.byte	0x33
 1159 0132 AD000000 		.4byte	0xad
 1160 0136 04       		.uleb128 0x4
 1161 0137 7C060000 		.4byte	.LASF27
 1162 013b 07       		.byte	0x7
 1163 013c 3F       		.byte	0x3f
 1164 013d 41010000 		.4byte	0x141
 1165 0141 06       		.uleb128 0x6
 1166 0142 17020000 		.4byte	.LASF49
 1167 0146 48       		.byte	0x48
 1168 0147 02       		.byte	0x2
 1169 0148 C2       		.byte	0xc2
 1170 0149 46020000 		.4byte	0x246
 1171 014d 07       		.uleb128 0x7
 1172 014e CC030000 		.4byte	.LASF28
 1173 0152 02       		.byte	0x2
 1174 0153 C3       		.byte	0xc3
 1175 0154 51020000 		.4byte	0x251
 1176 0158 00       		.byte	0
 1177 0159 07       		.uleb128 0x7
 1178 015a 4D030000 		.4byte	.LASF29
 1179 015e 02       		.byte	0x2
 1180 015f C5       		.byte	0xc5
 1181 0160 51020000 		.4byte	0x251
 1182 0164 04       		.byte	0x4
 1183 0165 07       		.uleb128 0x7
 1184 0166 BC000000 		.4byte	.LASF30
 1185 016a 02       		.byte	0x2
 1186 016b C7       		.byte	0xc7
 1187 016c FF000000 		.4byte	0xff
 1188 0170 08       		.byte	0x8
 1189 0171 07       		.uleb128 0x7
 1190 0172 E3060000 		.4byte	.LASF31
 1191 0176 02       		.byte	0x2
 1192 0177 C8       		.byte	0xc8
 1193 0178 81040000 		.4byte	0x481
 1194 017c 0C       		.byte	0xc
 1195 017d 07       		.uleb128 0x7
 1196 017e 57010000 		.4byte	.LASF32
 1197 0182 02       		.byte	0x2
ARM GAS  /tmp/ccugrocP.s 			page 22


 1198 0183 CA       		.byte	0xca
 1199 0184 51020000 		.4byte	0x251
 1200 0188 10       		.byte	0x10
 1201 0189 07       		.uleb128 0x7
 1202 018a F2020000 		.4byte	.LASF33
 1203 018e 02       		.byte	0x2
 1204 018f CB       		.byte	0xcb
 1205 0190 51020000 		.4byte	0x251
 1206 0194 14       		.byte	0x14
 1207 0195 07       		.uleb128 0x7
 1208 0196 9A060000 		.4byte	.LASF34
 1209 019a 02       		.byte	0x2
 1210 019b D2       		.byte	0xd2
 1211 019c C6060000 		.4byte	0x6c6
 1212 01a0 18       		.byte	0x18
 1213 01a1 07       		.uleb128 0x7
 1214 01a2 98030000 		.4byte	.LASF35
 1215 01a6 02       		.byte	0x2
 1216 01a7 DD       		.byte	0xdd
 1217 01a8 DE000000 		.4byte	0xde
 1218 01ac 1C       		.byte	0x1c
 1219 01ad 07       		.uleb128 0x7
 1220 01ae D3030000 		.4byte	.LASF36
 1221 01b2 02       		.byte	0x2
 1222 01b3 E1       		.byte	0xe1
 1223 01b4 D3000000 		.4byte	0xd3
 1224 01b8 1D       		.byte	0x1d
 1225 01b9 07       		.uleb128 0x7
 1226 01ba 75060000 		.4byte	.LASF37
 1227 01be 02       		.byte	0x2
 1228 01bf E6       		.byte	0xe6
 1229 01c0 E9000000 		.4byte	0xe9
 1230 01c4 1E       		.byte	0x1e
 1231 01c5 07       		.uleb128 0x7
 1232 01c6 B4030000 		.4byte	.LASF38
 1233 01ca 02       		.byte	0x2
 1234 01cb EC       		.byte	0xec
 1235 01cc F4000000 		.4byte	0xf4
 1236 01d0 1F       		.byte	0x1f
 1237 01d1 07       		.uleb128 0x7
 1238 01d2 DC010000 		.4byte	.LASF39
 1239 01d6 02       		.byte	0x2
 1240 01d7 F3       		.byte	0xf3
 1241 01d8 D8060000 		.4byte	0x6d8
 1242 01dc 20       		.byte	0x20
 1243 01dd 08       		.uleb128 0x8
 1244 01de 705F7500 		.ascii	"p_u\000"
 1245 01e2 02       		.byte	0x2
 1246 01e3 3101     		.2byte	0x131
 1247 01e5 01060000 		.4byte	0x601
 1248 01e9 24       		.byte	0x24
 1249 01ea 09       		.uleb128 0x9
 1250 01eb 9D020000 		.4byte	.LASF40
 1251 01ef 02       		.byte	0x2
 1252 01f0 3601     		.2byte	0x136
 1253 01f2 57020000 		.4byte	0x257
 1254 01f6 28       		.byte	0x28
ARM GAS  /tmp/ccugrocP.s 			page 23


 1255 01f7 09       		.uleb128 0x9
 1256 01f8 F3010000 		.4byte	.LASF41
 1257 01fc 02       		.byte	0x2
 1258 01fd 3C01     		.2byte	0x13c
 1259 01ff 7B020000 		.4byte	0x27b
 1260 0203 2C       		.byte	0x2c
 1261 0204 09       		.uleb128 0x9
 1262 0205 B8060000 		.4byte	.LASF42
 1263 0209 02       		.byte	0x2
 1264 020a 4001     		.2byte	0x140
 1265 020c 0A010000 		.4byte	0x10a
 1266 0210 34       		.byte	0x34
 1267 0211 09       		.uleb128 0x9
 1268 0212 4B040000 		.4byte	.LASF43
 1269 0216 02       		.byte	0x2
 1270 0217 4601     		.2byte	0x146
 1271 0219 15010000 		.4byte	0x115
 1272 021d 38       		.byte	0x38
 1273 021e 09       		.uleb128 0x9
 1274 021f A0030000 		.4byte	.LASF44
 1275 0223 02       		.byte	0x2
 1276 0224 4D01     		.2byte	0x14d
 1277 0226 C0060000 		.4byte	0x6c0
 1278 022a 3C       		.byte	0x3c
 1279 022b 09       		.uleb128 0x9
 1280 022c E1050000 		.4byte	.LASF45
 1281 0230 02       		.byte	0x2
 1282 0231 5101     		.2byte	0x151
 1283 0233 FF000000 		.4byte	0xff
 1284 0237 40       		.byte	0x40
 1285 0238 09       		.uleb128 0x9
 1286 0239 E3000000 		.4byte	.LASF46
 1287 023d 02       		.byte	0x2
 1288 023e 5801     		.2byte	0x158
 1289 0240 2E030000 		.4byte	0x32e
 1290 0244 44       		.byte	0x44
 1291 0245 00       		.byte	0
 1292 0246 04       		.uleb128 0x4
 1293 0247 B0020000 		.4byte	.LASF47
 1294 024b 07       		.byte	0x7
 1295 024c 44       		.byte	0x44
 1296 024d 51020000 		.4byte	0x251
 1297 0251 0A       		.uleb128 0xa
 1298 0252 04       		.byte	0x4
 1299 0253 36010000 		.4byte	0x136
 1300 0257 04       		.uleb128 0x4
 1301 0258 8E020000 		.4byte	.LASF48
 1302 025c 07       		.byte	0x7
 1303 025d 49       		.byte	0x49
 1304 025e 62020000 		.4byte	0x262
 1305 0262 06       		.uleb128 0x6
 1306 0263 7A040000 		.4byte	.LASF50
 1307 0267 04       		.byte	0x4
 1308 0268 02       		.byte	0x2
 1309 0269 B0       		.byte	0xb0
 1310 026a 7B020000 		.4byte	0x27b
 1311 026e 07       		.uleb128 0x7
ARM GAS  /tmp/ccugrocP.s 			page 24


 1312 026f CC030000 		.4byte	.LASF28
 1313 0273 02       		.byte	0x2
 1314 0274 B1       		.byte	0xb1
 1315 0275 51020000 		.4byte	0x251
 1316 0279 00       		.byte	0
 1317 027a 00       		.byte	0
 1318 027b 04       		.uleb128 0x4
 1319 027c 5C060000 		.4byte	.LASF51
 1320 0280 07       		.byte	0x7
 1321 0281 50       		.byte	0x50
 1322 0282 86020000 		.4byte	0x286
 1323 0286 06       		.uleb128 0x6
 1324 0287 AB000000 		.4byte	.LASF52
 1325 028b 08       		.byte	0x8
 1326 028c 02       		.byte	0x2
 1327 028d B7       		.byte	0xb7
 1328 028e AB020000 		.4byte	0x2ab
 1329 0292 07       		.uleb128 0x7
 1330 0293 CC030000 		.4byte	.LASF28
 1331 0297 02       		.byte	0x2
 1332 0298 B8       		.byte	0xb8
 1333 0299 51020000 		.4byte	0x251
 1334 029d 00       		.byte	0
 1335 029e 07       		.uleb128 0x7
 1336 029f 4D030000 		.4byte	.LASF29
 1337 02a3 02       		.byte	0x2
 1338 02a4 B9       		.byte	0xb9
 1339 02a5 51020000 		.4byte	0x251
 1340 02a9 04       		.byte	0x4
 1341 02aa 00       		.byte	0
 1342 02ab 04       		.uleb128 0x4
 1343 02ac 00000000 		.4byte	.LASF53
 1344 02b0 07       		.byte	0x7
 1345 02b1 57       		.byte	0x57
 1346 02b2 B6020000 		.4byte	0x2b6
 1347 02b6 0B       		.uleb128 0xb
 1348 02b7 52020000 		.4byte	.LASF54
 1349 02bb 1C       		.byte	0x1c
 1350 02bc 02       		.byte	0x2
 1351 02bd 9001     		.2byte	0x190
 1352 02bf 12030000 		.4byte	0x312
 1353 02c3 09       		.uleb128 0x9
 1354 02c4 66040000 		.4byte	.LASF55
 1355 02c8 02       		.byte	0x2
 1356 02c9 9101     		.2byte	0x191
 1357 02cb 7B020000 		.4byte	0x27b
 1358 02cf 00       		.byte	0
 1359 02d0 09       		.uleb128 0x9
 1360 02d1 BE030000 		.4byte	.LASF56
 1361 02d5 02       		.byte	0x2
 1362 02d6 9201     		.2byte	0x192
 1363 02d8 FF000000 		.4byte	0xff
 1364 02dc 08       		.byte	0x8
 1365 02dd 09       		.uleb128 0x9
 1366 02de FA020000 		.4byte	.LASF57
 1367 02e2 02       		.byte	0x2
 1368 02e3 9401     		.2byte	0x194
ARM GAS  /tmp/ccugrocP.s 			page 25


 1369 02e5 81040000 		.4byte	0x481
 1370 02e9 0C       		.byte	0xc
 1371 02ea 09       		.uleb128 0x9
 1372 02eb 78010000 		.4byte	.LASF58
 1373 02ef 02       		.byte	0x2
 1374 02f0 9701     		.2byte	0x197
 1375 02f2 51020000 		.4byte	0x251
 1376 02f6 10       		.byte	0x10
 1377 02f7 09       		.uleb128 0x9
 1378 02f8 22030000 		.4byte	.LASF59
 1379 02fc 02       		.byte	0x2
 1380 02fd 9801     		.2byte	0x198
 1381 02ff 51020000 		.4byte	0x251
 1382 0303 14       		.byte	0x14
 1383 0304 09       		.uleb128 0x9
 1384 0305 18030000 		.4byte	.LASF60
 1385 0309 02       		.byte	0x2
 1386 030a 9B01     		.2byte	0x19b
 1387 030c 51020000 		.4byte	0x251
 1388 0310 18       		.byte	0x18
 1389 0311 00       		.byte	0
 1390 0312 04       		.uleb128 0x4
 1391 0313 EC050000 		.4byte	.LASF61
 1392 0317 07       		.byte	0x7
 1393 0318 5C       		.byte	0x5c
 1394 0319 1D030000 		.4byte	0x31d
 1395 031d 0A       		.uleb128 0xa
 1396 031e 04       		.byte	0x4
 1397 031f 23030000 		.4byte	0x323
 1398 0323 0C       		.uleb128 0xc
 1399 0324 2E030000 		.4byte	0x32e
 1400 0328 0D       		.uleb128 0xd
 1401 0329 2E030000 		.4byte	0x32e
 1402 032d 00       		.byte	0
 1403 032e 0E       		.uleb128 0xe
 1404 032f 04       		.byte	0x4
 1405 0330 04       		.uleb128 0x4
 1406 0331 3D030000 		.4byte	.LASF62
 1407 0335 07       		.byte	0x7
 1408 0336 61       		.byte	0x61
 1409 0337 3B030000 		.4byte	0x33b
 1410 033b 0B       		.uleb128 0xb
 1411 033c 1F040000 		.4byte	.LASF63
 1412 0340 14       		.byte	0x14
 1413 0341 02       		.byte	0x2
 1414 0342 6B01     		.2byte	0x16b
 1415 0344 8A030000 		.4byte	0x38a
 1416 0348 09       		.uleb128 0x9
 1417 0349 D4010000 		.4byte	.LASF64
 1418 034d 02       		.byte	0x2
 1419 034e 6C01     		.2byte	0x16c
 1420 0350 DD060000 		.4byte	0x6dd
 1421 0354 00       		.byte	0
 1422 0355 09       		.uleb128 0x9
 1423 0356 89010000 		.4byte	.LASF65
 1424 035a 02       		.byte	0x2
 1425 035b 6D01     		.2byte	0x16d
ARM GAS  /tmp/ccugrocP.s 			page 26


 1426 035d DD060000 		.4byte	0x6dd
 1427 0361 04       		.byte	0x4
 1428 0362 09       		.uleb128 0x9
 1429 0363 EA010000 		.4byte	.LASF66
 1430 0367 02       		.byte	0x2
 1431 0368 6E01     		.2byte	0x16e
 1432 036a 2B010000 		.4byte	0x12b
 1433 036e 08       		.byte	0x8
 1434 036f 09       		.uleb128 0x9
 1435 0370 E9060000 		.4byte	.LASF67
 1436 0374 02       		.byte	0x2
 1437 0375 6F01     		.2byte	0x16f
 1438 0377 12030000 		.4byte	0x312
 1439 037b 0C       		.byte	0xc
 1440 037c 09       		.uleb128 0x9
 1441 037d 55060000 		.4byte	.LASF68
 1442 0381 02       		.byte	0x2
 1443 0382 7101     		.2byte	0x171
 1444 0384 2E030000 		.4byte	0x32e
 1445 0388 10       		.byte	0x10
 1446 0389 00       		.byte	0
 1447 038a 04       		.uleb128 0x4
 1448 038b 88000000 		.4byte	.LASF69
 1449 038f 07       		.byte	0x7
 1450 0390 66       		.byte	0x66
 1451 0391 95030000 		.4byte	0x395
 1452 0395 0B       		.uleb128 0xb
 1453 0396 C3020000 		.4byte	.LASF70
 1454 039a 10       		.byte	0x10
 1455 039b 02       		.byte	0x2
 1456 039c 7B01     		.2byte	0x17b
 1457 039e D7030000 		.4byte	0x3d7
 1458 03a2 09       		.uleb128 0x9
 1459 03a3 D4010000 		.4byte	.LASF64
 1460 03a7 02       		.byte	0x2
 1461 03a8 7C01     		.2byte	0x17c
 1462 03aa DD060000 		.4byte	0x6dd
 1463 03ae 00       		.byte	0
 1464 03af 09       		.uleb128 0x9
 1465 03b0 89010000 		.4byte	.LASF65
 1466 03b4 02       		.byte	0x2
 1467 03b5 7E01     		.2byte	0x17e
 1468 03b7 DD060000 		.4byte	0x6dd
 1469 03bb 04       		.byte	0x4
 1470 03bc 09       		.uleb128 0x9
 1471 03bd EA010000 		.4byte	.LASF66
 1472 03c1 02       		.byte	0x2
 1473 03c2 8001     		.2byte	0x180
 1474 03c4 2B010000 		.4byte	0x12b
 1475 03c8 08       		.byte	0x8
 1476 03c9 09       		.uleb128 0x9
 1477 03ca A1060000 		.4byte	.LASF71
 1478 03ce 02       		.byte	0x2
 1479 03cf 8201     		.2byte	0x182
 1480 03d1 D8060000 		.4byte	0x6d8
 1481 03d5 0C       		.byte	0xc
 1482 03d6 00       		.byte	0
ARM GAS  /tmp/ccugrocP.s 			page 27


 1483 03d7 04       		.uleb128 0x4
 1484 03d8 39000000 		.4byte	.LASF72
 1485 03dc 07       		.byte	0x7
 1486 03dd 6B       		.byte	0x6b
 1487 03de E2030000 		.4byte	0x3e2
 1488 03e2 0B       		.uleb128 0xb
 1489 03e3 6C030000 		.4byte	.LASF73
 1490 03e7 04       		.byte	0x4
 1491 03e8 02       		.byte	0x2
 1492 03e9 A201     		.2byte	0x1a2
 1493 03eb FD030000 		.4byte	0x3fd
 1494 03ef 09       		.uleb128 0x9
 1495 03f0 14060000 		.4byte	.LASF74
 1496 03f4 02       		.byte	0x2
 1497 03f5 AA01     		.2byte	0x1aa
 1498 03f7 E3060000 		.4byte	0x6e3
 1499 03fb 00       		.byte	0
 1500 03fc 00       		.byte	0
 1501 03fd 04       		.uleb128 0x4
 1502 03fe 27020000 		.4byte	.LASF75
 1503 0402 07       		.byte	0x7
 1504 0403 70       		.byte	0x70
 1505 0404 08040000 		.4byte	0x408
 1506 0408 0F       		.uleb128 0xf
 1507 0409 10010000 		.4byte	.LASF76
 1508 040d 5802     		.2byte	0x258
 1509 040f 02       		.byte	0x2
 1510 0410 C201     		.2byte	0x1c2
 1511 0412 64040000 		.4byte	0x464
 1512 0416 09       		.uleb128 0x9
 1513 0417 85060000 		.4byte	.LASF77
 1514 041b 02       		.byte	0x2
 1515 041c C601     		.2byte	0x1c6
 1516 041e AB020000 		.4byte	0x2ab
 1517 0422 00       		.byte	0
 1518 0423 09       		.uleb128 0x9
 1519 0424 F3000000 		.4byte	.LASF78
 1520 0428 02       		.byte	0x2
 1521 0429 CA01     		.2byte	0x1ca
 1522 042b 8A030000 		.4byte	0x38a
 1523 042f 1C       		.byte	0x1c
 1524 0430 08       		.uleb128 0x8
 1525 0431 64626700 		.ascii	"dbg\000"
 1526 0435 02       		.byte	0x2
 1527 0436 CE01     		.2byte	0x1ce
 1528 0438 D7030000 		.4byte	0x3d7
 1529 043c 2C       		.byte	0x2c
 1530 043d 09       		.uleb128 0x9
 1531 043e 7D000000 		.4byte	.LASF79
 1532 0442 02       		.byte	0x2
 1533 0443 D201     		.2byte	0x1d2
 1534 0445 36010000 		.4byte	0x136
 1535 0449 30       		.byte	0x30
 1536 044a 08       		.uleb128 0x8
 1537 044b 746D00   		.ascii	"tm\000"
 1538 044e 02       		.byte	0x2
 1539 044f D701     		.2byte	0x1d7
ARM GAS  /tmp/ccugrocP.s 			page 28


 1540 0451 F6050000 		.4byte	0x5f6
 1541 0455 78       		.byte	0x78
 1542 0456 09       		.uleb128 0x9
 1543 0457 A5010000 		.4byte	.LASF80
 1544 045b 02       		.byte	0x2
 1545 045c E301     		.2byte	0x1e3
 1546 045e E8060000 		.4byte	0x6e8
 1547 0462 80       		.byte	0x80
 1548 0463 00       		.byte	0
 1549 0464 03       		.uleb128 0x3
 1550 0465 04       		.byte	0x4
 1551 0466 07       		.byte	0x7
 1552 0467 A7020000 		.4byte	.LASF81
 1553 046b 04       		.uleb128 0x4
 1554 046c 80010000 		.4byte	.LASF82
 1555 0470 08       		.byte	0x8
 1556 0471 65       		.byte	0x65
 1557 0472 2E030000 		.4byte	0x32e
 1558 0476 04       		.uleb128 0x4
 1559 0477 83020000 		.4byte	.LASF83
 1560 047b 08       		.byte	0x8
 1561 047c 6D       		.byte	0x6d
 1562 047d B8000000 		.4byte	0xb8
 1563 0481 06       		.uleb128 0x6
 1564 0482 45060000 		.4byte	.LASF84
 1565 0486 04       		.byte	0x4
 1566 0487 08       		.byte	0x8
 1567 0488 89       		.byte	0x89
 1568 0489 9A040000 		.4byte	0x49a
 1569 048d 10       		.uleb128 0x10
 1570 048e 72313300 		.ascii	"r13\000"
 1571 0492 08       		.byte	0x8
 1572 0493 8A       		.byte	0x8a
 1573 0494 DB050000 		.4byte	0x5db
 1574 0498 00       		.byte	0
 1575 0499 00       		.byte	0
 1576 049a 06       		.uleb128 0x6
 1577 049b 2D000000 		.4byte	.LASF85
 1578 049f 64       		.byte	0x64
 1579 04a0 09       		.byte	0x9
 1580 04a1 F4       		.byte	0xf4
 1581 04a2 DB050000 		.4byte	0x5db
 1582 04a6 10       		.uleb128 0x10
 1583 04a7 73313600 		.ascii	"s16\000"
 1584 04ab 09       		.byte	0x9
 1585 04ac F6       		.byte	0xf6
 1586 04ad 6B040000 		.4byte	0x46b
 1587 04b1 00       		.byte	0
 1588 04b2 10       		.uleb128 0x10
 1589 04b3 73313700 		.ascii	"s17\000"
 1590 04b7 09       		.byte	0x9
 1591 04b8 F7       		.byte	0xf7
 1592 04b9 6B040000 		.4byte	0x46b
 1593 04bd 04       		.byte	0x4
 1594 04be 10       		.uleb128 0x10
 1595 04bf 73313800 		.ascii	"s18\000"
 1596 04c3 09       		.byte	0x9
ARM GAS  /tmp/ccugrocP.s 			page 29


 1597 04c4 F8       		.byte	0xf8
 1598 04c5 6B040000 		.4byte	0x46b
 1599 04c9 08       		.byte	0x8
 1600 04ca 10       		.uleb128 0x10
 1601 04cb 73313900 		.ascii	"s19\000"
 1602 04cf 09       		.byte	0x9
 1603 04d0 F9       		.byte	0xf9
 1604 04d1 6B040000 		.4byte	0x46b
 1605 04d5 0C       		.byte	0xc
 1606 04d6 10       		.uleb128 0x10
 1607 04d7 73323000 		.ascii	"s20\000"
 1608 04db 09       		.byte	0x9
 1609 04dc FA       		.byte	0xfa
 1610 04dd 6B040000 		.4byte	0x46b
 1611 04e1 10       		.byte	0x10
 1612 04e2 10       		.uleb128 0x10
 1613 04e3 73323100 		.ascii	"s21\000"
 1614 04e7 09       		.byte	0x9
 1615 04e8 FB       		.byte	0xfb
 1616 04e9 6B040000 		.4byte	0x46b
 1617 04ed 14       		.byte	0x14
 1618 04ee 10       		.uleb128 0x10
 1619 04ef 73323200 		.ascii	"s22\000"
 1620 04f3 09       		.byte	0x9
 1621 04f4 FC       		.byte	0xfc
 1622 04f5 6B040000 		.4byte	0x46b
 1623 04f9 18       		.byte	0x18
 1624 04fa 10       		.uleb128 0x10
 1625 04fb 73323300 		.ascii	"s23\000"
 1626 04ff 09       		.byte	0x9
 1627 0500 FD       		.byte	0xfd
 1628 0501 6B040000 		.4byte	0x46b
 1629 0505 1C       		.byte	0x1c
 1630 0506 10       		.uleb128 0x10
 1631 0507 73323400 		.ascii	"s24\000"
 1632 050b 09       		.byte	0x9
 1633 050c FE       		.byte	0xfe
 1634 050d 6B040000 		.4byte	0x46b
 1635 0511 20       		.byte	0x20
 1636 0512 10       		.uleb128 0x10
 1637 0513 73323500 		.ascii	"s25\000"
 1638 0517 09       		.byte	0x9
 1639 0518 FF       		.byte	0xff
 1640 0519 6B040000 		.4byte	0x46b
 1641 051d 24       		.byte	0x24
 1642 051e 08       		.uleb128 0x8
 1643 051f 73323600 		.ascii	"s26\000"
 1644 0523 09       		.byte	0x9
 1645 0524 0001     		.2byte	0x100
 1646 0526 6B040000 		.4byte	0x46b
 1647 052a 28       		.byte	0x28
 1648 052b 08       		.uleb128 0x8
 1649 052c 73323700 		.ascii	"s27\000"
 1650 0530 09       		.byte	0x9
 1651 0531 0101     		.2byte	0x101
 1652 0533 6B040000 		.4byte	0x46b
 1653 0537 2C       		.byte	0x2c
ARM GAS  /tmp/ccugrocP.s 			page 30


 1654 0538 08       		.uleb128 0x8
 1655 0539 73323800 		.ascii	"s28\000"
 1656 053d 09       		.byte	0x9
 1657 053e 0201     		.2byte	0x102
 1658 0540 6B040000 		.4byte	0x46b
 1659 0544 30       		.byte	0x30
 1660 0545 08       		.uleb128 0x8
 1661 0546 73323900 		.ascii	"s29\000"
 1662 054a 09       		.byte	0x9
 1663 054b 0301     		.2byte	0x103
 1664 054d 6B040000 		.4byte	0x46b
 1665 0551 34       		.byte	0x34
 1666 0552 08       		.uleb128 0x8
 1667 0553 73333000 		.ascii	"s30\000"
 1668 0557 09       		.byte	0x9
 1669 0558 0401     		.2byte	0x104
 1670 055a 6B040000 		.4byte	0x46b
 1671 055e 38       		.byte	0x38
 1672 055f 08       		.uleb128 0x8
 1673 0560 73333100 		.ascii	"s31\000"
 1674 0564 09       		.byte	0x9
 1675 0565 0501     		.2byte	0x105
 1676 0567 6B040000 		.4byte	0x46b
 1677 056b 3C       		.byte	0x3c
 1678 056c 08       		.uleb128 0x8
 1679 056d 723400   		.ascii	"r4\000"
 1680 0570 09       		.byte	0x9
 1681 0571 0701     		.2byte	0x107
 1682 0573 6B040000 		.4byte	0x46b
 1683 0577 40       		.byte	0x40
 1684 0578 08       		.uleb128 0x8
 1685 0579 723500   		.ascii	"r5\000"
 1686 057c 09       		.byte	0x9
 1687 057d 0801     		.2byte	0x108
 1688 057f 6B040000 		.4byte	0x46b
 1689 0583 44       		.byte	0x44
 1690 0584 08       		.uleb128 0x8
 1691 0585 723600   		.ascii	"r6\000"
 1692 0588 09       		.byte	0x9
 1693 0589 0901     		.2byte	0x109
 1694 058b 6B040000 		.4byte	0x46b
 1695 058f 48       		.byte	0x48
 1696 0590 08       		.uleb128 0x8
 1697 0591 723700   		.ascii	"r7\000"
 1698 0594 09       		.byte	0x9
 1699 0595 0A01     		.2byte	0x10a
 1700 0597 6B040000 		.4byte	0x46b
 1701 059b 4C       		.byte	0x4c
 1702 059c 08       		.uleb128 0x8
 1703 059d 723800   		.ascii	"r8\000"
 1704 05a0 09       		.byte	0x9
 1705 05a1 0B01     		.2byte	0x10b
 1706 05a3 6B040000 		.4byte	0x46b
 1707 05a7 50       		.byte	0x50
 1708 05a8 08       		.uleb128 0x8
 1709 05a9 723900   		.ascii	"r9\000"
 1710 05ac 09       		.byte	0x9
ARM GAS  /tmp/ccugrocP.s 			page 31


 1711 05ad 0C01     		.2byte	0x10c
 1712 05af 6B040000 		.4byte	0x46b
 1713 05b3 54       		.byte	0x54
 1714 05b4 08       		.uleb128 0x8
 1715 05b5 72313000 		.ascii	"r10\000"
 1716 05b9 09       		.byte	0x9
 1717 05ba 0D01     		.2byte	0x10d
 1718 05bc 6B040000 		.4byte	0x46b
 1719 05c0 58       		.byte	0x58
 1720 05c1 08       		.uleb128 0x8
 1721 05c2 72313100 		.ascii	"r11\000"
 1722 05c6 09       		.byte	0x9
 1723 05c7 0E01     		.2byte	0x10e
 1724 05c9 6B040000 		.4byte	0x46b
 1725 05cd 5C       		.byte	0x5c
 1726 05ce 08       		.uleb128 0x8
 1727 05cf 6C7200   		.ascii	"lr\000"
 1728 05d2 09       		.byte	0x9
 1729 05d3 0F01     		.2byte	0x10f
 1730 05d5 6B040000 		.4byte	0x46b
 1731 05d9 60       		.byte	0x60
 1732 05da 00       		.byte	0
 1733 05db 0A       		.uleb128 0xa
 1734 05dc 04       		.byte	0x4
 1735 05dd 9A040000 		.4byte	0x49a
 1736 05e1 11       		.uleb128 0x11
 1737 05e2 04       		.byte	0x4
 1738 05e3 0A       		.byte	0xa
 1739 05e4 38       		.byte	0x38
 1740 05e5 F6050000 		.4byte	0x5f6
 1741 05e9 07       		.uleb128 0x7
 1742 05ea 1E060000 		.4byte	.LASF86
 1743 05ee 0A       		.byte	0xa
 1744 05ef 3C       		.byte	0x3c
 1745 05f0 C8000000 		.4byte	0xc8
 1746 05f4 00       		.byte	0
 1747 05f5 00       		.byte	0
 1748 05f6 04       		.uleb128 0x4
 1749 05f7 00030000 		.4byte	.LASF87
 1750 05fb 0A       		.byte	0xa
 1751 05fc 3D       		.byte	0x3d
 1752 05fd E1050000 		.4byte	0x5e1
 1753 0601 12       		.uleb128 0x12
 1754 0602 04       		.byte	0x4
 1755 0603 02       		.byte	0x2
 1756 0604 FA       		.byte	0xfa
 1757 0605 5E060000 		.4byte	0x65e
 1758 0609 13       		.uleb128 0x13
 1759 060a 13000000 		.4byte	.LASF88
 1760 060e 02       		.byte	0x2
 1761 060f 0101     		.2byte	0x101
 1762 0611 0A010000 		.4byte	0x10a
 1763 0615 13       		.uleb128 0x13
 1764 0616 74000000 		.4byte	.LASF89
 1765 061a 02       		.byte	0x2
 1766 061b 0801     		.2byte	0x108
 1767 061d 0A010000 		.4byte	0x10a
ARM GAS  /tmp/ccugrocP.s 			page 32


 1768 0621 13       		.uleb128 0x13
 1769 0622 93060000 		.4byte	.LASF90
 1770 0626 02       		.byte	0x2
 1771 0627 0F01     		.2byte	0x10f
 1772 0629 2E030000 		.4byte	0x32e
 1773 062d 13       		.uleb128 0x13
 1774 062e 0D000000 		.4byte	.LASF91
 1775 0632 02       		.byte	0x2
 1776 0633 1601     		.2byte	0x116
 1777 0635 5E060000 		.4byte	0x65e
 1778 0639 13       		.uleb128 0x13
 1779 063a E3010000 		.4byte	.LASF92
 1780 063e 02       		.byte	0x2
 1781 063f 1E01     		.2byte	0x11e
 1782 0641 89060000 		.4byte	0x689
 1783 0645 13       		.uleb128 0x13
 1784 0646 5F040000 		.4byte	.LASF93
 1785 064a 02       		.byte	0x2
 1786 064b 2701     		.2byte	0x127
 1787 064d C0060000 		.4byte	0x6c0
 1788 0651 13       		.uleb128 0x13
 1789 0652 C5030000 		.4byte	.LASF94
 1790 0656 02       		.byte	0x2
 1791 0657 2F01     		.2byte	0x12f
 1792 0659 15010000 		.4byte	0x115
 1793 065d 00       		.byte	0
 1794 065e 0A       		.uleb128 0xa
 1795 065f 04       		.byte	0x4
 1796 0660 46020000 		.4byte	0x246
 1797 0664 06       		.uleb128 0x6
 1798 0665 30040000 		.4byte	.LASF95
 1799 0669 0C       		.byte	0xc
 1800 066a 0B       		.byte	0xb
 1801 066b 34       		.byte	0x34
 1802 066c 89060000 		.4byte	0x689
 1803 0670 07       		.uleb128 0x7
 1804 0671 5F010000 		.4byte	.LASF96
 1805 0675 0B       		.byte	0xb
 1806 0676 35       		.byte	0x35
 1807 0677 7B020000 		.4byte	0x27b
 1808 067b 00       		.byte	0
 1809 067c 07       		.uleb128 0x7
 1810 067d FE010000 		.4byte	.LASF97
 1811 0681 0B       		.byte	0xb
 1812 0682 37       		.byte	0x37
 1813 0683 20010000 		.4byte	0x120
 1814 0687 08       		.byte	0x8
 1815 0688 00       		.byte	0
 1816 0689 0A       		.uleb128 0xa
 1817 068a 04       		.byte	0x4
 1818 068b 64060000 		.4byte	0x664
 1819 068f 06       		.uleb128 0x6
 1820 0690 6C060000 		.4byte	.LASF98
 1821 0694 10       		.byte	0x10
 1822 0695 0C       		.byte	0xc
 1823 0696 39       		.byte	0x39
 1824 0697 C0060000 		.4byte	0x6c0
ARM GAS  /tmp/ccugrocP.s 			page 33


 1825 069b 07       		.uleb128 0x7
 1826 069c EB000000 		.4byte	.LASF99
 1827 06a0 0C       		.byte	0xc
 1828 06a1 3A       		.byte	0x3a
 1829 06a2 7B020000 		.4byte	0x27b
 1830 06a6 00       		.byte	0
 1831 06a7 07       		.uleb128 0x7
 1832 06a8 DB060000 		.4byte	.LASF100
 1833 06ac 0C       		.byte	0xc
 1834 06ad 3C       		.byte	0x3c
 1835 06ae 51020000 		.4byte	0x251
 1836 06b2 08       		.byte	0x8
 1837 06b3 07       		.uleb128 0x7
 1838 06b4 11030000 		.4byte	.LASF101
 1839 06b8 0C       		.byte	0xc
 1840 06b9 3E       		.byte	0x3e
 1841 06ba 03070000 		.4byte	0x703
 1842 06be 0C       		.byte	0xc
 1843 06bf 00       		.byte	0
 1844 06c0 0A       		.uleb128 0xa
 1845 06c1 04       		.byte	0x4
 1846 06c2 8F060000 		.4byte	0x68f
 1847 06c6 0A       		.uleb128 0xa
 1848 06c7 04       		.byte	0x4
 1849 06c8 CC060000 		.4byte	0x6cc
 1850 06cc 14       		.uleb128 0x14
 1851 06cd D1060000 		.4byte	0x6d1
 1852 06d1 03       		.uleb128 0x3
 1853 06d2 01       		.byte	0x1
 1854 06d3 08       		.byte	0x8
 1855 06d4 9C040000 		.4byte	.LASF102
 1856 06d8 05       		.uleb128 0x5
 1857 06d9 2B010000 		.4byte	0x12b
 1858 06dd 0A       		.uleb128 0xa
 1859 06de 04       		.byte	0x4
 1860 06df 30030000 		.4byte	0x330
 1861 06e3 05       		.uleb128 0x5
 1862 06e4 C6060000 		.4byte	0x6c6
 1863 06e8 15       		.uleb128 0x15
 1864 06e9 76040000 		.4byte	0x476
 1865 06ed F8060000 		.4byte	0x6f8
 1866 06f1 16       		.uleb128 0x16
 1867 06f2 64040000 		.4byte	0x464
 1868 06f6 3A       		.byte	0x3a
 1869 06f7 00       		.byte	0
 1870 06f8 04       		.uleb128 0x4
 1871 06f9 C3000000 		.4byte	.LASF103
 1872 06fd 0C       		.byte	0xc
 1873 06fe 34       		.byte	0x34
 1874 06ff 8F060000 		.4byte	0x68f
 1875 0703 0A       		.uleb128 0xa
 1876 0704 04       		.byte	0x4
 1877 0705 F8060000 		.4byte	0x6f8
 1878 0709 17       		.uleb128 0x17
 1879 070a DA020000 		.4byte	.LASF108
 1880 070e 03       		.byte	0x3
 1881 070f 2002     		.2byte	0x220
ARM GAS  /tmp/ccugrocP.s 			page 34


 1882 0711 03       		.byte	0x3
 1883 0712 23070000 		.4byte	0x723
 1884 0716 18       		.uleb128 0x18
 1885 0717 9F010000 		.4byte	.LASF106
 1886 071b 03       		.byte	0x3
 1887 071c 2002     		.2byte	0x220
 1888 071e AD000000 		.4byte	0xad
 1889 0722 00       		.byte	0
 1890 0723 19       		.uleb128 0x19
 1891 0724 53000000 		.4byte	.LASF104
 1892 0728 09       		.byte	0x9
 1893 0729 BC01     		.2byte	0x1bc
 1894 072b 03       		.byte	0x3
 1895 072c 19       		.uleb128 0x19
 1896 072d FA000000 		.4byte	.LASF105
 1897 0731 09       		.byte	0x9
 1898 0732 CA01     		.2byte	0x1ca
 1899 0734 03       		.byte	0x3
 1900 0735 1A       		.uleb128 0x1a
 1901 0736 3A010000 		.4byte	.LASF110
 1902 073a 02       		.byte	0x2
 1903 073b 7502     		.2byte	0x275
 1904 073d 53070000 		.4byte	0x753
 1905 0741 03       		.byte	0x3
 1906 0742 53070000 		.4byte	0x753
 1907 0746 1B       		.uleb128 0x1b
 1908 0747 74717000 		.ascii	"tqp\000"
 1909 074b 02       		.byte	0x2
 1910 074c 7502     		.2byte	0x275
 1911 074e 5A070000 		.4byte	0x75a
 1912 0752 00       		.byte	0
 1913 0753 03       		.uleb128 0x3
 1914 0754 01       		.byte	0x1
 1915 0755 02       		.byte	0x2
 1916 0756 7C030000 		.4byte	.LASF107
 1917 075a 0A       		.uleb128 0xa
 1918 075b 04       		.byte	0x4
 1919 075c 60070000 		.4byte	0x760
 1920 0760 14       		.uleb128 0x14
 1921 0761 7B020000 		.4byte	0x27b
 1922 0765 17       		.uleb128 0x17
 1923 0766 48000000 		.4byte	.LASF109
 1924 076a 02       		.byte	0x2
 1925 076b 5A02     		.2byte	0x25a
 1926 076d 03       		.byte	0x3
 1927 076e 7F070000 		.4byte	0x77f
 1928 0772 1B       		.uleb128 0x1b
 1929 0773 74717000 		.ascii	"tqp\000"
 1930 0777 02       		.byte	0x2
 1931 0778 5A02     		.2byte	0x25a
 1932 077a 7F070000 		.4byte	0x77f
 1933 077e 00       		.byte	0
 1934 077f 0A       		.uleb128 0xa
 1935 0780 04       		.byte	0x4
 1936 0781 7B020000 		.4byte	0x27b
 1937 0785 1A       		.uleb128 0x1a
 1938 0786 23010000 		.4byte	.LASF111
ARM GAS  /tmp/ccugrocP.s 			page 35


 1939 078a 02       		.byte	0x2
 1940 078b B102     		.2byte	0x2b1
 1941 078d 51020000 		.4byte	0x251
 1942 0791 03       		.byte	0x3
 1943 0792 A2070000 		.4byte	0x7a2
 1944 0796 1B       		.uleb128 0x1b
 1945 0797 747000   		.ascii	"tp\000"
 1946 079a 02       		.byte	0x2
 1947 079b B102     		.2byte	0x2b1
 1948 079d 51020000 		.4byte	0x251
 1949 07a1 00       		.byte	0
 1950 07a2 17       		.uleb128 0x17
 1951 07a3 C9060000 		.4byte	.LASF112
 1952 07a7 02       		.byte	0x2
 1953 07a8 8B02     		.2byte	0x28b
 1954 07aa 03       		.byte	0x3
 1955 07ab D2070000 		.4byte	0x7d2
 1956 07af 1B       		.uleb128 0x1b
 1957 07b0 747000   		.ascii	"tp\000"
 1958 07b3 02       		.byte	0x2
 1959 07b4 8B02     		.2byte	0x28b
 1960 07b6 51020000 		.4byte	0x251
 1961 07ba 1B       		.uleb128 0x1b
 1962 07bb 74717000 		.ascii	"tqp\000"
 1963 07bf 02       		.byte	0x2
 1964 07c0 8B02     		.2byte	0x28b
 1965 07c2 7F070000 		.4byte	0x77f
 1966 07c6 1C       		.uleb128 0x1c
 1967 07c7 637000   		.ascii	"cp\000"
 1968 07ca 02       		.byte	0x2
 1969 07cb 8D02     		.2byte	0x28d
 1970 07cd 51020000 		.4byte	0x251
 1971 07d1 00       		.byte	0
 1972 07d2 19       		.uleb128 0x19
 1973 07d3 E4030000 		.4byte	.LASF113
 1974 07d7 0D       		.byte	0xd
 1975 07d8 5A01     		.2byte	0x15a
 1976 07da 03       		.byte	0x3
 1977 07db 17       		.uleb128 0x17
 1978 07dc AC060000 		.4byte	.LASF114
 1979 07e0 0D       		.byte	0xd
 1980 07e1 6601     		.2byte	0x166
 1981 07e3 03       		.byte	0x3
 1982 07e4 F6070000 		.4byte	0x7f6
 1983 07e8 1D       		.uleb128 0x1d
 1984 07e9 DB030000 		.4byte	.LASF115
 1985 07ed 06080000 		.4byte	0x806
 1986 07f1 AC060000 		.4byte	.LASF114
 1987 07f5 00       		.byte	0
 1988 07f6 15       		.uleb128 0x15
 1989 07f7 D1060000 		.4byte	0x6d1
 1990 07fb 06080000 		.4byte	0x806
 1991 07ff 16       		.uleb128 0x16
 1992 0800 64040000 		.4byte	0x464
 1993 0804 0B       		.byte	0xb
 1994 0805 00       		.byte	0
 1995 0806 14       		.uleb128 0x14
ARM GAS  /tmp/ccugrocP.s 			page 36


 1996 0807 F6070000 		.4byte	0x7f6
 1997 080b 1E       		.uleb128 0x1e
 1998 080c 49010000 		.4byte	.LASF116
 1999 0810 01       		.byte	0x1
 2000 0811 1A01     		.2byte	0x11a
 2001 0813 53070000 		.4byte	0x753
 2002 0817 01       		.byte	0x1
 2003 0818 35080000 		.4byte	0x835
 2004 081c 1B       		.uleb128 0x1b
 2005 081d 6D7000   		.ascii	"mp\000"
 2006 0820 01       		.byte	0x1
 2007 0821 1A01     		.2byte	0x11a
 2008 0823 03070000 		.4byte	0x703
 2009 0827 1D       		.uleb128 0x1d
 2010 0828 DB030000 		.4byte	.LASF115
 2011 082c 45080000 		.4byte	0x845
 2012 0830 49010000 		.4byte	.LASF116
 2013 0834 00       		.byte	0
 2014 0835 15       		.uleb128 0x15
 2015 0836 D1060000 		.4byte	0x6d1
 2016 083a 45080000 		.4byte	0x845
 2017 083e 16       		.uleb128 0x16
 2018 083f 64040000 		.4byte	0x464
 2019 0843 0D       		.byte	0xd
 2020 0844 00       		.byte	0
 2021 0845 14       		.uleb128 0x14
 2022 0846 35080000 		.4byte	0x835
 2023 084a 1F       		.uleb128 0x1f
 2024 084b 00060000 		.4byte	.LASF117
 2025 084f 0C       		.byte	0xc
 2026 0850 81       		.byte	0x81
 2027 0851 53070000 		.4byte	0x753
 2028 0855 03       		.byte	0x3
 2029 0856 65080000 		.4byte	0x865
 2030 085a 20       		.uleb128 0x20
 2031 085b 6D7000   		.ascii	"mp\000"
 2032 085e 0C       		.byte	0xc
 2033 085f 81       		.byte	0x81
 2034 0860 03070000 		.4byte	0x703
 2035 0864 00       		.byte	0
 2036 0865 1A       		.uleb128 0x1a
 2037 0866 C5050000 		.4byte	.LASF118
 2038 086a 02       		.byte	0x2
 2039 086b 9F02     		.2byte	0x29f
 2040 086d 51020000 		.4byte	0x251
 2041 0871 03       		.byte	0x3
 2042 0872 8E080000 		.4byte	0x88e
 2043 0876 1B       		.uleb128 0x1b
 2044 0877 74717000 		.ascii	"tqp\000"
 2045 087b 02       		.byte	0x2
 2046 087c 9F02     		.2byte	0x29f
 2047 087e 7F070000 		.4byte	0x77f
 2048 0882 1C       		.uleb128 0x1c
 2049 0883 747000   		.ascii	"tp\000"
 2050 0886 02       		.byte	0x2
 2051 0887 A002     		.2byte	0x2a0
 2052 0889 51020000 		.4byte	0x251
ARM GAS  /tmp/ccugrocP.s 			page 37


 2053 088d 00       		.byte	0
 2054 088e 21       		.uleb128 0x21
 2055 088f 5C030000 		.4byte	.LASF119
 2056 0893 01       		.byte	0x1
 2057 0894 67       		.byte	0x67
 2058 0895 00000000 		.4byte	.LFB219
 2059 0899 0A000000 		.4byte	.LFE219-.LFB219
 2060 089d 01       		.uleb128 0x1
 2061 089e 9C       		.byte	0x9c
 2062 089f D0080000 		.4byte	0x8d0
 2063 08a3 22       		.uleb128 0x22
 2064 08a4 6D7000   		.ascii	"mp\000"
 2065 08a7 01       		.byte	0x1
 2066 08a8 67       		.byte	0x67
 2067 08a9 03070000 		.4byte	0x703
 2068 08ad 01       		.uleb128 0x1
 2069 08ae 50       		.byte	0x50
 2070 08af 23       		.uleb128 0x23
 2071 08b0 DB030000 		.4byte	.LASF115
 2072 08b4 E0080000 		.4byte	0x8e0
 2073 08b8 24       		.uleb128 0x24
 2074 08b9 65070000 		.4byte	0x765
 2075 08bd 02000000 		.4byte	.LBB103
 2076 08c1 04000000 		.4byte	.LBE103-.LBB103
 2077 08c5 01       		.byte	0x1
 2078 08c6 6B       		.byte	0x6b
 2079 08c7 25       		.uleb128 0x25
 2080 08c8 72070000 		.4byte	0x772
 2081 08cc 01       		.uleb128 0x1
 2082 08cd 50       		.byte	0x50
 2083 08ce 00       		.byte	0
 2084 08cf 00       		.byte	0
 2085 08d0 15       		.uleb128 0x15
 2086 08d1 D1060000 		.4byte	0x6d1
 2087 08d5 E0080000 		.4byte	0x8e0
 2088 08d9 16       		.uleb128 0x16
 2089 08da 64040000 		.4byte	0x464
 2090 08de 0F       		.byte	0xf
 2091 08df 00       		.byte	0
 2092 08e0 14       		.uleb128 0x14
 2093 08e1 D0080000 		.4byte	0x8d0
 2094 08e5 21       		.uleb128 0x21
 2095 08e6 BE060000 		.4byte	.LASF120
 2096 08ea 01       		.byte	0x1
 2097 08eb 8B       		.byte	0x8b
 2098 08ec 00000000 		.4byte	.LFB221
 2099 08f0 C8000000 		.4byte	.LFE221-.LFB221
 2100 08f4 01       		.uleb128 0x1
 2101 08f5 9C       		.byte	0x9c
 2102 08f6 530A0000 		.4byte	0xa53
 2103 08fa 26       		.uleb128 0x26
 2104 08fb 6D7000   		.ascii	"mp\000"
 2105 08fe 01       		.byte	0x1
 2106 08ff 8B       		.byte	0x8b
 2107 0900 03070000 		.4byte	0x703
 2108 0904 00000000 		.4byte	.LLST0
 2109 0908 27       		.uleb128 0x27
ARM GAS  /tmp/ccugrocP.s 			page 38


 2110 0909 63747000 		.ascii	"ctp\000"
 2111 090d 01       		.byte	0x1
 2112 090e 8C       		.byte	0x8c
 2113 090f 51020000 		.4byte	0x251
 2114 0913 51000000 		.4byte	.LLST1
 2115 0917 23       		.uleb128 0x23
 2116 0918 DB030000 		.4byte	.LASF115
 2117 091c 630A0000 		.4byte	0xa63
 2118 0920 28       		.uleb128 0x28
 2119 0921 00000000 		.4byte	.Ldebug_ranges0+0
 2120 0925 27       		.uleb128 0x27
 2121 0926 747000   		.ascii	"tp\000"
 2122 0929 01       		.byte	0x1
 2123 092a A1       		.byte	0xa1
 2124 092b 51020000 		.4byte	0x251
 2125 092f 7B000000 		.4byte	.LLST2
 2126 0933 29       		.uleb128 0x29
 2127 0934 A2070000 		.4byte	0x7a2
 2128 0938 24000000 		.4byte	.LBB106
 2129 093c 1C000000 		.4byte	.LBE106-.LBB106
 2130 0940 01       		.byte	0x1
 2131 0941 D4       		.byte	0xd4
 2132 0942 6C090000 		.4byte	0x96c
 2133 0946 2A       		.uleb128 0x2a
 2134 0947 BA070000 		.4byte	0x7ba
 2135 094b A4000000 		.4byte	.LLST3
 2136 094f 2A       		.uleb128 0x2a
 2137 0950 AF070000 		.4byte	0x7af
 2138 0954 D4000000 		.4byte	.LLST4
 2139 0958 2B       		.uleb128 0x2b
 2140 0959 24000000 		.4byte	.LBB107
 2141 095d 1C000000 		.4byte	.LBE107-.LBB107
 2142 0961 2C       		.uleb128 0x2c
 2143 0962 C6070000 		.4byte	0x7c6
 2144 0966 F3000000 		.4byte	.LLST5
 2145 096a 00       		.byte	0
 2146 096b 00       		.byte	0
 2147 096c 2D       		.uleb128 0x2d
 2148 096d 85070000 		.4byte	0x785
 2149 0971 4C000000 		.4byte	.LBB108
 2150 0975 18000000 		.4byte	.Ldebug_ranges0+0x18
 2151 0979 01       		.byte	0x1
 2152 097a CA       		.byte	0xca
 2153 097b 89090000 		.4byte	0x989
 2154 097f 2A       		.uleb128 0x2a
 2155 0980 96070000 		.4byte	0x796
 2156 0984 11010000 		.4byte	.LLST6
 2157 0988 00       		.byte	0
 2158 0989 2D       		.uleb128 0x2d
 2159 098a 85070000 		.4byte	0x785
 2160 098e 5E000000 		.4byte	.LBB112
 2161 0992 30000000 		.4byte	.Ldebug_ranges0+0x30
 2162 0996 01       		.byte	0x1
 2163 0997 C1       		.byte	0xc1
 2164 0998 A6090000 		.4byte	0x9a6
 2165 099c 2A       		.uleb128 0x2a
 2166 099d 96070000 		.4byte	0x796
ARM GAS  /tmp/ccugrocP.s 			page 39


 2167 09a1 24010000 		.4byte	.LLST7
 2168 09a5 00       		.byte	0
 2169 09a6 29       		.uleb128 0x29
 2170 09a7 A2070000 		.4byte	0x7a2
 2171 09ab 6A000000 		.4byte	.LBB116
 2172 09af 1C000000 		.4byte	.LBE116-.LBB116
 2173 09b3 01       		.byte	0x1
 2174 09b4 C1       		.byte	0xc1
 2175 09b5 DF090000 		.4byte	0x9df
 2176 09b9 2A       		.uleb128 0x2a
 2177 09ba BA070000 		.4byte	0x7ba
 2178 09be 37010000 		.4byte	.LLST8
 2179 09c2 2A       		.uleb128 0x2a
 2180 09c3 AF070000 		.4byte	0x7af
 2181 09c7 4A010000 		.4byte	.LLST9
 2182 09cb 2B       		.uleb128 0x2b
 2183 09cc 6A000000 		.4byte	.LBB117
 2184 09d0 1C000000 		.4byte	.LBE117-.LBB117
 2185 09d4 2C       		.uleb128 0x2c
 2186 09d5 C6070000 		.4byte	0x7c6
 2187 09d9 5D010000 		.4byte	.LLST10
 2188 09dd 00       		.byte	0
 2189 09de 00       		.byte	0
 2190 09df 2D       		.uleb128 0x2d
 2191 09e0 85070000 		.4byte	0x785
 2192 09e4 86000000 		.4byte	.LBB118
 2193 09e8 48000000 		.4byte	.Ldebug_ranges0+0x48
 2194 09ec 01       		.byte	0x1
 2195 09ed AD       		.byte	0xad
 2196 09ee FC090000 		.4byte	0x9fc
 2197 09f2 2A       		.uleb128 0x2a
 2198 09f3 96070000 		.4byte	0x796
 2199 09f7 7B010000 		.4byte	.LLST11
 2200 09fb 00       		.byte	0
 2201 09fc 29       		.uleb128 0x29
 2202 09fd A2070000 		.4byte	0x7a2
 2203 0a01 92000000 		.4byte	.LBB122
 2204 0a05 1A000000 		.4byte	.LBE122-.LBB122
 2205 0a09 01       		.byte	0x1
 2206 0a0a AD       		.byte	0xad
 2207 0a0b 350A0000 		.4byte	0xa35
 2208 0a0f 2A       		.uleb128 0x2a
 2209 0a10 BA070000 		.4byte	0x7ba
 2210 0a14 9A010000 		.4byte	.LLST12
 2211 0a18 2A       		.uleb128 0x2a
 2212 0a19 AF070000 		.4byte	0x7af
 2213 0a1d AD010000 		.4byte	.LLST13
 2214 0a21 2B       		.uleb128 0x2b
 2215 0a22 92000000 		.4byte	.LBB123
 2216 0a26 1A000000 		.4byte	.LBE123-.LBB123
 2217 0a2a 2C       		.uleb128 0x2c
 2218 0a2b C6070000 		.4byte	0x7c6
 2219 0a2f CC010000 		.4byte	.LLST14
 2220 0a33 00       		.byte	0
 2221 0a34 00       		.byte	0
 2222 0a35 2E       		.uleb128 0x2e
 2223 0a36 4C000000 		.4byte	.LVL9
ARM GAS  /tmp/ccugrocP.s 			page 40


 2224 0a3a B2100000 		.4byte	0x10b2
 2225 0a3e 480A0000 		.4byte	0xa48
 2226 0a42 2F       		.uleb128 0x2f
 2227 0a43 01       		.uleb128 0x1
 2228 0a44 50       		.byte	0x50
 2229 0a45 01       		.uleb128 0x1
 2230 0a46 36       		.byte	0x36
 2231 0a47 00       		.byte	0
 2232 0a48 30       		.uleb128 0x30
 2233 0a49 5C000000 		.4byte	.LVL10
 2234 0a4d C4100000 		.4byte	0x10c4
 2235 0a51 00       		.byte	0
 2236 0a52 00       		.byte	0
 2237 0a53 15       		.uleb128 0x15
 2238 0a54 D1060000 		.4byte	0x6d1
 2239 0a58 630A0000 		.4byte	0xa63
 2240 0a5c 16       		.uleb128 0x16
 2241 0a5d 64040000 		.4byte	0x464
 2242 0a61 0A       		.byte	0xa
 2243 0a62 00       		.byte	0
 2244 0a63 14       		.uleb128 0x14
 2245 0a64 530A0000 		.4byte	0xa53
 2246 0a68 21       		.uleb128 0x21
 2247 0a69 E8020000 		.4byte	.LASF121
 2248 0a6d 01       		.byte	0x1
 2249 0a6e 7B       		.byte	0x7b
 2250 0a6f 00000000 		.4byte	.LFB220
 2251 0a73 14000000 		.4byte	.LFE220-.LFB220
 2252 0a77 01       		.uleb128 0x1
 2253 0a78 9C       		.byte	0x9c
 2254 0a79 240B0000 		.4byte	0xb24
 2255 0a7d 26       		.uleb128 0x26
 2256 0a7e 6D7000   		.ascii	"mp\000"
 2257 0a81 01       		.byte	0x1
 2258 0a82 7B       		.byte	0x7b
 2259 0a83 03070000 		.4byte	0x703
 2260 0a87 EA010000 		.4byte	.LLST15
 2261 0a8b 29       		.uleb128 0x29
 2262 0a8c D2070000 		.4byte	0x7d2
 2263 0a90 02000000 		.4byte	.LBB125
 2264 0a94 06000000 		.4byte	.LBE125-.LBB125
 2265 0a98 01       		.byte	0x1
 2266 0a99 7D       		.byte	0x7d
 2267 0a9a C70A0000 		.4byte	0xac7
 2268 0a9e 31       		.uleb128 0x31
 2269 0a9f 23070000 		.4byte	0x723
 2270 0aa3 02000000 		.4byte	.LBB126
 2271 0aa7 06000000 		.4byte	.LBE126-.LBB126
 2272 0aab 0D       		.byte	0xd
 2273 0aac 5C01     		.2byte	0x15c
 2274 0aae 31       		.uleb128 0x31
 2275 0aaf 09070000 		.4byte	0x709
 2276 0ab3 02000000 		.4byte	.LBB127
 2277 0ab7 06000000 		.4byte	.LBE127-.LBB127
 2278 0abb 09       		.byte	0x9
 2279 0abc BF01     		.2byte	0x1bf
 2280 0abe 32       		.uleb128 0x32
ARM GAS  /tmp/ccugrocP.s 			page 41


 2281 0abf 16070000 		.4byte	0x716
 2282 0ac3 20       		.byte	0x20
 2283 0ac4 00       		.byte	0
 2284 0ac5 00       		.byte	0
 2285 0ac6 00       		.byte	0
 2286 0ac7 29       		.uleb128 0x29
 2287 0ac8 DB070000 		.4byte	0x7db
 2288 0acc 0C000000 		.4byte	.LBB129
 2289 0ad0 08000000 		.4byte	.LBE129-.LBB129
 2290 0ad4 01       		.byte	0x1
 2291 0ad5 7F       		.byte	0x7f
 2292 0ad6 120B0000 		.4byte	0xb12
 2293 0ada 2B       		.uleb128 0x2b
 2294 0adb 0C000000 		.4byte	.LBB130
 2295 0adf 08000000 		.4byte	.LBE130-.LBB130
 2296 0ae3 33       		.uleb128 0x33
 2297 0ae4 E8070000 		.4byte	0x7e8
 2298 0ae8 31       		.uleb128 0x31
 2299 0ae9 2C070000 		.4byte	0x72c
 2300 0aed 0C000000 		.4byte	.LBB131
 2301 0af1 08000000 		.4byte	.LBE131-.LBB131
 2302 0af5 0D       		.byte	0xd
 2303 0af6 7301     		.2byte	0x173
 2304 0af8 31       		.uleb128 0x31
 2305 0af9 09070000 		.4byte	0x709
 2306 0afd 0C000000 		.4byte	.LBB132
 2307 0b01 08000000 		.4byte	.LBE132-.LBB132
 2308 0b05 09       		.byte	0x9
 2309 0b06 CD01     		.2byte	0x1cd
 2310 0b08 32       		.uleb128 0x32
 2311 0b09 16070000 		.4byte	0x716
 2312 0b0d 00       		.byte	0
 2313 0b0e 00       		.byte	0
 2314 0b0f 00       		.byte	0
 2315 0b10 00       		.byte	0
 2316 0b11 00       		.byte	0
 2317 0b12 34       		.uleb128 0x34
 2318 0b13 0C000000 		.4byte	.LVL24
 2319 0b17 E5080000 		.4byte	0x8e5
 2320 0b1b 2F       		.uleb128 0x2f
 2321 0b1c 01       		.uleb128 0x1
 2322 0b1d 50       		.byte	0x50
 2323 0b1e 03       		.uleb128 0x3
 2324 0b1f F3       		.byte	0xf3
 2325 0b20 01       		.uleb128 0x1
 2326 0b21 50       		.byte	0x50
 2327 0b22 00       		.byte	0
 2328 0b23 00       		.byte	0
 2329 0b24 35       		.uleb128 0x35
 2330 0b25 6C020000 		.4byte	.LASF131
 2331 0b29 01       		.byte	0x1
 2332 0b2a FF       		.byte	0xff
 2333 0b2b 53070000 		.4byte	0x753
 2334 0b2f 00000000 		.4byte	.LFB222
 2335 0b33 30000000 		.4byte	.LFE222-.LFB222
 2336 0b37 01       		.uleb128 0x1
 2337 0b38 9C       		.byte	0x9c
ARM GAS  /tmp/ccugrocP.s 			page 42


 2338 0b39 250C0000 		.4byte	0xc25
 2339 0b3d 26       		.uleb128 0x26
 2340 0b3e 6D7000   		.ascii	"mp\000"
 2341 0b41 01       		.byte	0x1
 2342 0b42 FF       		.byte	0xff
 2343 0b43 03070000 		.4byte	0x703
 2344 0b47 0B020000 		.4byte	.LLST16
 2345 0b4b 1C       		.uleb128 0x1c
 2346 0b4c 6200     		.ascii	"b\000"
 2347 0b4e 01       		.byte	0x1
 2348 0b4f 0001     		.2byte	0x100
 2349 0b51 53070000 		.4byte	0x753
 2350 0b55 36       		.uleb128 0x36
 2351 0b56 D2070000 		.4byte	0x7d2
 2352 0b5a 02000000 		.4byte	.LBB147
 2353 0b5e 06000000 		.4byte	.LBE147-.LBB147
 2354 0b62 01       		.byte	0x1
 2355 0b63 0201     		.2byte	0x102
 2356 0b65 920B0000 		.4byte	0xb92
 2357 0b69 31       		.uleb128 0x31
 2358 0b6a 23070000 		.4byte	0x723
 2359 0b6e 02000000 		.4byte	.LBB148
 2360 0b72 06000000 		.4byte	.LBE148-.LBB148
 2361 0b76 0D       		.byte	0xd
 2362 0b77 5C01     		.2byte	0x15c
 2363 0b79 31       		.uleb128 0x31
 2364 0b7a 09070000 		.4byte	0x709
 2365 0b7e 02000000 		.4byte	.LBB149
 2366 0b82 06000000 		.4byte	.LBE149-.LBB149
 2367 0b86 09       		.byte	0x9
 2368 0b87 BF01     		.2byte	0x1bf
 2369 0b89 32       		.uleb128 0x32
 2370 0b8a 16070000 		.4byte	0x716
 2371 0b8e 20       		.byte	0x20
 2372 0b8f 00       		.byte	0
 2373 0b90 00       		.byte	0
 2374 0b91 00       		.byte	0
 2375 0b92 37       		.uleb128 0x37
 2376 0b93 0B080000 		.4byte	0x80b
 2377 0b97 08000000 		.4byte	.LBB151
 2378 0b9b 60000000 		.4byte	.Ldebug_ranges0+0x60
 2379 0b9f 01       		.byte	0x1
 2380 0ba0 0301     		.2byte	0x103
 2381 0ba2 DD0B0000 		.4byte	0xbdd
 2382 0ba6 2A       		.uleb128 0x2a
 2383 0ba7 1C080000 		.4byte	0x81c
 2384 0bab 4E020000 		.4byte	.LLST17
 2385 0baf 28       		.uleb128 0x28
 2386 0bb0 60000000 		.4byte	.Ldebug_ranges0+0x60
 2387 0bb4 33       		.uleb128 0x33
 2388 0bb5 27080000 		.4byte	0x827
 2389 0bb9 2B       		.uleb128 0x2b
 2390 0bba 16000000 		.4byte	.LBB153
 2391 0bbe 0E000000 		.4byte	.LBE153-.LBB153
 2392 0bc2 2A       		.uleb128 0x2a
 2393 0bc3 1C080000 		.4byte	0x81c
 2394 0bc7 91020000 		.4byte	.LLST18
ARM GAS  /tmp/ccugrocP.s 			page 43


 2395 0bcb 2B       		.uleb128 0x2b
 2396 0bcc 16000000 		.4byte	.LBB154
 2397 0bd0 0E000000 		.4byte	.LBE154-.LBB154
 2398 0bd4 33       		.uleb128 0x33
 2399 0bd5 27080000 		.4byte	0x827
 2400 0bd9 00       		.byte	0
 2401 0bda 00       		.byte	0
 2402 0bdb 00       		.byte	0
 2403 0bdc 00       		.byte	0
 2404 0bdd 38       		.uleb128 0x38
 2405 0bde DB070000 		.4byte	0x7db
 2406 0be2 0E000000 		.4byte	.LBB156
 2407 0be6 78000000 		.4byte	.Ldebug_ranges0+0x78
 2408 0bea 01       		.byte	0x1
 2409 0beb 0401     		.2byte	0x104
 2410 0bed 28       		.uleb128 0x28
 2411 0bee 78000000 		.4byte	.Ldebug_ranges0+0x78
 2412 0bf2 33       		.uleb128 0x33
 2413 0bf3 E8070000 		.4byte	0x7e8
 2414 0bf7 38       		.uleb128 0x38
 2415 0bf8 2C070000 		.4byte	0x72c
 2416 0bfc 0E000000 		.4byte	.LBB158
 2417 0c00 78000000 		.4byte	.Ldebug_ranges0+0x78
 2418 0c04 0D       		.byte	0xd
 2419 0c05 7301     		.2byte	0x173
 2420 0c07 38       		.uleb128 0x38
 2421 0c08 09070000 		.4byte	0x709
 2422 0c0c 0E000000 		.4byte	.LBB159
 2423 0c10 78000000 		.4byte	.Ldebug_ranges0+0x78
 2424 0c14 09       		.byte	0x9
 2425 0c15 CD01     		.2byte	0x1cd
 2426 0c17 2A       		.uleb128 0x2a
 2427 0c18 16070000 		.4byte	0x716
 2428 0c1c B0020000 		.4byte	.LLST19
 2429 0c20 00       		.byte	0
 2430 0c21 00       		.byte	0
 2431 0c22 00       		.byte	0
 2432 0c23 00       		.byte	0
 2433 0c24 00       		.byte	0
 2434 0c25 39       		.uleb128 0x39
 2435 0c26 0B080000 		.4byte	0x80b
 2436 0c2a 00000000 		.4byte	.LFB223
 2437 0c2e 20000000 		.4byte	.LFE223-.LFB223
 2438 0c32 01       		.uleb128 0x1
 2439 0c33 9C       		.byte	0x9c
 2440 0c34 690C0000 		.4byte	0xc69
 2441 0c38 2A       		.uleb128 0x2a
 2442 0c39 1C080000 		.4byte	0x81c
 2443 0c3d D0020000 		.4byte	.LLST20
 2444 0c41 33       		.uleb128 0x33
 2445 0c42 27080000 		.4byte	0x827
 2446 0c46 2B       		.uleb128 0x2b
 2447 0c47 0A000000 		.4byte	.LBB169
 2448 0c4b 16000000 		.4byte	.LBE169-.LBB169
 2449 0c4f 2A       		.uleb128 0x2a
 2450 0c50 1C080000 		.4byte	0x81c
 2451 0c54 04030000 		.4byte	.LLST21
ARM GAS  /tmp/ccugrocP.s 			page 44


 2452 0c58 2B       		.uleb128 0x2b
 2453 0c59 0A000000 		.4byte	.LBB170
 2454 0c5d 16000000 		.4byte	.LBE170-.LBB170
 2455 0c61 33       		.uleb128 0x33
 2456 0c62 27080000 		.4byte	0x827
 2457 0c66 00       		.byte	0
 2458 0c67 00       		.byte	0
 2459 0c68 00       		.byte	0
 2460 0c69 3A       		.uleb128 0x3a
 2461 0c6a CB000000 		.4byte	.LASF122
 2462 0c6e 01       		.byte	0x1
 2463 0c6f 4301     		.2byte	0x143
 2464 0c71 00000000 		.4byte	.LFB224
 2465 0c75 64000000 		.4byte	.LFE224-.LFB224
 2466 0c79 01       		.uleb128 0x1
 2467 0c7a 9C       		.byte	0x9c
 2468 0c7b 1D0E0000 		.4byte	0xe1d
 2469 0c7f 3B       		.uleb128 0x3b
 2470 0c80 6D7000   		.ascii	"mp\000"
 2471 0c83 01       		.byte	0x1
 2472 0c84 4301     		.2byte	0x143
 2473 0c86 03070000 		.4byte	0x703
 2474 0c8a 22030000 		.4byte	.LLST22
 2475 0c8e 3C       		.uleb128 0x3c
 2476 0c8f 63747000 		.ascii	"ctp\000"
 2477 0c93 01       		.byte	0x1
 2478 0c94 4401     		.2byte	0x144
 2479 0c96 51020000 		.4byte	0x251
 2480 0c9a 59030000 		.4byte	.LLST23
 2481 0c9e 3C       		.uleb128 0x3c
 2482 0c9f 6C6D7000 		.ascii	"lmp\000"
 2483 0ca3 01       		.byte	0x1
 2484 0ca4 4501     		.2byte	0x145
 2485 0ca6 03070000 		.4byte	0x703
 2486 0caa 6C030000 		.4byte	.LLST24
 2487 0cae 23       		.uleb128 0x23
 2488 0caf DB030000 		.4byte	.LASF115
 2489 0cb3 1D0E0000 		.4byte	0xe1d
 2490 0cb7 36       		.uleb128 0x36
 2491 0cb8 D2070000 		.4byte	0x7d2
 2492 0cbc 06000000 		.4byte	.LBB171
 2493 0cc0 06000000 		.4byte	.LBE171-.LBB171
 2494 0cc4 01       		.byte	0x1
 2495 0cc5 4901     		.2byte	0x149
 2496 0cc7 F40C0000 		.4byte	0xcf4
 2497 0ccb 31       		.uleb128 0x31
 2498 0ccc 23070000 		.4byte	0x723
 2499 0cd0 06000000 		.4byte	.LBB172
 2500 0cd4 06000000 		.4byte	.LBE172-.LBB172
 2501 0cd8 0D       		.byte	0xd
 2502 0cd9 5C01     		.2byte	0x15c
 2503 0cdb 31       		.uleb128 0x31
 2504 0cdc 09070000 		.4byte	0x709
 2505 0ce0 06000000 		.4byte	.LBB173
 2506 0ce4 06000000 		.4byte	.LBE173-.LBB173
 2507 0ce8 09       		.byte	0x9
 2508 0ce9 BF01     		.2byte	0x1bf
ARM GAS  /tmp/ccugrocP.s 			page 45


 2509 0ceb 32       		.uleb128 0x32
 2510 0cec 16070000 		.4byte	0x716
 2511 0cf0 20       		.byte	0x20
 2512 0cf1 00       		.byte	0
 2513 0cf2 00       		.byte	0
 2514 0cf3 00       		.byte	0
 2515 0cf4 36       		.uleb128 0x36
 2516 0cf5 4A080000 		.4byte	0x84a
 2517 0cf9 0C000000 		.4byte	.LBB175
 2518 0cfd 02000000 		.4byte	.LBE175-.LBB175
 2519 0d01 01       		.byte	0x1
 2520 0d02 5B01     		.2byte	0x15b
 2521 0d04 2B0D0000 		.4byte	0xd2b
 2522 0d08 2A       		.uleb128 0x2a
 2523 0d09 5A080000 		.4byte	0x85a
 2524 0d0d 7F030000 		.4byte	.LLST25
 2525 0d11 24       		.uleb128 0x24
 2526 0d12 35070000 		.4byte	0x735
 2527 0d16 0C000000 		.4byte	.LBB177
 2528 0d1a 02000000 		.4byte	.LBE177-.LBB177
 2529 0d1e 0C       		.byte	0xc
 2530 0d1f 85       		.byte	0x85
 2531 0d20 2A       		.uleb128 0x2a
 2532 0d21 46070000 		.4byte	0x746
 2533 0d25 7F030000 		.4byte	.LLST25
 2534 0d29 00       		.byte	0
 2535 0d2a 00       		.byte	0
 2536 0d2b 3D       		.uleb128 0x3d
 2537 0d2c 16000000 		.4byte	.LBB179
 2538 0d30 34000000 		.4byte	.LBE179-.LBB179
 2539 0d34 D50D0000 		.4byte	0xdd5
 2540 0d38 1C       		.uleb128 0x1c
 2541 0d39 747000   		.ascii	"tp\000"
 2542 0d3c 01       		.byte	0x1
 2543 0d3d 5C01     		.2byte	0x15c
 2544 0d3f 51020000 		.4byte	0x251
 2545 0d43 3E       		.uleb128 0x3e
 2546 0d44 42020000 		.4byte	.LASF123
 2547 0d48 01       		.byte	0x1
 2548 0d49 6001     		.2byte	0x160
 2549 0d4b FF000000 		.4byte	0xff
 2550 0d4f B6030000 		.4byte	.LLST27
 2551 0d53 36       		.uleb128 0x36
 2552 0d54 4A080000 		.4byte	0x84a
 2553 0d58 1A000000 		.4byte	.LBB180
 2554 0d5c 02000000 		.4byte	.LBE180-.LBB180
 2555 0d60 01       		.byte	0x1
 2556 0d61 6601     		.2byte	0x166
 2557 0d63 8A0D0000 		.4byte	0xd8a
 2558 0d67 2A       		.uleb128 0x2a
 2559 0d68 5A080000 		.4byte	0x85a
 2560 0d6c C9030000 		.4byte	.LLST28
 2561 0d70 24       		.uleb128 0x24
 2562 0d71 35070000 		.4byte	0x735
 2563 0d75 1A000000 		.4byte	.LBB182
 2564 0d79 02000000 		.4byte	.LBE182-.LBB182
 2565 0d7d 0C       		.byte	0xc
ARM GAS  /tmp/ccugrocP.s 			page 46


 2566 0d7e 85       		.byte	0x85
 2567 0d7f 2A       		.uleb128 0x2a
 2568 0d80 46070000 		.4byte	0x746
 2569 0d84 C9030000 		.4byte	.LLST28
 2570 0d88 00       		.byte	0
 2571 0d89 00       		.byte	0
 2572 0d8a 37       		.uleb128 0x37
 2573 0d8b 65080000 		.4byte	0x865
 2574 0d8f 30000000 		.4byte	.LBB184
 2575 0d93 90000000 		.4byte	.Ldebug_ranges0+0x90
 2576 0d97 01       		.byte	0x1
 2577 0d98 7601     		.2byte	0x176
 2578 0d9a B70D0000 		.4byte	0xdb7
 2579 0d9e 2A       		.uleb128 0x2a
 2580 0d9f 76080000 		.4byte	0x876
 2581 0da3 DC030000 		.4byte	.LLST30
 2582 0da7 28       		.uleb128 0x28
 2583 0da8 90000000 		.4byte	.Ldebug_ranges0+0x90
 2584 0dac 2C       		.uleb128 0x2c
 2585 0dad 82080000 		.4byte	0x882
 2586 0db1 FD030000 		.4byte	.LLST31
 2587 0db5 00       		.byte	0
 2588 0db6 00       		.byte	0
 2589 0db7 3F       		.uleb128 0x3f
 2590 0db8 46000000 		.4byte	.LVL47
 2591 0dbc C4100000 		.4byte	0x10c4
 2592 0dc0 CB0D0000 		.4byte	0xdcb
 2593 0dc4 2F       		.uleb128 0x2f
 2594 0dc5 01       		.uleb128 0x1
 2595 0dc6 50       		.byte	0x50
 2596 0dc7 02       		.uleb128 0x2
 2597 0dc8 74       		.byte	0x74
 2598 0dc9 00       		.sleb128 0
 2599 0dca 00       		.byte	0
 2600 0dcb 30       		.uleb128 0x30
 2601 0dcc 4A000000 		.4byte	.LVL48
 2602 0dd0 DA100000 		.4byte	0x10da
 2603 0dd4 00       		.byte	0
 2604 0dd5 38       		.uleb128 0x38
 2605 0dd6 DB070000 		.4byte	0x7db
 2606 0dda 4A000000 		.4byte	.LBB188
 2607 0dde A8000000 		.4byte	.Ldebug_ranges0+0xa8
 2608 0de2 01       		.byte	0x1
 2609 0de3 8901     		.2byte	0x189
 2610 0de5 28       		.uleb128 0x28
 2611 0de6 A8000000 		.4byte	.Ldebug_ranges0+0xa8
 2612 0dea 33       		.uleb128 0x33
 2613 0deb E8070000 		.4byte	0x7e8
 2614 0def 38       		.uleb128 0x38
 2615 0df0 2C070000 		.4byte	0x72c
 2616 0df4 4A000000 		.4byte	.LBB190
 2617 0df8 A8000000 		.4byte	.Ldebug_ranges0+0xa8
 2618 0dfc 0D       		.byte	0xd
 2619 0dfd 7301     		.2byte	0x173
 2620 0dff 38       		.uleb128 0x38
 2621 0e00 09070000 		.4byte	0x709
 2622 0e04 4A000000 		.4byte	.LBB191
ARM GAS  /tmp/ccugrocP.s 			page 47


 2623 0e08 A8000000 		.4byte	.Ldebug_ranges0+0xa8
 2624 0e0c 09       		.byte	0x9
 2625 0e0d CD01     		.2byte	0x1cd
 2626 0e0f 2A       		.uleb128 0x2a
 2627 0e10 16070000 		.4byte	0x716
 2628 0e14 10040000 		.4byte	.LLST32
 2629 0e18 00       		.byte	0
 2630 0e19 00       		.byte	0
 2631 0e1a 00       		.byte	0
 2632 0e1b 00       		.byte	0
 2633 0e1c 00       		.byte	0
 2634 0e1d 14       		.uleb128 0x14
 2635 0e1e F6070000 		.4byte	0x7f6
 2636 0e22 3A       		.uleb128 0x3a
 2637 0e23 BA010000 		.4byte	.LASF124
 2638 0e27 01       		.byte	0x1
 2639 0e28 9A01     		.2byte	0x19a
 2640 0e2a 00000000 		.4byte	.LFB225
 2641 0e2e 50000000 		.4byte	.LFE225-.LFB225
 2642 0e32 01       		.uleb128 0x1
 2643 0e33 9C       		.byte	0x9c
 2644 0e34 360F0000 		.4byte	0xf36
 2645 0e38 3B       		.uleb128 0x3b
 2646 0e39 6D7000   		.ascii	"mp\000"
 2647 0e3c 01       		.byte	0x1
 2648 0e3d 9A01     		.2byte	0x19a
 2649 0e3f 03070000 		.4byte	0x703
 2650 0e43 30040000 		.4byte	.LLST33
 2651 0e47 3C       		.uleb128 0x3c
 2652 0e48 63747000 		.ascii	"ctp\000"
 2653 0e4c 01       		.byte	0x1
 2654 0e4d 9B01     		.2byte	0x19b
 2655 0e4f 51020000 		.4byte	0x251
 2656 0e53 81040000 		.4byte	.LLST34
 2657 0e57 3C       		.uleb128 0x3c
 2658 0e58 6C6D7000 		.ascii	"lmp\000"
 2659 0e5c 01       		.byte	0x1
 2660 0e5d 9C01     		.2byte	0x19c
 2661 0e5f 03070000 		.4byte	0x703
 2662 0e63 9F040000 		.4byte	.LLST35
 2663 0e67 23       		.uleb128 0x23
 2664 0e68 DB030000 		.4byte	.LASF115
 2665 0e6c 460F0000 		.4byte	0xf46
 2666 0e70 36       		.uleb128 0x36
 2667 0e71 4A080000 		.4byte	0x84a
 2668 0e75 06000000 		.4byte	.LBB198
 2669 0e79 02000000 		.4byte	.LBE198-.LBB198
 2670 0e7d 01       		.byte	0x1
 2671 0e7e B101     		.2byte	0x1b1
 2672 0e80 A70E0000 		.4byte	0xea7
 2673 0e84 2A       		.uleb128 0x2a
 2674 0e85 5A080000 		.4byte	0x85a
 2675 0e89 B2040000 		.4byte	.LLST36
 2676 0e8d 24       		.uleb128 0x24
 2677 0e8e 35070000 		.4byte	0x735
 2678 0e92 06000000 		.4byte	.LBB200
 2679 0e96 02000000 		.4byte	.LBE200-.LBB200
ARM GAS  /tmp/ccugrocP.s 			page 48


 2680 0e9a 0C       		.byte	0xc
 2681 0e9b 85       		.byte	0x85
 2682 0e9c 2A       		.uleb128 0x2a
 2683 0e9d 46070000 		.4byte	0x746
 2684 0ea1 B2040000 		.4byte	.LLST36
 2685 0ea5 00       		.byte	0
 2686 0ea6 00       		.byte	0
 2687 0ea7 28       		.uleb128 0x28
 2688 0ea8 C0000000 		.4byte	.Ldebug_ranges0+0xc0
 2689 0eac 1C       		.uleb128 0x1c
 2690 0ead 747000   		.ascii	"tp\000"
 2691 0eb0 01       		.byte	0x1
 2692 0eb1 B201     		.2byte	0x1b2
 2693 0eb3 51020000 		.4byte	0x251
 2694 0eb7 3E       		.uleb128 0x3e
 2695 0eb8 42020000 		.4byte	.LASF123
 2696 0ebc 01       		.byte	0x1
 2697 0ebd B601     		.2byte	0x1b6
 2698 0ebf FF000000 		.4byte	0xff
 2699 0ec3 F8040000 		.4byte	.LLST38
 2700 0ec7 36       		.uleb128 0x36
 2701 0ec8 4A080000 		.4byte	0x84a
 2702 0ecc 16000000 		.4byte	.LBB203
 2703 0ed0 02000000 		.4byte	.LBE203-.LBB203
 2704 0ed4 01       		.byte	0x1
 2705 0ed5 BC01     		.2byte	0x1bc
 2706 0ed7 FE0E0000 		.4byte	0xefe
 2707 0edb 2A       		.uleb128 0x2a
 2708 0edc 5A080000 		.4byte	0x85a
 2709 0ee0 0B050000 		.4byte	.LLST39
 2710 0ee4 24       		.uleb128 0x24
 2711 0ee5 35070000 		.4byte	0x735
 2712 0ee9 16000000 		.4byte	.LBB205
 2713 0eed 02000000 		.4byte	.LBE205-.LBB205
 2714 0ef1 0C       		.byte	0xc
 2715 0ef2 85       		.byte	0x85
 2716 0ef3 2A       		.uleb128 0x2a
 2717 0ef4 46070000 		.4byte	0x746
 2718 0ef8 0B050000 		.4byte	.LLST39
 2719 0efc 00       		.byte	0
 2720 0efd 00       		.byte	0
 2721 0efe 37       		.uleb128 0x37
 2722 0eff 65080000 		.4byte	0x865
 2723 0f03 2A000000 		.4byte	.LBB207
 2724 0f07 D8000000 		.4byte	.Ldebug_ranges0+0xd8
 2725 0f0b 01       		.byte	0x1
 2726 0f0c CC01     		.2byte	0x1cc
 2727 0f0e 2B0F0000 		.4byte	0xf2b
 2728 0f12 2A       		.uleb128 0x2a
 2729 0f13 76080000 		.4byte	0x876
 2730 0f17 1E050000 		.4byte	.LLST41
 2731 0f1b 28       		.uleb128 0x28
 2732 0f1c D8000000 		.4byte	.Ldebug_ranges0+0xd8
 2733 0f20 2C       		.uleb128 0x2c
 2734 0f21 82080000 		.4byte	0x882
 2735 0f25 4B050000 		.4byte	.LLST42
 2736 0f29 00       		.byte	0
ARM GAS  /tmp/ccugrocP.s 			page 49


 2737 0f2a 00       		.byte	0
 2738 0f2b 40       		.uleb128 0x40
 2739 0f2c 42000000 		.4byte	.LVL63
 2740 0f30 C4100000 		.4byte	0x10c4
 2741 0f34 00       		.byte	0
 2742 0f35 00       		.byte	0
 2743 0f36 15       		.uleb128 0x15
 2744 0f37 D1060000 		.4byte	0x6d1
 2745 0f3b 460F0000 		.4byte	0xf46
 2746 0f3f 16       		.uleb128 0x16
 2747 0f40 64040000 		.4byte	0x464
 2748 0f44 0C       		.byte	0xc
 2749 0f45 00       		.byte	0
 2750 0f46 14       		.uleb128 0x14
 2751 0f47 360F0000 		.4byte	0xf36
 2752 0f4b 3A       		.uleb128 0x3a
 2753 0f4c 33020000 		.4byte	.LASF125
 2754 0f50 01       		.byte	0x1
 2755 0f51 E501     		.2byte	0x1e5
 2756 0f53 00000000 		.4byte	.LFB226
 2757 0f57 54000000 		.4byte	.LFE226-.LFB226
 2758 0f5b 01       		.uleb128 0x1
 2759 0f5c 9C       		.byte	0x9c
 2760 0f5d 9B100000 		.4byte	0x109b
 2761 0f61 3C       		.uleb128 0x3c
 2762 0f62 63747000 		.ascii	"ctp\000"
 2763 0f66 01       		.byte	0x1
 2764 0f67 E601     		.2byte	0x1e6
 2765 0f69 51020000 		.4byte	0x251
 2766 0f6d 69050000 		.4byte	.LLST43
 2767 0f71 37       		.uleb128 0x37
 2768 0f72 D2070000 		.4byte	0x7d2
 2769 0f76 04000000 		.4byte	.LBB214
 2770 0f7a F8000000 		.4byte	.Ldebug_ranges0+0xf8
 2771 0f7e 01       		.byte	0x1
 2772 0f7f E801     		.2byte	0x1e8
 2773 0f81 AE0F0000 		.4byte	0xfae
 2774 0f85 38       		.uleb128 0x38
 2775 0f86 23070000 		.4byte	0x723
 2776 0f8a 04000000 		.4byte	.LBB215
 2777 0f8e F8000000 		.4byte	.Ldebug_ranges0+0xf8
 2778 0f92 0D       		.byte	0xd
 2779 0f93 5C01     		.2byte	0x15c
 2780 0f95 38       		.uleb128 0x38
 2781 0f96 09070000 		.4byte	0x709
 2782 0f9a 04000000 		.4byte	.LBB216
 2783 0f9e F8000000 		.4byte	.Ldebug_ranges0+0xf8
 2784 0fa2 09       		.byte	0x9
 2785 0fa3 BF01     		.2byte	0x1bf
 2786 0fa5 32       		.uleb128 0x32
 2787 0fa6 16070000 		.4byte	0x716
 2788 0faa 20       		.byte	0x20
 2789 0fab 00       		.byte	0
 2790 0fac 00       		.byte	0
 2791 0fad 00       		.byte	0
 2792 0fae 41       		.uleb128 0x41
 2793 0faf 10010000 		.4byte	.Ldebug_ranges0+0x110
ARM GAS  /tmp/ccugrocP.s 			page 50


 2794 0fb3 45100000 		.4byte	0x1045
 2795 0fb7 3C       		.uleb128 0x3c
 2796 0fb8 6D7000   		.ascii	"mp\000"
 2797 0fbb 01       		.byte	0x1
 2798 0fbc EB01     		.2byte	0x1eb
 2799 0fbe 03070000 		.4byte	0x703
 2800 0fc2 7C050000 		.4byte	.LLST44
 2801 0fc6 41       		.uleb128 0x41
 2802 0fc7 28010000 		.4byte	.Ldebug_ranges0+0x128
 2803 0fcb 11100000 		.4byte	0x1011
 2804 0fcf 1C       		.uleb128 0x1c
 2805 0fd0 747000   		.ascii	"tp\000"
 2806 0fd3 01       		.byte	0x1
 2807 0fd4 F101     		.2byte	0x1f1
 2808 0fd6 51020000 		.4byte	0x251
 2809 0fda 37       		.uleb128 0x37
 2810 0fdb 65080000 		.4byte	0x865
 2811 0fdf 14000000 		.4byte	.LBB224
 2812 0fe3 40010000 		.4byte	.Ldebug_ranges0+0x140
 2813 0fe7 01       		.byte	0x1
 2814 0fe8 F101     		.2byte	0x1f1
 2815 0fea 07100000 		.4byte	0x1007
 2816 0fee 2A       		.uleb128 0x2a
 2817 0fef 76080000 		.4byte	0x876
 2818 0ff3 7C050000 		.4byte	.LLST44
 2819 0ff7 28       		.uleb128 0x28
 2820 0ff8 40010000 		.4byte	.Ldebug_ranges0+0x140
 2821 0ffc 2C       		.uleb128 0x2c
 2822 0ffd 82080000 		.4byte	0x882
 2823 1001 9A050000 		.4byte	.LLST46
 2824 1005 00       		.byte	0
 2825 1006 00       		.byte	0
 2826 1007 30       		.uleb128 0x30
 2827 1008 26000000 		.4byte	.LVL67
 2828 100c C4100000 		.4byte	0x10c4
 2829 1010 00       		.byte	0
 2830 1011 31       		.uleb128 0x31
 2831 1012 4A080000 		.4byte	0x84a
 2832 1016 2A000000 		.4byte	.LBB228
 2833 101a 02000000 		.4byte	.LBE228-.LBB228
 2834 101e 01       		.byte	0x1
 2835 101f ED01     		.2byte	0x1ed
 2836 1021 2A       		.uleb128 0x2a
 2837 1022 5A080000 		.4byte	0x85a
 2838 1026 B8050000 		.4byte	.LLST47
 2839 102a 24       		.uleb128 0x24
 2840 102b 35070000 		.4byte	0x735
 2841 102f 2A000000 		.4byte	.LBB230
 2842 1033 02000000 		.4byte	.LBE230-.LBB230
 2843 1037 0C       		.byte	0xc
 2844 1038 85       		.byte	0x85
 2845 1039 2A       		.uleb128 0x2a
 2846 103a 46070000 		.4byte	0x746
 2847 103e B8050000 		.4byte	.LLST47
 2848 1042 00       		.byte	0
 2849 1043 00       		.byte	0
 2850 1044 00       		.byte	0
ARM GAS  /tmp/ccugrocP.s 			page 51


 2851 1045 36       		.uleb128 0x36
 2852 1046 DB070000 		.4byte	0x7db
 2853 104a 46000000 		.4byte	.LBB234
 2854 104e 0E000000 		.4byte	.LBE234-.LBB234
 2855 1052 01       		.byte	0x1
 2856 1053 0102     		.2byte	0x201
 2857 1055 91100000 		.4byte	0x1091
 2858 1059 2B       		.uleb128 0x2b
 2859 105a 46000000 		.4byte	.LBB235
 2860 105e 0E000000 		.4byte	.LBE235-.LBB235
 2861 1062 33       		.uleb128 0x33
 2862 1063 E8070000 		.4byte	0x7e8
 2863 1067 31       		.uleb128 0x31
 2864 1068 2C070000 		.4byte	0x72c
 2865 106c 46000000 		.4byte	.LBB236
 2866 1070 0E000000 		.4byte	.LBE236-.LBB236
 2867 1074 0D       		.byte	0xd
 2868 1075 7301     		.2byte	0x173
 2869 1077 31       		.uleb128 0x31
 2870 1078 09070000 		.4byte	0x709
 2871 107c 46000000 		.4byte	.LBB237
 2872 1080 0E000000 		.4byte	.LBE237-.LBB237
 2873 1084 09       		.byte	0x9
 2874 1085 CD01     		.2byte	0x1cd
 2875 1087 32       		.uleb128 0x32
 2876 1088 16070000 		.4byte	0x716
 2877 108c 00       		.byte	0
 2878 108d 00       		.byte	0
 2879 108e 00       		.byte	0
 2880 108f 00       		.byte	0
 2881 1090 00       		.byte	0
 2882 1091 30       		.uleb128 0x30
 2883 1092 46000000 		.4byte	.LVL73
 2884 1096 DA100000 		.4byte	0x10da
 2885 109a 00       		.byte	0
 2886 109b 42       		.uleb128 0x42
 2887 109c 9E000000 		.4byte	.LASF126
 2888 10a0 0E       		.byte	0xe
 2889 10a1 A706     		.2byte	0x6a7
 2890 10a3 C3000000 		.4byte	0xc3
 2891 10a7 43       		.uleb128 0x43
 2892 10a8 636800   		.ascii	"ch\000"
 2893 10ab 02       		.byte	0x2
 2894 10ac 0902     		.2byte	0x209
 2895 10ae FD030000 		.4byte	0x3fd
 2896 10b2 44       		.uleb128 0x44
 2897 10b3 3D040000 		.4byte	.LASF132
 2898 10b7 02       		.byte	0x2
 2899 10b8 1402     		.2byte	0x214
 2900 10ba C4100000 		.4byte	0x10c4
 2901 10be 0D       		.uleb128 0xd
 2902 10bf DE000000 		.4byte	0xde
 2903 10c3 00       		.byte	0
 2904 10c4 45       		.uleb128 0x45
 2905 10c5 6E040000 		.4byte	.LASF127
 2906 10c9 02       		.byte	0x2
 2907 10ca 1302     		.2byte	0x213
ARM GAS  /tmp/ccugrocP.s 			page 52


 2908 10cc 51020000 		.4byte	0x251
 2909 10d0 DA100000 		.4byte	0x10da
 2910 10d4 0D       		.uleb128 0xd
 2911 10d5 51020000 		.4byte	0x251
 2912 10d9 00       		.byte	0
 2913 10da 46       		.uleb128 0x46
 2914 10db 67010000 		.4byte	.LASF133
 2915 10df 02       		.byte	0x2
 2916 10e0 1702     		.2byte	0x217
 2917 10e2 00       		.byte	0
 2918              		.section	.debug_abbrev,"",%progbits
 2919              	.Ldebug_abbrev0:
 2920 0000 01       		.uleb128 0x1
 2921 0001 11       		.uleb128 0x11
 2922 0002 01       		.byte	0x1
 2923 0003 25       		.uleb128 0x25
 2924 0004 0E       		.uleb128 0xe
 2925 0005 13       		.uleb128 0x13
 2926 0006 0B       		.uleb128 0xb
 2927 0007 03       		.uleb128 0x3
 2928 0008 0E       		.uleb128 0xe
 2929 0009 1B       		.uleb128 0x1b
 2930 000a 0E       		.uleb128 0xe
 2931 000b 55       		.uleb128 0x55
 2932 000c 17       		.uleb128 0x17
 2933 000d 11       		.uleb128 0x11
 2934 000e 01       		.uleb128 0x1
 2935 000f 10       		.uleb128 0x10
 2936 0010 17       		.uleb128 0x17
 2937 0011 00       		.byte	0
 2938 0012 00       		.byte	0
 2939 0013 02       		.uleb128 0x2
 2940 0014 24       		.uleb128 0x24
 2941 0015 00       		.byte	0
 2942 0016 0B       		.uleb128 0xb
 2943 0017 0B       		.uleb128 0xb
 2944 0018 3E       		.uleb128 0x3e
 2945 0019 0B       		.uleb128 0xb
 2946 001a 03       		.uleb128 0x3
 2947 001b 08       		.uleb128 0x8
 2948 001c 00       		.byte	0
 2949 001d 00       		.byte	0
 2950 001e 03       		.uleb128 0x3
 2951 001f 24       		.uleb128 0x24
 2952 0020 00       		.byte	0
 2953 0021 0B       		.uleb128 0xb
 2954 0022 0B       		.uleb128 0xb
 2955 0023 3E       		.uleb128 0x3e
 2956 0024 0B       		.uleb128 0xb
 2957 0025 03       		.uleb128 0x3
 2958 0026 0E       		.uleb128 0xe
 2959 0027 00       		.byte	0
 2960 0028 00       		.byte	0
 2961 0029 04       		.uleb128 0x4
 2962 002a 16       		.uleb128 0x16
 2963 002b 00       		.byte	0
 2964 002c 03       		.uleb128 0x3
ARM GAS  /tmp/ccugrocP.s 			page 53


 2965 002d 0E       		.uleb128 0xe
 2966 002e 3A       		.uleb128 0x3a
 2967 002f 0B       		.uleb128 0xb
 2968 0030 3B       		.uleb128 0x3b
 2969 0031 0B       		.uleb128 0xb
 2970 0032 49       		.uleb128 0x49
 2971 0033 13       		.uleb128 0x13
 2972 0034 00       		.byte	0
 2973 0035 00       		.byte	0
 2974 0036 05       		.uleb128 0x5
 2975 0037 35       		.uleb128 0x35
 2976 0038 00       		.byte	0
 2977 0039 49       		.uleb128 0x49
 2978 003a 13       		.uleb128 0x13
 2979 003b 00       		.byte	0
 2980 003c 00       		.byte	0
 2981 003d 06       		.uleb128 0x6
 2982 003e 13       		.uleb128 0x13
 2983 003f 01       		.byte	0x1
 2984 0040 03       		.uleb128 0x3
 2985 0041 0E       		.uleb128 0xe
 2986 0042 0B       		.uleb128 0xb
 2987 0043 0B       		.uleb128 0xb
 2988 0044 3A       		.uleb128 0x3a
 2989 0045 0B       		.uleb128 0xb
 2990 0046 3B       		.uleb128 0x3b
 2991 0047 0B       		.uleb128 0xb
 2992 0048 01       		.uleb128 0x1
 2993 0049 13       		.uleb128 0x13
 2994 004a 00       		.byte	0
 2995 004b 00       		.byte	0
 2996 004c 07       		.uleb128 0x7
 2997 004d 0D       		.uleb128 0xd
 2998 004e 00       		.byte	0
 2999 004f 03       		.uleb128 0x3
 3000 0050 0E       		.uleb128 0xe
 3001 0051 3A       		.uleb128 0x3a
 3002 0052 0B       		.uleb128 0xb
 3003 0053 3B       		.uleb128 0x3b
 3004 0054 0B       		.uleb128 0xb
 3005 0055 49       		.uleb128 0x49
 3006 0056 13       		.uleb128 0x13
 3007 0057 38       		.uleb128 0x38
 3008 0058 0B       		.uleb128 0xb
 3009 0059 00       		.byte	0
 3010 005a 00       		.byte	0
 3011 005b 08       		.uleb128 0x8
 3012 005c 0D       		.uleb128 0xd
 3013 005d 00       		.byte	0
 3014 005e 03       		.uleb128 0x3
 3015 005f 08       		.uleb128 0x8
 3016 0060 3A       		.uleb128 0x3a
 3017 0061 0B       		.uleb128 0xb
 3018 0062 3B       		.uleb128 0x3b
 3019 0063 05       		.uleb128 0x5
 3020 0064 49       		.uleb128 0x49
 3021 0065 13       		.uleb128 0x13
ARM GAS  /tmp/ccugrocP.s 			page 54


 3022 0066 38       		.uleb128 0x38
 3023 0067 0B       		.uleb128 0xb
 3024 0068 00       		.byte	0
 3025 0069 00       		.byte	0
 3026 006a 09       		.uleb128 0x9
 3027 006b 0D       		.uleb128 0xd
 3028 006c 00       		.byte	0
 3029 006d 03       		.uleb128 0x3
 3030 006e 0E       		.uleb128 0xe
 3031 006f 3A       		.uleb128 0x3a
 3032 0070 0B       		.uleb128 0xb
 3033 0071 3B       		.uleb128 0x3b
 3034 0072 05       		.uleb128 0x5
 3035 0073 49       		.uleb128 0x49
 3036 0074 13       		.uleb128 0x13
 3037 0075 38       		.uleb128 0x38
 3038 0076 0B       		.uleb128 0xb
 3039 0077 00       		.byte	0
 3040 0078 00       		.byte	0
 3041 0079 0A       		.uleb128 0xa
 3042 007a 0F       		.uleb128 0xf
 3043 007b 00       		.byte	0
 3044 007c 0B       		.uleb128 0xb
 3045 007d 0B       		.uleb128 0xb
 3046 007e 49       		.uleb128 0x49
 3047 007f 13       		.uleb128 0x13
 3048 0080 00       		.byte	0
 3049 0081 00       		.byte	0
 3050 0082 0B       		.uleb128 0xb
 3051 0083 13       		.uleb128 0x13
 3052 0084 01       		.byte	0x1
 3053 0085 03       		.uleb128 0x3
 3054 0086 0E       		.uleb128 0xe
 3055 0087 0B       		.uleb128 0xb
 3056 0088 0B       		.uleb128 0xb
 3057 0089 3A       		.uleb128 0x3a
 3058 008a 0B       		.uleb128 0xb
 3059 008b 3B       		.uleb128 0x3b
 3060 008c 05       		.uleb128 0x5
 3061 008d 01       		.uleb128 0x1
 3062 008e 13       		.uleb128 0x13
 3063 008f 00       		.byte	0
 3064 0090 00       		.byte	0
 3065 0091 0C       		.uleb128 0xc
 3066 0092 15       		.uleb128 0x15
 3067 0093 01       		.byte	0x1
 3068 0094 27       		.uleb128 0x27
 3069 0095 19       		.uleb128 0x19
 3070 0096 01       		.uleb128 0x1
 3071 0097 13       		.uleb128 0x13
 3072 0098 00       		.byte	0
 3073 0099 00       		.byte	0
 3074 009a 0D       		.uleb128 0xd
 3075 009b 05       		.uleb128 0x5
 3076 009c 00       		.byte	0
 3077 009d 49       		.uleb128 0x49
 3078 009e 13       		.uleb128 0x13
ARM GAS  /tmp/ccugrocP.s 			page 55


 3079 009f 00       		.byte	0
 3080 00a0 00       		.byte	0
 3081 00a1 0E       		.uleb128 0xe
 3082 00a2 0F       		.uleb128 0xf
 3083 00a3 00       		.byte	0
 3084 00a4 0B       		.uleb128 0xb
 3085 00a5 0B       		.uleb128 0xb
 3086 00a6 00       		.byte	0
 3087 00a7 00       		.byte	0
 3088 00a8 0F       		.uleb128 0xf
 3089 00a9 13       		.uleb128 0x13
 3090 00aa 01       		.byte	0x1
 3091 00ab 03       		.uleb128 0x3
 3092 00ac 0E       		.uleb128 0xe
 3093 00ad 0B       		.uleb128 0xb
 3094 00ae 05       		.uleb128 0x5
 3095 00af 3A       		.uleb128 0x3a
 3096 00b0 0B       		.uleb128 0xb
 3097 00b1 3B       		.uleb128 0x3b
 3098 00b2 05       		.uleb128 0x5
 3099 00b3 01       		.uleb128 0x1
 3100 00b4 13       		.uleb128 0x13
 3101 00b5 00       		.byte	0
 3102 00b6 00       		.byte	0
 3103 00b7 10       		.uleb128 0x10
 3104 00b8 0D       		.uleb128 0xd
 3105 00b9 00       		.byte	0
 3106 00ba 03       		.uleb128 0x3
 3107 00bb 08       		.uleb128 0x8
 3108 00bc 3A       		.uleb128 0x3a
 3109 00bd 0B       		.uleb128 0xb
 3110 00be 3B       		.uleb128 0x3b
 3111 00bf 0B       		.uleb128 0xb
 3112 00c0 49       		.uleb128 0x49
 3113 00c1 13       		.uleb128 0x13
 3114 00c2 38       		.uleb128 0x38
 3115 00c3 0B       		.uleb128 0xb
 3116 00c4 00       		.byte	0
 3117 00c5 00       		.byte	0
 3118 00c6 11       		.uleb128 0x11
 3119 00c7 13       		.uleb128 0x13
 3120 00c8 01       		.byte	0x1
 3121 00c9 0B       		.uleb128 0xb
 3122 00ca 0B       		.uleb128 0xb
 3123 00cb 3A       		.uleb128 0x3a
 3124 00cc 0B       		.uleb128 0xb
 3125 00cd 3B       		.uleb128 0x3b
 3126 00ce 0B       		.uleb128 0xb
 3127 00cf 01       		.uleb128 0x1
 3128 00d0 13       		.uleb128 0x13
 3129 00d1 00       		.byte	0
 3130 00d2 00       		.byte	0
 3131 00d3 12       		.uleb128 0x12
 3132 00d4 17       		.uleb128 0x17
 3133 00d5 01       		.byte	0x1
 3134 00d6 0B       		.uleb128 0xb
 3135 00d7 0B       		.uleb128 0xb
ARM GAS  /tmp/ccugrocP.s 			page 56


 3136 00d8 3A       		.uleb128 0x3a
 3137 00d9 0B       		.uleb128 0xb
 3138 00da 3B       		.uleb128 0x3b
 3139 00db 0B       		.uleb128 0xb
 3140 00dc 01       		.uleb128 0x1
 3141 00dd 13       		.uleb128 0x13
 3142 00de 00       		.byte	0
 3143 00df 00       		.byte	0
 3144 00e0 13       		.uleb128 0x13
 3145 00e1 0D       		.uleb128 0xd
 3146 00e2 00       		.byte	0
 3147 00e3 03       		.uleb128 0x3
 3148 00e4 0E       		.uleb128 0xe
 3149 00e5 3A       		.uleb128 0x3a
 3150 00e6 0B       		.uleb128 0xb
 3151 00e7 3B       		.uleb128 0x3b
 3152 00e8 05       		.uleb128 0x5
 3153 00e9 49       		.uleb128 0x49
 3154 00ea 13       		.uleb128 0x13
 3155 00eb 00       		.byte	0
 3156 00ec 00       		.byte	0
 3157 00ed 14       		.uleb128 0x14
 3158 00ee 26       		.uleb128 0x26
 3159 00ef 00       		.byte	0
 3160 00f0 49       		.uleb128 0x49
 3161 00f1 13       		.uleb128 0x13
 3162 00f2 00       		.byte	0
 3163 00f3 00       		.byte	0
 3164 00f4 15       		.uleb128 0x15
 3165 00f5 01       		.uleb128 0x1
 3166 00f6 01       		.byte	0x1
 3167 00f7 49       		.uleb128 0x49
 3168 00f8 13       		.uleb128 0x13
 3169 00f9 01       		.uleb128 0x1
 3170 00fa 13       		.uleb128 0x13
 3171 00fb 00       		.byte	0
 3172 00fc 00       		.byte	0
 3173 00fd 16       		.uleb128 0x16
 3174 00fe 21       		.uleb128 0x21
 3175 00ff 00       		.byte	0
 3176 0100 49       		.uleb128 0x49
 3177 0101 13       		.uleb128 0x13
 3178 0102 2F       		.uleb128 0x2f
 3179 0103 0B       		.uleb128 0xb
 3180 0104 00       		.byte	0
 3181 0105 00       		.byte	0
 3182 0106 17       		.uleb128 0x17
 3183 0107 2E       		.uleb128 0x2e
 3184 0108 01       		.byte	0x1
 3185 0109 03       		.uleb128 0x3
 3186 010a 0E       		.uleb128 0xe
 3187 010b 3A       		.uleb128 0x3a
 3188 010c 0B       		.uleb128 0xb
 3189 010d 3B       		.uleb128 0x3b
 3190 010e 05       		.uleb128 0x5
 3191 010f 27       		.uleb128 0x27
 3192 0110 19       		.uleb128 0x19
ARM GAS  /tmp/ccugrocP.s 			page 57


 3193 0111 20       		.uleb128 0x20
 3194 0112 0B       		.uleb128 0xb
 3195 0113 01       		.uleb128 0x1
 3196 0114 13       		.uleb128 0x13
 3197 0115 00       		.byte	0
 3198 0116 00       		.byte	0
 3199 0117 18       		.uleb128 0x18
 3200 0118 05       		.uleb128 0x5
 3201 0119 00       		.byte	0
 3202 011a 03       		.uleb128 0x3
 3203 011b 0E       		.uleb128 0xe
 3204 011c 3A       		.uleb128 0x3a
 3205 011d 0B       		.uleb128 0xb
 3206 011e 3B       		.uleb128 0x3b
 3207 011f 05       		.uleb128 0x5
 3208 0120 49       		.uleb128 0x49
 3209 0121 13       		.uleb128 0x13
 3210 0122 00       		.byte	0
 3211 0123 00       		.byte	0
 3212 0124 19       		.uleb128 0x19
 3213 0125 2E       		.uleb128 0x2e
 3214 0126 00       		.byte	0
 3215 0127 03       		.uleb128 0x3
 3216 0128 0E       		.uleb128 0xe
 3217 0129 3A       		.uleb128 0x3a
 3218 012a 0B       		.uleb128 0xb
 3219 012b 3B       		.uleb128 0x3b
 3220 012c 05       		.uleb128 0x5
 3221 012d 27       		.uleb128 0x27
 3222 012e 19       		.uleb128 0x19
 3223 012f 20       		.uleb128 0x20
 3224 0130 0B       		.uleb128 0xb
 3225 0131 00       		.byte	0
 3226 0132 00       		.byte	0
 3227 0133 1A       		.uleb128 0x1a
 3228 0134 2E       		.uleb128 0x2e
 3229 0135 01       		.byte	0x1
 3230 0136 03       		.uleb128 0x3
 3231 0137 0E       		.uleb128 0xe
 3232 0138 3A       		.uleb128 0x3a
 3233 0139 0B       		.uleb128 0xb
 3234 013a 3B       		.uleb128 0x3b
 3235 013b 05       		.uleb128 0x5
 3236 013c 27       		.uleb128 0x27
 3237 013d 19       		.uleb128 0x19
 3238 013e 49       		.uleb128 0x49
 3239 013f 13       		.uleb128 0x13
 3240 0140 20       		.uleb128 0x20
 3241 0141 0B       		.uleb128 0xb
 3242 0142 01       		.uleb128 0x1
 3243 0143 13       		.uleb128 0x13
 3244 0144 00       		.byte	0
 3245 0145 00       		.byte	0
 3246 0146 1B       		.uleb128 0x1b
 3247 0147 05       		.uleb128 0x5
 3248 0148 00       		.byte	0
 3249 0149 03       		.uleb128 0x3
ARM GAS  /tmp/ccugrocP.s 			page 58


 3250 014a 08       		.uleb128 0x8
 3251 014b 3A       		.uleb128 0x3a
 3252 014c 0B       		.uleb128 0xb
 3253 014d 3B       		.uleb128 0x3b
 3254 014e 05       		.uleb128 0x5
 3255 014f 49       		.uleb128 0x49
 3256 0150 13       		.uleb128 0x13
 3257 0151 00       		.byte	0
 3258 0152 00       		.byte	0
 3259 0153 1C       		.uleb128 0x1c
 3260 0154 34       		.uleb128 0x34
 3261 0155 00       		.byte	0
 3262 0156 03       		.uleb128 0x3
 3263 0157 08       		.uleb128 0x8
 3264 0158 3A       		.uleb128 0x3a
 3265 0159 0B       		.uleb128 0xb
 3266 015a 3B       		.uleb128 0x3b
 3267 015b 05       		.uleb128 0x5
 3268 015c 49       		.uleb128 0x49
 3269 015d 13       		.uleb128 0x13
 3270 015e 00       		.byte	0
 3271 015f 00       		.byte	0
 3272 0160 1D       		.uleb128 0x1d
 3273 0161 34       		.uleb128 0x34
 3274 0162 00       		.byte	0
 3275 0163 03       		.uleb128 0x3
 3276 0164 0E       		.uleb128 0xe
 3277 0165 49       		.uleb128 0x49
 3278 0166 13       		.uleb128 0x13
 3279 0167 34       		.uleb128 0x34
 3280 0168 19       		.uleb128 0x19
 3281 0169 1C       		.uleb128 0x1c
 3282 016a 0E       		.uleb128 0xe
 3283 016b 00       		.byte	0
 3284 016c 00       		.byte	0
 3285 016d 1E       		.uleb128 0x1e
 3286 016e 2E       		.uleb128 0x2e
 3287 016f 01       		.byte	0x1
 3288 0170 3F       		.uleb128 0x3f
 3289 0171 19       		.uleb128 0x19
 3290 0172 03       		.uleb128 0x3
 3291 0173 0E       		.uleb128 0xe
 3292 0174 3A       		.uleb128 0x3a
 3293 0175 0B       		.uleb128 0xb
 3294 0176 3B       		.uleb128 0x3b
 3295 0177 05       		.uleb128 0x5
 3296 0178 27       		.uleb128 0x27
 3297 0179 19       		.uleb128 0x19
 3298 017a 49       		.uleb128 0x49
 3299 017b 13       		.uleb128 0x13
 3300 017c 20       		.uleb128 0x20
 3301 017d 0B       		.uleb128 0xb
 3302 017e 01       		.uleb128 0x1
 3303 017f 13       		.uleb128 0x13
 3304 0180 00       		.byte	0
 3305 0181 00       		.byte	0
 3306 0182 1F       		.uleb128 0x1f
ARM GAS  /tmp/ccugrocP.s 			page 59


 3307 0183 2E       		.uleb128 0x2e
 3308 0184 01       		.byte	0x1
 3309 0185 03       		.uleb128 0x3
 3310 0186 0E       		.uleb128 0xe
 3311 0187 3A       		.uleb128 0x3a
 3312 0188 0B       		.uleb128 0xb
 3313 0189 3B       		.uleb128 0x3b
 3314 018a 0B       		.uleb128 0xb
 3315 018b 27       		.uleb128 0x27
 3316 018c 19       		.uleb128 0x19
 3317 018d 49       		.uleb128 0x49
 3318 018e 13       		.uleb128 0x13
 3319 018f 20       		.uleb128 0x20
 3320 0190 0B       		.uleb128 0xb
 3321 0191 01       		.uleb128 0x1
 3322 0192 13       		.uleb128 0x13
 3323 0193 00       		.byte	0
 3324 0194 00       		.byte	0
 3325 0195 20       		.uleb128 0x20
 3326 0196 05       		.uleb128 0x5
 3327 0197 00       		.byte	0
 3328 0198 03       		.uleb128 0x3
 3329 0199 08       		.uleb128 0x8
 3330 019a 3A       		.uleb128 0x3a
 3331 019b 0B       		.uleb128 0xb
 3332 019c 3B       		.uleb128 0x3b
 3333 019d 0B       		.uleb128 0xb
 3334 019e 49       		.uleb128 0x49
 3335 019f 13       		.uleb128 0x13
 3336 01a0 00       		.byte	0
 3337 01a1 00       		.byte	0
 3338 01a2 21       		.uleb128 0x21
 3339 01a3 2E       		.uleb128 0x2e
 3340 01a4 01       		.byte	0x1
 3341 01a5 3F       		.uleb128 0x3f
 3342 01a6 19       		.uleb128 0x19
 3343 01a7 03       		.uleb128 0x3
 3344 01a8 0E       		.uleb128 0xe
 3345 01a9 3A       		.uleb128 0x3a
 3346 01aa 0B       		.uleb128 0xb
 3347 01ab 3B       		.uleb128 0x3b
 3348 01ac 0B       		.uleb128 0xb
 3349 01ad 27       		.uleb128 0x27
 3350 01ae 19       		.uleb128 0x19
 3351 01af 11       		.uleb128 0x11
 3352 01b0 01       		.uleb128 0x1
 3353 01b1 12       		.uleb128 0x12
 3354 01b2 06       		.uleb128 0x6
 3355 01b3 40       		.uleb128 0x40
 3356 01b4 18       		.uleb128 0x18
 3357 01b5 9742     		.uleb128 0x2117
 3358 01b7 19       		.uleb128 0x19
 3359 01b8 01       		.uleb128 0x1
 3360 01b9 13       		.uleb128 0x13
 3361 01ba 00       		.byte	0
 3362 01bb 00       		.byte	0
 3363 01bc 22       		.uleb128 0x22
ARM GAS  /tmp/ccugrocP.s 			page 60


 3364 01bd 05       		.uleb128 0x5
 3365 01be 00       		.byte	0
 3366 01bf 03       		.uleb128 0x3
 3367 01c0 08       		.uleb128 0x8
 3368 01c1 3A       		.uleb128 0x3a
 3369 01c2 0B       		.uleb128 0xb
 3370 01c3 3B       		.uleb128 0x3b
 3371 01c4 0B       		.uleb128 0xb
 3372 01c5 49       		.uleb128 0x49
 3373 01c6 13       		.uleb128 0x13
 3374 01c7 02       		.uleb128 0x2
 3375 01c8 18       		.uleb128 0x18
 3376 01c9 00       		.byte	0
 3377 01ca 00       		.byte	0
 3378 01cb 23       		.uleb128 0x23
 3379 01cc 34       		.uleb128 0x34
 3380 01cd 00       		.byte	0
 3381 01ce 03       		.uleb128 0x3
 3382 01cf 0E       		.uleb128 0xe
 3383 01d0 49       		.uleb128 0x49
 3384 01d1 13       		.uleb128 0x13
 3385 01d2 34       		.uleb128 0x34
 3386 01d3 19       		.uleb128 0x19
 3387 01d4 00       		.byte	0
 3388 01d5 00       		.byte	0
 3389 01d6 24       		.uleb128 0x24
 3390 01d7 1D       		.uleb128 0x1d
 3391 01d8 01       		.byte	0x1
 3392 01d9 31       		.uleb128 0x31
 3393 01da 13       		.uleb128 0x13
 3394 01db 11       		.uleb128 0x11
 3395 01dc 01       		.uleb128 0x1
 3396 01dd 12       		.uleb128 0x12
 3397 01de 06       		.uleb128 0x6
 3398 01df 58       		.uleb128 0x58
 3399 01e0 0B       		.uleb128 0xb
 3400 01e1 59       		.uleb128 0x59
 3401 01e2 0B       		.uleb128 0xb
 3402 01e3 00       		.byte	0
 3403 01e4 00       		.byte	0
 3404 01e5 25       		.uleb128 0x25
 3405 01e6 05       		.uleb128 0x5
 3406 01e7 00       		.byte	0
 3407 01e8 31       		.uleb128 0x31
 3408 01e9 13       		.uleb128 0x13
 3409 01ea 02       		.uleb128 0x2
 3410 01eb 18       		.uleb128 0x18
 3411 01ec 00       		.byte	0
 3412 01ed 00       		.byte	0
 3413 01ee 26       		.uleb128 0x26
 3414 01ef 05       		.uleb128 0x5
 3415 01f0 00       		.byte	0
 3416 01f1 03       		.uleb128 0x3
 3417 01f2 08       		.uleb128 0x8
 3418 01f3 3A       		.uleb128 0x3a
 3419 01f4 0B       		.uleb128 0xb
 3420 01f5 3B       		.uleb128 0x3b
ARM GAS  /tmp/ccugrocP.s 			page 61


 3421 01f6 0B       		.uleb128 0xb
 3422 01f7 49       		.uleb128 0x49
 3423 01f8 13       		.uleb128 0x13
 3424 01f9 02       		.uleb128 0x2
 3425 01fa 17       		.uleb128 0x17
 3426 01fb 00       		.byte	0
 3427 01fc 00       		.byte	0
 3428 01fd 27       		.uleb128 0x27
 3429 01fe 34       		.uleb128 0x34
 3430 01ff 00       		.byte	0
 3431 0200 03       		.uleb128 0x3
 3432 0201 08       		.uleb128 0x8
 3433 0202 3A       		.uleb128 0x3a
 3434 0203 0B       		.uleb128 0xb
 3435 0204 3B       		.uleb128 0x3b
 3436 0205 0B       		.uleb128 0xb
 3437 0206 49       		.uleb128 0x49
 3438 0207 13       		.uleb128 0x13
 3439 0208 02       		.uleb128 0x2
 3440 0209 17       		.uleb128 0x17
 3441 020a 00       		.byte	0
 3442 020b 00       		.byte	0
 3443 020c 28       		.uleb128 0x28
 3444 020d 0B       		.uleb128 0xb
 3445 020e 01       		.byte	0x1
 3446 020f 55       		.uleb128 0x55
 3447 0210 17       		.uleb128 0x17
 3448 0211 00       		.byte	0
 3449 0212 00       		.byte	0
 3450 0213 29       		.uleb128 0x29
 3451 0214 1D       		.uleb128 0x1d
 3452 0215 01       		.byte	0x1
 3453 0216 31       		.uleb128 0x31
 3454 0217 13       		.uleb128 0x13
 3455 0218 11       		.uleb128 0x11
 3456 0219 01       		.uleb128 0x1
 3457 021a 12       		.uleb128 0x12
 3458 021b 06       		.uleb128 0x6
 3459 021c 58       		.uleb128 0x58
 3460 021d 0B       		.uleb128 0xb
 3461 021e 59       		.uleb128 0x59
 3462 021f 0B       		.uleb128 0xb
 3463 0220 01       		.uleb128 0x1
 3464 0221 13       		.uleb128 0x13
 3465 0222 00       		.byte	0
 3466 0223 00       		.byte	0
 3467 0224 2A       		.uleb128 0x2a
 3468 0225 05       		.uleb128 0x5
 3469 0226 00       		.byte	0
 3470 0227 31       		.uleb128 0x31
 3471 0228 13       		.uleb128 0x13
 3472 0229 02       		.uleb128 0x2
 3473 022a 17       		.uleb128 0x17
 3474 022b 00       		.byte	0
 3475 022c 00       		.byte	0
 3476 022d 2B       		.uleb128 0x2b
 3477 022e 0B       		.uleb128 0xb
ARM GAS  /tmp/ccugrocP.s 			page 62


 3478 022f 01       		.byte	0x1
 3479 0230 11       		.uleb128 0x11
 3480 0231 01       		.uleb128 0x1
 3481 0232 12       		.uleb128 0x12
 3482 0233 06       		.uleb128 0x6
 3483 0234 00       		.byte	0
 3484 0235 00       		.byte	0
 3485 0236 2C       		.uleb128 0x2c
 3486 0237 34       		.uleb128 0x34
 3487 0238 00       		.byte	0
 3488 0239 31       		.uleb128 0x31
 3489 023a 13       		.uleb128 0x13
 3490 023b 02       		.uleb128 0x2
 3491 023c 17       		.uleb128 0x17
 3492 023d 00       		.byte	0
 3493 023e 00       		.byte	0
 3494 023f 2D       		.uleb128 0x2d
 3495 0240 1D       		.uleb128 0x1d
 3496 0241 01       		.byte	0x1
 3497 0242 31       		.uleb128 0x31
 3498 0243 13       		.uleb128 0x13
 3499 0244 52       		.uleb128 0x52
 3500 0245 01       		.uleb128 0x1
 3501 0246 55       		.uleb128 0x55
 3502 0247 17       		.uleb128 0x17
 3503 0248 58       		.uleb128 0x58
 3504 0249 0B       		.uleb128 0xb
 3505 024a 59       		.uleb128 0x59
 3506 024b 0B       		.uleb128 0xb
 3507 024c 01       		.uleb128 0x1
 3508 024d 13       		.uleb128 0x13
 3509 024e 00       		.byte	0
 3510 024f 00       		.byte	0
 3511 0250 2E       		.uleb128 0x2e
 3512 0251 898201   		.uleb128 0x4109
 3513 0254 01       		.byte	0x1
 3514 0255 11       		.uleb128 0x11
 3515 0256 01       		.uleb128 0x1
 3516 0257 9542     		.uleb128 0x2115
 3517 0259 19       		.uleb128 0x19
 3518 025a 31       		.uleb128 0x31
 3519 025b 13       		.uleb128 0x13
 3520 025c 01       		.uleb128 0x1
 3521 025d 13       		.uleb128 0x13
 3522 025e 00       		.byte	0
 3523 025f 00       		.byte	0
 3524 0260 2F       		.uleb128 0x2f
 3525 0261 8A8201   		.uleb128 0x410a
 3526 0264 00       		.byte	0
 3527 0265 02       		.uleb128 0x2
 3528 0266 18       		.uleb128 0x18
 3529 0267 9142     		.uleb128 0x2111
 3530 0269 18       		.uleb128 0x18
 3531 026a 00       		.byte	0
 3532 026b 00       		.byte	0
 3533 026c 30       		.uleb128 0x30
 3534 026d 898201   		.uleb128 0x4109
ARM GAS  /tmp/ccugrocP.s 			page 63


 3535 0270 00       		.byte	0
 3536 0271 11       		.uleb128 0x11
 3537 0272 01       		.uleb128 0x1
 3538 0273 31       		.uleb128 0x31
 3539 0274 13       		.uleb128 0x13
 3540 0275 00       		.byte	0
 3541 0276 00       		.byte	0
 3542 0277 31       		.uleb128 0x31
 3543 0278 1D       		.uleb128 0x1d
 3544 0279 01       		.byte	0x1
 3545 027a 31       		.uleb128 0x31
 3546 027b 13       		.uleb128 0x13
 3547 027c 11       		.uleb128 0x11
 3548 027d 01       		.uleb128 0x1
 3549 027e 12       		.uleb128 0x12
 3550 027f 06       		.uleb128 0x6
 3551 0280 58       		.uleb128 0x58
 3552 0281 0B       		.uleb128 0xb
 3553 0282 59       		.uleb128 0x59
 3554 0283 05       		.uleb128 0x5
 3555 0284 00       		.byte	0
 3556 0285 00       		.byte	0
 3557 0286 32       		.uleb128 0x32
 3558 0287 05       		.uleb128 0x5
 3559 0288 00       		.byte	0
 3560 0289 31       		.uleb128 0x31
 3561 028a 13       		.uleb128 0x13
 3562 028b 1C       		.uleb128 0x1c
 3563 028c 0B       		.uleb128 0xb
 3564 028d 00       		.byte	0
 3565 028e 00       		.byte	0
 3566 028f 33       		.uleb128 0x33
 3567 0290 34       		.uleb128 0x34
 3568 0291 00       		.byte	0
 3569 0292 31       		.uleb128 0x31
 3570 0293 13       		.uleb128 0x13
 3571 0294 00       		.byte	0
 3572 0295 00       		.byte	0
 3573 0296 34       		.uleb128 0x34
 3574 0297 898201   		.uleb128 0x4109
 3575 029a 01       		.byte	0x1
 3576 029b 11       		.uleb128 0x11
 3577 029c 01       		.uleb128 0x1
 3578 029d 31       		.uleb128 0x31
 3579 029e 13       		.uleb128 0x13
 3580 029f 00       		.byte	0
 3581 02a0 00       		.byte	0
 3582 02a1 35       		.uleb128 0x35
 3583 02a2 2E       		.uleb128 0x2e
 3584 02a3 01       		.byte	0x1
 3585 02a4 3F       		.uleb128 0x3f
 3586 02a5 19       		.uleb128 0x19
 3587 02a6 03       		.uleb128 0x3
 3588 02a7 0E       		.uleb128 0xe
 3589 02a8 3A       		.uleb128 0x3a
 3590 02a9 0B       		.uleb128 0xb
 3591 02aa 3B       		.uleb128 0x3b
ARM GAS  /tmp/ccugrocP.s 			page 64


 3592 02ab 0B       		.uleb128 0xb
 3593 02ac 27       		.uleb128 0x27
 3594 02ad 19       		.uleb128 0x19
 3595 02ae 49       		.uleb128 0x49
 3596 02af 13       		.uleb128 0x13
 3597 02b0 11       		.uleb128 0x11
 3598 02b1 01       		.uleb128 0x1
 3599 02b2 12       		.uleb128 0x12
 3600 02b3 06       		.uleb128 0x6
 3601 02b4 40       		.uleb128 0x40
 3602 02b5 18       		.uleb128 0x18
 3603 02b6 9742     		.uleb128 0x2117
 3604 02b8 19       		.uleb128 0x19
 3605 02b9 01       		.uleb128 0x1
 3606 02ba 13       		.uleb128 0x13
 3607 02bb 00       		.byte	0
 3608 02bc 00       		.byte	0
 3609 02bd 36       		.uleb128 0x36
 3610 02be 1D       		.uleb128 0x1d
 3611 02bf 01       		.byte	0x1
 3612 02c0 31       		.uleb128 0x31
 3613 02c1 13       		.uleb128 0x13
 3614 02c2 11       		.uleb128 0x11
 3615 02c3 01       		.uleb128 0x1
 3616 02c4 12       		.uleb128 0x12
 3617 02c5 06       		.uleb128 0x6
 3618 02c6 58       		.uleb128 0x58
 3619 02c7 0B       		.uleb128 0xb
 3620 02c8 59       		.uleb128 0x59
 3621 02c9 05       		.uleb128 0x5
 3622 02ca 01       		.uleb128 0x1
 3623 02cb 13       		.uleb128 0x13
 3624 02cc 00       		.byte	0
 3625 02cd 00       		.byte	0
 3626 02ce 37       		.uleb128 0x37
 3627 02cf 1D       		.uleb128 0x1d
 3628 02d0 01       		.byte	0x1
 3629 02d1 31       		.uleb128 0x31
 3630 02d2 13       		.uleb128 0x13
 3631 02d3 52       		.uleb128 0x52
 3632 02d4 01       		.uleb128 0x1
 3633 02d5 55       		.uleb128 0x55
 3634 02d6 17       		.uleb128 0x17
 3635 02d7 58       		.uleb128 0x58
 3636 02d8 0B       		.uleb128 0xb
 3637 02d9 59       		.uleb128 0x59
 3638 02da 05       		.uleb128 0x5
 3639 02db 01       		.uleb128 0x1
 3640 02dc 13       		.uleb128 0x13
 3641 02dd 00       		.byte	0
 3642 02de 00       		.byte	0
 3643 02df 38       		.uleb128 0x38
 3644 02e0 1D       		.uleb128 0x1d
 3645 02e1 01       		.byte	0x1
 3646 02e2 31       		.uleb128 0x31
 3647 02e3 13       		.uleb128 0x13
 3648 02e4 52       		.uleb128 0x52
ARM GAS  /tmp/ccugrocP.s 			page 65


 3649 02e5 01       		.uleb128 0x1
 3650 02e6 55       		.uleb128 0x55
 3651 02e7 17       		.uleb128 0x17
 3652 02e8 58       		.uleb128 0x58
 3653 02e9 0B       		.uleb128 0xb
 3654 02ea 59       		.uleb128 0x59
 3655 02eb 05       		.uleb128 0x5
 3656 02ec 00       		.byte	0
 3657 02ed 00       		.byte	0
 3658 02ee 39       		.uleb128 0x39
 3659 02ef 2E       		.uleb128 0x2e
 3660 02f0 01       		.byte	0x1
 3661 02f1 31       		.uleb128 0x31
 3662 02f2 13       		.uleb128 0x13
 3663 02f3 11       		.uleb128 0x11
 3664 02f4 01       		.uleb128 0x1
 3665 02f5 12       		.uleb128 0x12
 3666 02f6 06       		.uleb128 0x6
 3667 02f7 40       		.uleb128 0x40
 3668 02f8 18       		.uleb128 0x18
 3669 02f9 9742     		.uleb128 0x2117
 3670 02fb 19       		.uleb128 0x19
 3671 02fc 01       		.uleb128 0x1
 3672 02fd 13       		.uleb128 0x13
 3673 02fe 00       		.byte	0
 3674 02ff 00       		.byte	0
 3675 0300 3A       		.uleb128 0x3a
 3676 0301 2E       		.uleb128 0x2e
 3677 0302 01       		.byte	0x1
 3678 0303 3F       		.uleb128 0x3f
 3679 0304 19       		.uleb128 0x19
 3680 0305 03       		.uleb128 0x3
 3681 0306 0E       		.uleb128 0xe
 3682 0307 3A       		.uleb128 0x3a
 3683 0308 0B       		.uleb128 0xb
 3684 0309 3B       		.uleb128 0x3b
 3685 030a 05       		.uleb128 0x5
 3686 030b 27       		.uleb128 0x27
 3687 030c 19       		.uleb128 0x19
 3688 030d 11       		.uleb128 0x11
 3689 030e 01       		.uleb128 0x1
 3690 030f 12       		.uleb128 0x12
 3691 0310 06       		.uleb128 0x6
 3692 0311 40       		.uleb128 0x40
 3693 0312 18       		.uleb128 0x18
 3694 0313 9742     		.uleb128 0x2117
 3695 0315 19       		.uleb128 0x19
 3696 0316 01       		.uleb128 0x1
 3697 0317 13       		.uleb128 0x13
 3698 0318 00       		.byte	0
 3699 0319 00       		.byte	0
 3700 031a 3B       		.uleb128 0x3b
 3701 031b 05       		.uleb128 0x5
 3702 031c 00       		.byte	0
 3703 031d 03       		.uleb128 0x3
 3704 031e 08       		.uleb128 0x8
 3705 031f 3A       		.uleb128 0x3a
ARM GAS  /tmp/ccugrocP.s 			page 66


 3706 0320 0B       		.uleb128 0xb
 3707 0321 3B       		.uleb128 0x3b
 3708 0322 05       		.uleb128 0x5
 3709 0323 49       		.uleb128 0x49
 3710 0324 13       		.uleb128 0x13
 3711 0325 02       		.uleb128 0x2
 3712 0326 17       		.uleb128 0x17
 3713 0327 00       		.byte	0
 3714 0328 00       		.byte	0
 3715 0329 3C       		.uleb128 0x3c
 3716 032a 34       		.uleb128 0x34
 3717 032b 00       		.byte	0
 3718 032c 03       		.uleb128 0x3
 3719 032d 08       		.uleb128 0x8
 3720 032e 3A       		.uleb128 0x3a
 3721 032f 0B       		.uleb128 0xb
 3722 0330 3B       		.uleb128 0x3b
 3723 0331 05       		.uleb128 0x5
 3724 0332 49       		.uleb128 0x49
 3725 0333 13       		.uleb128 0x13
 3726 0334 02       		.uleb128 0x2
 3727 0335 17       		.uleb128 0x17
 3728 0336 00       		.byte	0
 3729 0337 00       		.byte	0
 3730 0338 3D       		.uleb128 0x3d
 3731 0339 0B       		.uleb128 0xb
 3732 033a 01       		.byte	0x1
 3733 033b 11       		.uleb128 0x11
 3734 033c 01       		.uleb128 0x1
 3735 033d 12       		.uleb128 0x12
 3736 033e 06       		.uleb128 0x6
 3737 033f 01       		.uleb128 0x1
 3738 0340 13       		.uleb128 0x13
 3739 0341 00       		.byte	0
 3740 0342 00       		.byte	0
 3741 0343 3E       		.uleb128 0x3e
 3742 0344 34       		.uleb128 0x34
 3743 0345 00       		.byte	0
 3744 0346 03       		.uleb128 0x3
 3745 0347 0E       		.uleb128 0xe
 3746 0348 3A       		.uleb128 0x3a
 3747 0349 0B       		.uleb128 0xb
 3748 034a 3B       		.uleb128 0x3b
 3749 034b 05       		.uleb128 0x5
 3750 034c 49       		.uleb128 0x49
 3751 034d 13       		.uleb128 0x13
 3752 034e 02       		.uleb128 0x2
 3753 034f 17       		.uleb128 0x17
 3754 0350 00       		.byte	0
 3755 0351 00       		.byte	0
 3756 0352 3F       		.uleb128 0x3f
 3757 0353 898201   		.uleb128 0x4109
 3758 0356 01       		.byte	0x1
 3759 0357 11       		.uleb128 0x11
 3760 0358 01       		.uleb128 0x1
 3761 0359 31       		.uleb128 0x31
 3762 035a 13       		.uleb128 0x13
ARM GAS  /tmp/ccugrocP.s 			page 67


 3763 035b 01       		.uleb128 0x1
 3764 035c 13       		.uleb128 0x13
 3765 035d 00       		.byte	0
 3766 035e 00       		.byte	0
 3767 035f 40       		.uleb128 0x40
 3768 0360 898201   		.uleb128 0x4109
 3769 0363 00       		.byte	0
 3770 0364 11       		.uleb128 0x11
 3771 0365 01       		.uleb128 0x1
 3772 0366 9542     		.uleb128 0x2115
 3773 0368 19       		.uleb128 0x19
 3774 0369 31       		.uleb128 0x31
 3775 036a 13       		.uleb128 0x13
 3776 036b 00       		.byte	0
 3777 036c 00       		.byte	0
 3778 036d 41       		.uleb128 0x41
 3779 036e 0B       		.uleb128 0xb
 3780 036f 01       		.byte	0x1
 3781 0370 55       		.uleb128 0x55
 3782 0371 17       		.uleb128 0x17
 3783 0372 01       		.uleb128 0x1
 3784 0373 13       		.uleb128 0x13
 3785 0374 00       		.byte	0
 3786 0375 00       		.byte	0
 3787 0376 42       		.uleb128 0x42
 3788 0377 34       		.uleb128 0x34
 3789 0378 00       		.byte	0
 3790 0379 03       		.uleb128 0x3
 3791 037a 0E       		.uleb128 0xe
 3792 037b 3A       		.uleb128 0x3a
 3793 037c 0B       		.uleb128 0xb
 3794 037d 3B       		.uleb128 0x3b
 3795 037e 05       		.uleb128 0x5
 3796 037f 49       		.uleb128 0x49
 3797 0380 13       		.uleb128 0x13
 3798 0381 3F       		.uleb128 0x3f
 3799 0382 19       		.uleb128 0x19
 3800 0383 3C       		.uleb128 0x3c
 3801 0384 19       		.uleb128 0x19
 3802 0385 00       		.byte	0
 3803 0386 00       		.byte	0
 3804 0387 43       		.uleb128 0x43
 3805 0388 34       		.uleb128 0x34
 3806 0389 00       		.byte	0
 3807 038a 03       		.uleb128 0x3
 3808 038b 08       		.uleb128 0x8
 3809 038c 3A       		.uleb128 0x3a
 3810 038d 0B       		.uleb128 0xb
 3811 038e 3B       		.uleb128 0x3b
 3812 038f 05       		.uleb128 0x5
 3813 0390 49       		.uleb128 0x49
 3814 0391 13       		.uleb128 0x13
 3815 0392 3F       		.uleb128 0x3f
 3816 0393 19       		.uleb128 0x19
 3817 0394 3C       		.uleb128 0x3c
 3818 0395 19       		.uleb128 0x19
 3819 0396 00       		.byte	0
ARM GAS  /tmp/ccugrocP.s 			page 68


 3820 0397 00       		.byte	0
 3821 0398 44       		.uleb128 0x44
 3822 0399 2E       		.uleb128 0x2e
 3823 039a 01       		.byte	0x1
 3824 039b 3F       		.uleb128 0x3f
 3825 039c 19       		.uleb128 0x19
 3826 039d 03       		.uleb128 0x3
 3827 039e 0E       		.uleb128 0xe
 3828 039f 3A       		.uleb128 0x3a
 3829 03a0 0B       		.uleb128 0xb
 3830 03a1 3B       		.uleb128 0x3b
 3831 03a2 05       		.uleb128 0x5
 3832 03a3 27       		.uleb128 0x27
 3833 03a4 19       		.uleb128 0x19
 3834 03a5 3C       		.uleb128 0x3c
 3835 03a6 19       		.uleb128 0x19
 3836 03a7 01       		.uleb128 0x1
 3837 03a8 13       		.uleb128 0x13
 3838 03a9 00       		.byte	0
 3839 03aa 00       		.byte	0
 3840 03ab 45       		.uleb128 0x45
 3841 03ac 2E       		.uleb128 0x2e
 3842 03ad 01       		.byte	0x1
 3843 03ae 3F       		.uleb128 0x3f
 3844 03af 19       		.uleb128 0x19
 3845 03b0 03       		.uleb128 0x3
 3846 03b1 0E       		.uleb128 0xe
 3847 03b2 3A       		.uleb128 0x3a
 3848 03b3 0B       		.uleb128 0xb
 3849 03b4 3B       		.uleb128 0x3b
 3850 03b5 05       		.uleb128 0x5
 3851 03b6 27       		.uleb128 0x27
 3852 03b7 19       		.uleb128 0x19
 3853 03b8 49       		.uleb128 0x49
 3854 03b9 13       		.uleb128 0x13
 3855 03ba 3C       		.uleb128 0x3c
 3856 03bb 19       		.uleb128 0x19
 3857 03bc 01       		.uleb128 0x1
 3858 03bd 13       		.uleb128 0x13
 3859 03be 00       		.byte	0
 3860 03bf 00       		.byte	0
 3861 03c0 46       		.uleb128 0x46
 3862 03c1 2E       		.uleb128 0x2e
 3863 03c2 00       		.byte	0
 3864 03c3 3F       		.uleb128 0x3f
 3865 03c4 19       		.uleb128 0x19
 3866 03c5 03       		.uleb128 0x3
 3867 03c6 0E       		.uleb128 0xe
 3868 03c7 3A       		.uleb128 0x3a
 3869 03c8 0B       		.uleb128 0xb
 3870 03c9 3B       		.uleb128 0x3b
 3871 03ca 05       		.uleb128 0x5
 3872 03cb 27       		.uleb128 0x27
 3873 03cc 19       		.uleb128 0x19
 3874 03cd 3C       		.uleb128 0x3c
 3875 03ce 19       		.uleb128 0x19
 3876 03cf 00       		.byte	0
ARM GAS  /tmp/ccugrocP.s 			page 69


 3877 03d0 00       		.byte	0
 3878 03d1 00       		.byte	0
 3879              		.section	.debug_loc,"",%progbits
 3880              	.Ldebug_loc0:
 3881              	.LLST0:
 3882 0000 00000000 		.4byte	.LVL1
 3883 0004 16000000 		.4byte	.LVL4
 3884 0008 0100     		.2byte	0x1
 3885 000a 50       		.byte	0x50
 3886 000b 16000000 		.4byte	.LVL4
 3887 000f 48000000 		.4byte	.LVL8
 3888 0013 0100     		.2byte	0x1
 3889 0015 55       		.byte	0x55
 3890 0016 48000000 		.4byte	.LVL8
 3891 001a 4B000000 		.4byte	.LVL9-1
 3892 001e 0500     		.2byte	0x5
 3893 0020 73       		.byte	0x73
 3894 0021 04       		.sleb128 4
 3895 0022 06       		.byte	0x6
 3896 0023 23       		.byte	0x23
 3897 0024 24       		.uleb128 0x24
 3898 0025 4B000000 		.4byte	.LVL9-1
 3899 0029 4C000000 		.4byte	.LVL9
 3900 002d 0400     		.2byte	0x4
 3901 002f F3       		.byte	0xf3
 3902 0030 01       		.uleb128 0x1
 3903 0031 50       		.byte	0x50
 3904 0032 9F       		.byte	0x9f
 3905 0033 4C000000 		.4byte	.LVL9
 3906 0037 B8000000 		.4byte	.LVL21
 3907 003b 0100     		.2byte	0x1
 3908 003d 55       		.byte	0x55
 3909 003e B8000000 		.4byte	.LVL21
 3910 0042 C8000000 		.4byte	.LFE221
 3911 0046 0100     		.2byte	0x1
 3912 0048 50       		.byte	0x50
 3913 0049 00000000 		.4byte	0
 3914 004d 00000000 		.4byte	0
 3915              	.LLST1:
 3916 0051 08000000 		.4byte	.LVL2
 3917 0055 48000000 		.4byte	.LVL8
 3918 0059 0100     		.2byte	0x1
 3919 005b 54       		.byte	0x54
 3920 005c 48000000 		.4byte	.LVL8
 3921 0060 4B000000 		.4byte	.LVL9-1
 3922 0064 0200     		.2byte	0x2
 3923 0066 73       		.byte	0x73
 3924 0067 04       		.sleb128 4
 3925 0068 4C000000 		.4byte	.LVL9
 3926 006c C2000000 		.4byte	.LVL22
 3927 0070 0100     		.2byte	0x1
 3928 0072 54       		.byte	0x54
 3929 0073 00000000 		.4byte	0
 3930 0077 00000000 		.4byte	0
 3931              	.LLST2:
 3932 007b 14000000 		.4byte	.LVL3
 3933 007f 24000000 		.4byte	.LVL5
ARM GAS  /tmp/ccugrocP.s 			page 70


 3934 0083 0100     		.2byte	0x1
 3935 0085 52       		.byte	0x52
 3936 0086 4C000000 		.4byte	.LVL9
 3937 008a 5B000000 		.4byte	.LVL10-1
 3938 008e 0100     		.2byte	0x1
 3939 0090 52       		.byte	0x52
 3940 0091 5E000000 		.4byte	.LVL11
 3941 0095 B8000000 		.4byte	.LVL21
 3942 0099 0100     		.2byte	0x1
 3943 009b 52       		.byte	0x52
 3944 009c 00000000 		.4byte	0
 3945 00a0 00000000 		.4byte	0
 3946              	.LLST3:
 3947 00a4 24000000 		.4byte	.LVL5
 3948 00a8 48000000 		.4byte	.LVL8
 3949 00ac 0100     		.2byte	0x1
 3950 00ae 55       		.byte	0x55
 3951 00af 48000000 		.4byte	.LVL8
 3952 00b3 4B000000 		.4byte	.LVL9-1
 3953 00b7 0500     		.2byte	0x5
 3954 00b9 73       		.byte	0x73
 3955 00ba 04       		.sleb128 4
 3956 00bb 06       		.byte	0x6
 3957 00bc 23       		.byte	0x23
 3958 00bd 24       		.uleb128 0x24
 3959 00be 4B000000 		.4byte	.LVL9-1
 3960 00c2 4C000000 		.4byte	.LVL9
 3961 00c6 0400     		.2byte	0x4
 3962 00c8 F3       		.byte	0xf3
 3963 00c9 01       		.uleb128 0x1
 3964 00ca 50       		.byte	0x50
 3965 00cb 9F       		.byte	0x9f
 3966 00cc 00000000 		.4byte	0
 3967 00d0 00000000 		.4byte	0
 3968              	.LLST4:
 3969 00d4 24000000 		.4byte	.LVL5
 3970 00d8 48000000 		.4byte	.LVL8
 3971 00dc 0100     		.2byte	0x1
 3972 00de 54       		.byte	0x54
 3973 00df 48000000 		.4byte	.LVL8
 3974 00e3 4B000000 		.4byte	.LVL9-1
 3975 00e7 0200     		.2byte	0x2
 3976 00e9 73       		.byte	0x73
 3977 00ea 04       		.sleb128 4
 3978 00eb 00000000 		.4byte	0
 3979 00ef 00000000 		.4byte	0
 3980              	.LLST5:
 3981 00f3 24000000 		.4byte	.LVL5
 3982 00f7 28000000 		.4byte	.LVL6
 3983 00fb 0100     		.2byte	0x1
 3984 00fd 55       		.byte	0x55
 3985 00fe 28000000 		.4byte	.LVL6
 3986 0102 4B000000 		.4byte	.LVL9-1
 3987 0106 0100     		.2byte	0x1
 3988 0108 53       		.byte	0x53
 3989 0109 00000000 		.4byte	0
 3990 010d 00000000 		.4byte	0
ARM GAS  /tmp/ccugrocP.s 			page 71


 3991              	.LLST6:
 3992 0111 4C000000 		.4byte	.LVL9
 3993 0115 5B000000 		.4byte	.LVL10-1
 3994 0119 0100     		.2byte	0x1
 3995 011b 52       		.byte	0x52
 3996 011c 00000000 		.4byte	0
 3997 0120 00000000 		.4byte	0
 3998              	.LLST7:
 3999 0124 5E000000 		.4byte	.LVL11
 4000 0128 86000000 		.4byte	.LVL15
 4001 012c 0100     		.2byte	0x1
 4002 012e 52       		.byte	0x52
 4003 012f 00000000 		.4byte	0
 4004 0133 00000000 		.4byte	0
 4005              	.LLST8:
 4006 0137 66000000 		.4byte	.LVL12
 4007 013b 86000000 		.4byte	.LVL15
 4008 013f 0100     		.2byte	0x1
 4009 0141 56       		.byte	0x56
 4010 0142 00000000 		.4byte	0
 4011 0146 00000000 		.4byte	0
 4012              	.LLST9:
 4013 014a 66000000 		.4byte	.LVL12
 4014 014e 86000000 		.4byte	.LVL15
 4015 0152 0100     		.2byte	0x1
 4016 0154 52       		.byte	0x52
 4017 0155 00000000 		.4byte	0
 4018 0159 00000000 		.4byte	0
 4019              	.LLST10:
 4020 015d 66000000 		.4byte	.LVL12
 4021 0161 6E000000 		.4byte	.LVL13
 4022 0165 0100     		.2byte	0x1
 4023 0167 56       		.byte	0x56
 4024 0168 6E000000 		.4byte	.LVL13
 4025 016c 86000000 		.4byte	.LVL15
 4026 0170 0100     		.2byte	0x1
 4027 0172 53       		.byte	0x53
 4028 0173 00000000 		.4byte	0
 4029 0177 00000000 		.4byte	0
 4030              	.LLST11:
 4031 017b 86000000 		.4byte	.LVL15
 4032 017f AE000000 		.4byte	.LVL19
 4033 0183 0100     		.2byte	0x1
 4034 0185 52       		.byte	0x52
 4035 0186 AE000000 		.4byte	.LVL19
 4036 018a B2000000 		.4byte	.LVL20
 4037 018e 0200     		.2byte	0x2
 4038 0190 73       		.byte	0x73
 4039 0191 04       		.sleb128 4
 4040 0192 00000000 		.4byte	0
 4041 0196 00000000 		.4byte	0
 4042              	.LLST12:
 4043 019a 8E000000 		.4byte	.LVL16
 4044 019e B8000000 		.4byte	.LVL21
 4045 01a2 0100     		.2byte	0x1
 4046 01a4 56       		.byte	0x56
 4047 01a5 00000000 		.4byte	0
ARM GAS  /tmp/ccugrocP.s 			page 72


 4048 01a9 00000000 		.4byte	0
 4049              	.LLST13:
 4050 01ad 8E000000 		.4byte	.LVL16
 4051 01b1 AE000000 		.4byte	.LVL19
 4052 01b5 0100     		.2byte	0x1
 4053 01b7 52       		.byte	0x52
 4054 01b8 AE000000 		.4byte	.LVL19
 4055 01bc B2000000 		.4byte	.LVL20
 4056 01c0 0200     		.2byte	0x2
 4057 01c2 73       		.byte	0x73
 4058 01c3 04       		.sleb128 4
 4059 01c4 00000000 		.4byte	0
 4060 01c8 00000000 		.4byte	0
 4061              	.LLST14:
 4062 01cc 8E000000 		.4byte	.LVL16
 4063 01d0 96000000 		.4byte	.LVL17
 4064 01d4 0100     		.2byte	0x1
 4065 01d6 56       		.byte	0x56
 4066 01d7 96000000 		.4byte	.LVL17
 4067 01db B2000000 		.4byte	.LVL20
 4068 01df 0100     		.2byte	0x1
 4069 01e1 53       		.byte	0x53
 4070 01e2 00000000 		.4byte	0
 4071 01e6 00000000 		.4byte	0
 4072              	.LLST15:
 4073 01ea 00000000 		.4byte	.LVL23
 4074 01ee 0B000000 		.4byte	.LVL24-1
 4075 01f2 0100     		.2byte	0x1
 4076 01f4 50       		.byte	0x50
 4077 01f5 0B000000 		.4byte	.LVL24-1
 4078 01f9 14000000 		.4byte	.LFE220
 4079 01fd 0400     		.2byte	0x4
 4080 01ff F3       		.byte	0xf3
 4081 0200 01       		.uleb128 0x1
 4082 0201 50       		.byte	0x50
 4083 0202 9F       		.byte	0x9f
 4084 0203 00000000 		.4byte	0
 4085 0207 00000000 		.4byte	0
 4086              	.LLST16:
 4087 020b 00000000 		.4byte	.LVL25
 4088 020f 0C000000 		.4byte	.LVL27
 4089 0213 0100     		.2byte	0x1
 4090 0215 50       		.byte	0x50
 4091 0216 0C000000 		.4byte	.LVL27
 4092 021a 10000000 		.4byte	.LVL29
 4093 021e 0100     		.2byte	0x1
 4094 0220 53       		.byte	0x53
 4095 0221 10000000 		.4byte	.LVL29
 4096 0225 16000000 		.4byte	.LVL30
 4097 0229 0400     		.2byte	0x4
 4098 022b F3       		.byte	0xf3
 4099 022c 01       		.uleb128 0x1
 4100 022d 50       		.byte	0x50
 4101 022e 9F       		.byte	0x9f
 4102 022f 16000000 		.4byte	.LVL30
 4103 0233 26000000 		.4byte	.LVL32
 4104 0237 0100     		.2byte	0x1
ARM GAS  /tmp/ccugrocP.s 			page 73


 4105 0239 53       		.byte	0x53
 4106 023a 26000000 		.4byte	.LVL32
 4107 023e 30000000 		.4byte	.LFE222
 4108 0242 0200     		.2byte	0x2
 4109 0244 72       		.byte	0x72
 4110 0245 3C       		.sleb128 60
 4111 0246 00000000 		.4byte	0
 4112 024a 00000000 		.4byte	0
 4113              	.LLST17:
 4114 024e 08000000 		.4byte	.LVL26
 4115 0252 0C000000 		.4byte	.LVL27
 4116 0256 0100     		.2byte	0x1
 4117 0258 50       		.byte	0x50
 4118 0259 0C000000 		.4byte	.LVL27
 4119 025d 10000000 		.4byte	.LVL29
 4120 0261 0100     		.2byte	0x1
 4121 0263 53       		.byte	0x53
 4122 0264 10000000 		.4byte	.LVL29
 4123 0268 16000000 		.4byte	.LVL30
 4124 026c 0400     		.2byte	0x4
 4125 026e F3       		.byte	0xf3
 4126 026f 01       		.uleb128 0x1
 4127 0270 50       		.byte	0x50
 4128 0271 9F       		.byte	0x9f
 4129 0272 16000000 		.4byte	.LVL30
 4130 0276 26000000 		.4byte	.LVL32
 4131 027a 0100     		.2byte	0x1
 4132 027c 53       		.byte	0x53
 4133 027d 26000000 		.4byte	.LVL32
 4134 0281 30000000 		.4byte	.LFE222
 4135 0285 0200     		.2byte	0x2
 4136 0287 72       		.byte	0x72
 4137 0288 3C       		.sleb128 60
 4138 0289 00000000 		.4byte	0
 4139 028d 00000000 		.4byte	0
 4140              	.LLST18:
 4141 0291 16000000 		.4byte	.LVL30
 4142 0295 26000000 		.4byte	.LVL32
 4143 0299 0100     		.2byte	0x1
 4144 029b 53       		.byte	0x53
 4145 029c 26000000 		.4byte	.LVL32
 4146 02a0 30000000 		.4byte	.LFE222
 4147 02a4 0200     		.2byte	0x2
 4148 02a6 72       		.byte	0x72
 4149 02a7 3C       		.sleb128 60
 4150 02a8 00000000 		.4byte	0
 4151 02ac 00000000 		.4byte	0
 4152              	.LLST19:
 4153 02b0 0E000000 		.4byte	.LVL28
 4154 02b4 16000000 		.4byte	.LVL30
 4155 02b8 0200     		.2byte	0x2
 4156 02ba 30       		.byte	0x30
 4157 02bb 9F       		.byte	0x9f
 4158 02bc 24000000 		.4byte	.LVL31
 4159 02c0 30000000 		.4byte	.LFE222
 4160 02c4 0200     		.2byte	0x2
 4161 02c6 30       		.byte	0x30
ARM GAS  /tmp/ccugrocP.s 			page 74


 4162 02c7 9F       		.byte	0x9f
 4163 02c8 00000000 		.4byte	0
 4164 02cc 00000000 		.4byte	0
 4165              	.LLST20:
 4166 02d0 00000000 		.4byte	.LVL33
 4167 02d4 08000000 		.4byte	.LVL34
 4168 02d8 0100     		.2byte	0x1
 4169 02da 50       		.byte	0x50
 4170 02db 08000000 		.4byte	.LVL34
 4171 02df 0A000000 		.4byte	.LVL35
 4172 02e3 0100     		.2byte	0x1
 4173 02e5 53       		.byte	0x53
 4174 02e6 0A000000 		.4byte	.LVL35
 4175 02ea 16000000 		.4byte	.LVL36
 4176 02ee 0100     		.2byte	0x1
 4177 02f0 50       		.byte	0x50
 4178 02f1 16000000 		.4byte	.LVL36
 4179 02f5 20000000 		.4byte	.LFE223
 4180 02f9 0100     		.2byte	0x1
 4181 02fb 53       		.byte	0x53
 4182 02fc 00000000 		.4byte	0
 4183 0300 00000000 		.4byte	0
 4184              	.LLST21:
 4185 0304 0A000000 		.4byte	.LVL35
 4186 0308 16000000 		.4byte	.LVL36
 4187 030c 0100     		.2byte	0x1
 4188 030e 50       		.byte	0x50
 4189 030f 16000000 		.4byte	.LVL36
 4190 0313 20000000 		.4byte	.LFE223
 4191 0317 0100     		.2byte	0x1
 4192 0319 53       		.byte	0x53
 4193 031a 00000000 		.4byte	0
 4194 031e 00000000 		.4byte	0
 4195              	.LLST22:
 4196 0322 00000000 		.4byte	.LVL37
 4197 0326 38000000 		.4byte	.LVL46
 4198 032a 0100     		.2byte	0x1
 4199 032c 50       		.byte	0x50
 4200 032d 38000000 		.4byte	.LVL46
 4201 0331 45000000 		.4byte	.LVL47-1
 4202 0335 0100     		.2byte	0x1
 4203 0337 53       		.byte	0x53
 4204 0338 45000000 		.4byte	.LVL47-1
 4205 033c 52000000 		.4byte	.LVL49
 4206 0340 0400     		.2byte	0x4
 4207 0342 F3       		.byte	0xf3
 4208 0343 01       		.uleb128 0x1
 4209 0344 50       		.byte	0x50
 4210 0345 9F       		.byte	0x9f
 4211 0346 52000000 		.4byte	.LVL49
 4212 034a 64000000 		.4byte	.LFE224
 4213 034e 0100     		.2byte	0x1
 4214 0350 50       		.byte	0x50
 4215 0351 00000000 		.4byte	0
 4216 0355 00000000 		.4byte	0
 4217              	.LLST23:
 4218 0359 06000000 		.4byte	.LVL38
ARM GAS  /tmp/ccugrocP.s 			page 75


 4219 035d 5E000000 		.4byte	.LVL51
 4220 0361 0100     		.2byte	0x1
 4221 0363 55       		.byte	0x55
 4222 0364 00000000 		.4byte	0
 4223 0368 00000000 		.4byte	0
 4224              	.LLST24:
 4225 036c 18000000 		.4byte	.LVL40
 4226 0370 30000000 		.4byte	.LVL44
 4227 0374 0100     		.2byte	0x1
 4228 0376 53       		.byte	0x53
 4229 0377 00000000 		.4byte	0
 4230 037b 00000000 		.4byte	0
 4231              	.LLST25:
 4232 037f 12000000 		.4byte	.LVL39
 4233 0383 38000000 		.4byte	.LVL46
 4234 0387 0100     		.2byte	0x1
 4235 0389 50       		.byte	0x50
 4236 038a 38000000 		.4byte	.LVL46
 4237 038e 45000000 		.4byte	.LVL47-1
 4238 0392 0100     		.2byte	0x1
 4239 0394 53       		.byte	0x53
 4240 0395 45000000 		.4byte	.LVL47-1
 4241 0399 52000000 		.4byte	.LVL49
 4242 039d 0400     		.2byte	0x4
 4243 039f F3       		.byte	0xf3
 4244 03a0 01       		.uleb128 0x1
 4245 03a1 50       		.byte	0x50
 4246 03a2 9F       		.byte	0x9f
 4247 03a3 52000000 		.4byte	.LVL49
 4248 03a7 64000000 		.4byte	.LFE224
 4249 03ab 0100     		.2byte	0x1
 4250 03ad 50       		.byte	0x50
 4251 03ae 00000000 		.4byte	0
 4252 03b2 00000000 		.4byte	0
 4253              	.LLST27:
 4254 03b6 18000000 		.4byte	.LVL40
 4255 03ba 45000000 		.4byte	.LVL47-1
 4256 03be 0100     		.2byte	0x1
 4257 03c0 51       		.byte	0x51
 4258 03c1 00000000 		.4byte	0
 4259 03c5 00000000 		.4byte	0
 4260              	.LLST28:
 4261 03c9 1A000000 		.4byte	.LVL41
 4262 03cd 2A000000 		.4byte	.LVL43
 4263 03d1 0100     		.2byte	0x1
 4264 03d3 53       		.byte	0x53
 4265 03d4 00000000 		.4byte	0
 4266 03d8 00000000 		.4byte	0
 4267              	.LLST30:
 4268 03dc 36000000 		.4byte	.LVL45
 4269 03e0 45000000 		.4byte	.LVL47-1
 4270 03e4 0100     		.2byte	0x1
 4271 03e6 53       		.byte	0x53
 4272 03e7 45000000 		.4byte	.LVL47-1
 4273 03eb 52000000 		.4byte	.LVL49
 4274 03ef 0400     		.2byte	0x4
 4275 03f1 F3       		.byte	0xf3
ARM GAS  /tmp/ccugrocP.s 			page 76


 4276 03f2 01       		.uleb128 0x1
 4277 03f3 50       		.byte	0x50
 4278 03f4 9F       		.byte	0x9f
 4279 03f5 00000000 		.4byte	0
 4280 03f9 00000000 		.4byte	0
 4281              	.LLST31:
 4282 03fd 36000000 		.4byte	.LVL45
 4283 0401 52000000 		.4byte	.LVL49
 4284 0405 0100     		.2byte	0x1
 4285 0407 54       		.byte	0x54
 4286 0408 00000000 		.4byte	0
 4287 040c 00000000 		.4byte	0
 4288              	.LLST32:
 4289 0410 4A000000 		.4byte	.LVL48
 4290 0414 52000000 		.4byte	.LVL49
 4291 0418 0200     		.2byte	0x2
 4292 041a 30       		.byte	0x30
 4293 041b 9F       		.byte	0x9f
 4294 041c 56000000 		.4byte	.LVL50
 4295 0420 64000000 		.4byte	.LFE224
 4296 0424 0200     		.2byte	0x2
 4297 0426 30       		.byte	0x30
 4298 0427 9F       		.byte	0x9f
 4299 0428 00000000 		.4byte	0
 4300 042c 00000000 		.4byte	0
 4301              	.LLST33:
 4302 0430 00000000 		.4byte	.LVL52
 4303 0434 0A000000 		.4byte	.LVL53
 4304 0438 0100     		.2byte	0x1
 4305 043a 50       		.byte	0x50
 4306 043b 0A000000 		.4byte	.LVL53
 4307 043f 3E000000 		.4byte	.LVL62
 4308 0443 0100     		.2byte	0x1
 4309 0445 54       		.byte	0x54
 4310 0446 3E000000 		.4byte	.LVL62
 4311 044a 41000000 		.4byte	.LVL63-1
 4312 044e 0200     		.2byte	0x2
 4313 0450 70       		.byte	0x70
 4314 0451 3C       		.sleb128 60
 4315 0452 41000000 		.4byte	.LVL63-1
 4316 0456 42000000 		.4byte	.LVL63
 4317 045a 0400     		.2byte	0x4
 4318 045c F3       		.byte	0xf3
 4319 045d 01       		.uleb128 0x1
 4320 045e 50       		.byte	0x50
 4321 045f 9F       		.byte	0x9f
 4322 0460 42000000 		.4byte	.LVL63
 4323 0464 48000000 		.4byte	.LVL64
 4324 0468 0100     		.2byte	0x1
 4325 046a 54       		.byte	0x54
 4326 046b 48000000 		.4byte	.LVL64
 4327 046f 50000000 		.4byte	.LFE225
 4328 0473 0400     		.2byte	0x4
 4329 0475 F3       		.byte	0xf3
 4330 0476 01       		.uleb128 0x1
 4331 0477 50       		.byte	0x50
 4332 0478 9F       		.byte	0x9f
ARM GAS  /tmp/ccugrocP.s 			page 77


 4333 0479 00000000 		.4byte	0
 4334 047d 00000000 		.4byte	0
 4335              	.LLST34:
 4336 0481 0A000000 		.4byte	.LVL53
 4337 0485 34000000 		.4byte	.LVL61
 4338 0489 0100     		.2byte	0x1
 4339 048b 50       		.byte	0x50
 4340 048c 42000000 		.4byte	.LVL63
 4341 0490 50000000 		.4byte	.LFE225
 4342 0494 0100     		.2byte	0x1
 4343 0496 50       		.byte	0x50
 4344 0497 00000000 		.4byte	0
 4345 049b 00000000 		.4byte	0
 4346              	.LLST35:
 4347 049f 14000000 		.4byte	.LVL55
 4348 04a3 2C000000 		.4byte	.LVL59
 4349 04a7 0100     		.2byte	0x1
 4350 04a9 53       		.byte	0x53
 4351 04aa 00000000 		.4byte	0
 4352 04ae 00000000 		.4byte	0
 4353              	.LLST36:
 4354 04b2 0E000000 		.4byte	.LVL54
 4355 04b6 3E000000 		.4byte	.LVL62
 4356 04ba 0100     		.2byte	0x1
 4357 04bc 54       		.byte	0x54
 4358 04bd 3E000000 		.4byte	.LVL62
 4359 04c1 41000000 		.4byte	.LVL63-1
 4360 04c5 0200     		.2byte	0x2
 4361 04c7 70       		.byte	0x70
 4362 04c8 3C       		.sleb128 60
 4363 04c9 41000000 		.4byte	.LVL63-1
 4364 04cd 42000000 		.4byte	.LVL63
 4365 04d1 0400     		.2byte	0x4
 4366 04d3 F3       		.byte	0xf3
 4367 04d4 01       		.uleb128 0x1
 4368 04d5 50       		.byte	0x50
 4369 04d6 9F       		.byte	0x9f
 4370 04d7 42000000 		.4byte	.LVL63
 4371 04db 48000000 		.4byte	.LVL64
 4372 04df 0100     		.2byte	0x1
 4373 04e1 54       		.byte	0x54
 4374 04e2 48000000 		.4byte	.LVL64
 4375 04e6 50000000 		.4byte	.LFE225
 4376 04ea 0400     		.2byte	0x4
 4377 04ec F3       		.byte	0xf3
 4378 04ed 01       		.uleb128 0x1
 4379 04ee 50       		.byte	0x50
 4380 04ef 9F       		.byte	0x9f
 4381 04f0 00000000 		.4byte	0
 4382 04f4 00000000 		.4byte	0
 4383              	.LLST38:
 4384 04f8 14000000 		.4byte	.LVL55
 4385 04fc 41000000 		.4byte	.LVL63-1
 4386 0500 0100     		.2byte	0x1
 4387 0502 51       		.byte	0x51
 4388 0503 00000000 		.4byte	0
 4389 0507 00000000 		.4byte	0
ARM GAS  /tmp/ccugrocP.s 			page 78


 4390              	.LLST39:
 4391 050b 16000000 		.4byte	.LVL56
 4392 050f 26000000 		.4byte	.LVL58
 4393 0513 0100     		.2byte	0x1
 4394 0515 53       		.byte	0x53
 4395 0516 00000000 		.4byte	0
 4396 051a 00000000 		.4byte	0
 4397              	.LLST41:
 4398 051e 30000000 		.4byte	.LVL60
 4399 0522 3E000000 		.4byte	.LVL62
 4400 0526 0100     		.2byte	0x1
 4401 0528 54       		.byte	0x54
 4402 0529 3E000000 		.4byte	.LVL62
 4403 052d 41000000 		.4byte	.LVL63-1
 4404 0531 0200     		.2byte	0x2
 4405 0533 70       		.byte	0x70
 4406 0534 3C       		.sleb128 60
 4407 0535 41000000 		.4byte	.LVL63-1
 4408 0539 42000000 		.4byte	.LVL63
 4409 053d 0400     		.2byte	0x4
 4410 053f F3       		.byte	0xf3
 4411 0540 01       		.uleb128 0x1
 4412 0541 50       		.byte	0x50
 4413 0542 9F       		.byte	0x9f
 4414 0543 00000000 		.4byte	0
 4415 0547 00000000 		.4byte	0
 4416              	.LLST42:
 4417 054b 30000000 		.4byte	.LVL60
 4418 054f 3E000000 		.4byte	.LVL62
 4419 0553 0100     		.2byte	0x1
 4420 0555 55       		.byte	0x55
 4421 0556 3E000000 		.4byte	.LVL62
 4422 055a 41000000 		.4byte	.LVL63-1
 4423 055e 0100     		.2byte	0x1
 4424 0560 50       		.byte	0x50
 4425 0561 00000000 		.4byte	0
 4426 0565 00000000 		.4byte	0
 4427              	.LLST43:
 4428 0569 08000000 		.4byte	.LVL65
 4429 056d 4E000000 		.4byte	.LVL74
 4430 0571 0100     		.2byte	0x1
 4431 0573 54       		.byte	0x54
 4432 0574 00000000 		.4byte	0
 4433 0578 00000000 		.4byte	0
 4434              	.LLST44:
 4435 057c 14000000 		.4byte	.LVL66
 4436 0580 25000000 		.4byte	.LVL67-1
 4437 0584 0100     		.2byte	0x1
 4438 0586 53       		.byte	0x53
 4439 0587 2A000000 		.4byte	.LVL68
 4440 058b 3A000000 		.4byte	.LVL71
 4441 058f 0100     		.2byte	0x1
 4442 0591 53       		.byte	0x53
 4443 0592 00000000 		.4byte	0
 4444 0596 00000000 		.4byte	0
 4445              	.LLST46:
 4446 059a 14000000 		.4byte	.LVL66
ARM GAS  /tmp/ccugrocP.s 			page 79


 4447 059e 25000000 		.4byte	.LVL67-1
 4448 05a2 0100     		.2byte	0x1
 4449 05a4 50       		.byte	0x50
 4450 05a5 2C000000 		.4byte	.LVL69
 4451 05a9 3E000000 		.4byte	.LVL72
 4452 05ad 0100     		.2byte	0x1
 4453 05af 52       		.byte	0x52
 4454 05b0 00000000 		.4byte	0
 4455 05b4 00000000 		.4byte	0
 4456              	.LLST47:
 4457 05b8 14000000 		.4byte	.LVL66
 4458 05bc 25000000 		.4byte	.LVL67-1
 4459 05c0 0100     		.2byte	0x1
 4460 05c2 53       		.byte	0x53
 4461 05c3 30000000 		.4byte	.LVL70
 4462 05c7 3A000000 		.4byte	.LVL71
 4463 05cb 0100     		.2byte	0x1
 4464 05cd 53       		.byte	0x53
 4465 05ce 00000000 		.4byte	0
 4466 05d2 00000000 		.4byte	0
 4467              		.section	.debug_aranges,"",%progbits
 4468 0000 54000000 		.4byte	0x54
 4469 0004 0200     		.2byte	0x2
 4470 0006 00000000 		.4byte	.Ldebug_info0
 4471 000a 04       		.byte	0x4
 4472 000b 00       		.byte	0
 4473 000c 0000     		.2byte	0
 4474 000e 0000     		.2byte	0
 4475 0010 00000000 		.4byte	.LFB219
 4476 0014 0A000000 		.4byte	.LFE219-.LFB219
 4477 0018 00000000 		.4byte	.LFB221
 4478 001c C8000000 		.4byte	.LFE221-.LFB221
 4479 0020 00000000 		.4byte	.LFB220
 4480 0024 14000000 		.4byte	.LFE220-.LFB220
 4481 0028 00000000 		.4byte	.LFB222
 4482 002c 30000000 		.4byte	.LFE222-.LFB222
 4483 0030 00000000 		.4byte	.LFB223
 4484 0034 20000000 		.4byte	.LFE223-.LFB223
 4485 0038 00000000 		.4byte	.LFB224
 4486 003c 64000000 		.4byte	.LFE224-.LFB224
 4487 0040 00000000 		.4byte	.LFB225
 4488 0044 50000000 		.4byte	.LFE225-.LFB225
 4489 0048 00000000 		.4byte	.LFB226
 4490 004c 54000000 		.4byte	.LFE226-.LFB226
 4491 0050 00000000 		.4byte	0
 4492 0054 00000000 		.4byte	0
 4493              		.section	.debug_ranges,"",%progbits
 4494              	.Ldebug_ranges0:
 4495 0000 0C000000 		.4byte	.LBB105
 4496 0004 44000000 		.4byte	.LBE105
 4497 0008 48000000 		.4byte	.LBB124
 4498 000c B8000000 		.4byte	.LBE124
 4499 0010 00000000 		.4byte	0
 4500 0014 00000000 		.4byte	0
 4501 0018 4C000000 		.4byte	.LBB108
 4502 001c 54000000 		.4byte	.LBE108
 4503 0020 56000000 		.4byte	.LBB111
ARM GAS  /tmp/ccugrocP.s 			page 80


 4504 0024 58000000 		.4byte	.LBE111
 4505 0028 00000000 		.4byte	0
 4506 002c 00000000 		.4byte	0
 4507 0030 5E000000 		.4byte	.LBB112
 4508 0034 64000000 		.4byte	.LBE112
 4509 0038 66000000 		.4byte	.LBB115
 4510 003c 6A000000 		.4byte	.LBE115
 4511 0040 00000000 		.4byte	0
 4512 0044 00000000 		.4byte	0
 4513 0048 86000000 		.4byte	.LBB118
 4514 004c 8C000000 		.4byte	.LBE118
 4515 0050 8E000000 		.4byte	.LBB121
 4516 0054 92000000 		.4byte	.LBE121
 4517 0058 00000000 		.4byte	0
 4518 005c 00000000 		.4byte	0
 4519 0060 08000000 		.4byte	.LBB151
 4520 0064 0E000000 		.4byte	.LBE151
 4521 0068 16000000 		.4byte	.LBB165
 4522 006c 24000000 		.4byte	.LBE165
 4523 0070 00000000 		.4byte	0
 4524 0074 00000000 		.4byte	0
 4525 0078 0E000000 		.4byte	.LBB156
 4526 007c 14000000 		.4byte	.LBE156
 4527 0080 24000000 		.4byte	.LBB166
 4528 0084 2A000000 		.4byte	.LBE166
 4529 0088 00000000 		.4byte	0
 4530 008c 00000000 		.4byte	0
 4531 0090 30000000 		.4byte	.LBB184
 4532 0094 32000000 		.4byte	.LBE184
 4533 0098 38000000 		.4byte	.LBB187
 4534 009c 3C000000 		.4byte	.LBE187
 4535 00a0 00000000 		.4byte	0
 4536 00a4 00000000 		.4byte	0
 4537 00a8 4A000000 		.4byte	.LBB188
 4538 00ac 52000000 		.4byte	.LBE188
 4539 00b0 56000000 		.4byte	.LBB197
 4540 00b4 64000000 		.4byte	.LBE197
 4541 00b8 00000000 		.4byte	0
 4542 00bc 00000000 		.4byte	0
 4543 00c0 12000000 		.4byte	.LBB202
 4544 00c4 3C000000 		.4byte	.LBE202
 4545 00c8 3E000000 		.4byte	.LBB213
 4546 00cc 42000000 		.4byte	.LBE213
 4547 00d0 00000000 		.4byte	0
 4548 00d4 00000000 		.4byte	0
 4549 00d8 2A000000 		.4byte	.LBB207
 4550 00dc 2C000000 		.4byte	.LBE207
 4551 00e0 30000000 		.4byte	.LBB211
 4552 00e4 32000000 		.4byte	.LBE211
 4553 00e8 34000000 		.4byte	.LBB212
 4554 00ec 36000000 		.4byte	.LBE212
 4555 00f0 00000000 		.4byte	0
 4556 00f4 00000000 		.4byte	0
 4557 00f8 04000000 		.4byte	.LBB214
 4558 00fc 06000000 		.4byte	.LBE214
 4559 0100 08000000 		.4byte	.LBB221
 4560 0104 0C000000 		.4byte	.LBE221
ARM GAS  /tmp/ccugrocP.s 			page 81


 4561 0108 00000000 		.4byte	0
 4562 010c 00000000 		.4byte	0
 4563 0110 10000000 		.4byte	.LBB222
 4564 0114 26000000 		.4byte	.LBE222
 4565 0118 2A000000 		.4byte	.LBB233
 4566 011c 38000000 		.4byte	.LBE233
 4567 0120 00000000 		.4byte	0
 4568 0124 00000000 		.4byte	0
 4569 0128 14000000 		.4byte	.LBB223
 4570 012c 26000000 		.4byte	.LBE223
 4571 0130 32000000 		.4byte	.LBB232
 4572 0134 34000000 		.4byte	.LBE232
 4573 0138 00000000 		.4byte	0
 4574 013c 00000000 		.4byte	0
 4575 0140 14000000 		.4byte	.LBB224
 4576 0144 16000000 		.4byte	.LBE224
 4577 0148 18000000 		.4byte	.LBB227
 4578 014c 1C000000 		.4byte	.LBE227
 4579 0150 00000000 		.4byte	0
 4580 0154 00000000 		.4byte	0
 4581 0158 00000000 		.4byte	.LFB219
 4582 015c 0A000000 		.4byte	.LFE219
 4583 0160 00000000 		.4byte	.LFB221
 4584 0164 C8000000 		.4byte	.LFE221
 4585 0168 00000000 		.4byte	.LFB220
 4586 016c 14000000 		.4byte	.LFE220
 4587 0170 00000000 		.4byte	.LFB222
 4588 0174 30000000 		.4byte	.LFE222
 4589 0178 00000000 		.4byte	.LFB223
 4590 017c 20000000 		.4byte	.LFE223
 4591 0180 00000000 		.4byte	.LFB224
 4592 0184 64000000 		.4byte	.LFE224
 4593 0188 00000000 		.4byte	.LFB225
 4594 018c 50000000 		.4byte	.LFE225
 4595 0190 00000000 		.4byte	.LFB226
 4596 0194 54000000 		.4byte	.LFE226
 4597 0198 00000000 		.4byte	0
 4598 019c 00000000 		.4byte	0
 4599              		.section	.debug_line,"",%progbits
 4600              	.Ldebug_line0:
 4601 0000 2D040000 		.section	.debug_str,"MS",%progbits,1
 4601      0200B701 
 4601      00000201 
 4601      FB0E0D00 
 4601      01010101 
 4602              	.LASF53:
 4603 0000 72656164 		.ascii	"ready_list_t\000"
 4603      795F6C69 
 4603      73745F74 
 4603      00
 4604              	.LASF91:
 4605 000d 77747472 		.ascii	"wttrp\000"
 4605      7000
 4606              	.LASF88:
 4607 0013 7264796D 		.ascii	"rdymsg\000"
 4607      736700
 4608              	.LASF16:
ARM GAS  /tmp/ccugrocP.s 			page 82


 4609 001a 75696E74 		.ascii	"uint64_t\000"
 4609      36345F74 
 4609      00
 4610              	.LASF5:
 4611 0023 5F5F7569 		.ascii	"__uint8_t\000"
 4611      6E74385F 
 4611      7400
 4612              	.LASF85:
 4613 002d 706F7274 		.ascii	"port_intctx\000"
 4613      5F696E74 
 4613      63747800 
 4614              	.LASF72:
 4615 0039 73797374 		.ascii	"system_debug_t\000"
 4615      656D5F64 
 4615      65627567 
 4615      5F7400
 4616              	.LASF109:
 4617 0048 71756575 		.ascii	"queue_init\000"
 4617      655F696E 
 4617      697400
 4618              	.LASF104:
 4619 0053 706F7274 		.ascii	"port_lock\000"
 4619      5F6C6F63 
 4619      6B00
 4620              	.LASF12:
 4621 005d 6C6F6E67 		.ascii	"long long unsigned int\000"
 4621      206C6F6E 
 4621      6720756E 
 4621      7369676E 
 4621      65642069 
 4622              	.LASF89:
 4623 0074 65786974 		.ascii	"exitcode\000"
 4623      636F6465 
 4623      00
 4624              	.LASF79:
 4625 007d 6D61696E 		.ascii	"mainthread\000"
 4625      74687265 
 4625      616400
 4626              	.LASF69:
 4627 0088 76697274 		.ascii	"virtual_timers_list_t\000"
 4627      75616C5F 
 4627      74696D65 
 4627      72735F6C 
 4627      6973745F 
 4628              	.LASF126:
 4629 009e 49544D5F 		.ascii	"ITM_RxBuffer\000"
 4629      52784275 
 4629      66666572 
 4629      00
 4630              	.LASF52:
 4631 00ab 63685F74 		.ascii	"ch_threads_queue\000"
 4631      68726561 
 4631      64735F71 
 4631      75657565 
 4631      00
 4632              	.LASF30:
 4633 00bc 705F7072 		.ascii	"p_prio\000"
ARM GAS  /tmp/ccugrocP.s 			page 83


 4633      696F00
 4634              	.LASF103:
 4635 00c3 6D757465 		.ascii	"mutex_t\000"
 4635      785F7400 
 4636              	.LASF122:
 4637 00cb 63684D74 		.ascii	"chMtxUnlock\000"
 4637      78556E6C 
 4637      6F636B00 
 4638              	.LASF1:
 4639 00d7 7369676E 		.ascii	"signed char\000"
 4639      65642063 
 4639      68617200 
 4640              	.LASF46:
 4641 00e3 705F6D70 		.ascii	"p_mpool\000"
 4641      6F6F6C00 
 4642              	.LASF99:
 4643 00eb 6D5F7175 		.ascii	"m_queue\000"
 4643      65756500 
 4644              	.LASF78:
 4645 00f3 76746C69 		.ascii	"vtlist\000"
 4645      737400
 4646              	.LASF105:
 4647 00fa 706F7274 		.ascii	"port_unlock\000"
 4647      5F756E6C 
 4647      6F636B00 
 4648              	.LASF21:
 4649 0106 74736C69 		.ascii	"tslices_t\000"
 4649      6365735F 
 4649      7400
 4650              	.LASF76:
 4651 0110 63685F73 		.ascii	"ch_system\000"
 4651      79737465 
 4651      6D00
 4652              	.LASF7:
 4653 011a 6C6F6E67 		.ascii	"long int\000"
 4653      20696E74 
 4653      00
 4654              	.LASF111:
 4655 0123 71756575 		.ascii	"queue_dequeue\000"
 4655      655F6465 
 4655      71756575 
 4655      6500
 4656              	.LASF19:
 4657 0131 74737461 		.ascii	"tstate_t\000"
 4657      74655F74 
 4657      00
 4658              	.LASF110:
 4659 013a 71756575 		.ascii	"queue_notempty\000"
 4659      655F6E6F 
 4659      74656D70 
 4659      747900
 4660              	.LASF116:
 4661 0149 63684D74 		.ascii	"chMtxTryLockS\000"
 4661      78547279 
 4661      4C6F636B 
 4661      5300
 4662              	.LASF32:
ARM GAS  /tmp/ccugrocP.s 			page 84


 4663 0157 705F6E65 		.ascii	"p_newer\000"
 4663      77657200 
 4664              	.LASF96:
 4665 015f 735F7175 		.ascii	"s_queue\000"
 4665      65756500 
 4666              	.LASF133:
 4667 0167 63685363 		.ascii	"chSchRescheduleS\000"
 4667      68526573 
 4667      63686564 
 4667      756C6553 
 4667      00
 4668              	.LASF58:
 4669 0178 725F6E65 		.ascii	"r_newer\000"
 4669      77657200 
 4670              	.LASF82:
 4671 0180 72656761 		.ascii	"regarm_t\000"
 4671      726D5F74 
 4671      00
 4672              	.LASF65:
 4673 0189 76745F70 		.ascii	"vt_prev\000"
 4673      72657600 
 4674              	.LASF10:
 4675 0191 6C6F6E67 		.ascii	"long long int\000"
 4675      206C6F6E 
 4675      6720696E 
 4675      7400
 4676              	.LASF106:
 4677 019f 76616C75 		.ascii	"value\000"
 4677      6500
 4678              	.LASF80:
 4679 01a5 69646C65 		.ascii	"idle_thread_wa\000"
 4679      5F746872 
 4679      6561645F 
 4679      776100
 4680              	.LASF25:
 4681 01b4 636E745F 		.ascii	"cnt_t\000"
 4681      7400
 4682              	.LASF124:
 4683 01ba 63684D74 		.ascii	"chMtxUnlockS\000"
 4683      78556E6C 
 4683      6F636B53 
 4683      00
 4684              	.LASF0:
 4685 01c7 756E7369 		.ascii	"unsigned int\000"
 4685      676E6564 
 4685      20696E74 
 4685      00
 4686              	.LASF64:
 4687 01d4 76745F6E 		.ascii	"vt_next\000"
 4687      65787400 
 4688              	.LASF39:
 4689 01dc 705F7469 		.ascii	"p_time\000"
 4689      6D6500
 4690              	.LASF92:
 4691 01e3 77747365 		.ascii	"wtsemp\000"
 4691      6D7000
 4692              	.LASF66:
ARM GAS  /tmp/ccugrocP.s 			page 85


 4693 01ea 76745F64 		.ascii	"vt_delta\000"
 4693      656C7461 
 4693      00
 4694              	.LASF41:
 4695 01f3 705F6D73 		.ascii	"p_msgqueue\000"
 4695      67717565 
 4695      756500
 4696              	.LASF97:
 4697 01fe 735F636E 		.ascii	"s_cnt\000"
 4697      7400
 4698              	.LASF4:
 4699 0204 73686F72 		.ascii	"short unsigned int\000"
 4699      7420756E 
 4699      7369676E 
 4699      65642069 
 4699      6E7400
 4700              	.LASF49:
 4701 0217 63685F74 		.ascii	"ch_thread\000"
 4701      68726561 
 4701      6400
 4702              	.LASF23:
 4703 0221 6D73675F 		.ascii	"msg_t\000"
 4703      7400
 4704              	.LASF75:
 4705 0227 63685F73 		.ascii	"ch_system_t\000"
 4705      79737465 
 4705      6D5F7400 
 4706              	.LASF125:
 4707 0233 63684D74 		.ascii	"chMtxUnlockAll\000"
 4707      78556E6C 
 4707      6F636B41 
 4707      6C6C00
 4708              	.LASF123:
 4709 0242 6E657770 		.ascii	"newprio\000"
 4709      72696F00 
 4710              	.LASF18:
 4711 024a 746D6F64 		.ascii	"tmode_t\000"
 4711      655F7400 
 4712              	.LASF54:
 4713 0252 63685F72 		.ascii	"ch_ready_list\000"
 4713      65616479 
 4713      5F6C6973 
 4713      7400
 4714              	.LASF24:
 4715 0260 6576656E 		.ascii	"eventmask_t\000"
 4715      746D6173 
 4715      6B5F7400 
 4716              	.LASF131:
 4717 026c 63684D74 		.ascii	"chMtxTryLock\000"
 4717      78547279 
 4717      4C6F636B 
 4717      00
 4718              	.LASF6:
 4719 0279 5F5F696E 		.ascii	"__int32_t\000"
 4719      7433325F 
 4719      7400
 4720              	.LASF83:
ARM GAS  /tmp/ccugrocP.s 			page 86


 4721 0283 73746B61 		.ascii	"stkalign_t\000"
 4721      6C69676E 
 4721      5F7400
 4722              	.LASF48:
 4723 028e 74687265 		.ascii	"threads_list_t\000"
 4723      6164735F 
 4723      6C697374 
 4723      5F7400
 4724              	.LASF40:
 4725 029d 705F7761 		.ascii	"p_waiting\000"
 4725      6974696E 
 4725      6700
 4726              	.LASF81:
 4727 02a7 73697A65 		.ascii	"sizetype\000"
 4727      74797065 
 4727      00
 4728              	.LASF47:
 4729 02b0 74687265 		.ascii	"thread_reference_t\000"
 4729      61645F72 
 4729      65666572 
 4729      656E6365 
 4729      5F7400
 4730              	.LASF70:
 4731 02c3 63685F76 		.ascii	"ch_virtual_timers_list\000"
 4731      69727475 
 4731      616C5F74 
 4731      696D6572 
 4731      735F6C69 
 4732              	.LASF108:
 4733 02da 5F5F7365 		.ascii	"__set_BASEPRI\000"
 4733      745F4241 
 4733      53455052 
 4733      4900
 4734              	.LASF121:
 4735 02e8 63684D74 		.ascii	"chMtxLock\000"
 4735      784C6F63 
 4735      6B00
 4736              	.LASF33:
 4737 02f2 705F6F6C 		.ascii	"p_older\000"
 4737      64657200 
 4738              	.LASF57:
 4739 02fa 725F6374 		.ascii	"r_ctx\000"
 4739      7800
 4740              	.LASF87:
 4741 0300 746D5F63 		.ascii	"tm_calibration_t\000"
 4741      616C6962 
 4741      72617469 
 4741      6F6E5F74 
 4741      00
 4742              	.LASF101:
 4743 0311 6D5F6E65 		.ascii	"m_next\000"
 4743      787400
 4744              	.LASF60:
 4745 0318 725F6375 		.ascii	"r_current\000"
 4745      7272656E 
 4745      7400
 4746              	.LASF59:
ARM GAS  /tmp/ccugrocP.s 			page 87


 4747 0322 725F6F6C 		.ascii	"r_older\000"
 4747      64657200 
 4748              	.LASF11:
 4749 032a 5F5F7569 		.ascii	"__uint64_t\000"
 4749      6E743634 
 4749      5F7400
 4750              	.LASF20:
 4751 0335 74726566 		.ascii	"trefs_t\000"
 4751      735F7400 
 4752              	.LASF62:
 4753 033d 76697274 		.ascii	"virtual_timer_t\000"
 4753      75616C5F 
 4753      74696D65 
 4753      725F7400 
 4754              	.LASF29:
 4755 034d 705F7072 		.ascii	"p_prev\000"
 4755      657600
 4756              	.LASF22:
 4757 0354 74707269 		.ascii	"tprio_t\000"
 4757      6F5F7400 
 4758              	.LASF119:
 4759 035c 63684D74 		.ascii	"chMtxObjectInit\000"
 4759      784F626A 
 4759      65637449 
 4759      6E697400 
 4760              	.LASF73:
 4761 036c 63685F73 		.ascii	"ch_system_debug\000"
 4761      79737465 
 4761      6D5F6465 
 4761      62756700 
 4762              	.LASF107:
 4763 037c 5F426F6F 		.ascii	"_Bool\000"
 4763      6C00
 4764              	.LASF14:
 4765 0382 696E7433 		.ascii	"int32_t\000"
 4765      325F7400 
 4766              	.LASF2:
 4767 038a 756E7369 		.ascii	"unsigned char\000"
 4767      676E6564 
 4767      20636861 
 4767      7200
 4768              	.LASF35:
 4769 0398 705F7374 		.ascii	"p_state\000"
 4769      61746500 
 4770              	.LASF44:
 4771 03a0 705F6D74 		.ascii	"p_mtxlist\000"
 4771      786C6973 
 4771      7400
 4772              	.LASF3:
 4773 03aa 73686F72 		.ascii	"short int\000"
 4773      7420696E 
 4773      7400
 4774              	.LASF38:
 4775 03b4 705F7072 		.ascii	"p_preempt\000"
 4775      65656D70 
 4775      7400
 4776              	.LASF56:
ARM GAS  /tmp/ccugrocP.s 			page 88


 4777 03be 725F7072 		.ascii	"r_prio\000"
 4777      696F00
 4778              	.LASF94:
 4779 03c5 65776D61 		.ascii	"ewmask\000"
 4779      736B00
 4780              	.LASF28:
 4781 03cc 705F6E65 		.ascii	"p_next\000"
 4781      787400
 4782              	.LASF36:
 4783 03d3 705F666C 		.ascii	"p_flags\000"
 4783      61677300 
 4784              	.LASF115:
 4785 03db 5F5F6675 		.ascii	"__func__\000"
 4785      6E635F5F 
 4785      00
 4786              	.LASF113:
 4787 03e4 63685379 		.ascii	"chSysLock\000"
 4787      734C6F63 
 4787      6B00
 4788              	.LASF130:
 4789 03ee 2F686F6D 		.ascii	"/home/sivert/Documents/GitHub/BLDC/bldc-firmware\000"
 4789      652F7369 
 4789      76657274 
 4789      2F446F63 
 4789      756D656E 
 4790              	.LASF63:
 4791 041f 63685F76 		.ascii	"ch_virtual_timer\000"
 4791      69727475 
 4791      616C5F74 
 4791      696D6572 
 4791      00
 4792              	.LASF95:
 4793 0430 63685F73 		.ascii	"ch_semaphore\000"
 4793      656D6170 
 4793      686F7265 
 4793      00
 4794              	.LASF132:
 4795 043d 63685363 		.ascii	"chSchGoSleepS\000"
 4795      68476F53 
 4795      6C656570 
 4795      5300
 4796              	.LASF43:
 4797 044b 705F6570 		.ascii	"p_epending\000"
 4797      656E6469 
 4797      6E6700
 4798              	.LASF15:
 4799 0456 75696E74 		.ascii	"uint32_t\000"
 4799      33325F74 
 4799      00
 4800              	.LASF93:
 4801 045f 77746D74 		.ascii	"wtmtxp\000"
 4801      787000
 4802              	.LASF55:
 4803 0466 725F7175 		.ascii	"r_queue\000"
 4803      65756500 
 4804              	.LASF127:
 4805 046e 63685363 		.ascii	"chSchReadyI\000"
ARM GAS  /tmp/ccugrocP.s 			page 89


 4805      68526561 
 4805      64794900 
 4806              	.LASF50:
 4807 047a 63685F74 		.ascii	"ch_threads_list\000"
 4807      68726561 
 4807      64735F6C 
 4807      69737400 
 4808              	.LASF9:
 4809 048a 6C6F6E67 		.ascii	"long unsigned int\000"
 4809      20756E73 
 4809      69676E65 
 4809      6420696E 
 4809      7400
 4810              	.LASF102:
 4811 049c 63686172 		.ascii	"char\000"
 4811      00
 4812              	.LASF128:
 4813 04a1 474E5520 		.ascii	"GNU C 4.9.3 20150529 (release) [ARM/embedded-4_9-br"
 4813      4320342E 
 4813      392E3320 
 4813      32303135 
 4813      30353239 
 4814 04d4 616E6368 		.ascii	"anch revision 227977] -mcpu=cortex-m4 -mfloat-abi=h"
 4814      20726576 
 4814      6973696F 
 4814      6E203232 
 4814      37393737 
 4815 0507 61726420 		.ascii	"ard -mfpu=fpv4-sp-d16 -mno-thumb-interwork -mthumb "
 4815      2D6D6670 
 4815      753D6670 
 4815      76342D73 
 4815      702D6431 
 4816 053a 2D676764 		.ascii	"-ggdb -O2 -std=gnu99 -fomit-frame-pointer -falign-f"
 4816      62202D4F 
 4816      32202D73 
 4816      74643D67 
 4816      6E753939 
 4817 056d 756E6374 		.ascii	"unctions=16 -ffunction-sections -fdata-sections -fn"
 4817      696F6E73 
 4817      3D313620 
 4817      2D666675 
 4817      6E637469 
 4818 05a0 6F2D636F 		.ascii	"o-common -fsingle-precision-constant\000"
 4818      6D6D6F6E 
 4818      202D6673 
 4818      696E676C 
 4818      652D7072 
 4819              	.LASF118:
 4820 05c5 71756575 		.ascii	"queue_fifo_remove\000"
 4820      655F6669 
 4820      666F5F72 
 4820      656D6F76 
 4820      6500
 4821              	.LASF26:
 4822 05d7 73797374 		.ascii	"systime_t\000"
 4822      696D655F 
 4822      7400
ARM GAS  /tmp/ccugrocP.s 			page 90


 4823              	.LASF45:
 4824 05e1 705F7265 		.ascii	"p_realprio\000"
 4824      616C7072 
 4824      696F00
 4825              	.LASF61:
 4826 05ec 76746675 		.ascii	"vtfunc_t\000"
 4826      6E635F74 
 4826      00
 4827              	.LASF8:
 4828 05f5 5F5F7569 		.ascii	"__uint32_t\000"
 4828      6E743332 
 4828      5F7400
 4829              	.LASF117:
 4830 0600 63684D74 		.ascii	"chMtxQueueNotEmptyS\000"
 4830      78517565 
 4830      75654E6F 
 4830      74456D70 
 4830      74795300 
 4831              	.LASF74:
 4832 0614 70616E69 		.ascii	"panic_msg\000"
 4832      635F6D73 
 4832      6700
 4833              	.LASF86:
 4834 061e 6F666673 		.ascii	"offset\000"
 4834      657400
 4835              	.LASF129:
 4836 0625 43686962 		.ascii	"ChibiOS_3.0.2/os/rt/src/chmtx.c\000"
 4836      694F535F 
 4836      332E302E 
 4836      322F6F73 
 4836      2F72742F 
 4837              	.LASF84:
 4838 0645 636F6E74 		.ascii	"context\000"
 4838      65787400 
 4839              	.LASF17:
 4840 064d 7274636E 		.ascii	"rtcnt_t\000"
 4840      745F7400 
 4841              	.LASF68:
 4842 0655 76745F70 		.ascii	"vt_par\000"
 4842      617200
 4843              	.LASF51:
 4844 065c 74687265 		.ascii	"threads_queue_t\000"
 4844      6164735F 
 4844      71756575 
 4844      655F7400 
 4845              	.LASF98:
 4846 066c 63685F6D 		.ascii	"ch_mutex\000"
 4846      75746578 
 4846      00
 4847              	.LASF37:
 4848 0675 705F7265 		.ascii	"p_refs\000"
 4848      667300
 4849              	.LASF27:
 4850 067c 74687265 		.ascii	"thread_t\000"
 4850      61645F74 
 4850      00
 4851              	.LASF77:
ARM GAS  /tmp/ccugrocP.s 			page 91


 4852 0685 726C6973 		.ascii	"rlist\000"
 4852      7400
 4853              	.LASF13:
 4854 068b 75696E74 		.ascii	"uint8_t\000"
 4854      385F7400 
 4855              	.LASF90:
 4856 0693 77746F62 		.ascii	"wtobjp\000"
 4856      6A7000
 4857              	.LASF34:
 4858 069a 705F6E61 		.ascii	"p_name\000"
 4858      6D6500
 4859              	.LASF71:
 4860 06a1 76745F73 		.ascii	"vt_systime\000"
 4860      79737469 
 4860      6D6500
 4861              	.LASF114:
 4862 06ac 63685379 		.ascii	"chSysUnlock\000"
 4862      73556E6C 
 4862      6F636B00 
 4863              	.LASF42:
 4864 06b8 705F6D73 		.ascii	"p_msg\000"
 4864      6700
 4865              	.LASF120:
 4866 06be 63684D74 		.ascii	"chMtxLockS\000"
 4866      784C6F63 
 4866      6B5300
 4867              	.LASF112:
 4868 06c9 71756575 		.ascii	"queue_prio_insert\000"
 4868      655F7072 
 4868      696F5F69 
 4868      6E736572 
 4868      7400
 4869              	.LASF100:
 4870 06db 6D5F6F77 		.ascii	"m_owner\000"
 4870      6E657200 
 4871              	.LASF31:
 4872 06e3 705F6374 		.ascii	"p_ctx\000"
 4872      7800
 4873              	.LASF67:
 4874 06e9 76745F66 		.ascii	"vt_func\000"
 4874      756E6300 
 4875              		.ident	"GCC: (GNU Tools for ARM Embedded Processors) 4.9.3 20150529 (release) [ARM/embedded-4_9-br
ARM GAS  /tmp/ccugrocP.s 			page 92


DEFINED SYMBOLS
                            *ABS*:0000000000000000 chmtx.c
     /tmp/ccugrocP.s:21     .text.chMtxObjectInit:0000000000000000 $t
     /tmp/ccugrocP.s:27     .text.chMtxObjectInit:0000000000000000 chMtxObjectInit
     /tmp/ccugrocP.s:54     .text.chMtxLockS:0000000000000000 $t
     /tmp/ccugrocP.s:60     .text.chMtxLockS:0000000000000000 chMtxLockS
     /tmp/ccugrocP.s:303    .text.chMtxLockS:00000000000000c4 $d
     /tmp/ccugrocP.s:308    .text.chMtxLock:0000000000000000 $t
     /tmp/ccugrocP.s:314    .text.chMtxLock:0000000000000000 chMtxLock
     /tmp/ccugrocP.s:364    .text.chMtxTryLock:0000000000000000 $t
     /tmp/ccugrocP.s:370    .text.chMtxTryLock:0000000000000000 chMtxTryLock
     /tmp/ccugrocP.s:469    .text.chMtxTryLock:000000000000002c $d
     /tmp/ccugrocP.s:474    .text.chMtxTryLockS:0000000000000000 $t
     /tmp/ccugrocP.s:480    .text.chMtxTryLockS:0000000000000000 chMtxTryLockS
     /tmp/ccugrocP.s:518    .text.chMtxTryLockS:000000000000001c $d
     /tmp/ccugrocP.s:525    .text.chMtxUnlock:0000000000000000 $t
     /tmp/ccugrocP.s:531    .text.chMtxUnlock:0000000000000000 chMtxUnlock
     /tmp/ccugrocP.s:692    .text.chMtxUnlock:0000000000000060 $d
     /tmp/ccugrocP.s:702    .text.chMtxUnlockS:0000000000000000 $t
     /tmp/ccugrocP.s:708    .text.chMtxUnlockS:0000000000000000 chMtxUnlockS
     /tmp/ccugrocP.s:841    .text.chMtxUnlockS:000000000000004c $d
     /tmp/ccugrocP.s:846    .text.chMtxUnlockAll:0000000000000000 $t
     /tmp/ccugrocP.s:852    .text.chMtxUnlockAll:0000000000000000 chMtxUnlockAll
     /tmp/ccugrocP.s:992    .text.chMtxUnlockAll:0000000000000050 $d
                     .debug_frame:0000000000000010 $d

UNDEFINED SYMBOLS
chSchGoSleepS
chSchReadyI
ch
chSchRescheduleS
