ARM GAS  /tmp/cczhvSL5.s 			page 1


   1              		.syntax unified
   2              		.cpu cortex-m4
   3              		.eabi_attribute 27, 1
   4              		.eabi_attribute 28, 1
   5              		.fpu fpv4-sp-d16
   6              		.eabi_attribute 20, 1
   7              		.eabi_attribute 21, 1
   8              		.eabi_attribute 23, 3
   9              		.eabi_attribute 24, 1
  10              		.eabi_attribute 25, 1
  11              		.eabi_attribute 26, 1
  12              		.eabi_attribute 30, 2
  13              		.eabi_attribute 34, 1
  14              		.eabi_attribute 18, 4
  15              		.thumb
  16              		.file	"comm_usb.c"
  17              		.text
  18              	.Ltext0:
  19              		.cfi_sections	.debug_frame
  20              		.section	.text.send_packet,"ax",%progbits
  21              		.align	2
  22              		.p2align 4,,15
  23              		.thumb
  24              		.thumb_func
  25              		.type	send_packet, %function
  26              	send_packet:
  27              	.LFB260:
  28              		.file 1 "comm_usb.c"
  29              		.loc 1 111 0
  30              		.cfi_startproc
  31              		@ args = 0, pretend = 0, frame = 0
  32              		@ frame_needed = 0, uses_anonymous_args = 0
  33              		@ link register save eliminated.
  34              	.LVL0:
  35              		.loc 1 112 0
  36 0000 054B     		ldr	r3, .L3
  37              		.loc 1 111 0
  38 0002 10B4     		push	{r4}
  39              		.cfi_def_cfa_offset 4
  40              		.cfi_offset 4, -4
  41              		.loc 1 112 0
  42 0004 1C68     		ldr	r4, [r3]
  43 0006 2468     		ldr	r4, [r4]
  44              		.loc 1 111 0
  45 0008 0A46     		mov	r2, r1
  46              		.loc 1 112 0
  47 000a 0146     		mov	r1, r0
  48              	.LVL1:
  49 000c 1846     		mov	r0, r3
  50              	.LVL2:
  51 000e 2346     		mov	r3, r4
  52              		.loc 1 113 0
  53 0010 5DF8044B 		ldr	r4, [sp], #4
  54              		.cfi_restore 4
  55              		.cfi_def_cfa_offset 0
  56              		.loc 1 112 0
  57 0014 1847     		bx	r3
ARM GAS  /tmp/cczhvSL5.s 			page 2


  58              	.LVL3:
  59              	.L4:
  60 0016 00BF     		.align	2
  61              	.L3:
  62 0018 00000000 		.word	SDU1
  63              		.cfi_endproc
  64              	.LFE260:
  65              		.size	send_packet, .-send_packet
  66              		.section	.text.serial_process_thread,"ax",%progbits
  67              		.align	2
  68              		.p2align 4,,15
  69              		.thumb
  70              		.thumb_func
  71              		.type	serial_process_thread, %function
  72              	serial_process_thread:
  73              	.LFB257:
  74              		.loc 1 80 0
  75              		.cfi_startproc
  76              		@ Volatile: function does not return.
  77              		@ args = 0, pretend = 0, frame = 0
  78              		@ frame_needed = 0, uses_anonymous_args = 0
  79              	.LVL4:
  80              	.LBB8:
  81              	.LBB9:
  82              		.file 2 "ChibiOS_3.0.2/os/rt/include/chregistry.h"
  83              		.loc 2 135 0
  84 0000 114B     		ldr	r3, .L13
  85              	.LBE9:
  86              	.LBE8:
  87              		.loc 1 85 0
  88 0002 124A     		ldr	r2, .L13+4
  89              	.LBB12:
  90              	.LBB10:
  91              		.loc 2 135 0
  92 0004 9B69     		ldr	r3, [r3, #24]
  93 0006 124C     		ldr	r4, .L13+8
  94 0008 1249     		ldr	r1, .L13+12
  95 000a 134E     		ldr	r6, .L13+16
  96              	.LBE10:
  97              	.LBE12:
  98              		.loc 1 80 0
  99 000c 80B5     		push	{r7, lr}
 100              		.cfi_def_cfa_offset 8
 101              		.cfi_offset 7, -8
 102              		.cfi_offset 14, -4
 103 000e 134F     		ldr	r7, .L13+20
 104              	.LBB13:
 105              	.LBB11:
 106              		.loc 2 135 0
 107 0010 9961     		str	r1, [r3, #24]
 108              	.LBE11:
 109              	.LBE13:
 110              		.loc 1 85 0
 111 0012 1360     		str	r3, [r2]
 112              		.loc 1 91 0
 113 0014 A146     		mov	r9, r4
 114              	.LVL5:
ARM GAS  /tmp/cczhvSL5.s 			page 3


 115              	.L9:
 116              		.loc 1 88 0
 117 0016 0120     		movs	r0, #1
 118 0018 FFF7FEFF 		bl	chEvtWaitAny
 119              	.LVL6:
 120              		.loc 1 91 0
 121 001c 4FF00008 		mov	r8, #0
 122              	.L6:
 123 0020 2368     		ldr	r3, [r4]
 124              	.L7:
 125              		.loc 1 90 0
 126 0022 3268     		ldr	r2, [r6]
 127 0024 9A42     		cmp	r2, r3
 128              		.loc 1 91 0
 129 0026 03F10105 		add	r5, r3, #1
 130 002a 4FF00001 		mov	r1, #0
 131              		.loc 1 90 0
 132 002e F2D0     		beq	.L9
 133              		.loc 1 91 0
 134 0030 F85C     		ldrb	r0, [r7, r3]	@ zero_extendqisi2
 135 0032 2560     		str	r5, [r4]
 136 0034 FFF7FEFF 		bl	packet_process_byte
 137              	.LVL7:
 138              		.loc 1 93 0
 139 0038 2368     		ldr	r3, [r4]
 140 003a B3F5006F 		cmp	r3, #2048
 141 003e F0D1     		bne	.L7
 142              		.loc 1 94 0
 143 0040 C9F80080 		str	r8, [r9]
 144 0044 ECE7     		b	.L6
 145              	.L14:
 146 0046 00BF     		.align	2
 147              	.L13:
 148 0048 00000000 		.word	ch
 149 004c 00000000 		.word	.LANCHOR0
 150 0050 00000000 		.word	.LANCHOR1
 151 0054 00000000 		.word	.LC0
 152 0058 00000000 		.word	.LANCHOR3
 153 005c 00000000 		.word	.LANCHOR2
 154              		.cfi_endproc
 155              	.LFE257:
 156              		.size	serial_process_thread, .-serial_process_thread
 157              		.section	.text.serial_read_thread,"ax",%progbits
 158              		.align	2
 159              		.p2align 4,,15
 160              		.thumb
 161              		.thumb_func
 162              		.type	serial_read_thread, %function
 163              	serial_read_thread:
 164              	.LFB256:
 165              		.loc 1 50 0
 166              		.cfi_startproc
 167              		@ args = 0, pretend = 0, frame = 128
 168              		@ frame_needed = 0, uses_anonymous_args = 0
 169              	.LVL8:
 170 0000 2DE9F043 		push	{r4, r5, r6, r7, r8, r9, lr}
 171              		.cfi_def_cfa_offset 28
ARM GAS  /tmp/cczhvSL5.s 			page 4


 172              		.cfi_offset 4, -28
 173              		.cfi_offset 5, -24
 174              		.cfi_offset 6, -20
 175              		.cfi_offset 7, -16
 176              		.cfi_offset 8, -12
 177              		.cfi_offset 9, -8
 178              		.cfi_offset 14, -4
 179              	.LBB14:
 180              	.LBB15:
 181              		.loc 2 135 0
 182 0004 154B     		ldr	r3, .L24
 183 0006 164A     		ldr	r2, .L24+4
 184 0008 9B69     		ldr	r3, [r3, #24]
 185 000a 164F     		ldr	r7, .L24+8
 186 000c 164E     		ldr	r6, .L24+12
 187 000e DFF85C90 		ldr	r9, .L24+16
 188 0012 DFF85C80 		ldr	r8, .L24+20
 189 0016 9A61     		str	r2, [r3, #24]
 190              	.LVL9:
 191              	.LBE15:
 192              	.LBE14:
 193              		.loc 1 50 0
 194 0018 A1B0     		sub	sp, sp, #132
 195              		.cfi_def_cfa_offset 160
 196              	.LVL10:
 197              	.L16:
 198              		.loc 1 61 0
 199 001a 3B68     		ldr	r3, [r7]
 200 001c 1148     		ldr	r0, .L24+8
 201 001e 5B68     		ldr	r3, [r3, #4]
 202 0020 6946     		mov	r1, sp
 203 0022 0122     		movs	r2, #1
 204 0024 9847     		blx	r3
 205              	.LVL11:
 206              		.loc 1 63 0
 207 0026 0028     		cmp	r0, #0
 208 0028 F7DD     		ble	.L16
 209 002a 3368     		ldr	r3, [r6]
 210 002c 0DF1FF34 		add	r4, sp, #-1
 211 0030 0022     		movs	r2, #0
 212              	.LVL12:
 213              	.L18:
 214              		.loc 1 64 0
 215 0032 591C     		adds	r1, r3, #1
 216              		.loc 1 67 0
 217 0034 B1F5006F 		cmp	r1, #2048
 218              		.loc 1 63 0
 219 0038 02F10102 		add	r2, r2, #1
 220              	.LVL13:
 221              		.loc 1 64 0
 222 003c 14F8015F 		ldrb	r5, [r4, #1]!	@ zero_extendqisi2
 223 0040 09F80350 		strb	r5, [r9, r3]
 224              		.loc 1 67 0
 225 0044 14BF     		ite	ne
 226 0046 0B46     		movne	r3, r1
 227 0048 0023     		moveq	r3, #0
 228              	.LVL14:
ARM GAS  /tmp/cczhvSL5.s 			page 5


 229              		.loc 1 63 0
 230 004a 8242     		cmp	r2, r0
 231 004c F1DB     		blt	.L18
 232              		.loc 1 74 0
 233 004e D8F80000 		ldr	r0, [r8]
 234              	.LVL15:
 235 0052 3360     		str	r3, [r6]
 236 0054 0121     		movs	r1, #1
 237 0056 FFF7FEFF 		bl	chEvtSignal
 238              	.LVL16:
 239 005a DEE7     		b	.L16
 240              	.L25:
 241              		.align	2
 242              	.L24:
 243 005c 00000000 		.word	ch
 244 0060 14000000 		.word	.LC1
 245 0064 00000000 		.word	SDU1
 246 0068 00000000 		.word	.LANCHOR3
 247 006c 00000000 		.word	.LANCHOR2
 248 0070 00000000 		.word	.LANCHOR0
 249              		.cfi_endproc
 250              	.LFE256:
 251              		.size	serial_read_thread, .-serial_read_thread
 252              		.section	.text.process_packet,"ax",%progbits
 253              		.align	2
 254              		.p2align 4,,15
 255              		.thumb
 256              		.thumb_func
 257              		.type	process_packet, %function
 258              	process_packet:
 259              	.LFB258:
 260              		.loc 1 100 0
 261              		.cfi_startproc
 262              		@ args = 0, pretend = 0, frame = 0
 263              		@ frame_needed = 0, uses_anonymous_args = 0
 264              	.LVL17:
 265 0000 38B5     		push	{r3, r4, r5, lr}
 266              		.cfi_def_cfa_offset 16
 267              		.cfi_offset 3, -16
 268              		.cfi_offset 4, -12
 269              		.cfi_offset 5, -8
 270              		.cfi_offset 14, -4
 271              		.loc 1 100 0
 272 0002 0546     		mov	r5, r0
 273 0004 0C46     		mov	r4, r1
 274              		.loc 1 101 0
 275 0006 0448     		ldr	r0, .L28
 276              	.LVL18:
 277 0008 FFF7FEFF 		bl	commands_set_send_func
 278              	.LVL19:
 279              		.loc 1 102 0
 280 000c 2846     		mov	r0, r5
 281 000e 2146     		mov	r1, r4
 282              		.loc 1 103 0
 283 0010 BDE83840 		pop	{r3, r4, r5, lr}
 284              		.cfi_restore 14
 285              		.cfi_restore 5
ARM GAS  /tmp/cczhvSL5.s 			page 6


 286              		.cfi_restore 4
 287              		.cfi_restore 3
 288              		.cfi_def_cfa_offset 0
 289              	.LVL20:
 290              		.loc 1 102 0
 291 0014 FFF7FEBF 		b	commands_process_packet
 292              	.LVL21:
 293              	.L29:
 294              		.align	2
 295              	.L28:
 296 0018 00000000 		.word	send_packet_wrapper
 297              		.cfi_endproc
 298              	.LFE258:
 299              		.size	process_packet, .-process_packet
 300              		.section	.text.send_packet_wrapper,"ax",%progbits
 301              		.align	2
 302              		.p2align 4,,15
 303              		.thumb
 304              		.thumb_func
 305              		.type	send_packet_wrapper, %function
 306              	send_packet_wrapper:
 307              	.LFB259:
 308              		.loc 1 105 0
 309              		.cfi_startproc
 310              		@ args = 0, pretend = 0, frame = 0
 311              		@ frame_needed = 0, uses_anonymous_args = 0
 312              	.LVL22:
 313 0000 70B5     		push	{r4, r5, r6, lr}
 314              		.cfi_def_cfa_offset 16
 315              		.cfi_offset 4, -16
 316              		.cfi_offset 5, -12
 317              		.cfi_offset 6, -8
 318              		.cfi_offset 14, -4
 319              		.loc 1 106 0
 320 0002 084C     		ldr	r4, .L32
 321              		.loc 1 105 0
 322 0004 0646     		mov	r6, r0
 323 0006 0D46     		mov	r5, r1
 324              		.loc 1 106 0
 325 0008 2046     		mov	r0, r4
 326              	.LVL23:
 327 000a FFF7FEFF 		bl	chMtxLock
 328              	.LVL24:
 329              		.loc 1 107 0
 330 000e 3046     		mov	r0, r6
 331 0010 2946     		mov	r1, r5
 332 0012 0022     		movs	r2, #0
 333 0014 FFF7FEFF 		bl	packet_send_packet
 334              	.LVL25:
 335              		.loc 1 108 0
 336 0018 2046     		mov	r0, r4
 337              		.loc 1 109 0
 338 001a BDE87040 		pop	{r4, r5, r6, lr}
 339              		.cfi_restore 14
 340              		.cfi_restore 6
 341              		.cfi_restore 5
 342              		.cfi_restore 4
ARM GAS  /tmp/cczhvSL5.s 			page 7


 343              		.cfi_def_cfa_offset 0
 344              	.LVL26:
 345              		.loc 1 108 0
 346 001e FFF7FEBF 		b	chMtxUnlock
 347              	.LVL27:
 348              	.L33:
 349 0022 00BF     		.align	2
 350              	.L32:
 351 0024 00000000 		.word	.LANCHOR4
 352              		.cfi_endproc
 353              	.LFE259:
 354              		.size	send_packet_wrapper, .-send_packet_wrapper
 355              		.section	.text.comm_usb_init,"ax",%progbits
 356              		.align	2
 357              		.p2align 4,,15
 358              		.global	comm_usb_init
 359              		.thumb
 360              		.thumb_func
 361              		.type	comm_usb_init, %function
 362              	comm_usb_init:
 363              	.LFB261:
 364              		.loc 1 115 0
 365              		.cfi_startproc
 366              		@ args = 0, pretend = 0, frame = 0
 367              		@ frame_needed = 0, uses_anonymous_args = 0
 368 0000 10B5     		push	{r4, lr}
 369              		.cfi_def_cfa_offset 8
 370              		.cfi_offset 4, -8
 371              		.cfi_offset 14, -4
 372 0002 82B0     		sub	sp, sp, #8
 373              		.cfi_def_cfa_offset 16
 374              		.loc 1 116 0
 375 0004 FFF7FEFF 		bl	comm_usb_serial_init
 376              	.LVL28:
 377              		.loc 1 117 0
 378 0008 0D49     		ldr	r1, .L36
 379 000a 0E48     		ldr	r0, .L36+4
 380 000c 0022     		movs	r2, #0
 381 000e FFF7FEFF 		bl	packet_init
 382              	.LVL29:
 383              		.loc 1 122 0
 384 0012 0024     		movs	r4, #0
 385              		.loc 1 119 0
 386 0014 0C48     		ldr	r0, .L36+8
 387 0016 FFF7FEFF 		bl	chMtxObjectInit
 388              	.LVL30:
 389              		.loc 1 122 0
 390 001a 0094     		str	r4, [sp]
 391 001c 0B4B     		ldr	r3, .L36+12
 392 001e 0C48     		ldr	r0, .L36+16
 393 0020 4FF46671 		mov	r1, #920
 394 0024 4022     		movs	r2, #64
 395 0026 FFF7FEFF 		bl	chThdCreateStatic
 396              	.LVL31:
 397              		.loc 1 123 0
 398 002a 0094     		str	r4, [sp]
 399 002c 094B     		ldr	r3, .L36+20
ARM GAS  /tmp/cczhvSL5.s 			page 8


 400 002e 0A48     		ldr	r0, .L36+24
 401 0030 41F29811 		movw	r1, #4504
 402 0034 4022     		movs	r2, #64
 403 0036 FFF7FEFF 		bl	chThdCreateStatic
 404              	.LVL32:
 405              		.loc 1 124 0
 406 003a 02B0     		add	sp, sp, #8
 407              		.cfi_def_cfa_offset 8
 408              		@ sp needed
 409 003c 10BD     		pop	{r4, pc}
 410              	.L37:
 411 003e 00BF     		.align	2
 412              	.L36:
 413 0040 00000000 		.word	process_packet
 414 0044 00000000 		.word	send_packet
 415 0048 00000000 		.word	.LANCHOR4
 416 004c 00000000 		.word	serial_read_thread
 417 0050 00000000 		.word	.LANCHOR5
 418 0054 00000000 		.word	serial_process_thread
 419 0058 00000000 		.word	.LANCHOR6
 420              		.cfi_endproc
 421              	.LFE261:
 422              		.size	comm_usb_init, .-comm_usb_init
 423              		.section	.bss.serial_rx_write_pos,"aw",%nobits
 424              		.align	2
 425              		.set	.LANCHOR3,. + 0
 426              		.type	serial_rx_write_pos, %object
 427              		.size	serial_rx_write_pos, 4
 428              	serial_rx_write_pos:
 429 0000 00000000 		.space	4
 430              		.section	.bss.send_mutex,"aw",%nobits
 431              		.align	2
 432              		.set	.LANCHOR4,. + 0
 433              		.type	send_mutex, %object
 434              		.size	send_mutex, 16
 435              	send_mutex:
 436 0000 00000000 		.space	16
 436      00000000 
 436      00000000 
 436      00000000 
 437              		.section	.bss.serial_process_thread_wa,"aw",%nobits
 438              		.align	3
 439              		.set	.LANCHOR6,. + 0
 440              		.type	serial_process_thread_wa, %object
 441              		.size	serial_process_thread_wa, 4504
 442              	serial_process_thread_wa:
 443 0000 00000000 		.space	4504
 443      00000000 
 443      00000000 
 443      00000000 
 443      00000000 
 444              		.section	.bss.serial_rx_buffer,"aw",%nobits
 445              		.align	2
 446              		.set	.LANCHOR2,. + 0
 447              		.type	serial_rx_buffer, %object
 448              		.size	serial_rx_buffer, 2048
 449              	serial_rx_buffer:
ARM GAS  /tmp/cczhvSL5.s 			page 9


 450 0000 00000000 		.space	2048
 450      00000000 
 450      00000000 
 450      00000000 
 450      00000000 
 451              		.section	.rodata.str1.4,"aMS",%progbits,1
 452              		.align	2
 453              	.LC0:
 454 0000 5553422D 		.ascii	"USB-Serial process\000"
 454      53657269 
 454      616C2070 
 454      726F6365 
 454      737300
 455 0013 00       		.space	1
 456              	.LC1:
 457 0014 5553422D 		.ascii	"USB-Serial read\000"
 457      53657269 
 457      616C2072 
 457      65616400 
 458              		.section	.bss.serial_read_thread_wa,"aw",%nobits
 459              		.align	3
 460              		.set	.LANCHOR5,. + 0
 461              		.type	serial_read_thread_wa, %object
 462              		.size	serial_read_thread_wa, 920
 463              	serial_read_thread_wa:
 464 0000 00000000 		.space	920
 464      00000000 
 464      00000000 
 464      00000000 
 464      00000000 
 465              		.section	.bss.serial_rx_read_pos,"aw",%nobits
 466              		.align	2
 467              		.set	.LANCHOR1,. + 0
 468              		.type	serial_rx_read_pos, %object
 469              		.size	serial_rx_read_pos, 4
 470              	serial_rx_read_pos:
 471 0000 00000000 		.space	4
 472              		.section	.bss.process_tp,"aw",%nobits
 473              		.align	2
 474              		.set	.LANCHOR0,. + 0
 475              		.type	process_tp, %object
 476              		.size	process_tp, 4
 477              	process_tp:
 478 0000 00000000 		.space	4
 479              		.text
 480              	.Letext0:
 481              		.file 3 "/usr/lib/gcc/arm-none-eabi/4.9.3/include/stddef.h"
 482              		.file 4 "/usr/arm-none-eabi/include/machine/_default_types.h"
 483              		.file 5 "/usr/arm-none-eabi/include/sys/_stdint.h"
 484              		.file 6 "ChibiOS_3.0.2/os/rt/ports/ARMCMx/compilers/GCC/chtypes.h"
 485              		.file 7 "ChibiOS_3.0.2/os/rt/include/chsystypes.h"
 486              		.file 8 "ChibiOS_3.0.2/os/rt/include/chschd.h"
 487              		.file 9 "ChibiOS_3.0.2/os/rt/ports/ARMCMx/chcore.h"
 488              		.file 10 "ChibiOS_3.0.2/os/rt/ports/ARMCMx/chcore_v7m.h"
 489              		.file 11 "ChibiOS_3.0.2/os/rt/include/chtm.h"
 490              		.file 12 "ChibiOS_3.0.2/os/rt/include/chsem.h"
 491              		.file 13 "ChibiOS_3.0.2/os/rt/include/chmtx.h"
ARM GAS  /tmp/cczhvSL5.s 			page 10


 492              		.file 14 "ChibiOS_3.0.2/os/rt/include/chthreads.h"
 493              		.file 15 "ChibiOS_3.0.2/os/rt/include/chevents.h"
 494              		.file 16 "ChibiOS_3.0.2/os/rt/include/chqueues.h"
 495              		.file 17 "ChibiOS_3.0.2/os/hal/include/usb.h"
 496              		.file 18 "ChibiOS_3.0.2/os/hal/ports/STM32/LLD/OTGv1/usb_lld.h"
 497              		.file 19 "ChibiOS_3.0.2/os/hal/ports/STM32/LLD/OTGv1/stm32_otg.h"
 498              		.file 20 "ChibiOS_3.0.2/os/hal/include/serial_usb.h"
 499              		.file 21 "ChibiOS_3.0.2/os/ext/CMSIS/include/core_cm4.h"
 500              		.file 22 "comm_usb_serial.h"
 501              		.file 23 "packet.h"
 502              		.file 24 "commands.h"