ARM GAS  /tmp/ccq8Pe5l.s 			page 1


   1              		.syntax unified
   2              		.cpu cortex-m4
   3              		.eabi_attribute 27, 1
   4              		.eabi_attribute 28, 1
   5              		.fpu fpv4-sp-d16
   6              		.eabi_attribute 20, 1
   7              		.eabi_attribute 21, 1
   8              		.eabi_attribute 23, 3
   9              		.eabi_attribute 24, 1
  10              		.eabi_attribute 25, 1
  11              		.eabi_attribute 26, 1
  12              		.eabi_attribute 30, 2
  13              		.eabi_attribute 34, 1
  14              		.eabi_attribute 18, 4
  15              		.thumb
  16              		.file	"commands.c"
  17              		.text
  18              	.Ltext0:
  19              		.cfi_sections	.debug_frame
  20              		.section	.text.detect_thread,"ax",%progbits
  21              		.align	2
  22              		.p2align 4,,15
  23              		.thumb
  24              		.thumb_func
  25              		.type	detect_thread, %function
  26              	detect_thread:
  27              	.LFB267:
  28              		.file 1 "commands.c"
  29              		.loc 1 864 0
  30              		.cfi_startproc
  31              		@ args = 0, pretend = 0, frame = 16
  32              		@ frame_needed = 0, uses_anonymous_args = 0
  33              	.LVL0:
  34 0000 2DE9F04F 		push	{r4, r5, r6, r7, r8, r9, r10, fp, lr}
  35              		.cfi_def_cfa_offset 36
  36              		.cfi_offset 4, -36
  37              		.cfi_offset 5, -32
  38              		.cfi_offset 6, -28
  39              		.cfi_offset 7, -24
  40              		.cfi_offset 8, -20
  41              		.cfi_offset 9, -16
  42              		.cfi_offset 10, -12
  43              		.cfi_offset 11, -8
  44              		.cfi_offset 14, -4
  45              	.LBB56:
  46              	.LBB57:
  47              		.file 2 "ChibiOS_3.0.2/os/rt/include/chregistry.h"
  48              		.loc 2 135 0
  49 0004 304B     		ldr	r3, .L11
  50              	.LBE57:
  51              	.LBE56:
  52              		.loc 1 869 0
  53 0006 314A     		ldr	r2, .L11+4
  54              	.LBB60:
  55              	.LBB58:
  56              		.loc 2 135 0
  57 0008 9B69     		ldr	r3, [r3, #24]
ARM GAS  /tmp/ccq8Pe5l.s 			page 2


  58 000a 3149     		ldr	r1, .L11+8
  59 000c DFF8E4B0 		ldr	fp, .L11+44
  60 0010 DFF8E4A0 		ldr	r10, .L11+48
  61 0014 DFF8E490 		ldr	r9, .L11+52
  62 0018 DFF8CC80 		ldr	r8, .L11+32
  63 001c 2D4C     		ldr	r4, .L11+12
  64 001e 2E4F     		ldr	r7, .L11+16
  65              	.LBE58:
  66              	.LBE60:
  67              	.LBB61:
  68              		.loc 1 874 0
  69 0020 2E4E     		ldr	r6, .L11+20
  70              	.LBE61:
  71              		.loc 1 864 0
  72 0022 2DED028B 		fstmfdd	sp!, {d8}
  73              		.cfi_def_cfa_offset 44
  74              		.cfi_offset 80, -44
  75              		.cfi_offset 81, -40
  76              	.LBB72:
  77              		.loc 1 877 0
  78 0026 DFED2E8A 		flds	s17, .L11+24
  79 002a 9FED2E8A 		flds	s16, .L11+28
  80              	.LBE72:
  81              	.LBB73:
  82              	.LBB59:
  83              		.loc 2 135 0
  84 002e 9961     		str	r1, [r3, #24]
  85              	.LBE59:
  86              	.LBE73:
  87              		.loc 1 864 0
  88 0030 85B0     		sub	sp, sp, #20
  89              		.cfi_def_cfa_offset 64
  90              		.loc 1 869 0
  91 0032 1360     		str	r3, [r2]
  92              	.LVL1:
  93              	.L5:
  94              	.LBB74:
  95              		.loc 1 874 0
  96 0034 2C4D     		ldr	r5, .L11+32
  97              		.loc 1 872 0
  98 0036 0120     		movs	r0, #1
  99 0038 FFF7FEFF 		bl	chEvtWaitAny
 100              	.LVL2:
 101              		.loc 1 874 0
 102 003c 2946     		mov	r1, r5
 103 003e 9BED000A 		flds	s0, [fp]
 104 0042 DAED000A 		flds	s1, [r10]
 105 0046 99ED001A 		flds	s2, [r9]
 106 004a 2448     		ldr	r0, .L11+20
 107 004c 274A     		ldr	r2, .L11+36
 108 004e 224B     		ldr	r3, .L11+16
 109 0050 FFF7FEFF 		bl	conf_general_detect_motor_param
 110              	.LVL3:
 111 0054 0028     		cmp	r0, #0
 112 0056 31D0     		beq	.L2
 113 0058 D6ED007A 		flds	s15, [r6]
 114 005c 67EE887A 		fmuls	s15, s15, s16
ARM GAS  /tmp/ccq8Pe5l.s 			page 3


 115 0060 FDEEE77A 		ftosizs	s15, s15
 116 0064 CDED017A 		fsts	s15, [sp, #4]	@ int
 117              	.L3:
 118              		.loc 1 882 0
 119 0068 0122     		movs	r2, #1
 120 006a 1723     		movs	r3, #23
 121              		.loc 1 883 0
 122 006c 1948     		ldr	r0, .L11+12
 123              		.loc 1 882 0
 124 006e 0392     		str	r2, [sp, #12]
 125              		.loc 1 883 0
 126 0070 0199     		ldr	r1, [sp, #4]
 127              		.loc 1 882 0
 128 0072 2370     		strb	r3, [r4]
 129              		.loc 1 883 0
 130 0074 03AA     		add	r2, sp, #12
 131 0076 FFF7FEFF 		bl	buffer_append_int32
 132              	.LVL4:
 133              		.loc 1 884 0
 134 007a D8ED007A 		flds	s15, [r8]
 135 007e 1548     		ldr	r0, .L11+12
 136 0080 67EE887A 		fmuls	s15, s15, s16
 137 0084 03AA     		add	r2, sp, #12
 138 0086 FDEEE77A 		ftosizs	s15, s15
 139 008a 17EE901A 		fmrs	r1, s15	@ int
 140 008e FFF7FEFF 		bl	buffer_append_int32
 141              	.LVL5:
 142              	.LBB62:
 143              	.LBB63:
 144              		.loc 1 94 0
 145 0092 1749     		ldr	r1, .L11+40
 146              	.LBE63:
 147              	.LBE62:
 148              		.loc 1 885 0
 149 0094 154A     		ldr	r2, .L11+36
 150 0096 039B     		ldr	r3, [sp, #12]
 151              	.LBB68:
 152              	.LBB64:
 153              		.loc 1 94 0
 154 0098 0D68     		ldr	r5, [r1]
 155              	.LBE64:
 156              	.LBE68:
 157              		.loc 1 885 0
 158 009a 03CA     		ldmia	r2!, {r0, r1}
 159 009c 04EB030E 		add	lr, r4, r3
 160 00a0 E050     		str	r0, [r4, r3]	@ unaligned
 161              		.loc 1 887 0
 162 00a2 3A68     		ldr	r2, [r7]
 163              		.loc 1 885 0
 164 00a4 CEF80410 		str	r1, [lr, #4]	@ unaligned
 165              		.loc 1 887 0
 166 00a8 0933     		adds	r3, r3, #9
 167              	.LBB69:
 168              	.LBB65:
 169              		.loc 1 95 0
 170 00aa 0A48     		ldr	r0, .L11+12
 171              	.LBE65:
ARM GAS  /tmp/ccq8Pe5l.s 			page 4


 172              	.LBE69:
 173              		.loc 1 887 0
 174 00ac 0393     		str	r3, [sp, #12]
 175              	.LBB70:
 176              	.LBB66:
 177              		.loc 1 95 0
 178 00ae 1946     		mov	r1, r3
 179              	.LBE66:
 180              	.LBE70:
 181              		.loc 1 887 0
 182 00b0 8EF80820 		strb	r2, [lr, #8]
 183              	.LVL6:
 184              	.LBB71:
 185              	.LBB67:
 186              		.loc 1 94 0
 187 00b4 002D     		cmp	r5, #0
 188 00b6 BDD0     		beq	.L5
 189              		.loc 1 95 0
 190 00b8 A847     		blx	r5
 191              	.LVL7:
 192              	.LBE67:
 193              	.LBE71:
 194              	.LBE74:
 195              		.loc 1 889 0
 196 00ba BBE7     		b	.L5
 197              	.LVL8:
 198              	.L2:
 199              	.LBB75:
 200              		.loc 1 877 0
 201 00bc C6ED008A 		fsts	s17, [r6]
 202              		.loc 1 878 0
 203 00c0 C5ED008A 		fsts	s17, [r5]
 204 00c4 0190     		str	r0, [sp, #4]
 205 00c6 CFE7     		b	.L3
 206              	.L12:
 207              		.align	2
 208              	.L11:
 209 00c8 00000000 		.word	ch
 210 00cc 00000000 		.word	.LANCHOR0
 211 00d0 00000000 		.word	.LC0
 212 00d4 00000000 		.word	.LANCHOR8
 213 00d8 00000000 		.word	.LANCHOR7
 214 00dc 00000000 		.word	.LANCHOR4
 215 00e0 00000000 		.word	0
 216 00e4 00007A44 		.word	1148846080
 217 00e8 00000000 		.word	.LANCHOR5
 218 00ec 00000000 		.word	.LANCHOR6
 219 00f0 00000000 		.word	.LANCHOR9
 220 00f4 00000000 		.word	.LANCHOR1
 221 00f8 00000000 		.word	.LANCHOR2
 222 00fc 00000000 		.word	.LANCHOR3
 223              	.LBE75:
 224              		.cfi_endproc
 225              	.LFE267:
 226              		.size	detect_thread, .-detect_thread
 227              		.section	.text.commands_init,"ax",%progbits
 228              		.align	2
ARM GAS  /tmp/ccq8Pe5l.s 			page 5


 229              		.p2align 4,,15
 230              		.global	commands_init
 231              		.thumb
 232              		.thumb_func
 233              		.type	commands_init, %function
 234              	commands_init:
 235              	.LFB256:
 236              		.loc 1 70 0
 237              		.cfi_startproc
 238              		@ args = 0, pretend = 0, frame = 0
 239              		@ frame_needed = 0, uses_anonymous_args = 0
 240 0000 00B5     		push	{lr}
 241              		.cfi_def_cfa_offset 4
 242              		.cfi_offset 14, -4
 243 0002 83B0     		sub	sp, sp, #12
 244              		.cfi_def_cfa_offset 16
 245              		.loc 1 71 0
 246 0004 0023     		movs	r3, #0
 247 0006 0093     		str	r3, [sp]
 248 0008 40F69811 		movw	r1, #2456
 249 000c 034B     		ldr	r3, .L15
 250 000e 0448     		ldr	r0, .L15+4
 251 0010 4022     		movs	r2, #64
 252 0012 FFF7FEFF 		bl	chThdCreateStatic
 253              	.LVL9:
 254              		.loc 1 72 0
 255 0016 03B0     		add	sp, sp, #12
 256              		.cfi_def_cfa_offset 4
 257              		@ sp needed
 258 0018 5DF804FB 		ldr	pc, [sp], #4
 259              	.L16:
 260              		.align	2
 261              	.L15:
 262 001c 00000000 		.word	detect_thread
 263 0020 00000000 		.word	.LANCHOR10
 264              		.cfi_endproc
 265              	.LFE256:
 266              		.size	commands_init, .-commands_init
 267              		.section	.text.commands_set_send_func,"ax",%progbits
 268              		.align	2
 269              		.p2align 4,,15
 270              		.global	commands_set_send_func
 271              		.thumb
 272              		.thumb_func
 273              		.type	commands_set_send_func, %function
 274              	commands_set_send_func:
 275              	.LFB257:
 276              		.loc 1 80 0
 277              		.cfi_startproc
 278              		@ args = 0, pretend = 0, frame = 0
 279              		@ frame_needed = 0, uses_anonymous_args = 0
 280              		@ link register save eliminated.
 281              	.LVL10:
 282              		.loc 1 81 0
 283 0000 014B     		ldr	r3, .L18
 284 0002 1860     		str	r0, [r3]
 285 0004 7047     		bx	lr
ARM GAS  /tmp/ccq8Pe5l.s 			page 6


 286              	.L19:
 287 0006 00BF     		.align	2
 288              	.L18:
 289 0008 00000000 		.word	.LANCHOR9
 290              		.cfi_endproc
 291              	.LFE257:
 292              		.size	commands_set_send_func, .-commands_set_send_func
 293              		.section	.text.commands_send_packet,"ax",%progbits
 294              		.align	2
 295              		.p2align 4,,15
 296              		.global	commands_send_packet
 297              		.thumb
 298              		.thumb_func
 299              		.type	commands_send_packet, %function
 300              	commands_send_packet:
 301              	.LFB258:
 302              		.loc 1 93 0
 303              		.cfi_startproc
 304              		@ args = 0, pretend = 0, frame = 0
 305              		@ frame_needed = 0, uses_anonymous_args = 0
 306              		@ link register save eliminated.
 307              	.LVL11:
 308              		.loc 1 94 0
 309 0000 024B     		ldr	r3, .L22
 310 0002 1B68     		ldr	r3, [r3]
 311 0004 03B1     		cbz	r3, .L20
 312              		.loc 1 95 0
 313 0006 1847     		bx	r3	@ indirect register sibling call
 314              	.LVL12:
 315              	.L20:
 316 0008 7047     		bx	lr
 317              	.L23:
 318 000a 00BF     		.align	2
 319              	.L22:
 320 000c 00000000 		.word	.LANCHOR9
 321              		.cfi_endproc
 322              	.LFE258:
 323              		.size	commands_send_packet, .-commands_send_packet
 324              		.section	.text.commands_process_packet,"ax",%progbits
 325              		.align	2
 326              		.p2align 4,,15
 327              		.global	commands_process_packet
 328              		.thumb
 329              		.thumb_func
 330              		.type	commands_process_packet, %function
 331              	commands_process_packet:
 332              	.LFB259:
 333              		.loc 1 108 0
 334              		.cfi_startproc
 335              		@ args = 0, pretend = 0, frame = 168
 336              		@ frame_needed = 0, uses_anonymous_args = 0
 337              	.LVL13:
 338              		.loc 1 109 0
 339 0000 A9B3     		cbz	r1, .L124
 340              		.loc 1 108 0
 341 0002 2DE9F047 		push	{r4, r5, r6, r7, r8, r9, r10, lr}
 342              		.cfi_def_cfa_offset 32
ARM GAS  /tmp/ccq8Pe5l.s 			page 7


 343              		.cfi_offset 4, -32
 344              		.cfi_offset 5, -28
 345              		.cfi_offset 6, -24
 346              		.cfi_offset 7, -20
 347              		.cfi_offset 8, -16
 348              		.cfi_offset 9, -12
 349              		.cfi_offset 10, -8
 350              		.cfi_offset 14, -4
 351 0006 2DED068B 		fstmfdd	sp!, {d8, d9, d10}
 352              		.cfi_def_cfa_offset 56
 353              		.cfi_offset 80, -56
 354              		.cfi_offset 81, -52
 355              		.cfi_offset 82, -48
 356              		.cfi_offset 83, -44
 357              		.cfi_offset 84, -40
 358              		.cfi_offset 85, -36
 359              		.loc 1 124 0
 360 000a 0446     		mov	r4, r0
 361              		.loc 1 108 0
 362 000c AAB0     		sub	sp, sp, #168
 363              		.cfi_def_cfa_offset 224
 364              		.loc 1 124 0
 365 000e 14F8018B 		ldrb	r8, [r4], #1	@ zero_extendqisi2
 366              	.LVL14:
 367              		.loc 1 114 0
 368 0012 0023     		movs	r3, #0
 369 0014 0746     		mov	r7, r0
 370 0016 0093     		str	r3, [sp]
 371              		.loc 1 126 0
 372 0018 4D1E     		subs	r5, r1, #1
 373              	.LVL15:
 374              		.loc 1 128 0
 375 001a B8F1230F 		cmp	r8, #35
 376 001e 00F2B681 		bhi	.L24
 377 0022 DFE818F0 		tbh	[pc, r8, lsl #1]
 378              	.L28:
 379 0026 E903     		.2byte	(.L27-.L28)/2
 380 0028 E603     		.2byte	(.L29-.L28)/2
 381 002a D103     		.2byte	(.L30-.L28)/2
 382 002c B503     		.2byte	(.L31-.L28)/2
 383 002e 4C02     		.2byte	(.L32-.L28)/2
 384 0030 3B02     		.2byte	(.L33-.L28)/2
 385 0032 2A02     		.2byte	(.L34-.L28)/2
 386 0034 1902     		.2byte	(.L35-.L28)/2
 387 0036 0C02     		.2byte	(.L36-.L28)/2
 388 0038 2D04     		.2byte	(.L37-.L28)/2
 389 003a B901     		.2byte	(.L38-.L28)/2
 390 003c B401     		.2byte	(.L24-.L28)/2
 391 003e 8908     		.2byte	(.L39-.L28)/2
 392 0040 9B05     		.2byte	(.L40-.L28)/2
 393 0042 9B05     		.2byte	(.L40-.L28)/2
 394 0044 910B     		.2byte	(.L41-.L28)/2
 395 0046 2500     		.2byte	(.L42-.L28)/2
 396 0048 2500     		.2byte	(.L42-.L28)/2
 397 004a 6E0B     		.2byte	(.L43-.L28)/2
 398 004c 8805     		.2byte	(.L44-.L28)/2
 399 004e B401     		.2byte	(.L24-.L28)/2
ARM GAS  /tmp/ccq8Pe5l.s 			page 8


 400 0050 B401     		.2byte	(.L24-.L28)/2
 401 0052 B401     		.2byte	(.L24-.L28)/2
 402 0054 4C0B     		.2byte	(.L45-.L28)/2
 403 0056 4905     		.2byte	(.L46-.L28)/2
 404 0058 EB04     		.2byte	(.L47-.L28)/2
 405 005a C904     		.2byte	(.L48-.L28)/2
 406 005c 8004     		.2byte	(.L49-.L28)/2
 407 005e 7E04     		.2byte	(.L50-.L28)/2
 408 0060 D001     		.2byte	(.L51-.L28)/2
 409 0062 DD01     		.2byte	(.L52-.L28)/2
 410 0064 4C04     		.2byte	(.L53-.L28)/2
 411 0066 3E04     		.2byte	(.L54-.L28)/2
 412 0068 2604     		.2byte	(.L55-.L28)/2
 413 006a 0104     		.2byte	(.L56-.L28)/2
 414 006c F903     		.2byte	(.L57-.L28)/2
 415              	.LVL16:
 416              		.p2align 1
 417              	.L124:
 418              		.cfi_def_cfa_offset 0
 419              		.cfi_restore 4
 420              		.cfi_restore 5
 421              		.cfi_restore 6
 422              		.cfi_restore 7
 423              		.cfi_restore 8
 424              		.cfi_restore 9
 425              		.cfi_restore 10
 426              		.cfi_restore 14
 427              		.cfi_restore 80
 428              		.cfi_restore 81
 429              		.cfi_restore 82
 430              		.cfi_restore 83
 431              		.cfi_restore 84
 432              		.cfi_restore 85
 433 006e 7047     		bx	lr
 434              	.LVL17:
 435              	.L42:
 436              		.cfi_def_cfa_offset 224
 437              		.cfi_offset 4, -32
 438              		.cfi_offset 5, -28
 439              		.cfi_offset 6, -24
 440              		.cfi_offset 7, -20
 441              		.cfi_offset 8, -16
 442              		.cfi_offset 9, -12
 443              		.cfi_offset 10, -8
 444              		.cfi_offset 14, -4
 445              		.cfi_offset 80, -56
 446              		.cfi_offset 81, -52
 447              		.cfi_offset 82, -48
 448              		.cfi_offset 83, -44
 449              		.cfi_offset 84, -40
 450              		.cfi_offset 85, -36
 451              		.loc 1 526 0
 452 0070 B8F1100F 		cmp	r8, #16
 453 0074 01F03885 		beq	.L135
 454              		.loc 1 529 0
 455 0078 02A8     		add	r0, sp, #8
 456 007a FFF7FEFF 		bl	conf_general_get_default_app_configuration
ARM GAS  /tmp/ccq8Pe5l.s 			page 9


 457              	.LVL18:
 458              	.L65:
 459              		.loc 1 533 0
 460 007e D34C     		ldr	r4, .L140
 461              	.LVL19:
 462              		.loc 1 534 0
 463 0080 9DF80850 		ldrb	r5, [sp, #8]	@ zero_extendqisi2
 464              	.LVL20:
 465              		.loc 1 535 0
 466 0084 0399     		ldr	r1, [sp, #12]
 467              		.loc 1 536 0
 468 0086 9FEDD28A 		flds	s16, .L140+4
 469              		.loc 1 533 0
 470 008a 84F80080 		strb	r8, [r4]
 471              		.loc 1 534 0
 472 008e 0223     		movs	r3, #2
 473              		.loc 1 535 0
 474 0090 2046     		mov	r0, r4
 475 0092 6A46     		mov	r2, sp
 476              		.loc 1 534 0
 477 0094 0093     		str	r3, [sp]
 478 0096 6570     		strb	r5, [r4, #1]
 479              		.loc 1 535 0
 480 0098 FFF7FEFF 		bl	buffer_append_uint32
 481              	.LVL21:
 482              		.loc 1 536 0
 483 009c DDED047A 		flds	s15, [sp, #16]
 484 00a0 67EE887A 		fmuls	s15, s15, s16
 485 00a4 2046     		mov	r0, r4
 486 00a6 FDEEE77A 		ftosizs	s15, s15
 487 00aa 6A46     		mov	r2, sp
 488 00ac 17EE901A 		fmrs	r1, s15	@ int
 489 00b0 FFF7FEFF 		bl	buffer_append_int32
 490              	.LVL22:
 491              		.loc 1 537 0
 492 00b4 009B     		ldr	r3, [sp]
 493 00b6 9DF81420 		ldrb	r2, [sp, #20]	@ zero_extendqisi2
 494 00ba E254     		strb	r2, [r4, r3]
 495              		.loc 1 538 0
 496 00bc BDF81810 		ldrh	r1, [sp, #24]
 497              		.loc 1 537 0
 498 00c0 0133     		adds	r3, r3, #1
 499              		.loc 1 538 0
 500 00c2 2046     		mov	r0, r4
 501 00c4 6A46     		mov	r2, sp
 502              		.loc 1 537 0
 503 00c6 0093     		str	r3, [sp]
 504              		.loc 1 538 0
 505 00c8 FFF7FEFF 		bl	buffer_append_uint16
 506              	.LVL23:
 507              		.loc 1 543 0
 508 00cc DDED097A 		flds	s15, [sp, #36]
 509              		.loc 1 540 0
 510 00d0 009B     		ldr	r3, [sp]
 511 00d2 9DF81C20 		ldrb	r2, [sp, #28]	@ zero_extendqisi2
 512 00d6 E254     		strb	r2, [r4, r3]
 513              		.loc 1 543 0
ARM GAS  /tmp/ccq8Pe5l.s 			page 10


 514 00d8 67EE887A 		fmuls	s15, s15, s16
 515              		.loc 1 542 0
 516 00dc E518     		adds	r5, r4, r3
 517              		.loc 1 543 0
 518 00de FDEEE77A 		ftosizs	s15, s15
 519              		.loc 1 542 0
 520 00e2 0233     		adds	r3, r3, #2
 521 00e4 9DF82060 		ldrb	r6, [sp, #32]	@ zero_extendqisi2
 522 00e8 0093     		str	r3, [sp]
 523              		.loc 1 543 0
 524 00ea 17EE901A 		fmrs	r1, s15	@ int
 525 00ee 2046     		mov	r0, r4
 526 00f0 6A46     		mov	r2, sp
 527              		.loc 1 542 0
 528 00f2 6E70     		strb	r6, [r5, #1]
 529              		.loc 1 543 0
 530 00f4 FFF7FEFF 		bl	buffer_append_int32
 531              	.LVL24:
 532              		.loc 1 544 0
 533 00f8 DDED0A7A 		flds	s15, [sp, #40]
 534 00fc 67EE887A 		fmuls	s15, s15, s16
 535 0100 2046     		mov	r0, r4
 536 0102 FDEEE77A 		ftosizs	s15, s15
 537 0106 6A46     		mov	r2, sp
 538 0108 17EE901A 		fmrs	r1, s15	@ int
 539 010c FFF7FEFF 		bl	buffer_append_int32
 540              	.LVL25:
 541              		.loc 1 545 0
 542 0110 DDED0B7A 		flds	s15, [sp, #44]
 543 0114 67EE887A 		fmuls	s15, s15, s16
 544 0118 2046     		mov	r0, r4
 545 011a FDEEE77A 		ftosizs	s15, s15
 546 011e 6A46     		mov	r2, sp
 547 0120 17EE901A 		fmrs	r1, s15	@ int
 548 0124 FFF7FEFF 		bl	buffer_append_int32
 549              	.LVL26:
 550              		.loc 1 546 0
 551 0128 DDED0C7A 		flds	s15, [sp, #48]
 552 012c 67EE887A 		fmuls	s15, s15, s16
 553 0130 2046     		mov	r0, r4
 554 0132 FDEEE77A 		ftosizs	s15, s15
 555 0136 6A46     		mov	r2, sp
 556 0138 17EE901A 		fmrs	r1, s15	@ int
 557 013c FFF7FEFF 		bl	buffer_append_int32
 558              	.LVL27:
 559              		.loc 1 549 0
 560 0140 DDED0E7A 		flds	s15, [sp, #56]
 561              		.loc 1 547 0
 562 0144 009B     		ldr	r3, [sp]
 563 0146 9DF83420 		ldrb	r2, [sp, #52]	@ zero_extendqisi2
 564 014a E254     		strb	r2, [r4, r3]
 565              		.loc 1 549 0
 566 014c 67EE887A 		fmuls	s15, s15, s16
 567              		.loc 1 548 0
 568 0150 E518     		adds	r5, r4, r3
 569              		.loc 1 549 0
 570 0152 FDEEE77A 		ftosizs	s15, s15
ARM GAS  /tmp/ccq8Pe5l.s 			page 11


 571              		.loc 1 548 0
 572 0156 0233     		adds	r3, r3, #2
 573 0158 9DF83560 		ldrb	r6, [sp, #53]	@ zero_extendqisi2
 574 015c 0093     		str	r3, [sp]
 575              		.loc 1 549 0
 576 015e 17EE901A 		fmrs	r1, s15	@ int
 577 0162 2046     		mov	r0, r4
 578 0164 6A46     		mov	r2, sp
 579              		.loc 1 548 0
 580 0166 6E70     		strb	r6, [r5, #1]
 581              		.loc 1 549 0
 582 0168 FFF7FEFF 		bl	buffer_append_int32
 583              	.LVL28:
 584              		.loc 1 550 0
 585 016c DDED0F7A 		flds	s15, [sp, #60]
 586 0170 67EE887A 		fmuls	s15, s15, s16
 587 0174 2046     		mov	r0, r4
 588 0176 FDEEE77A 		ftosizs	s15, s15
 589 017a 6A46     		mov	r2, sp
 590 017c 17EE901A 		fmrs	r1, s15	@ int
 591 0180 FFF7FEFF 		bl	buffer_append_int32
 592              	.LVL29:
 593              		.loc 1 553 0
 594 0184 DDED117A 		flds	s15, [sp, #68]
 595              		.loc 1 551 0
 596 0188 009B     		ldr	r3, [sp]
 597 018a 9DF84020 		ldrb	r2, [sp, #64]	@ zero_extendqisi2
 598 018e E254     		strb	r2, [r4, r3]
 599              		.loc 1 553 0
 600 0190 67EE887A 		fmuls	s15, s15, s16
 601              		.loc 1 552 0
 602 0194 E518     		adds	r5, r4, r3
 603              		.loc 1 553 0
 604 0196 FDEEE77A 		ftosizs	s15, s15
 605              		.loc 1 552 0
 606 019a 9DF84160 		ldrb	r6, [sp, #65]	@ zero_extendqisi2
 607 019e 6E70     		strb	r6, [r5, #1]
 608              		.loc 1 553 0
 609 01a0 17EE901A 		fmrs	r1, s15	@ int
 610              		.loc 1 552 0
 611 01a4 0233     		adds	r3, r3, #2
 612              		.loc 1 553 0
 613 01a6 2046     		mov	r0, r4
 614 01a8 6A46     		mov	r2, sp
 615              		.loc 1 552 0
 616 01aa 0093     		str	r3, [sp]
 617              		.loc 1 553 0
 618 01ac FFF7FEFF 		bl	buffer_append_int32
 619              	.LVL30:
 620              		.loc 1 556 0
 621 01b0 DDED137A 		flds	s15, [sp, #76]
 622              		.loc 1 555 0
 623 01b4 009B     		ldr	r3, [sp]
 624 01b6 9DF84820 		ldrb	r2, [sp, #72]	@ zero_extendqisi2
 625 01ba E254     		strb	r2, [r4, r3]
 626              		.loc 1 556 0
 627 01bc 67EE887A 		fmuls	s15, s15, s16
ARM GAS  /tmp/ccq8Pe5l.s 			page 12


 628              		.loc 1 555 0
 629 01c0 0133     		adds	r3, r3, #1
 630              		.loc 1 556 0
 631 01c2 FDEEE77A 		ftosizs	s15, s15
 632 01c6 2046     		mov	r0, r4
 633 01c8 17EE901A 		fmrs	r1, s15	@ int
 634 01cc 6A46     		mov	r2, sp
 635              		.loc 1 555 0
 636 01ce 0093     		str	r3, [sp]
 637              		.loc 1 556 0
 638 01d0 FFF7FEFF 		bl	buffer_append_int32
 639              	.LVL31:
 640              		.loc 1 557 0
 641 01d4 DDED147A 		flds	s15, [sp, #80]
 642 01d8 67EE887A 		fmuls	s15, s15, s16
 643 01dc 2046     		mov	r0, r4
 644 01de FDEEE77A 		ftosizs	s15, s15
 645 01e2 6A46     		mov	r2, sp
 646 01e4 17EE901A 		fmrs	r1, s15	@ int
 647 01e8 FFF7FEFF 		bl	buffer_append_int32
 648              	.LVL32:
 649              		.loc 1 558 0
 650 01ec DDED157A 		flds	s15, [sp, #84]
 651 01f0 67EE887A 		fmuls	s15, s15, s16
 652 01f4 2046     		mov	r0, r4
 653 01f6 FDEEE77A 		ftosizs	s15, s15
 654 01fa 6A46     		mov	r2, sp
 655 01fc 17EE901A 		fmrs	r1, s15	@ int
 656 0200 FFF7FEFF 		bl	buffer_append_int32
 657              	.LVL33:
 658              		.loc 1 564 0
 659 0204 DDED187A 		flds	s15, [sp, #96]
 660              		.loc 1 559 0
 661 0208 009B     		ldr	r3, [sp]
 662 020a 9DF85820 		ldrb	r2, [sp, #88]	@ zero_extendqisi2
 663              		.loc 1 560 0
 664 020e 9DF859C0 		ldrb	ip, [sp, #89]	@ zero_extendqisi2
 665              		.loc 1 561 0
 666 0212 9DF85AE0 		ldrb	lr, [sp, #90]	@ zero_extendqisi2
 667              		.loc 1 559 0
 668 0216 E254     		strb	r2, [r4, r3]
 669              		.loc 1 564 0
 670 0218 67EE887A 		fmuls	s15, s15, s16
 671              		.loc 1 560 0
 672 021c E518     		adds	r5, r4, r3
 673              		.loc 1 564 0
 674 021e FDEEE77A 		ftosizs	s15, s15
 675              		.loc 1 563 0
 676 0222 0533     		adds	r3, r3, #5
 677              		.loc 1 562 0
 678 0224 9DF85B70 		ldrb	r7, [sp, #91]	@ zero_extendqisi2
 679              	.LVL34:
 680              		.loc 1 563 0
 681 0228 9DF85C60 		ldrb	r6, [sp, #92]	@ zero_extendqisi2
 682              		.loc 1 560 0
 683 022c 85F801C0 		strb	ip, [r5, #1]
 684              		.loc 1 564 0
ARM GAS  /tmp/ccq8Pe5l.s 			page 13


 685 0230 17EE901A 		fmrs	r1, s15	@ int
 686 0234 2046     		mov	r0, r4
 687 0236 6A46     		mov	r2, sp
 688              		.loc 1 561 0
 689 0238 85F802E0 		strb	lr, [r5, #2]
 690              		.loc 1 563 0
 691 023c 0093     		str	r3, [sp]
 692              		.loc 1 562 0
 693 023e EF70     		strb	r7, [r5, #3]
 694              		.loc 1 563 0
 695 0240 2E71     		strb	r6, [r5, #4]
 696              		.loc 1 564 0
 697 0242 FFF7FEFF 		bl	buffer_append_int32
 698              	.LVL35:
 699              		.loc 1 565 0
 700 0246 DDED197A 		flds	s15, [sp, #100]
 701 024a 67EE887A 		fmuls	s15, s15, s16
 702 024e 2046     		mov	r0, r4
 703 0250 FDEEE77A 		ftosizs	s15, s15
 704 0254 6A46     		mov	r2, sp
 705 0256 17EE901A 		fmrs	r1, s15	@ int
 706 025a FFF7FEFF 		bl	buffer_append_int32
 707              	.LVL36:
 708              		.loc 1 568 0
 709 025e DDED1B7A 		flds	s15, [sp, #108]
 710              		.loc 1 566 0
 711 0262 009B     		ldr	r3, [sp]
 712 0264 9DF86820 		ldrb	r2, [sp, #104]	@ zero_extendqisi2
 713 0268 E254     		strb	r2, [r4, r3]
 714              		.loc 1 568 0
 715 026a 67EE887A 		fmuls	s15, s15, s16
 716              		.loc 1 567 0
 717 026e E518     		adds	r5, r4, r3
 718              		.loc 1 568 0
 719 0270 FDEEE77A 		ftosizs	s15, s15
 720              		.loc 1 567 0
 721 0274 0233     		adds	r3, r3, #2
 722              		.loc 1 568 0
 723 0276 17EE901A 		fmrs	r1, s15	@ int
 724              		.loc 1 567 0
 725 027a 9DF86960 		ldrb	r6, [sp, #105]	@ zero_extendqisi2
 726 027e 0093     		str	r3, [sp]
 727              		.loc 1 568 0
 728 0280 2046     		mov	r0, r4
 729 0282 6A46     		mov	r2, sp
 730              		.loc 1 567 0
 731 0284 6E70     		strb	r6, [r5, #1]
 732              		.loc 1 568 0
 733 0286 FFF7FEFF 		bl	buffer_append_int32
 734              	.LVL37:
 735              		.loc 1 569 0
 736 028a 2046     		mov	r0, r4
 737 028c 6A46     		mov	r2, sp
 738 028e BDF87010 		ldrh	r1, [sp, #112]
 739 0292 FFF7FEFF 		bl	buffer_append_uint16
 740              	.LVL38:
 741              		.loc 1 571 0
ARM GAS  /tmp/ccq8Pe5l.s 			page 14


 742 0296 2046     		mov	r0, r4
 743 0298 6A46     		mov	r2, sp
 744 029a 1D99     		ldr	r1, [sp, #116]
 745 029c FFF7FEFF 		bl	buffer_append_uint32
 746              	.LVL39:
 747              		.loc 1 573 0
 748 02a0 009B     		ldr	r3, [sp]
 749 02a2 9DF87820 		ldrb	r2, [sp, #120]	@ zero_extendqisi2
 750 02a6 E254     		strb	r2, [r4, r3]
 751              		.loc 1 574 0
 752 02a8 F0EE480A 		fcpys	s1, s16
 753              		.loc 1 573 0
 754 02ac 0133     		adds	r3, r3, #1
 755              		.loc 1 574 0
 756 02ae 2046     		mov	r0, r4
 757 02b0 6946     		mov	r1, sp
 758 02b2 9DED1F0A 		flds	s0, [sp, #124]
 759              		.loc 1 573 0
 760 02b6 0093     		str	r3, [sp]
 761              		.loc 1 574 0
 762 02b8 FFF7FEFF 		bl	buffer_append_float32
 763              	.LVL40:
 764              		.loc 1 575 0
 765 02bc F0EE480A 		fcpys	s1, s16
 766 02c0 2046     		mov	r0, r4
 767 02c2 6946     		mov	r1, sp
 768 02c4 9DED200A 		flds	s0, [sp, #128]
 769 02c8 FFF7FEFF 		bl	buffer_append_float32
 770              	.LVL41:
 771              		.loc 1 576 0
 772 02cc F0EE480A 		fcpys	s1, s16
 773 02d0 2046     		mov	r0, r4
 774 02d2 6946     		mov	r1, sp
 775 02d4 9DED210A 		flds	s0, [sp, #132]
 776 02d8 FFF7FEFF 		bl	buffer_append_float32
 777              	.LVL42:
 778              		.loc 1 577 0
 779 02dc F0EE480A 		fcpys	s1, s16
 780 02e0 2046     		mov	r0, r4
 781 02e2 6946     		mov	r1, sp
 782 02e4 9DED220A 		flds	s0, [sp, #136]
 783 02e8 FFF7FEFF 		bl	buffer_append_float32
 784              	.LVL43:
 785              		.loc 1 578 0
 786 02ec F0EE480A 		fcpys	s1, s16
 787 02f0 2046     		mov	r0, r4
 788 02f2 6946     		mov	r1, sp
 789 02f4 9DED230A 		flds	s0, [sp, #140]
 790 02f8 FFF7FEFF 		bl	buffer_append_float32
 791              	.LVL44:
 792              		.loc 1 579 0
 793 02fc F0EE480A 		fcpys	s1, s16
 794 0300 2046     		mov	r0, r4
 795 0302 6946     		mov	r1, sp
 796 0304 9DED240A 		flds	s0, [sp, #144]
 797 0308 FFF7FEFF 		bl	buffer_append_float32
 798              	.LVL45:
ARM GAS  /tmp/ccq8Pe5l.s 			page 15


 799              		.loc 1 582 0
 800 030c DDED267A 		flds	s15, [sp, #152]
 801              		.loc 1 580 0
 802 0310 009B     		ldr	r3, [sp]
 803 0312 9DF89420 		ldrb	r2, [sp, #148]	@ zero_extendqisi2
 804 0316 E254     		strb	r2, [r4, r3]
 805              		.loc 1 582 0
 806 0318 27EE888A 		fmuls	s16, s15, s16
 807              		.loc 1 581 0
 808 031c E518     		adds	r5, r4, r3
 809              		.loc 1 582 0
 810 031e FDEEC87A 		ftosizs	s15, s16
 811              		.loc 1 581 0
 812 0322 0233     		adds	r3, r3, #2
 813 0324 9DF89560 		ldrb	r6, [sp, #149]	@ zero_extendqisi2
 814 0328 0093     		str	r3, [sp]
 815              		.loc 1 582 0
 816 032a 6A46     		mov	r2, sp
 817 032c 17EE901A 		fmrs	r1, s15	@ int
 818 0330 2046     		mov	r0, r4
 819              		.loc 1 581 0
 820 0332 6E70     		strb	r6, [r5, #1]
 821              		.loc 1 582 0
 822 0334 FFF7FEFF 		bl	buffer_append_int32
 823              	.LVL46:
 824              		.loc 1 590 0
 825 0338 2AAB     		add	r3, sp, #168
 826              		.loc 1 584 0
 827 033a 009A     		ldr	r2, [sp]
 828              		.loc 1 590 0
 829 033c 33F8069D 		ldrh	r9, [r3, #-6]!	@ unaligned
 830              	.LBB76:
 831              	.LBB77:
 832              		.loc 1 94 0
 833 0340 2449     		ldr	r1, .L140+8
 834              	.LBE77:
 835              	.LBE76:
 836              		.loc 1 590 0
 837 0342 93F802A0 		ldrb	r10, [r3, #2]	@ zero_extendqisi2
 838              	.LBB80:
 839              	.LBB78:
 840              		.loc 1 94 0
 841 0346 0D68     		ldr	r5, [r1]
 842              	.LBE78:
 843              	.LBE80:
 844              		.loc 1 584 0
 845 0348 9DF89C10 		ldrb	r1, [sp, #156]	@ zero_extendqisi2
 846 034c A154     		strb	r1, [r4, r2]
 847              		.loc 1 585 0
 848 034e A318     		adds	r3, r4, r2
 849 0350 9DF89D80 		ldrb	r8, [sp, #157]	@ zero_extendqisi2
 850              	.LVL47:
 851              		.loc 1 586 0
 852 0354 9DF89EC0 		ldrb	ip, [sp, #158]	@ zero_extendqisi2
 853              		.loc 1 587 0
 854 0358 9DF89FE0 		ldrb	lr, [sp, #159]	@ zero_extendqisi2
 855              		.loc 1 588 0
ARM GAS  /tmp/ccq8Pe5l.s 			page 16


 856 035c 9DF8A070 		ldrb	r7, [sp, #160]	@ zero_extendqisi2
 857              		.loc 1 589 0
 858 0360 9DF8A160 		ldrb	r6, [sp, #161]	@ zero_extendqisi2
 859              		.loc 1 592 0
 860 0364 9DF8A500 		ldrb	r0, [sp, #165]	@ zero_extendqisi2
 861              		.loc 1 590 0
 862 0368 83F808A0 		strb	r10, [r3, #8]
 863              		.loc 1 592 0
 864 036c 02F10A01 		add	r1, r2, #10
 865              		.loc 1 590 0
 866 0370 A3F80690 		strh	r9, [r3, #6]	@ unaligned
 867              		.loc 1 592 0
 868 0374 0091     		str	r1, [sp]
 869              		.loc 1 585 0
 870 0376 83F80180 		strb	r8, [r3, #1]
 871              		.loc 1 586 0
 872 037a 83F802C0 		strb	ip, [r3, #2]
 873              		.loc 1 587 0
 874 037e 83F803E0 		strb	lr, [r3, #3]
 875              		.loc 1 588 0
 876 0382 1F71     		strb	r7, [r3, #4]
 877              		.loc 1 589 0
 878 0384 5E71     		strb	r6, [r3, #5]
 879              		.loc 1 592 0
 880 0386 5872     		strb	r0, [r3, #9]
 881              	.LVL48:
 882              	.LBB81:
 883              	.LBB79:
 884              		.loc 1 94 0
 885 0388 0DB1     		cbz	r5, .L24
 886              		.loc 1 95 0
 887 038a 2046     		mov	r0, r4
 888 038c A847     		blx	r5
 889              	.LVL49:
 890              	.L24:
 891              	.LBE79:
 892              	.LBE81:
 893              		.loc 1 789 0
 894 038e 2AB0     		add	sp, sp, #168
 895              		.cfi_remember_state
 896              		.cfi_def_cfa_offset 56
 897              		@ sp needed
 898 0390 BDEC068B 		fldmfdd	sp!, {d8-d10}
 899              		.cfi_restore 84
 900              		.cfi_restore 85
 901              		.cfi_restore 82
 902              		.cfi_restore 83
 903              		.cfi_restore 80
 904              		.cfi_restore 81
 905              		.cfi_def_cfa_offset 32
 906 0394 BDE8F087 		pop	{r4, r5, r6, r7, r8, r9, r10, pc}
 907              	.LVL50:
 908              	.L38:
 909              		.cfi_restore_state
 910              		.loc 1 219 0
 911 0398 FFF7FEFF 		bl	mc_interface_get_configuration
 912              	.LVL51:
ARM GAS  /tmp/ccq8Pe5l.s 			page 17


 913 039c 0E4C     		ldr	r4, .L140+12
 914              	.LVL52:
 915 039e 0146     		mov	r1, r0
 916 03a0 4FF49872 		mov	r2, #304
 917 03a4 2046     		mov	r0, r4
 918 03a6 FFF7FEFF 		bl	memcpy
 919              	.LVL53:
 920              		.loc 1 222 0
 921 03aa 0C49     		ldr	r1, .L140+16
 922 03ac 7B78     		ldrb	r3, [r7, #1]	@ zero_extendqisi2
 923              		.loc 1 224 0
 924 03ae A278     		ldrb	r2, [r4, #2]	@ zero_extendqisi2
 925              		.loc 1 222 0
 926 03b0 0B70     		strb	r3, [r1]
 927 03b2 0121     		movs	r1, #1
 928 03b4 0091     		str	r1, [sp]
 929              		.loc 1 224 0
 930 03b6 32B9     		cbnz	r2, .L51
 931              		.loc 1 225 0
 932 03b8 002B     		cmp	r3, #0
 933 03ba 01F09E83 		beq	.L136
 934              		.loc 1 227 0
 935 03be 012B     		cmp	r3, #1
 936 03c0 01D1     		bne	.L51
 937              		.loc 1 228 0
 938 03c2 FFF7FEFF 		bl	mcpwm_set_detect
 939              	.LVL54:
 940              	.L51:
 941              		.loc 1 736 0
 942 03c6 FFF7FEFF 		bl	timeout_reset
 943              	.LVL55:
 944              		.loc 1 737 0
 945 03ca E0E7     		b	.L24
 946              	.L141:
 947              		.align	2
 948              	.L140:
 949 03cc 00000000 		.word	.LANCHOR8
 950 03d0 00007A44 		.word	1148846080
 951 03d4 00000000 		.word	.LANCHOR9
 952 03d8 00000000 		.word	.LANCHOR11
 953 03dc 00000000 		.word	.LANCHOR12
 954              	.LVL56:
 955              	.L52:
 956              		.loc 1 741 0
 957 03e0 2AAD     		add	r5, sp, #168
 958              	.LVL57:
 959 03e2 DD4C     		ldr	r4, .L142
 960              	.LVL58:
 961              		.loc 1 742 0
 962 03e4 9FEDDD8A 		flds	s16, .L142+4
 963              		.loc 1 741 0
 964 03e8 1E23     		movs	r3, #30
 965 03ea 0122     		movs	r2, #1
 966              		.loc 1 742 0
 967 03ec 0020     		movs	r0, #0
 968              	.LVL59:
 969              		.loc 1 741 0
ARM GAS  /tmp/ccq8Pe5l.s 			page 18


 970 03ee 2370     		strb	r3, [r4]
 971 03f0 45F8A82D 		str	r2, [r5, #-168]!
 972              		.loc 1 742 0
 973 03f4 FFF7FEFF 		bl	servodec_get_servo
 974              	.LVL60:
 975 03f8 20EE080A 		fmuls	s0, s0, s16
 976 03fc 2A46     		mov	r2, r5
 977 03fe FDEEC07A 		ftosizs	s15, s0
 978 0402 2046     		mov	r0, r4
 979 0404 17EE901A 		fmrs	r1, s15	@ int
 980 0408 FFF7FEFF 		bl	buffer_append_int32
 981              	.LVL61:
 982              		.loc 1 743 0
 983 040c 0020     		movs	r0, #0
 984 040e FFF7FEFF 		bl	servodec_get_last_pulse_len
 985              	.LVL62:
 986 0412 20EE080A 		fmuls	s0, s0, s16
 987              	.L130:
 988              		.loc 1 760 0
 989 0416 FDEEC07A 		ftosizs	s15, s0
 990 041a 2A46     		mov	r2, r5
 991 041c 17EE901A 		fmrs	r1, s15	@ int
 992 0420 2046     		mov	r0, r4
 993 0422 FFF7FEFF 		bl	buffer_append_int32
 994              	.LVL63:
 995              	.LBB82:
 996              	.LBB83:
 997              		.loc 1 94 0
 998 0426 CE4B     		ldr	r3, .L142+8
 999              	.LBE83:
 1000              	.LBE82:
 1001              		.loc 1 761 0
 1002 0428 0099     		ldr	r1, [sp]
 1003              	.LVL64:
 1004              	.LBB85:
 1005              	.LBB84:
 1006              		.loc 1 94 0
 1007 042a 1B68     		ldr	r3, [r3]
 1008 042c 002B     		cmp	r3, #0
 1009 042e AED0     		beq	.L24
 1010              	.LVL65:
 1011              	.L127:
 1012              		.loc 1 95 0
 1013 0430 2046     		mov	r0, r4
 1014 0432 9847     		blx	r3
 1015              	.LVL66:
 1016              	.LBE84:
 1017              	.LBE85:
 1018              		.loc 1 789 0
 1019 0434 2AB0     		add	sp, sp, #168
 1020              		.cfi_remember_state
 1021              		.cfi_def_cfa_offset 56
 1022              		@ sp needed
 1023 0436 BDEC068B 		fldmfdd	sp!, {d8-d10}
 1024              		.cfi_restore 80
 1025              		.cfi_restore 81
 1026              		.cfi_restore 82
ARM GAS  /tmp/ccq8Pe5l.s 			page 19


 1027              		.cfi_restore 83
 1028              		.cfi_restore 84
 1029              		.cfi_restore 85
 1030              		.cfi_def_cfa_offset 32
 1031 043a BDE8F087 		pop	{r4, r5, r6, r7, r8, r9, r10, pc}
 1032              	.LVL67:
 1033              	.L36:
 1034              		.cfi_restore_state
 1035              		.loc 1 208 0
 1036 043e 6946     		mov	r1, sp
 1037 0440 2046     		mov	r0, r4
 1038 0442 FFF7FEFF 		bl	buffer_get_int32
 1039              	.LVL68:
 1040 0446 07EE900A 		fmsr	s15, r0	@ int
 1041 044a B8EEE70A 		fsitos	s0, s15
 1042 044e FFF7FEFF 		bl	mc_interface_set_pid_speed
 1043              	.LVL69:
 1044              		.loc 1 209 0
 1045 0452 FFF7FEFF 		bl	timeout_reset
 1046              	.LVL70:
 1047              		.loc 1 210 0
 1048 0456 9AE7     		b	.L24
 1049              	.L35:
 1050              		.loc 1 202 0
 1051 0458 6946     		mov	r1, sp
 1052 045a 2046     		mov	r0, r4
 1053 045c FFF7FEFF 		bl	buffer_get_int32
 1054              	.LVL71:
 1055 0460 07EE100A 		fmsr	s14, r0	@ int
 1056 0464 DFEDBF7A 		flds	s15, .L142+12
 1057 0468 B8EEC70A 		fsitos	s0, s14
 1058 046c 80EE270A 		fdivs	s0, s0, s15
 1059 0470 FFF7FEFF 		bl	mc_interface_set_brake_current
 1060              	.LVL72:
 1061              		.loc 1 203 0
 1062 0474 FFF7FEFF 		bl	timeout_reset
 1063              	.LVL73:
 1064              		.loc 1 204 0
 1065 0478 89E7     		b	.L24
 1066              	.L34:
 1067              		.loc 1 196 0
 1068 047a 6946     		mov	r1, sp
 1069 047c 2046     		mov	r0, r4
 1070 047e FFF7FEFF 		bl	buffer_get_int32
 1071              	.LVL74:
 1072 0482 07EE100A 		fmsr	s14, r0	@ int
 1073 0486 DFEDB77A 		flds	s15, .L142+12
 1074 048a B8EEC70A 		fsitos	s0, s14
 1075 048e 80EE270A 		fdivs	s0, s0, s15
 1076 0492 FFF7FEFF 		bl	mc_interface_set_current
 1077              	.LVL75:
 1078              		.loc 1 197 0
 1079 0496 FFF7FEFF 		bl	timeout_reset
 1080              	.LVL76:
 1081              		.loc 1 198 0
 1082 049a 78E7     		b	.L24
 1083              	.L33:
ARM GAS  /tmp/ccq8Pe5l.s 			page 20


 1084              		.loc 1 190 0
 1085 049c 6946     		mov	r1, sp
 1086 049e 2046     		mov	r0, r4
 1087 04a0 FFF7FEFF 		bl	buffer_get_int32
 1088              	.LVL77:
 1089 04a4 07EE100A 		fmsr	s14, r0	@ int
 1090 04a8 DFEDAF7A 		flds	s15, .L142+16
 1091 04ac B8EEC70A 		fsitos	s0, s14
 1092 04b0 80EE270A 		fdivs	s0, s0, s15
 1093 04b4 FFF7FEFF 		bl	mc_interface_set_duty
 1094              	.LVL78:
 1095              		.loc 1 191 0
 1096 04b8 FFF7FEFF 		bl	timeout_reset
 1097              	.LVL79:
 1098              		.loc 1 192 0
 1099 04bc 67E7     		b	.L24
 1100              	.L32:
 1101              		.loc 1 165 0
 1102 04be AB4E     		ldr	r6, .L142+20
 1103 04c0 9FEDAB9A 		flds	s18, .L142+24
 1104 04c4 7389     		ldrh	r3, [r6, #10]
 1105 04c6 9FEDAB8A 		flds	s16, .L142+28
 1106              		.loc 1 164 0
 1107 04ca A34C     		ldr	r4, .L142
 1108              	.LVL80:
 1109              		.loc 1 165 0
 1110 04cc DFEDAA8A 		flds	s17, .L142+32
 1111 04d0 DFEDAAAA 		flds	s21, .L142+36
 1112 04d4 9FEDAAAA 		flds	s20, .L142+40
 1113 04d8 9BB2     		uxth	r3, r3
 1114 04da 07EE903A 		fmsr	s15, r3	@ int
 1115 04de B8EEE70A 		fsitos	s0, s15
 1116              		.loc 1 164 0
 1117 04e2 2AAD     		add	r5, sp, #168
 1118              	.LVL81:
 1119              		.loc 1 165 0
 1120 04e4 89EE000A 		fdivs	s0, s18, s0
 1121              		.loc 1 164 0
 1122 04e8 0122     		movs	r2, #1
 1123 04ea 0423     		movs	r3, #4
 1124 04ec 45F8A82D 		str	r2, [r5, #-168]!
 1125 04f0 2370     		strb	r3, [r4]
 1126              		.loc 1 165 0
 1127 04f2 F7EE009A 		fconsts	s19, #112
 1128 04f6 30EE480A 		fsubs	s0, s0, s16
 1129 04fa 80EE080A 		fdivs	s0, s0, s16
 1130 04fe FFF7FEFF 		bl	logf
 1131              	.LVL82:
 1132 0502 2946     		mov	r1, r5
 1133 0504 2046     		mov	r0, r4
 1134 0506 80EE280A 		fdivs	s0, s0, s17
 1135 050a F2EE040A 		fconsts	s1, #36
 1136 050e 30EE2A0A 		fadds	s0, s0, s21
 1137 0512 89EE800A 		fdivs	s0, s19, s0
 1138 0516 30EE4A0A 		fsubs	s0, s0, s20
 1139 051a FFF7FEFF 		bl	buffer_append_float16
 1140              	.LVL83:
ARM GAS  /tmp/ccq8Pe5l.s 			page 21


 1141              		.loc 1 166 0
 1142 051e 7389     		ldrh	r3, [r6, #10]
 1143 0520 9BB2     		uxth	r3, r3
 1144 0522 07EE903A 		fmsr	s15, r3	@ int
 1145 0526 B8EEE70A 		fsitos	s0, s15
 1146 052a 89EE000A 		fdivs	s0, s18, s0
 1147 052e 30EE480A 		fsubs	s0, s0, s16
 1148 0532 80EE080A 		fdivs	s0, s0, s16
 1149 0536 FFF7FEFF 		bl	logf
 1150              	.LVL84:
 1151 053a 2946     		mov	r1, r5
 1152 053c 2046     		mov	r0, r4
 1153 053e 80EE280A 		fdivs	s0, s0, s17
 1154 0542 F2EE040A 		fconsts	s1, #36
 1155 0546 30EE2A0A 		fadds	s0, s0, s21
 1156 054a 89EE800A 		fdivs	s0, s19, s0
 1157 054e 30EE4A0A 		fsubs	s0, s0, s20
 1158 0552 FFF7FEFF 		bl	buffer_append_float16
 1159              	.LVL85:
 1160              		.loc 1 167 0
 1161 0556 7389     		ldrh	r3, [r6, #10]
 1162 0558 9BB2     		uxth	r3, r3
 1163 055a 07EE903A 		fmsr	s15, r3	@ int
 1164 055e B8EEE70A 		fsitos	s0, s15
 1165 0562 89EE000A 		fdivs	s0, s18, s0
 1166 0566 30EE480A 		fsubs	s0, s0, s16
 1167 056a 80EE080A 		fdivs	s0, s0, s16
 1168 056e FFF7FEFF 		bl	logf
 1169              	.LVL86:
 1170 0572 2946     		mov	r1, r5
 1171 0574 2046     		mov	r0, r4
 1172 0576 80EE280A 		fdivs	s0, s0, s17
 1173 057a F2EE040A 		fconsts	s1, #36
 1174 057e 30EE2A0A 		fadds	s0, s0, s21
 1175 0582 89EE800A 		fdivs	s0, s19, s0
 1176 0586 30EE4A0A 		fsubs	s0, s0, s20
 1177 058a FFF7FEFF 		bl	buffer_append_float16
 1178              	.LVL87:
 1179              		.loc 1 168 0
 1180 058e 7389     		ldrh	r3, [r6, #10]
 1181 0590 9BB2     		uxth	r3, r3
 1182 0592 07EE903A 		fmsr	s15, r3	@ int
 1183 0596 B8EEE70A 		fsitos	s0, s15
 1184 059a 89EE000A 		fdivs	s0, s18, s0
 1185 059e 30EE480A 		fsubs	s0, s0, s16
 1186 05a2 80EE080A 		fdivs	s0, s0, s16
 1187 05a6 FFF7FEFF 		bl	logf
 1188              	.LVL88:
 1189 05aa 2946     		mov	r1, r5
 1190 05ac 2046     		mov	r0, r4
 1191 05ae 80EE280A 		fdivs	s0, s0, s17
 1192 05b2 F2EE040A 		fconsts	s1, #36
 1193 05b6 30EE2A0A 		fadds	s0, s0, s21
 1194 05ba 89EE800A 		fdivs	s0, s19, s0
 1195 05be 30EE4A0A 		fsubs	s0, s0, s20
 1196 05c2 FFF7FEFF 		bl	buffer_append_float16
 1197              	.LVL89:
ARM GAS  /tmp/ccq8Pe5l.s 			page 22


 1198              		.loc 1 169 0
 1199 05c6 7389     		ldrh	r3, [r6, #10]
 1200 05c8 9BB2     		uxth	r3, r3
 1201 05ca 07EE903A 		fmsr	s15, r3	@ int
 1202 05ce B8EEE70A 		fsitos	s0, s15
 1203 05d2 89EE000A 		fdivs	s0, s18, s0
 1204 05d6 30EE480A 		fsubs	s0, s0, s16
 1205 05da 80EE080A 		fdivs	s0, s0, s16
 1206 05de FFF7FEFF 		bl	logf
 1207              	.LVL90:
 1208 05e2 2946     		mov	r1, r5
 1209 05e4 2046     		mov	r0, r4
 1210 05e6 80EE280A 		fdivs	s0, s0, s17
 1211 05ea F2EE040A 		fconsts	s1, #36
 1212 05ee 30EE2A0A 		fadds	s0, s0, s21
 1213 05f2 89EE800A 		fdivs	s0, s19, s0
 1214 05f6 30EE4A0A 		fsubs	s0, s0, s20
 1215 05fa FFF7FEFF 		bl	buffer_append_float16
 1216              	.LVL91:
 1217              		.loc 1 170 0
 1218 05fe 7389     		ldrh	r3, [r6, #10]
 1219 0600 9BB2     		uxth	r3, r3
 1220 0602 07EE903A 		fmsr	s15, r3	@ int
 1221 0606 B8EEE70A 		fsitos	s0, s15
 1222 060a 89EE000A 		fdivs	s0, s18, s0
 1223 060e 30EE480A 		fsubs	s0, s0, s16
 1224 0612 80EE080A 		fdivs	s0, s0, s16
 1225 0616 FFF7FEFF 		bl	logf
 1226              	.LVL92:
 1227 061a 2946     		mov	r1, r5
 1228 061c 2046     		mov	r0, r4
 1229 061e 80EE280A 		fdivs	s0, s0, s17
 1230 0622 F2EE040A 		fconsts	s1, #36
 1231 0626 30EE2A0A 		fadds	s0, s0, s21
 1232 062a 89EE800A 		fdivs	s0, s19, s0
 1233 062e 30EE4A0A 		fsubs	s0, s0, s20
 1234 0632 FFF7FEFF 		bl	buffer_append_float16
 1235              	.LVL93:
 1236              		.loc 1 171 0
 1237 0636 7389     		ldrh	r3, [r6, #10]
 1238 0638 9BB2     		uxth	r3, r3
 1239 063a 07EE903A 		fmsr	s15, r3	@ int
 1240 063e B8EEE70A 		fsitos	s0, s15
 1241 0642 89EE000A 		fdivs	s0, s18, s0
 1242 0646 30EE480A 		fsubs	s0, s0, s16
 1243 064a 80EE080A 		fdivs	s0, s0, s16
 1244 064e FFF7FEFF 		bl	logf
 1245              	.LVL94:
 1246 0652 2946     		mov	r1, r5
 1247 0654 2046     		mov	r0, r4
 1248 0656 80EE280A 		fdivs	s0, s0, s17
 1249 065a F2EE040A 		fconsts	s1, #36
 1250 065e 30EE2A0A 		fadds	s0, s0, s21
 1251 0662 89EE800A 		fdivs	s0, s19, s0
 1252 0666 30EE4A0A 		fsubs	s0, s0, s20
 1253 066a FFF7FEFF 		bl	buffer_append_float16
 1254              	.LVL95:
ARM GAS  /tmp/ccq8Pe5l.s 			page 23


 1255              		.loc 1 172 0
 1256 066e FFF7FEFF 		bl	mc_interface_read_reset_avg_motor_current
 1257              	.LVL96:
 1258 0672 2946     		mov	r1, r5
 1259 0674 2046     		mov	r0, r4
 1260 0676 DFED430A 		flds	s1, .L142+44
 1261 067a FFF7FEFF 		bl	buffer_append_float32
 1262              	.LVL97:
 1263              		.loc 1 173 0
 1264 067e FFF7FEFF 		bl	mc_interface_read_reset_avg_input_current
 1265              	.LVL98:
 1266 0682 2946     		mov	r1, r5
 1267 0684 2046     		mov	r0, r4
 1268 0686 DFED3F0A 		flds	s1, .L142+44
 1269 068a FFF7FEFF 		bl	buffer_append_float32
 1270              	.LVL99:
 1271              		.loc 1 174 0
 1272 068e FFF7FEFF 		bl	mc_interface_get_duty_cycle_now
 1273              	.LVL100:
 1274 0692 2946     		mov	r1, r5
 1275 0694 2046     		mov	r0, r4
 1276 0696 DFED330A 		flds	s1, .L142+12
 1277 069a FFF7FEFF 		bl	buffer_append_float16
 1278              	.LVL101:
 1279              		.loc 1 175 0
 1280 069e FFF7FEFF 		bl	mc_interface_get_rpm
 1281              	.LVL102:
 1282 06a2 2946     		mov	r1, r5
 1283 06a4 2046     		mov	r0, r4
 1284 06a6 F0EE690A 		fcpys	s1, s19
 1285 06aa FFF7FEFF 		bl	buffer_append_float32
 1286              	.LVL103:
 1287              		.loc 1 176 0
 1288 06ae 338A     		ldrh	r3, [r6, #16]
 1289 06b0 9FED357A 		flds	s14, .L142+48
 1290 06b4 9FED350A 		flds	s0, .L142+52
 1291 06b8 9BB2     		uxth	r3, r3
 1292 06ba 07EE903A 		fmsr	s15, r3	@ int
 1293 06be F8EE677A 		fuitos	s15, s15
 1294 06c2 2946     		mov	r1, r5
 1295 06c4 67EE877A 		fmuls	s15, s15, s14
 1296 06c8 F2EE040A 		fconsts	s1, #36
 1297 06cc 27EE800A 		fmuls	s0, s15, s0
 1298 06d0 2046     		mov	r0, r4
 1299 06d2 FFF7FEFF 		bl	buffer_append_float16
 1300              	.LVL104:
 1301              		.loc 1 177 0
 1302 06d6 0020     		movs	r0, #0
 1303 06d8 FFF7FEFF 		bl	mc_interface_get_amp_hours
 1304              	.LVL105:
 1305 06dc 2946     		mov	r1, r5
 1306 06de F0EE480A 		fcpys	s1, s16
 1307 06e2 2046     		mov	r0, r4
 1308 06e4 FFF7FEFF 		bl	buffer_append_float32
 1309              	.LVL106:
 1310              		.loc 1 178 0
 1311 06e8 0020     		movs	r0, #0
ARM GAS  /tmp/ccq8Pe5l.s 			page 24


 1312 06ea FFF7FEFF 		bl	mc_interface_get_amp_hours_charged
 1313              	.LVL107:
 1314 06ee 2946     		mov	r1, r5
 1315 06f0 F0EE480A 		fcpys	s1, s16
 1316 06f4 2046     		mov	r0, r4
 1317 06f6 FFF7FEFF 		bl	buffer_append_float32
 1318              	.LVL108:
 1319              		.loc 1 179 0
 1320 06fa 0020     		movs	r0, #0
 1321 06fc FFF7FEFF 		bl	mc_interface_get_watt_hours
 1322              	.LVL109:
 1323 0700 2946     		mov	r1, r5
 1324 0702 F0EE480A 		fcpys	s1, s16
 1325 0706 2046     		mov	r0, r4
 1326 0708 FFF7FEFF 		bl	buffer_append_float32
 1327              	.LVL110:
 1328              		.loc 1 180 0
 1329 070c 0020     		movs	r0, #0
 1330 070e FFF7FEFF 		bl	mc_interface_get_watt_hours_charged
 1331              	.LVL111:
 1332 0712 F0EE480A 		fcpys	s1, s16
 1333 0716 2946     		mov	r1, r5
 1334 0718 2046     		mov	r0, r4
 1335 071a FFF7FEFF 		bl	buffer_append_float32
 1336              	.LVL112:
 1337              		.loc 1 181 0
 1338 071e 0020     		movs	r0, #0
 1339 0720 FFF7FEFF 		bl	mc_interface_get_tachometer_value
 1340              	.LVL113:
 1341 0724 2A46     		mov	r2, r5
 1342 0726 0146     		mov	r1, r0
 1343 0728 2046     		mov	r0, r4
 1344 072a FFF7FEFF 		bl	buffer_append_int32
 1345              	.LVL114:
 1346              		.loc 1 182 0
 1347 072e 0020     		movs	r0, #0
 1348 0730 FFF7FEFF 		bl	mc_interface_get_tachometer_abs_value
 1349              	.LVL115:
 1350 0734 2A46     		mov	r2, r5
 1351 0736 0146     		mov	r1, r0
 1352 0738 2046     		mov	r0, r4
 1353 073a FFF7FEFF 		bl	buffer_append_int32
 1354              	.LVL116:
 1355              		.loc 1 183 0
 1356 073e 009D     		ldr	r5, [sp]
 1357 0740 6B1C     		adds	r3, r5, #1
 1358 0742 0093     		str	r3, [sp]
 1359 0744 FFF7FEFF 		bl	mc_interface_get_fault
 1360              	.LVL117:
 1361              	.LBB86:
 1362              	.LBB87:
 1363              		.loc 1 94 0
 1364 0748 054B     		ldr	r3, .L142+8
 1365              	.LBE87:
 1366              	.LBE86:
 1367              		.loc 1 183 0
 1368 074a 6055     		strb	r0, [r4, r5]
ARM GAS  /tmp/ccq8Pe5l.s 			page 25


 1369              	.LBB90:
 1370              	.LBB88:
 1371              		.loc 1 94 0
 1372 074c 1B68     		ldr	r3, [r3]
 1373              	.LBE88:
 1374              	.LBE90:
 1375              		.loc 1 185 0
 1376 074e 0099     		ldr	r1, [sp]
 1377              	.LVL118:
 1378              	.LBB91:
 1379              	.LBB89:
 1380              		.loc 1 94 0
 1381 0750 002B     		cmp	r3, #0
 1382 0752 7FF46DAE 		bne	.L127
 1383 0756 1AE6     		b	.L24
 1384              	.L143:
 1385              		.align	2
 1386              	.L142:
 1387 0758 00000000 		.word	.LANCHOR8
 1388 075c 00247449 		.word	1232348160
 1389 0760 00000000 		.word	.LANCHOR9
 1390 0764 00007A44 		.word	1148846080
 1391 0768 0050C347 		.word	1203982336
 1392 076c 00000000 		.word	ADC_Value
 1393 0770 3C361C4C 		.word	1276917308
 1394 0774 00401C46 		.word	1176256512
 1395 0778 00A05645 		.word	1163304960
 1396 077c 0FCF5B3B 		.word	995872527
 1397 0780 33938843 		.word	1133024051
 1398 0784 0000C842 		.word	1120403456
 1399 0788 6740533A 		.word	978534503
 1400 078c 74D19541 		.word	1100337524
 1401              	.LVL119:
 1402              	.L31:
 1403              	.LBE89:
 1404              	.LBE91:
 1405              		.loc 1 153 0
 1406 0790 2046     		mov	r0, r4
 1407 0792 6946     		mov	r1, sp
 1408 0794 FFF7FEFF 		bl	buffer_get_uint32
 1409              	.LVL120:
 1410              		.loc 1 154 0
 1411 0798 009A     		ldr	r2, [sp]
 1412 079a A118     		adds	r1, r4, r2
 1413 079c AA1A     		subs	r2, r5, r2
 1414 079e FFF7FEFF 		bl	flash_helper_write_new_app_data
 1415              	.LVL121:
 1416              	.LBB92:
 1417              	.LBB93:
 1418              		.loc 1 94 0
 1419 07a2 B84A     		ldr	r2, .L144
 1420              	.LBE93:
 1421              	.LBE92:
 1422              		.loc 1 157 0
 1423 07a4 B84B     		ldr	r3, .L144+4
 1424              	.LBB96:
 1425              	.LBB94:
ARM GAS  /tmp/ccq8Pe5l.s 			page 26


 1426              		.loc 1 94 0
 1427 07a6 1268     		ldr	r2, [r2]
 1428              	.LBE94:
 1429              	.LBE96:
 1430              		.loc 1 158 0
 1431 07a8 A0F10900 		sub	r0, #9
 1432              	.LVL122:
 1433              		.loc 1 157 0
 1434 07ac 0324     		movs	r4, #3
 1435              	.LVL123:
 1436              		.loc 1 158 0
 1437 07ae B0FA80F0 		clz	r0, r0
 1438 07b2 0221     		movs	r1, #2
 1439 07b4 4009     		lsrs	r0, r0, #5
 1440 07b6 5870     		strb	r0, [r3, #1]
 1441              	.LVL124:
 1442              		.loc 1 157 0
 1443 07b8 1C70     		strb	r4, [r3]
 1444              		.loc 1 158 0
 1445 07ba 0091     		str	r1, [sp]
 1446              	.LBB97:
 1447              	.LBB95:
 1448              		.loc 1 94 0
 1449 07bc 002A     		cmp	r2, #0
 1450 07be 3FF4E6AD 		beq	.L24
 1451              	.LVL125:
 1452              	.L126:
 1453              		.loc 1 95 0
 1454 07c2 1846     		mov	r0, r3
 1455 07c4 9047     		blx	r2
 1456              	.LVL126:
 1457 07c6 E2E5     		b	.L24
 1458              	.LVL127:
 1459              	.L30:
 1460              	.LBE95:
 1461              	.LBE97:
 1462              		.loc 1 143 0
 1463 07c8 6946     		mov	r1, sp
 1464 07ca 2046     		mov	r0, r4
 1465 07cc FFF7FEFF 		bl	buffer_get_uint32
 1466              	.LVL128:
 1467 07d0 FFF7FEFF 		bl	flash_helper_erase_new_app
 1468              	.LVL129:
 1469              	.LBB98:
 1470              	.LBB99:
 1471              		.loc 1 94 0
 1472 07d4 AB4A     		ldr	r2, .L144
 1473              	.LBE99:
 1474              	.LBE98:
 1475              		.loc 1 146 0
 1476 07d6 AC4B     		ldr	r3, .L144+4
 1477              	.LBB102:
 1478              	.LBB100:
 1479              		.loc 1 94 0
 1480 07d8 1268     		ldr	r2, [r2]
 1481              	.LBE100:
 1482              	.LBE102:
ARM GAS  /tmp/ccq8Pe5l.s 			page 27


 1483              		.loc 1 146 0
 1484 07da 0221     		movs	r1, #2
 1485              		.loc 1 147 0
 1486 07dc A0F10900 		sub	r0, #9
 1487              	.LVL130:
 1488 07e0 B0FA80F0 		clz	r0, r0
 1489 07e4 4009     		lsrs	r0, r0, #5
 1490 07e6 5870     		strb	r0, [r3, #1]
 1491              	.LVL131:
 1492              		.loc 1 146 0
 1493 07e8 1970     		strb	r1, [r3]
 1494              		.loc 1 147 0
 1495 07ea 0091     		str	r1, [sp]
 1496              	.LBB103:
 1497              	.LBB101:
 1498              		.loc 1 94 0
 1499 07ec 002A     		cmp	r2, #0
 1500 07ee E8D1     		bne	.L126
 1501 07f0 CDE5     		b	.L24
 1502              	.LVL132:
 1503              	.L29:
 1504              	.LBE101:
 1505              	.LBE103:
 1506              		.loc 1 138 0
 1507 07f2 FFF7FEFF 		bl	flash_helper_jump_to_bootloader
 1508              	.LVL133:
 1509              		.loc 1 139 0
 1510 07f6 CAE5     		b	.L24
 1511              	.L27:
 1512              	.LBB104:
 1513              	.LBB105:
 1514              		.loc 1 94 0
 1515 07f8 A24B     		ldr	r3, .L144
 1516              	.LBE105:
 1517              	.LBE104:
 1518              		.loc 1 131 0
 1519 07fa A348     		ldr	r0, .L144+4
 1520              	.LBB108:
 1521              	.LBB106:
 1522              		.loc 1 94 0
 1523 07fc 1B68     		ldr	r3, [r3]
 1524              	.LBE106:
 1525              	.LBE108:
 1526              		.loc 1 131 0
 1527 07fe 0025     		movs	r5, #0
 1528              	.LVL134:
 1529              		.loc 1 132 0
 1530 0800 0224     		movs	r4, #2
 1531              	.LVL135:
 1532              		.loc 1 133 0
 1533 0802 1022     		movs	r2, #16
 1534 0804 0321     		movs	r1, #3
 1535              	.LVL136:
 1536              		.loc 1 131 0
 1537 0806 0570     		strb	r5, [r0]
 1538              		.loc 1 132 0
 1539 0808 4470     		strb	r4, [r0, #1]
ARM GAS  /tmp/ccq8Pe5l.s 			page 28


 1540              		.loc 1 133 0
 1541 080a 8270     		strb	r2, [r0, #2]
 1542              	.LVL137:
 1543 080c 0091     		str	r1, [sp]
 1544              	.LBB109:
 1545              	.LBB107:
 1546              		.loc 1 94 0
 1547 080e 002B     		cmp	r3, #0
 1548 0810 3FF4BDAD 		beq	.L24
 1549              	.LVL138:
 1550              	.L125:
 1551              	.LBE107:
 1552              	.LBE109:
 1553              		.loc 1 782 0
 1554 0814 9847     		blx	r3
 1555              	.LVL139:
 1556 0816 BAE5     		b	.L24
 1557              	.LVL140:
 1558              	.L57:
 1559              		.loc 1 781 0
 1560 0818 9C4B     		ldr	r3, .L144+8
 1561 081a 1B68     		ldr	r3, [r3]
 1562 081c 002B     		cmp	r3, #0
 1563 081e 3FF4B6AD 		beq	.L24
 1564              		.loc 1 782 0
 1565 0822 2046     		mov	r0, r4
 1566 0824 2946     		mov	r1, r5
 1567 0826 F5E7     		b	.L125
 1568              	.L56:
 1569              		.loc 1 772 0
 1570 0828 C278     		ldrb	r2, [r0, #3]	@ zero_extendqisi2
 1571              		.loc 1 773 0
 1572 082a 0379     		ldrb	r3, [r0, #4]	@ zero_extendqisi2
 1573              		.loc 1 770 0
 1574 082c 4178     		ldrb	r1, [r0, #1]	@ zero_extendqisi2
 1575              		.loc 1 771 0
 1576 082e 8678     		ldrb	r6, [r0, #2]	@ zero_extendqisi2
 1577              		.loc 1 770 0
 1578 0830 0291     		str	r1, [sp, #8]
 1579              		.loc 1 772 0
 1580 0832 0032     		adds	r2, r2, #0
 1581 0834 18BF     		it	ne
 1582 0836 0122     		movne	r2, #1
 1583              		.loc 1 773 0
 1584 0838 0033     		adds	r3, r3, #0
 1585 083a 18BF     		it	ne
 1586 083c 0123     		movne	r3, #1
 1587              		.loc 1 774 0
 1588 083e 6946     		mov	r1, sp
 1589              		.loc 1 773 0
 1590 0840 0425     		movs	r5, #4
 1591              	.LVL141:
 1592              		.loc 1 774 0
 1593 0842 2046     		mov	r0, r4
 1594              		.loc 1 772 0
 1595 0844 8DF81C20 		strb	r2, [sp, #28]
 1596              		.loc 1 773 0
ARM GAS  /tmp/ccq8Pe5l.s 			page 29


 1597 0848 8DF81D30 		strb	r3, [sp, #29]
 1598              		.loc 1 771 0
 1599 084c 0396     		str	r6, [sp, #12]
 1600              		.loc 1 773 0
 1601 084e 0095     		str	r5, [sp]
 1602              		.loc 1 774 0
 1603 0850 FFF7FEFF 		bl	buffer_get_int16
 1604              	.LVL142:
 1605              		.loc 1 775 0
 1606 0854 6946     		mov	r1, sp
 1607              		.loc 1 774 0
 1608 0856 0490     		str	r0, [sp, #16]
 1609              		.loc 1 775 0
 1610 0858 2046     		mov	r0, r4
 1611 085a FFF7FEFF 		bl	buffer_get_int16
 1612              	.LVL143:
 1613              		.loc 1 776 0
 1614 085e 6946     		mov	r1, sp
 1615              		.loc 1 775 0
 1616 0860 0590     		str	r0, [sp, #20]
 1617              		.loc 1 776 0
 1618 0862 2046     		mov	r0, r4
 1619 0864 FFF7FEFF 		bl	buffer_get_int16
 1620              	.LVL144:
 1621 0868 0690     		str	r0, [sp, #24]
 1622              		.loc 1 777 0
 1623 086a 02A8     		add	r0, sp, #8
 1624 086c FFF7FEFF 		bl	app_nunchuk_update_output
 1625              	.LVL145:
 1626              		.loc 1 778 0
 1627 0870 8DE5     		b	.L24
 1628              	.LVL146:
 1629              	.L55:
 1630              		.loc 1 765 0
 1631 0872 8A1E     		subs	r2, r1, #2
 1632 0874 4078     		ldrb	r0, [r0, #1]	@ zero_extendqisi2
 1633 0876 B91C     		adds	r1, r7, #2
 1634 0878 0023     		movs	r3, #0
 1635 087a FFF7FEFF 		bl	comm_can_send_buffer
 1636              	.LVL147:
 1637              		.loc 1 766 0
 1638 087e 86E5     		b	.L24
 1639              	.L37:
 1640              		.loc 1 214 0
 1641 0880 6946     		mov	r1, sp
 1642 0882 2046     		mov	r0, r4
 1643 0884 FFF7FEFF 		bl	buffer_get_int32
 1644              	.LVL148:
 1645 0888 07EE100A 		fmsr	s14, r0	@ int
 1646 088c DFED807A 		flds	s15, .L144+12
 1647 0890 B8EEC70A 		fsitos	s0, s14
 1648 0894 80EE270A 		fdivs	s0, s0, s15
 1649 0898 FFF7FEFF 		bl	mc_interface_set_pid_pos
 1650              	.LVL149:
 1651              		.loc 1 215 0
 1652 089c FFF7FEFF 		bl	timeout_reset
 1653              	.LVL150:
ARM GAS  /tmp/ccq8Pe5l.s 			page 30


 1654              		.loc 1 216 0
 1655 08a0 75E5     		b	.L24
 1656              	.L54:
 1657              		.loc 1 759 0
 1658 08a2 2AAD     		add	r5, sp, #168
 1659              	.LVL151:
 1660 08a4 784C     		ldr	r4, .L144+4
 1661              	.LVL152:
 1662 08a6 0122     		movs	r2, #1
 1663 08a8 2023     		movs	r3, #32
 1664 08aa 45F8A82D 		str	r2, [r5, #-168]!
 1665 08ae 2370     		strb	r3, [r4]
 1666              		.loc 1 760 0
 1667 08b0 FFF7FEFF 		bl	app_nunchuk_get_decoded_chuk
 1668              	.LVL153:
 1669 08b4 DFED767A 		flds	s15, .L144+12
 1670 08b8 20EE270A 		fmuls	s0, s0, s15
 1671 08bc ABE5     		b	.L130
 1672              	.LVL154:
 1673              	.L53:
 1674              		.loc 1 749 0
 1675 08be 2AAD     		add	r5, sp, #168
 1676              	.LVL155:
 1677 08c0 714C     		ldr	r4, .L144+4
 1678              	.LVL156:
 1679              		.loc 1 750 0
 1680 08c2 9FED738A 		flds	s16, .L144+12
 1681              		.loc 1 749 0
 1682 08c6 1F23     		movs	r3, #31
 1683 08c8 0122     		movs	r2, #1
 1684 08ca 2370     		strb	r3, [r4]
 1685 08cc 45F8A82D 		str	r2, [r5, #-168]!
 1686              		.loc 1 750 0
 1687 08d0 FFF7FEFF 		bl	app_adc_get_decoded_level
 1688              	.LVL157:
 1689 08d4 20EE080A 		fmuls	s0, s0, s16
 1690 08d8 2A46     		mov	r2, r5
 1691 08da FDEEC07A 		ftosizs	s15, s0
 1692 08de 2046     		mov	r0, r4
 1693 08e0 17EE901A 		fmrs	r1, s15	@ int
 1694 08e4 FFF7FEFF 		bl	buffer_append_int32
 1695              	.LVL158:
 1696              		.loc 1 751 0
 1697 08e8 FFF7FEFF 		bl	app_adc_get_voltage
 1698              	.LVL159:
 1699 08ec 20EE080A 		fmuls	s0, s0, s16
 1700 08f0 2A46     		mov	r2, r5
 1701 08f2 FDEEC07A 		ftosizs	s15, s0
 1702 08f6 2046     		mov	r0, r4
 1703 08f8 17EE901A 		fmrs	r1, s15	@ int
 1704 08fc FFF7FEFF 		bl	buffer_append_int32
 1705              	.LVL160:
 1706              		.loc 1 752 0
 1707 0900 FFF7FEFF 		bl	app_adc_get_decoded_level2
 1708              	.LVL161:
 1709 0904 20EE080A 		fmuls	s0, s0, s16
 1710 0908 2A46     		mov	r2, r5
ARM GAS  /tmp/ccq8Pe5l.s 			page 31


 1711 090a FDEEC07A 		ftosizs	s15, s0
 1712 090e 2046     		mov	r0, r4
 1713 0910 17EE901A 		fmrs	r1, s15	@ int
 1714 0914 FFF7FEFF 		bl	buffer_append_int32
 1715              	.LVL162:
 1716              		.loc 1 753 0
 1717 0918 FFF7FEFF 		bl	app_adc_get_voltage2
 1718              	.LVL163:
 1719 091c 20EE080A 		fmuls	s0, s0, s16
 1720 0920 79E5     		b	.L130
 1721              	.LVL164:
 1722              	.L50:
 1723              	.LBB110:
 1724              	.LBB111:
 1725              		.file 3 "ChibiOS_3.0.2/os/ext/CMSIS/include/core_cmFunc.h"
 1726              		.loc 3 342 0
 1727              	@ 342 "ChibiOS_3.0.2/os/ext/CMSIS/include/core_cmFunc.h" 1
 1728 0922 72B6     		cpsid i
 1729              	@ 0 "" 2
 1730              		.thumb
 1731              	.L73:
 1732              	.LBE111:
 1733              	.LBE110:
 1734              		.loc 1 732 0 discriminator 5
 1735 0924 FEE7     		b	.L73
 1736              	.L49:
 1737              	.LBB112:
 1738              		.loc 1 703 0
 1739 0926 FFF7FEFF 		bl	mc_interface_get_configuration
 1740              	.LVL165:
 1741 092a 5A4D     		ldr	r5, .L144+16
 1742              	.LVL166:
 1743              	.LBB113:
 1744              	.LBB114:
 1745              		.loc 1 94 0
 1746 092c 554E     		ldr	r6, .L144
 1747              	.LBE114:
 1748              	.LBE113:
 1749              		.loc 1 703 0
 1750 092e 0146     		mov	r1, r0
 1751 0930 4FF49872 		mov	r2, #304
 1752 0934 2846     		mov	r0, r5
 1753 0936 FFF7FEFF 		bl	memcpy
 1754              	.LVL167:
 1755              		.loc 1 704 0
 1756 093a 2946     		mov	r1, r5
 1757 093c 4FF49872 		mov	r2, #304
 1758 0940 5548     		ldr	r0, .L144+20
 1759 0942 FFF7FEFF 		bl	memcpy
 1760              	.LVL168:
 1761              		.loc 1 706 0
 1762 0946 2AA9     		add	r1, sp, #168
 1763 0948 0023     		movs	r3, #0
 1764 094a 41F8A83D 		str	r3, [r1, #-168]!
 1765              		.loc 1 707 0
 1766 094e 2046     		mov	r0, r4
 1767 0950 9FED520A 		flds	s0, .L144+24
ARM GAS  /tmp/ccq8Pe5l.s 			page 32


 1768 0954 FFF7FEFF 		bl	buffer_get_float32
 1769              	.LVL169:
 1770              		.loc 1 710 0
 1771 0958 514B     		ldr	r3, .L144+28
 1772              		.loc 1 711 0
 1773 095a 524A     		ldr	r2, .L144+32
 1774              		.loc 1 710 0
 1775 095c C5F89430 		str	r3, [r5, #148]	@ float
 1776              		.loc 1 709 0
 1777 0960 0221     		movs	r1, #2
 1778              		.loc 1 712 0
 1779 0962 514B     		ldr	r3, .L144+36
 1780              		.loc 1 709 0
 1781 0964 A970     		strb	r1, [r5, #2]
 1782              		.loc 1 713 0
 1783 0966 2846     		mov	r0, r5
 1784              		.loc 1 707 0
 1785 0968 B0EE408A 		fcpys	s16, s0
 1786              	.LVL170:
 1787              		.loc 1 711 0
 1788 096c C5F88C20 		str	r2, [r5, #140]	@ float
 1789              		.loc 1 712 0
 1790 0970 C5F89030 		str	r3, [r5, #144]	@ float
 1791              		.loc 1 713 0
 1792 0974 FFF7FEFF 		bl	mc_interface_set_configuration
 1793              	.LVL171:
 1794              		.loc 1 716 0
 1795 0978 B0EE480A 		fcpys	s0, s16
 1796 097c 02A8     		add	r0, sp, #8
 1797 097e FFF7FEFF 		bl	mcpwm_foc_hall_detect
 1798              	.LVL172:
 1799 0982 0446     		mov	r4, r0
 1800              	.LVL173:
 1801              		.loc 1 717 0
 1802 0984 4448     		ldr	r0, .L144+20
 1803 0986 FFF7FEFF 		bl	mc_interface_set_configuration
 1804              	.LVL174:
 1805              		.loc 1 720 0
 1806 098a 3F4A     		ldr	r2, .L144+4
 1807              		.loc 1 721 0
 1808 098c 02AB     		add	r3, sp, #8
 1809              		.loc 1 720 0
 1810 098e 1546     		mov	r5, r2
 1811              		.loc 1 721 0
 1812 0990 03CB     		ldmia	r3!, {r0, r1}
 1813              		.loc 1 720 0
 1814 0992 1B23     		movs	r3, #27
 1815 0994 05F8013B 		strb	r3, [r5], #1
 1816              	.LBB117:
 1817              	.LBB115:
 1818              		.loc 1 94 0
 1819 0998 3368     		ldr	r3, [r6]
 1820              	.LBE115:
 1821              	.LBE117:
 1822              		.loc 1 721 0
 1823 099a C2F80100 		str	r0, [r2, #1]	@ unaligned
 1824              		.loc 1 723 0
ARM GAS  /tmp/ccq8Pe5l.s 			page 33


 1825 099e 84F00104 		eor	r4, r4, #1
 1826              	.LVL175:
 1827 09a2 0A26     		movs	r6, #10
 1828              		.loc 1 721 0
 1829 09a4 6960     		str	r1, [r5, #4]	@ unaligned
 1830              		.loc 1 723 0
 1831 09a6 0096     		str	r6, [sp]
 1832 09a8 5472     		strb	r4, [r2, #9]
 1833              	.LVL176:
 1834              	.LBB118:
 1835              	.LBB116:
 1836              		.loc 1 94 0
 1837 09aa 002B     		cmp	r3, #0
 1838 09ac 3FF4EFAC 		beq	.L24
 1839              		.loc 1 95 0
 1840 09b0 1046     		mov	r0, r2
 1841 09b2 3146     		mov	r1, r6
 1842 09b4 9847     		blx	r3
 1843              	.LVL177:
 1844              	.LBE116:
 1845              	.LBE118:
 1846              	.LBE112:
 1847              		.loc 1 727 0
 1848 09b6 EAE4     		b	.L24
 1849              	.LVL178:
 1850              	.L48:
 1851              		.loc 1 693 0
 1852 09b8 2AAD     		add	r5, sp, #168
 1853              	.LVL179:
 1854 09ba 0123     		movs	r3, #1
 1855 09bc 45F8A83D 		str	r3, [r5, #-168]!
 1856 09c0 314C     		ldr	r4, .L144+4
 1857              	.LVL180:
 1858              		.loc 1 694 0
 1859 09c2 9FED3A0A 		flds	s0, .L144+40
 1860 09c6 DFED320A 		flds	s1, .L144+12
 1861              		.loc 1 693 0
 1862 09ca 1A23     		movs	r3, #26
 1863              		.loc 1 694 0
 1864 09cc 2946     		mov	r1, r5
 1865              	.LVL181:
 1866 09ce 2046     		mov	r0, r4
 1867              	.LVL182:
 1868              		.loc 1 693 0
 1869 09d0 2370     		strb	r3, [r4]
 1870              		.loc 1 694 0
 1871 09d2 FFF7FEFF 		bl	buffer_append_float32
 1872              	.LVL183:
 1873              		.loc 1 695 0
 1874 09d6 2046     		mov	r0, r4
 1875 09d8 2946     		mov	r1, r5
 1876 09da 9FED350A 		flds	s0, .L144+44
 1877 09de DFED2C0A 		flds	s1, .L144+12
 1878 09e2 FFF7FEFF 		bl	buffer_append_float32
 1879              	.LVL184:
 1880              	.LBB119:
 1881              	.LBB120:
ARM GAS  /tmp/ccq8Pe5l.s 			page 34


 1882              		.loc 1 94 0
 1883 09e6 274B     		ldr	r3, .L144
 1884              	.LBE120:
 1885              	.LBE119:
 1886              		.loc 1 696 0
 1887 09e8 009A     		ldr	r2, [sp]
 1888              	.LBB123:
 1889              	.LBB121:
 1890              		.loc 1 94 0
 1891 09ea 1B68     		ldr	r3, [r3]
 1892              	.LBE121:
 1893              	.LBE123:
 1894              		.loc 1 696 0
 1895 09ec 0020     		movs	r0, #0
 1896 09ee 511C     		adds	r1, r2, #1
 1897 09f0 A054     		strb	r0, [r4, r2]
 1898              	.LVL185:
 1899 09f2 0091     		str	r1, [sp]
 1900              	.LBB124:
 1901              	.LBB122:
 1902              		.loc 1 94 0
 1903 09f4 002B     		cmp	r3, #0
 1904 09f6 7FF41BAD 		bne	.L127
 1905 09fa C8E4     		b	.L24
 1906              	.LVL186:
 1907              	.L47:
 1908              	.LBE122:
 1909              	.LBE124:
 1910              	.LBB125:
 1911              		.loc 1 646 0
 1912 09fc 6946     		mov	r1, sp
 1913 09fe 2046     		mov	r0, r4
 1914 0a00 9FED260A 		flds	s0, .L144+24
 1915 0a04 FFF7FEFF 		bl	buffer_get_float32
 1916              	.LVL187:
 1917              		.loc 1 647 0
 1918 0a08 2046     		mov	r0, r4
 1919              		.loc 1 646 0
 1920 0a0a B0EE409A 		fcpys	s18, s0
 1921              	.LVL188:
 1922              		.loc 1 647 0
 1923 0a0e 6946     		mov	r1, sp
 1924 0a10 9FED220A 		flds	s0, .L144+24
 1925              	.LVL189:
 1926 0a14 FFF7FEFF 		bl	buffer_get_float32
 1927              	.LVL190:
 1928              		.loc 1 648 0
 1929 0a18 2046     		mov	r0, r4
 1930              		.loc 1 647 0
 1931 0a1a B0EE408A 		fcpys	s16, s0
 1932              	.LVL191:
 1933              		.loc 1 648 0
 1934 0a1e 6946     		mov	r1, sp
 1935 0a20 9FED1E0A 		flds	s0, .L144+24
 1936              	.LVL192:
 1937 0a24 FFF7FEFF 		bl	buffer_get_float32
 1938              	.LVL193:
ARM GAS  /tmp/ccq8Pe5l.s 			page 35


 1939              		.loc 1 649 0
 1940 0a28 2046     		mov	r0, r4
 1941              		.loc 1 648 0
 1942 0a2a F0EE408A 		fcpys	s17, s0
 1943              	.LVL194:
 1944              		.loc 1 649 0
 1945 0a2e 6946     		mov	r1, sp
 1946 0a30 9FED170A 		flds	s0, .L144+12
 1947              	.LVL195:
 1948 0a34 FFF7FEFF 		bl	buffer_get_float32
 1949              	.LVL196:
 1950              		.loc 1 652 0
 1951 0a38 F0EE680A 		fcpys	s1, s17
 1952              		.loc 1 649 0
 1953 0a3c F0EE401A 		fcpys	s3, s0
 1954              	.LVL197:
 1955              		.loc 1 652 0
 1956 0a40 B0EE481A 		fcpys	s2, s16
 1957 0a44 B0EE490A 		fcpys	s0, s18
 1958              	.LVL198:
 1959 0a48 02A8     		add	r0, sp, #8
 1960 0a4a FFF7FEFF 		bl	conf_general_measure_flux_linkage
 1961              	.LVL199:
 1962              		.loc 1 654 0
 1963 0a4e 0028     		cmp	r0, #0
 1964 0a50 41F04680 		bne	.L137
 1965              		.loc 1 655 0
 1966 0a54 DFED167A 		flds	s15, .L144+44
 1967 0a58 B0EE670A 		fcpys	s0, s15
 1968 0a5c CDED027A 		fsts	s15, [sp, #8]
 1969              	.L70:
 1970              		.loc 1 659 0 discriminator 3
 1971 0a60 094C     		ldr	r4, .L144+4
 1972              	.LVL200:
 1973              		.loc 1 660 0 discriminator 3
 1974 0a62 DFED140A 		flds	s1, .L144+48
 1975              		.loc 1 659 0 discriminator 3
 1976 0a66 1922     		movs	r2, #25
 1977 0a68 0123     		movs	r3, #1
 1978              		.loc 1 660 0 discriminator 3
 1979 0a6a 6946     		mov	r1, sp
 1980 0a6c 2046     		mov	r0, r4
 1981              	.LVL201:
 1982              		.loc 1 659 0 discriminator 3
 1983 0a6e 2270     		strb	r2, [r4]
 1984 0a70 0093     		str	r3, [sp]
 1985              	.LVL202:
 1986              	.L133:
 1987              		.loc 1 660 0 discriminator 3
 1988 0a72 FFF7FEFF 		bl	buffer_append_float32
 1989              	.LVL203:
 1990              	.LBB126:
 1991              	.LBB127:
 1992              		.loc 1 94 0 discriminator 3
 1993 0a76 034B     		ldr	r3, .L144
 1994              	.LBE127:
 1995              	.LBE126:
ARM GAS  /tmp/ccq8Pe5l.s 			page 36


 1996              		.loc 1 661 0 discriminator 3
 1997 0a78 0099     		ldr	r1, [sp]
 1998              	.LVL204:
 1999              	.LBB129:
 2000              	.LBB128:
 2001              		.loc 1 94 0 discriminator 3
 2002 0a7a 1B68     		ldr	r3, [r3]
 2003 0a7c 002B     		cmp	r3, #0
 2004 0a7e 7FF4D7AC 		bne	.L127
 2005 0a82 84E4     		b	.L24
 2006              	.L145:
 2007              		.align	2
 2008              	.L144:
 2009 0a84 00000000 		.word	.LANCHOR9
 2010 0a88 00000000 		.word	.LANCHOR8
 2011 0a8c 00000000 		.word	.LANCHOR14
 2012 0a90 00247449 		.word	1232348160
 2013 0a94 00000000 		.word	.LANCHOR11
 2014 0a98 00000000 		.word	.LANCHOR13
 2015 0a9c 00007A44 		.word	1148846080
 2016 0aa0 00401C46 		.word	1176256512
 2017 0aa4 0AD7233C 		.word	1008981770
 2018 0aa8 00002041 		.word	1092616192
 2019 0aac 00407A44 		.word	1148862464
 2020 0ab0 00000000 		.word	0
 2021 0ab4 8096184B 		.word	1259902592
 2022              	.LVL205:
 2023              	.L46:
 2024              	.LBE128:
 2025              	.LBE129:
 2026              	.LBE125:
 2027              	.LBB130:
 2028              		.loc 1 620 0
 2029 0ab8 FFF7FEFF 		bl	mc_interface_get_configuration
 2030              	.LVL206:
 2031 0abc 214C     		ldr	r4, .L146
 2032              	.LVL207:
 2033              		.loc 1 626 0
 2034 0abe 9FED228A 		flds	s16, .L146+4
 2035              		.loc 1 620 0
 2036 0ac2 0146     		mov	r1, r0
 2037 0ac4 4FF49872 		mov	r2, #304
 2038 0ac8 2046     		mov	r0, r4
 2039 0aca FFF7FEFF 		bl	memcpy
 2040              	.LVL208:
 2041              		.loc 1 621 0
 2042 0ace 2146     		mov	r1, r4
 2043 0ad0 4FF49872 		mov	r2, #304
 2044 0ad4 1D48     		ldr	r0, .L146+8
 2045 0ad6 FFF7FEFF 		bl	memcpy
 2046              	.LVL209:
 2047              		.loc 1 623 0
 2048 0ada 0223     		movs	r3, #2
 2049              		.loc 1 624 0
 2050 0adc 2046     		mov	r0, r4
 2051              		.loc 1 623 0
 2052 0ade A370     		strb	r3, [r4, #2]
ARM GAS  /tmp/ccq8Pe5l.s 			page 37


 2053              		.loc 1 624 0
 2054 0ae0 FFF7FEFF 		bl	mc_interface_set_configuration
 2055              	.LVL210:
 2056              		.loc 1 628 0
 2057 0ae4 01A8     		add	r0, sp, #4
 2058 0ae6 02A9     		add	r1, sp, #8
 2059              		.loc 1 626 0
 2060 0ae8 8DED018A 		fsts	s16, [sp, #4]
 2061              		.loc 1 627 0
 2062 0aec 8DED028A 		fsts	s16, [sp, #8]
 2063              		.loc 1 628 0
 2064 0af0 FFF7FEFF 		bl	mcpwm_foc_measure_res_ind
 2065              	.LVL211:
 2066 0af4 0446     		mov	r4, r0
 2067              	.LVL212:
 2068              		.loc 1 629 0
 2069 0af6 1548     		ldr	r0, .L146+8
 2070 0af8 FFF7FEFF 		bl	mc_interface_set_configuration
 2071              	.LVL213:
 2072              		.loc 1 631 0
 2073 0afc 002C     		cmp	r4, #0
 2074 0afe 40F0EB87 		bne	.L138
 2075              		.loc 1 633 0
 2076 0b02 B0EE480A 		fcpys	s0, s16
 2077              		.loc 1 632 0
 2078 0b06 8DED018A 		fsts	s16, [sp, #4]
 2079              		.loc 1 633 0
 2080 0b0a 8DED028A 		fsts	s16, [sp, #8]
 2081              	.L67:
 2082              		.loc 1 637 0 discriminator 2
 2083 0b0e 2AAD     		add	r5, sp, #168
 2084              	.LVL214:
 2085 0b10 0123     		movs	r3, #1
 2086 0b12 45F8A83D 		str	r3, [r5, #-168]!
 2087 0b16 0E4C     		ldr	r4, .L146+12
 2088              	.LVL215:
 2089              		.loc 1 638 0 discriminator 2
 2090 0b18 DFED0E0A 		flds	s1, .L146+16
 2091 0b1c 2946     		mov	r1, r5
 2092              		.loc 1 637 0 discriminator 2
 2093 0b1e 1823     		movs	r3, #24
 2094              		.loc 1 638 0 discriminator 2
 2095 0b20 2046     		mov	r0, r4
 2096              		.loc 1 637 0 discriminator 2
 2097 0b22 2370     		strb	r3, [r4]
 2098              		.loc 1 638 0 discriminator 2
 2099 0b24 FFF7FEFF 		bl	buffer_append_float32
 2100              	.LVL216:
 2101              		.loc 1 639 0 discriminator 2
 2102 0b28 2046     		mov	r0, r4
 2103 0b2a 2946     		mov	r1, r5
 2104 0b2c 9DED020A 		flds	s0, [sp, #8]
 2105 0b30 DFED090A 		flds	s1, .L146+20
 2106 0b34 9DE7     		b	.L133
 2107              	.LVL217:
 2108              	.L44:
 2109              	.LBE130:
ARM GAS  /tmp/ccq8Pe5l.s 			page 38


 2110              		.loc 1 606 0
 2111 0b36 0023     		movs	r3, #0
 2112 0b38 6355     		strb	r3, [r4, r5]
 2113              		.loc 1 607 0
 2114 0b3a 2046     		mov	r0, r4
 2115 0b3c FFF7FEFF 		bl	terminal_process_string
 2116              	.LVL218:
 2117              		.loc 1 608 0
 2118 0b40 25E4     		b	.L24
 2119              	.L147:
 2120 0b42 00BF     		.align	2
 2121              	.L146:
 2122 0b44 00000000 		.word	.LANCHOR11
 2123 0b48 00000000 		.word	0
 2124 0b4c 00000000 		.word	.LANCHOR13
 2125 0b50 00000000 		.word	.LANCHOR8
 2126 0b54 00247449 		.word	1232348160
 2127 0b58 00007A44 		.word	1148846080
 2128              	.L40:
 2129              		.loc 1 354 0
 2130 0b5c B8F10D0F 		cmp	r8, #13
 2131 0b60 00F0CF87 		beq	.L139
 2132              		.loc 1 357 0
 2133 0b64 F548     		ldr	r0, .L148
 2134 0b66 FFF7FEFF 		bl	conf_general_get_default_mc_configuration
 2135              	.LVL219:
 2136              	.L63:
 2137              		.loc 1 363 0
 2138 0b6a F44D     		ldr	r5, .L148
 2139              	.LVL220:
 2140              		.loc 1 368 0
 2141 0b6c 9FEDF48A 		flds	s16, .L148+4
 2142 0b70 D5ED017A 		flds	s15, [r5, #4]
 2143              		.loc 1 361 0
 2144 0b74 F34C     		ldr	r4, .L148+8
 2145              	.LVL221:
 2146              		.loc 1 363 0
 2147 0b76 2A78     		ldrb	r2, [r5]	@ zero_extendqisi2
 2148 0b78 6270     		strb	r2, [r4, #1]
 2149              		.loc 1 366 0
 2150 0b7a 2AAE     		add	r6, sp, #168
 2151              		.loc 1 368 0
 2152 0b7c 67EE887A 		fmuls	s15, s15, s16
 2153              		.loc 1 366 0
 2154 0b80 0522     		movs	r2, #5
 2155 0b82 46F8A82D 		str	r2, [r6, #-168]!
 2156              		.loc 1 368 0
 2157 0b86 FDEEE77A 		ftosizs	s15, s15
 2158              		.loc 1 364 0
 2159 0b8a 95F801E0 		ldrb	lr, [r5, #1]	@ zero_extendqisi2
 2160              		.loc 1 366 0
 2161 0b8e EB78     		ldrb	r3, [r5, #3]	@ zero_extendqisi2
 2162              		.loc 1 365 0
 2163 0b90 AF78     		ldrb	r7, [r5, #2]	@ zero_extendqisi2
 2164              	.LVL222:
 2165              		.loc 1 364 0
 2166 0b92 84F802E0 		strb	lr, [r4, #2]
ARM GAS  /tmp/ccq8Pe5l.s 			page 39


 2167              		.loc 1 368 0
 2168 0b96 17EE901A 		fmrs	r1, s15	@ int
 2169 0b9a 3246     		mov	r2, r6
 2170 0b9c 2046     		mov	r0, r4
 2171              		.loc 1 366 0
 2172 0b9e 2371     		strb	r3, [r4, #4]
 2173              		.loc 1 365 0
 2174 0ba0 E770     		strb	r7, [r4, #3]
 2175              		.loc 1 361 0
 2176 0ba2 84F80080 		strb	r8, [r4]
 2177              		.loc 1 368 0
 2178 0ba6 FFF7FEFF 		bl	buffer_append_int32
 2179              	.LVL223:
 2180              		.loc 1 369 0
 2181 0baa D5ED027A 		flds	s15, [r5, #8]
 2182              		.loc 1 387 0
 2183 0bae DFEDE68A 		flds	s17, .L148+12
 2184              		.loc 1 369 0
 2185 0bb2 67EE887A 		fmuls	s15, s15, s16
 2186 0bb6 3246     		mov	r2, r6
 2187 0bb8 FDEEE77A 		ftosizs	s15, s15
 2188 0bbc 2046     		mov	r0, r4
 2189 0bbe 17EE901A 		fmrs	r1, s15	@ int
 2190 0bc2 FFF7FEFF 		bl	buffer_append_int32
 2191              	.LVL224:
 2192              		.loc 1 370 0
 2193 0bc6 D5ED037A 		flds	s15, [r5, #12]
 2194 0bca 67EE887A 		fmuls	s15, s15, s16
 2195 0bce 3246     		mov	r2, r6
 2196 0bd0 FDEEE77A 		ftosizs	s15, s15
 2197 0bd4 2046     		mov	r0, r4
 2198 0bd6 17EE901A 		fmrs	r1, s15	@ int
 2199 0bda FFF7FEFF 		bl	buffer_append_int32
 2200              	.LVL225:
 2201              		.loc 1 371 0
 2202 0bde D5ED047A 		flds	s15, [r5, #16]
 2203 0be2 67EE887A 		fmuls	s15, s15, s16
 2204 0be6 3246     		mov	r2, r6
 2205 0be8 FDEEE77A 		ftosizs	s15, s15
 2206 0bec 2046     		mov	r0, r4
 2207 0bee 17EE901A 		fmrs	r1, s15	@ int
 2208 0bf2 FFF7FEFF 		bl	buffer_append_int32
 2209              	.LVL226:
 2210              		.loc 1 372 0
 2211 0bf6 D5ED057A 		flds	s15, [r5, #20]
 2212 0bfa 67EE887A 		fmuls	s15, s15, s16
 2213 0bfe 3246     		mov	r2, r6
 2214 0c00 FDEEE77A 		ftosizs	s15, s15
 2215 0c04 2046     		mov	r0, r4
 2216 0c06 17EE901A 		fmrs	r1, s15	@ int
 2217 0c0a FFF7FEFF 		bl	buffer_append_int32
 2218              	.LVL227:
 2219              		.loc 1 373 0
 2220 0c0e D5ED067A 		flds	s15, [r5, #24]
 2221 0c12 67EE887A 		fmuls	s15, s15, s16
 2222 0c16 3246     		mov	r2, r6
 2223 0c18 FDEEE77A 		ftosizs	s15, s15
ARM GAS  /tmp/ccq8Pe5l.s 			page 40


 2224 0c1c 2046     		mov	r0, r4
 2225 0c1e 17EE901A 		fmrs	r1, s15	@ int
 2226 0c22 FFF7FEFF 		bl	buffer_append_int32
 2227              	.LVL228:
 2228              		.loc 1 374 0
 2229 0c26 D5ED077A 		flds	s15, [r5, #28]
 2230 0c2a 67EE887A 		fmuls	s15, s15, s16
 2231 0c2e 3246     		mov	r2, r6
 2232 0c30 FDEEE77A 		ftosizs	s15, s15
 2233 0c34 2046     		mov	r0, r4
 2234 0c36 17EE901A 		fmrs	r1, s15	@ int
 2235 0c3a FFF7FEFF 		bl	buffer_append_int32
 2236              	.LVL229:
 2237              		.loc 1 375 0
 2238 0c3e D5ED087A 		flds	s15, [r5, #32]
 2239 0c42 67EE887A 		fmuls	s15, s15, s16
 2240 0c46 3246     		mov	r2, r6
 2241 0c48 FDEEE77A 		ftosizs	s15, s15
 2242 0c4c 2046     		mov	r0, r4
 2243 0c4e 17EE901A 		fmrs	r1, s15	@ int
 2244 0c52 FFF7FEFF 		bl	buffer_append_int32
 2245              	.LVL230:
 2246              		.loc 1 376 0
 2247 0c56 D5ED097A 		flds	s15, [r5, #36]
 2248 0c5a 67EE887A 		fmuls	s15, s15, s16
 2249 0c5e 3246     		mov	r2, r6
 2250 0c60 FDEEE77A 		ftosizs	s15, s15
 2251 0c64 2046     		mov	r0, r4
 2252 0c66 17EE901A 		fmrs	r1, s15	@ int
 2253 0c6a FFF7FEFF 		bl	buffer_append_int32
 2254              	.LVL231:
 2255              		.loc 1 377 0
 2256 0c6e D5ED0A7A 		flds	s15, [r5, #40]
 2257 0c72 67EE887A 		fmuls	s15, s15, s16
 2258 0c76 3246     		mov	r2, r6
 2259 0c78 FDEEE77A 		ftosizs	s15, s15
 2260 0c7c 2046     		mov	r0, r4
 2261 0c7e 17EE901A 		fmrs	r1, s15	@ int
 2262 0c82 FFF7FEFF 		bl	buffer_append_int32
 2263              	.LVL232:
 2264              		.loc 1 378 0
 2265 0c86 D5ED0B7A 		flds	s15, [r5, #44]
 2266 0c8a 67EE887A 		fmuls	s15, s15, s16
 2267 0c8e 3246     		mov	r2, r6
 2268 0c90 FDEEE77A 		ftosizs	s15, s15
 2269 0c94 2046     		mov	r0, r4
 2270 0c96 17EE901A 		fmrs	r1, s15	@ int
 2271 0c9a FFF7FEFF 		bl	buffer_append_int32
 2272              	.LVL233:
 2273              		.loc 1 379 0
 2274 0c9e F0EE480A 		fcpys	s1, s16
 2275 0ca2 2046     		mov	r0, r4
 2276 0ca4 3146     		mov	r1, r6
 2277 0ca6 95ED0C0A 		flds	s0, [r5, #48]
 2278 0caa FFF7FEFF 		bl	buffer_append_float32
 2279              	.LVL234:
 2280              		.loc 1 380 0
ARM GAS  /tmp/ccq8Pe5l.s 			page 41


 2281 0cae F0EE480A 		fcpys	s1, s16
 2282 0cb2 95ED0D0A 		flds	s0, [r5, #52]
 2283 0cb6 2046     		mov	r0, r4
 2284 0cb8 3146     		mov	r1, r6
 2285 0cba FFF7FEFF 		bl	buffer_append_float32
 2286              	.LVL235:
 2287              		.loc 1 383 0
 2288 0cbe D5ED0F7A 		flds	s15, [r5, #60]
 2289              		.loc 1 381 0
 2290 0cc2 009B     		ldr	r3, [sp]
 2291 0cc4 95F83820 		ldrb	r2, [r5, #56]	@ zero_extendqisi2
 2292              		.loc 1 382 0
 2293 0cc8 95F839E0 		ldrb	lr, [r5, #57]	@ zero_extendqisi2
 2294              		.loc 1 381 0
 2295 0ccc E254     		strb	r2, [r4, r3]
 2296              		.loc 1 383 0
 2297 0cce 67EE887A 		fmuls	s15, s15, s16
 2298              		.loc 1 382 0
 2299 0cd2 E718     		adds	r7, r4, r3
 2300              		.loc 1 383 0
 2301 0cd4 FDEEE77A 		ftosizs	s15, s15
 2302              		.loc 1 382 0
 2303 0cd8 0233     		adds	r3, r3, #2
 2304              		.loc 1 383 0
 2305 0cda 17EE901A 		fmrs	r1, s15	@ int
 2306 0cde 3246     		mov	r2, r6
 2307 0ce0 2046     		mov	r0, r4
 2308              		.loc 1 382 0
 2309 0ce2 87F801E0 		strb	lr, [r7, #1]
 2310 0ce6 0093     		str	r3, [sp]
 2311              		.loc 1 383 0
 2312 0ce8 FFF7FEFF 		bl	buffer_append_int32
 2313              	.LVL236:
 2314              		.loc 1 384 0
 2315 0cec D5ED107A 		flds	s15, [r5, #64]
 2316 0cf0 67EE887A 		fmuls	s15, s15, s16
 2317 0cf4 3246     		mov	r2, r6
 2318 0cf6 FDEEE77A 		ftosizs	s15, s15
 2319 0cfa 2046     		mov	r0, r4
 2320 0cfc 17EE901A 		fmrs	r1, s15	@ int
 2321 0d00 FFF7FEFF 		bl	buffer_append_int32
 2322              	.LVL237:
 2323              		.loc 1 385 0
 2324 0d04 D5ED117A 		flds	s15, [r5, #68]
 2325 0d08 67EE887A 		fmuls	s15, s15, s16
 2326 0d0c 3246     		mov	r2, r6
 2327 0d0e FDEEE77A 		ftosizs	s15, s15
 2328 0d12 2046     		mov	r0, r4
 2329 0d14 17EE901A 		fmrs	r1, s15	@ int
 2330 0d18 FFF7FEFF 		bl	buffer_append_int32
 2331              	.LVL238:
 2332              		.loc 1 386 0
 2333 0d1c D5ED127A 		flds	s15, [r5, #72]
 2334 0d20 67EE887A 		fmuls	s15, s15, s16
 2335 0d24 3246     		mov	r2, r6
 2336 0d26 FDEEE77A 		ftosizs	s15, s15
 2337 0d2a 2046     		mov	r0, r4
ARM GAS  /tmp/ccq8Pe5l.s 			page 42


 2338 0d2c 17EE901A 		fmrs	r1, s15	@ int
 2339 0d30 FFF7FEFF 		bl	buffer_append_int32
 2340              	.LVL239:
 2341              		.loc 1 387 0
 2342 0d34 D5ED137A 		flds	s15, [r5, #76]
 2343 0d38 67EEA87A 		fmuls	s15, s15, s17
 2344 0d3c 3246     		mov	r2, r6
 2345 0d3e FDEEE77A 		ftosizs	s15, s15
 2346 0d42 2046     		mov	r0, r4
 2347 0d44 17EE901A 		fmrs	r1, s15	@ int
 2348 0d48 FFF7FEFF 		bl	buffer_append_int32
 2349              	.LVL240:
 2350              		.loc 1 388 0
 2351 0d4c D5ED147A 		flds	s15, [r5, #80]
 2352 0d50 67EEA87A 		fmuls	s15, s15, s17
 2353 0d54 3246     		mov	r2, r6
 2354 0d56 FDEEE77A 		ftosizs	s15, s15
 2355 0d5a 2046     		mov	r0, r4
 2356 0d5c 17EE901A 		fmrs	r1, s15	@ int
 2357 0d60 FFF7FEFF 		bl	buffer_append_int32
 2358              	.LVL241:
 2359              		.loc 1 390 0
 2360 0d64 D5ED197A 		flds	s15, [r5, #100]
 2361 0d68 67EE887A 		fmuls	s15, s15, s16
 2362 0d6c 3246     		mov	r2, r6
 2363 0d6e FDEEE77A 		ftosizs	s15, s15
 2364 0d72 2046     		mov	r0, r4
 2365 0d74 17EE901A 		fmrs	r1, s15	@ int
 2366 0d78 FFF7FEFF 		bl	buffer_append_int32
 2367              	.LVL242:
 2368              		.loc 1 391 0
 2369 0d7c D5ED1A7A 		flds	s15, [r5, #104]
 2370 0d80 67EE887A 		fmuls	s15, s15, s16
 2371 0d84 3246     		mov	r2, r6
 2372 0d86 FDEEE77A 		ftosizs	s15, s15
 2373 0d8a 2046     		mov	r0, r4
 2374 0d8c 17EE901A 		fmrs	r1, s15	@ int
 2375 0d90 FFF7FEFF 		bl	buffer_append_int32
 2376              	.LVL243:
 2377              		.loc 1 392 0
 2378 0d94 D5ED1B7A 		flds	s15, [r5, #108]
 2379 0d98 67EE887A 		fmuls	s15, s15, s16
 2380 0d9c 3246     		mov	r2, r6
 2381 0d9e FDEEE77A 		ftosizs	s15, s15
 2382 0da2 2046     		mov	r0, r4
 2383 0da4 17EE901A 		fmrs	r1, s15	@ int
 2384 0da8 FFF7FEFF 		bl	buffer_append_int32
 2385              	.LVL244:
 2386              		.loc 1 393 0
 2387 0dac D5ED1C7A 		flds	s15, [r5, #112]
 2388 0db0 67EE887A 		fmuls	s15, s15, s16
 2389 0db4 3246     		mov	r2, r6
 2390 0db6 FDEEE77A 		ftosizs	s15, s15
 2391 0dba 2046     		mov	r0, r4
 2392 0dbc 17EE901A 		fmrs	r1, s15	@ int
 2393 0dc0 FFF7FEFF 		bl	buffer_append_int32
 2394              	.LVL245:
ARM GAS  /tmp/ccq8Pe5l.s 			page 43


 2395              		.loc 1 394 0
 2396 0dc4 D5ED1D7A 		flds	s15, [r5, #116]
 2397 0dc8 67EE887A 		fmuls	s15, s15, s16
 2398 0dcc 3246     		mov	r2, r6
 2399 0dce FDEEE77A 		ftosizs	s15, s15
 2400 0dd2 2046     		mov	r0, r4
 2401 0dd4 17EE901A 		fmrs	r1, s15	@ int
 2402 0dd8 FFF7FEFF 		bl	buffer_append_int32
 2403              	.LVL246:
 2404              		.loc 1 395 0
 2405 0ddc D5ED1E7A 		flds	s15, [r5, #120]
 2406 0de0 67EE887A 		fmuls	s15, s15, s16
 2407 0de4 3246     		mov	r2, r6
 2408 0de6 FDEEE77A 		ftosizs	s15, s15
 2409 0dea 2046     		mov	r0, r4
 2410 0dec 17EE901A 		fmrs	r1, s15	@ int
 2411 0df0 FFF7FEFF 		bl	buffer_append_int32
 2412              	.LVL247:
 2413              		.loc 1 396 0
 2414 0df4 D5ED1F7A 		flds	s15, [r5, #124]
 2415 0df8 67EE887A 		fmuls	s15, s15, s16
 2416 0dfc 3246     		mov	r2, r6
 2417 0dfe FDEEE77A 		ftosizs	s15, s15
 2418 0e02 2046     		mov	r0, r4
 2419 0e04 17EE901A 		fmrs	r1, s15	@ int
 2420 0e08 FFF7FEFF 		bl	buffer_append_int32
 2421              	.LVL248:
 2422              		.loc 1 400 0
 2423 0e0c D5ED227A 		flds	s15, [r5, #136]
 2424              		.loc 1 398 0
 2425 0e10 009B     		ldr	r3, [sp]
 2426              		.loc 1 400 0
 2427 0e12 67EE887A 		fmuls	s15, s15, s16
 2428              		.loc 1 398 0
 2429 0e16 05F18002 		add	r2, r5, #128
 2430 0e1a 03CA     		ldmia	r2!, {r0, r1}
 2431              		.loc 1 400 0
 2432 0e1c FDEEE77A 		ftosizs	s15, s15
 2433              		.loc 1 398 0
 2434 0e20 E218     		adds	r2, r4, r3
 2435 0e22 E050     		str	r0, [r4, r3]	@ unaligned
 2436              		.loc 1 399 0
 2437 0e24 0833     		adds	r3, r3, #8
 2438              		.loc 1 398 0
 2439 0e26 5160     		str	r1, [r2, #4]	@ unaligned
 2440              		.loc 1 400 0
 2441 0e28 2046     		mov	r0, r4
 2442 0e2a 17EE901A 		fmrs	r1, s15	@ int
 2443 0e2e 3246     		mov	r2, r6
 2444              		.loc 1 399 0
 2445 0e30 0093     		str	r3, [sp]
 2446              		.loc 1 400 0
 2447 0e32 FFF7FEFF 		bl	buffer_append_int32
 2448              	.LVL249:
 2449              		.loc 1 402 0
 2450 0e36 2046     		mov	r0, r4
 2451 0e38 3146     		mov	r1, r6
ARM GAS  /tmp/ccq8Pe5l.s 			page 44


 2452 0e3a 95ED230A 		flds	s0, [r5, #140]
 2453 0e3e DFED440A 		flds	s1, .L148+20
 2454 0e42 FFF7FEFF 		bl	buffer_append_float32
 2455              	.LVL250:
 2456              		.loc 1 403 0
 2457 0e46 2046     		mov	r0, r4
 2458 0e48 3146     		mov	r1, r6
 2459 0e4a 95ED240A 		flds	s0, [r5, #144]
 2460 0e4e DFED400A 		flds	s1, .L148+20
 2461 0e52 FFF7FEFF 		bl	buffer_append_float32
 2462              	.LVL251:
 2463              		.loc 1 404 0
 2464 0e56 F0EE480A 		fcpys	s1, s16
 2465 0e5a 2046     		mov	r0, r4
 2466 0e5c 3146     		mov	r1, r6
 2467 0e5e 95ED250A 		flds	s0, [r5, #148]
 2468 0e62 FFF7FEFF 		bl	buffer_append_float32
 2469              	.LVL252:
 2470              		.loc 1 405 0
 2471 0e66 2046     		mov	r0, r4
 2472 0e68 3146     		mov	r1, r6
 2473 0e6a 95ED260A 		flds	s0, [r5, #152]
 2474 0e6e F0EE680A 		fcpys	s1, s17
 2475 0e72 FFF7FEFF 		bl	buffer_append_float32
 2476              	.LVL253:
 2477              		.loc 1 406 0
 2478 0e76 009B     		ldr	r3, [sp]
 2479 0e78 95F8A020 		ldrb	r2, [r5, #160]	@ zero_extendqisi2
 2480 0e7c E254     		strb	r2, [r4, r3]
 2481              		.loc 1 407 0
 2482 0e7e F0EE480A 		fcpys	s1, s16
 2483              		.loc 1 406 0
 2484 0e82 0133     		adds	r3, r3, #1
 2485              		.loc 1 407 0
 2486 0e84 95ED270A 		flds	s0, [r5, #156]
 2487              		.loc 1 406 0
 2488 0e88 0093     		str	r3, [sp]
 2489              		.loc 1 407 0
 2490 0e8a 3146     		mov	r1, r6
 2491 0e8c 2046     		mov	r0, r4
 2492 0e8e FFF7FEFF 		bl	buffer_append_float32
 2493              	.LVL254:
 2494              		.loc 1 408 0
 2495 0e92 F0EE480A 		fcpys	s1, s16
 2496 0e96 2046     		mov	r0, r4
 2497 0e98 3146     		mov	r1, r6
 2498 0e9a 95ED290A 		flds	s0, [r5, #164]
 2499 0e9e FFF7FEFF 		bl	buffer_append_float32
 2500              	.LVL255:
 2501              		.loc 1 409 0
 2502 0ea2 009B     		ldr	r3, [sp]
 2503 0ea4 95F8DC20 		ldrb	r2, [r5, #220]	@ zero_extendqisi2
 2504 0ea8 E254     		strb	r2, [r4, r3]
 2505              		.loc 1 410 0
 2506 0eaa F0EE480A 		fcpys	s1, s16
 2507              		.loc 1 409 0
 2508 0eae 0133     		adds	r3, r3, #1
ARM GAS  /tmp/ccq8Pe5l.s 			page 45


 2509              		.loc 1 410 0
 2510 0eb0 95ED2E0A 		flds	s0, [r5, #184]
 2511              		.loc 1 409 0
 2512 0eb4 0093     		str	r3, [sp]
 2513              		.loc 1 410 0
 2514 0eb6 3146     		mov	r1, r6
 2515 0eb8 2046     		mov	r0, r4
 2516 0eba FFF7FEFF 		bl	buffer_append_float32
 2517              	.LVL256:
 2518              		.loc 1 411 0
 2519 0ebe F0EE480A 		fcpys	s1, s16
 2520 0ec2 2046     		mov	r0, r4
 2521 0ec4 3146     		mov	r1, r6
 2522 0ec6 95ED2F0A 		flds	s0, [r5, #188]
 2523 0eca FFF7FEFF 		bl	buffer_append_float32
 2524              	.LVL257:
 2525              		.loc 1 412 0
 2526 0ece 2046     		mov	r0, r4
 2527 0ed0 3146     		mov	r1, r6
 2528 0ed2 95ED2A0A 		flds	s0, [r5, #168]
 2529 0ed6 DFED1D0A 		flds	s1, .L148+16
 2530 0eda FFF7FEFF 		bl	buffer_append_float32
 2531              	.LVL258:
 2532              		.loc 1 413 0
 2533 0ede 2046     		mov	r0, r4
 2534 0ee0 3146     		mov	r1, r6
 2535 0ee2 95ED2B0A 		flds	s0, [r5, #172]
 2536 0ee6 DFED1A0A 		flds	s1, .L148+20
 2537 0eea FFF7FEFF 		bl	buffer_append_float32
 2538              	.LVL259:
 2539              		.loc 1 414 0
 2540 0eee 2046     		mov	r0, r4
 2541 0ef0 3146     		mov	r1, r6
 2542 0ef2 95ED2C0A 		flds	s0, [r5, #176]
 2543 0ef6 DFED160A 		flds	s1, .L148+20
 2544 0efa FFF7FEFF 		bl	buffer_append_float32
 2545              	.LVL260:
 2546              		.loc 1 415 0
 2547 0efe 2046     		mov	r0, r4
 2548 0f00 3146     		mov	r1, r6
 2549 0f02 95ED2D0A 		flds	s0, [r5, #180]
 2550 0f06 F7EE000A 		fconsts	s1, #112
 2551 0f0a FFF7FEFF 		bl	buffer_append_float32
 2552              	.LVL261:
 2553              		.loc 1 416 0
 2554 0f0e F0EE480A 		fcpys	s1, s16
 2555 0f12 2046     		mov	r0, r4
 2556 0f14 3146     		mov	r1, r6
 2557 0f16 95ED300A 		flds	s0, [r5, #192]
 2558 0f1a FFF7FEFF 		bl	buffer_append_float32
 2559              	.LVL262:
 2560              		.loc 1 417 0
 2561 0f1e F0EE480A 		fcpys	s1, s16
 2562 0f22 2046     		mov	r0, r4
 2563 0f24 3146     		mov	r1, r6
 2564 0f26 95ED310A 		flds	s0, [r5, #196]
 2565 0f2a FFF7FEFF 		bl	buffer_append_float32
ARM GAS  /tmp/ccq8Pe5l.s 			page 46


 2566              	.LVL263:
 2567              		.loc 1 418 0
 2568 0f2e F0EE480A 		fcpys	s1, s16
 2569 0f32 2046     		mov	r0, r4
 2570 0f34 3146     		mov	r1, r6
 2571 0f36 95ED320A 		flds	s0, [r5, #200]
 2572 0f3a 0BE0     		b	.L149
 2573              	.L150:
 2574              		.align	2
 2575              	.L148:
 2576 0f3c 00000000 		.word	.LANCHOR11
 2577 0f40 00007A44 		.word	1148846080
 2578 0f44 00000000 		.word	.LANCHOR8
 2579 0f48 00247449 		.word	1232348160
 2580 0f4c 20BCBE4C 		.word	1287568416
 2581 0f50 0050C347 		.word	1203982336
 2582              	.L149:
 2583 0f54 FFF7FEFF 		bl	buffer_append_float32
 2584              	.LVL264:
 2585              		.loc 1 419 0
 2586 0f58 F0EE480A 		fcpys	s1, s16
 2587 0f5c 2046     		mov	r0, r4
 2588 0f5e 3146     		mov	r1, r6
 2589 0f60 95ED330A 		flds	s0, [r5, #204]
 2590 0f64 FFF7FEFF 		bl	buffer_append_float32
 2591              	.LVL265:
 2592              		.loc 1 420 0
 2593 0f68 F0EE480A 		fcpys	s1, s16
 2594 0f6c 2046     		mov	r0, r4
 2595 0f6e 3146     		mov	r1, r6
 2596 0f70 95ED340A 		flds	s0, [r5, #208]
 2597 0f74 FFF7FEFF 		bl	buffer_append_float32
 2598              	.LVL266:
 2599              		.loc 1 421 0
 2600 0f78 F0EE480A 		fcpys	s1, s16
 2601 0f7c 2046     		mov	r0, r4
 2602 0f7e 3146     		mov	r1, r6
 2603 0f80 95ED350A 		flds	s0, [r5, #212]
 2604 0f84 FFF7FEFF 		bl	buffer_append_float32
 2605              	.LVL267:
 2606              		.loc 1 422 0
 2607 0f88 F0EE480A 		fcpys	s1, s16
 2608 0f8c 95ED360A 		flds	s0, [r5, #216]
 2609 0f90 2046     		mov	r0, r4
 2610 0f92 3146     		mov	r1, r6
 2611 0f94 FFF7FEFF 		bl	buffer_append_float32
 2612              	.LVL268:
 2613              		.loc 1 425 0
 2614 0f98 D5ED3A7A 		flds	s15, [r5, #232]
 2615              		.loc 1 423 0
 2616 0f9c 009B     		ldr	r3, [sp]
 2617 0f9e 2A46     		mov	r2, r5
 2618              		.loc 1 425 0
 2619 0fa0 67EE887A 		fmuls	s15, s15, s16
 2620              		.loc 1 423 0
 2621 0fa4 52F8DD1F 		ldr	r1, [r2, #221]!	@ unaligned
 2622 0fa8 E150     		str	r1, [r4, r3]	@ unaligned
ARM GAS  /tmp/ccq8Pe5l.s 			page 47


 2623              		.loc 1 425 0
 2624 0faa FDEEE77A 		ftosizs	s15, s15
 2625              		.loc 1 423 0
 2626 0fae E118     		adds	r1, r4, r3
 2627 0fb0 5268     		ldr	r2, [r2, #4]	@ unaligned
 2628 0fb2 4A60     		str	r2, [r1, #4]	@ unaligned
 2629              		.loc 1 424 0
 2630 0fb4 0833     		adds	r3, r3, #8
 2631              		.loc 1 425 0
 2632 0fb6 17EE901A 		fmrs	r1, s15	@ int
 2633 0fba 3246     		mov	r2, r6
 2634 0fbc 2046     		mov	r0, r4
 2635              		.loc 1 424 0
 2636 0fbe 0093     		str	r3, [sp]
 2637              		.loc 1 425 0
 2638 0fc0 FFF7FEFF 		bl	buffer_append_int32
 2639              	.LVL269:
 2640              		.loc 1 427 0
 2641 0fc4 D5ED3B7A 		flds	s15, [r5, #236]
 2642 0fc8 67EEA87A 		fmuls	s15, s15, s17
 2643 0fcc 3246     		mov	r2, r6
 2644 0fce FDEEE77A 		ftosizs	s15, s15
 2645 0fd2 2046     		mov	r0, r4
 2646 0fd4 17EE901A 		fmrs	r1, s15	@ int
 2647 0fd8 FFF7FEFF 		bl	buffer_append_int32
 2648              	.LVL270:
 2649              		.loc 1 428 0
 2650 0fdc D5ED3C7A 		flds	s15, [r5, #240]
 2651 0fe0 67EEA87A 		fmuls	s15, s15, s17
 2652 0fe4 3246     		mov	r2, r6
 2653 0fe6 FDEEE77A 		ftosizs	s15, s15
 2654 0fea 2046     		mov	r0, r4
 2655 0fec 17EE901A 		fmrs	r1, s15	@ int
 2656 0ff0 FFF7FEFF 		bl	buffer_append_int32
 2657              	.LVL271:
 2658              		.loc 1 429 0
 2659 0ff4 D5ED3D7A 		flds	s15, [r5, #244]
 2660 0ff8 67EEA87A 		fmuls	s15, s15, s17
 2661 0ffc 3246     		mov	r2, r6
 2662 0ffe FDEEE77A 		ftosizs	s15, s15
 2663 1002 2046     		mov	r0, r4
 2664 1004 17EE901A 		fmrs	r1, s15	@ int
 2665 1008 FFF7FEFF 		bl	buffer_append_int32
 2666              	.LVL272:
 2667              		.loc 1 430 0
 2668 100c D5ED3E7A 		flds	s15, [r5, #248]
 2669 1010 67EE887A 		fmuls	s15, s15, s16
 2670 1014 3246     		mov	r2, r6
 2671 1016 FDEEE77A 		ftosizs	s15, s15
 2672 101a 2046     		mov	r0, r4
 2673 101c 17EE901A 		fmrs	r1, s15	@ int
 2674 1020 FFF7FEFF 		bl	buffer_append_int32
 2675              	.LVL273:
 2676              		.loc 1 432 0
 2677 1024 D5ED3F7A 		flds	s15, [r5, #252]
 2678 1028 67EEA87A 		fmuls	s15, s15, s17
 2679 102c 3246     		mov	r2, r6
ARM GAS  /tmp/ccq8Pe5l.s 			page 48


 2680 102e FDEEE77A 		ftosizs	s15, s15
 2681 1032 2046     		mov	r0, r4
 2682 1034 17EE901A 		fmrs	r1, s15	@ int
 2683 1038 FFF7FEFF 		bl	buffer_append_int32
 2684              	.LVL274:
 2685              		.loc 1 433 0
 2686 103c D5ED407A 		flds	s15, [r5, #256]
 2687 1040 67EEA87A 		fmuls	s15, s15, s17
 2688 1044 3246     		mov	r2, r6
 2689 1046 FDEEE77A 		ftosizs	s15, s15
 2690 104a 2046     		mov	r0, r4
 2691 104c 17EE901A 		fmrs	r1, s15	@ int
 2692 1050 FFF7FEFF 		bl	buffer_append_int32
 2693              	.LVL275:
 2694              		.loc 1 434 0
 2695 1054 D5ED417A 		flds	s15, [r5, #260]
 2696 1058 67EEA87A 		fmuls	s15, s15, s17
 2697 105c 3246     		mov	r2, r6
 2698 105e FDEEE77A 		ftosizs	s15, s15
 2699 1062 2046     		mov	r0, r4
 2700 1064 17EE901A 		fmrs	r1, s15	@ int
 2701 1068 FFF7FEFF 		bl	buffer_append_int32
 2702              	.LVL276:
 2703              		.loc 1 435 0
 2704 106c 95ED420A 		flds	s0, [r5, #264]
 2705 1070 5FED490A 		flds	s1, .L148+20
 2706 1074 2046     		mov	r0, r4
 2707 1076 3146     		mov	r1, r6
 2708 1078 FFF7FEFF 		bl	buffer_append_float32
 2709              	.LVL277:
 2710              		.loc 1 437 0
 2711 107c D5ED437A 		flds	s15, [r5, #268]
 2712 1080 67EEA87A 		fmuls	s15, s15, s17
 2713 1084 3246     		mov	r2, r6
 2714 1086 FDEEE77A 		ftosizs	s15, s15
 2715 108a 2046     		mov	r0, r4
 2716 108c 17EE901A 		fmrs	r1, s15	@ int
 2717 1090 FFF7FEFF 		bl	buffer_append_int32
 2718              	.LVL278:
 2719              		.loc 1 438 0
 2720 1094 D5ED447A 		flds	s15, [r5, #272]
 2721 1098 27EE888A 		fmuls	s16, s15, s16
 2722 109c 3246     		mov	r2, r6
 2723 109e FDEEC87A 		ftosizs	s15, s16
 2724 10a2 2046     		mov	r0, r4
 2725 10a4 17EE901A 		fmrs	r1, s15	@ int
 2726 10a8 FFF7FEFF 		bl	buffer_append_int32
 2727              	.LVL279:
 2728              		.loc 1 439 0
 2729 10ac D5ED457A 		flds	s15, [r5, #276]
 2730 10b0 67EEA87A 		fmuls	s15, s15, s17
 2731 10b4 3246     		mov	r2, r6
 2732 10b6 FDEEE77A 		ftosizs	s15, s15
 2733 10ba 2046     		mov	r0, r4
 2734 10bc 17EE901A 		fmrs	r1, s15	@ int
 2735 10c0 FFF7FEFF 		bl	buffer_append_int32
 2736              	.LVL280:
ARM GAS  /tmp/ccq8Pe5l.s 			page 49


 2737              		.loc 1 440 0
 2738 10c4 D5ED467A 		flds	s15, [r5, #280]
 2739 10c8 67EEA87A 		fmuls	s15, s15, s17
 2740 10cc 3246     		mov	r2, r6
 2741 10ce FDEEE77A 		ftosizs	s15, s15
 2742 10d2 2046     		mov	r0, r4
 2743 10d4 17EE901A 		fmrs	r1, s15	@ int
 2744 10d8 FFF7FEFF 		bl	buffer_append_int32
 2745              	.LVL281:
 2746              		.loc 1 442 0
 2747 10dc 3246     		mov	r2, r6
 2748 10de 2046     		mov	r0, r4
 2749 10e0 D5F81C11 		ldr	r1, [r5, #284]
 2750 10e4 FFF7FEFF 		bl	buffer_append_int32
 2751              	.LVL282:
 2752              		.loc 1 443 0
 2753 10e8 2046     		mov	r0, r4
 2754 10ea 3146     		mov	r1, r6
 2755 10ec 95ED480A 		flds	s0, [r5, #288]
 2756 10f0 F0EE680A 		fcpys	s1, s17
 2757 10f4 FFF7FEFF 		bl	buffer_append_float32
 2758              	.LVL283:
 2759              		.loc 1 444 0
 2760 10f8 2046     		mov	r0, r4
 2761 10fa 3146     		mov	r1, r6
 2762 10fc 95ED490A 		flds	s0, [r5, #292]
 2763 1100 F0EE680A 		fcpys	s1, s17
 2764 1104 FFF7FEFF 		bl	buffer_append_float32
 2765              	.LVL284:
 2766              		.loc 1 445 0
 2767 1108 2046     		mov	r0, r4
 2768 110a F0EE680A 		fcpys	s1, s17
 2769 110e 3146     		mov	r1, r6
 2770 1110 95ED4A0A 		flds	s0, [r5, #296]
 2771 1114 FFF7FEFF 		bl	buffer_append_float32
 2772              	.LVL285:
 2773              		.loc 1 446 0
 2774 1118 D5F82C11 		ldr	r1, [r5, #300]
 2775 111c 2046     		mov	r0, r4
 2776 111e 3246     		mov	r2, r6
 2777 1120 FFF7FEFF 		bl	buffer_append_uint32
 2778              	.LVL286:
 2779              	.LBB131:
 2780              	.LBB132:
 2781              		.loc 1 94 0
 2782 1124 034B     		ldr	r3, .L151
 2783              	.LBE132:
 2784              	.LBE131:
 2785              		.loc 1 448 0
 2786 1126 0099     		ldr	r1, [sp]
 2787              	.LVL287:
 2788              	.LBB134:
 2789              	.LBB133:
 2790              		.loc 1 94 0
 2791 1128 1B68     		ldr	r3, [r3]
 2792 112a 002B     		cmp	r3, #0
 2793 112c 7FF480A9 		bne	.L127
ARM GAS  /tmp/ccq8Pe5l.s 			page 50


 2794 1130 FFF72DB9 		b	.L24
 2795              	.L152:
 2796              		.align	2
 2797              	.L151:
 2798 1134 00000000 		.word	.LANCHOR9
 2799              	.LVL288:
 2800              	.L39:
 2801              	.LBE133:
 2802              	.LBE134:
 2803              		.loc 1 247 0
 2804 1138 FFF7FEFF 		bl	mc_interface_get_configuration
 2805              	.LVL289:
 2806 113c EE4D     		ldr	r5, .L153
 2807              	.LVL290:
 2808              		.loc 1 255 0
 2809 113e 9FEDEF8A 		flds	s16, .L153+4
 2810              		.loc 1 274 0
 2811 1142 DFEDEF8A 		flds	s17, .L153+8
 2812              		.loc 1 294 0
 2813 1146 9FEDEF9A 		flds	s18, .L153+12
 2814              		.loc 1 253 0
 2815 114a 2AAE     		add	r6, sp, #168
 2816              		.loc 1 247 0
 2817 114c 0146     		mov	r1, r0
 2818 114e 4FF49872 		mov	r2, #304
 2819 1152 2846     		mov	r0, r5
 2820 1154 FFF7FEFF 		bl	memcpy
 2821              	.LVL291:
 2822              		.loc 1 253 0
 2823 1158 0423     		movs	r3, #4
 2824 115a 46F8A83D 		str	r3, [r6, #-168]!
 2825              		.loc 1 250 0
 2826 115e 7978     		ldrb	r1, [r7, #1]	@ zero_extendqisi2
 2827              		.loc 1 251 0
 2828 1160 97F802E0 		ldrb	lr, [r7, #2]	@ zero_extendqisi2
 2829              		.loc 1 252 0
 2830 1164 FA78     		ldrb	r2, [r7, #3]	@ zero_extendqisi2
 2831              		.loc 1 253 0
 2832 1166 3B79     		ldrb	r3, [r7, #4]	@ zero_extendqisi2
 2833              		.loc 1 250 0
 2834 1168 2970     		strb	r1, [r5]
 2835              		.loc 1 255 0
 2836 116a B0EE480A 		fcpys	s0, s16
 2837 116e 3146     		mov	r1, r6
 2838 1170 2046     		mov	r0, r4
 2839              		.loc 1 251 0
 2840 1172 85F801E0 		strb	lr, [r5, #1]
 2841              		.loc 1 252 0
 2842 1176 AA70     		strb	r2, [r5, #2]
 2843              		.loc 1 253 0
 2844 1178 EB70     		strb	r3, [r5, #3]
 2845              		.loc 1 255 0
 2846 117a FFF7FEFF 		bl	buffer_get_float32
 2847              	.LVL292:
 2848              		.loc 1 256 0
 2849 117e 3146     		mov	r1, r6
 2850              		.loc 1 255 0
ARM GAS  /tmp/ccq8Pe5l.s 			page 51


 2851 1180 85ED010A 		fsts	s0, [r5, #4]
 2852              		.loc 1 256 0
 2853 1184 2046     		mov	r0, r4
 2854 1186 B0EE480A 		fcpys	s0, s16
 2855 118a FFF7FEFF 		bl	buffer_get_float32
 2856              	.LVL293:
 2857              		.loc 1 257 0
 2858 118e 3146     		mov	r1, r6
 2859              		.loc 1 256 0
 2860 1190 85ED020A 		fsts	s0, [r5, #8]
 2861              		.loc 1 257 0
 2862 1194 2046     		mov	r0, r4
 2863 1196 B0EE480A 		fcpys	s0, s16
 2864 119a FFF7FEFF 		bl	buffer_get_float32
 2865              	.LVL294:
 2866              		.loc 1 258 0
 2867 119e 3146     		mov	r1, r6
 2868              		.loc 1 257 0
 2869 11a0 85ED030A 		fsts	s0, [r5, #12]
 2870              		.loc 1 258 0
 2871 11a4 2046     		mov	r0, r4
 2872 11a6 B0EE480A 		fcpys	s0, s16
 2873 11aa FFF7FEFF 		bl	buffer_get_float32
 2874              	.LVL295:
 2875              		.loc 1 259 0
 2876 11ae 3146     		mov	r1, r6
 2877              		.loc 1 258 0
 2878 11b0 85ED040A 		fsts	s0, [r5, #16]
 2879              		.loc 1 259 0
 2880 11b4 2046     		mov	r0, r4
 2881 11b6 B0EE480A 		fcpys	s0, s16
 2882 11ba FFF7FEFF 		bl	buffer_get_float32
 2883              	.LVL296:
 2884              		.loc 1 260 0
 2885 11be 3146     		mov	r1, r6
 2886              		.loc 1 259 0
 2887 11c0 85ED050A 		fsts	s0, [r5, #20]
 2888              		.loc 1 260 0
 2889 11c4 2046     		mov	r0, r4
 2890 11c6 B0EE480A 		fcpys	s0, s16
 2891 11ca FFF7FEFF 		bl	buffer_get_float32
 2892              	.LVL297:
 2893              		.loc 1 261 0
 2894 11ce 3146     		mov	r1, r6
 2895              		.loc 1 260 0
 2896 11d0 85ED060A 		fsts	s0, [r5, #24]
 2897              		.loc 1 261 0
 2898 11d4 2046     		mov	r0, r4
 2899 11d6 B0EE480A 		fcpys	s0, s16
 2900 11da FFF7FEFF 		bl	buffer_get_float32
 2901              	.LVL298:
 2902              		.loc 1 262 0
 2903 11de 3146     		mov	r1, r6
 2904              		.loc 1 261 0
 2905 11e0 85ED070A 		fsts	s0, [r5, #28]
 2906              		.loc 1 262 0
 2907 11e4 2046     		mov	r0, r4
ARM GAS  /tmp/ccq8Pe5l.s 			page 52


 2908 11e6 B0EE480A 		fcpys	s0, s16
 2909 11ea FFF7FEFF 		bl	buffer_get_float32
 2910              	.LVL299:
 2911              		.loc 1 263 0
 2912 11ee 3146     		mov	r1, r6
 2913              		.loc 1 262 0
 2914 11f0 85ED080A 		fsts	s0, [r5, #32]
 2915              		.loc 1 263 0
 2916 11f4 2046     		mov	r0, r4
 2917 11f6 B0EE480A 		fcpys	s0, s16
 2918 11fa FFF7FEFF 		bl	buffer_get_float32
 2919              	.LVL300:
 2920              		.loc 1 264 0
 2921 11fe 3146     		mov	r1, r6
 2922              		.loc 1 263 0
 2923 1200 85ED090A 		fsts	s0, [r5, #36]
 2924              		.loc 1 264 0
 2925 1204 2046     		mov	r0, r4
 2926 1206 B0EE480A 		fcpys	s0, s16
 2927 120a FFF7FEFF 		bl	buffer_get_float32
 2928              	.LVL301:
 2929              		.loc 1 265 0
 2930 120e 3146     		mov	r1, r6
 2931              		.loc 1 264 0
 2932 1210 85ED0A0A 		fsts	s0, [r5, #40]
 2933              		.loc 1 265 0
 2934 1214 2046     		mov	r0, r4
 2935 1216 B0EE480A 		fcpys	s0, s16
 2936 121a FFF7FEFF 		bl	buffer_get_float32
 2937              	.LVL302:
 2938              		.loc 1 266 0
 2939 121e 3146     		mov	r1, r6
 2940              		.loc 1 265 0
 2941 1220 85ED0B0A 		fsts	s0, [r5, #44]
 2942              		.loc 1 266 0
 2943 1224 2046     		mov	r0, r4
 2944 1226 B0EE480A 		fcpys	s0, s16
 2945 122a FFF7FEFF 		bl	buffer_get_float32
 2946              	.LVL303:
 2947              		.loc 1 267 0
 2948 122e 3146     		mov	r1, r6
 2949              		.loc 1 266 0
 2950 1230 85ED0C0A 		fsts	s0, [r5, #48]
 2951              		.loc 1 267 0
 2952 1234 2046     		mov	r0, r4
 2953 1236 B0EE480A 		fcpys	s0, s16
 2954 123a FFF7FEFF 		bl	buffer_get_float32
 2955              	.LVL304:
 2956              		.loc 1 268 0
 2957 123e 009B     		ldr	r3, [sp]
 2958              		.loc 1 267 0
 2959 1240 85ED0D0A 		fsts	s0, [r5, #52]
 2960              		.loc 1 268 0
 2961 1244 E25C     		ldrb	r2, [r4, r3]	@ zero_extendqisi2
 2962 1246 0032     		adds	r2, r2, #0
 2963              		.loc 1 269 0
 2964 1248 04EB0301 		add	r1, r4, r3
ARM GAS  /tmp/ccq8Pe5l.s 			page 53


 2965              		.loc 1 268 0
 2966 124c 18BF     		it	ne
 2967 124e 0122     		movne	r2, #1
 2968 1250 85F83820 		strb	r2, [r5, #56]
 2969              		.loc 1 269 0
 2970 1254 4A78     		ldrb	r2, [r1, #1]	@ zero_extendqisi2
 2971 1256 0032     		adds	r2, r2, #0
 2972 1258 18BF     		it	ne
 2973 125a 0122     		movne	r2, #1
 2974 125c 0233     		adds	r3, r3, #2
 2975              		.loc 1 270 0
 2976 125e 3146     		mov	r1, r6
 2977 1260 B0EE480A 		fcpys	s0, s16
 2978 1264 2046     		mov	r0, r4
 2979              		.loc 1 269 0
 2980 1266 85F83920 		strb	r2, [r5, #57]
 2981 126a 0093     		str	r3, [sp]
 2982              		.loc 1 270 0
 2983 126c FFF7FEFF 		bl	buffer_get_float32
 2984              	.LVL305:
 2985              		.loc 1 271 0
 2986 1270 3146     		mov	r1, r6
 2987              		.loc 1 270 0
 2988 1272 85ED0F0A 		fsts	s0, [r5, #60]
 2989              		.loc 1 271 0
 2990 1276 2046     		mov	r0, r4
 2991 1278 B0EE480A 		fcpys	s0, s16
 2992 127c FFF7FEFF 		bl	buffer_get_float32
 2993              	.LVL306:
 2994              		.loc 1 272 0
 2995 1280 3146     		mov	r1, r6
 2996              		.loc 1 271 0
 2997 1282 85ED100A 		fsts	s0, [r5, #64]
 2998              		.loc 1 272 0
 2999 1286 2046     		mov	r0, r4
 3000 1288 B0EE480A 		fcpys	s0, s16
 3001 128c FFF7FEFF 		bl	buffer_get_float32
 3002              	.LVL307:
 3003              		.loc 1 273 0
 3004 1290 3146     		mov	r1, r6
 3005              		.loc 1 272 0
 3006 1292 85ED110A 		fsts	s0, [r5, #68]
 3007              		.loc 1 273 0
 3008 1296 2046     		mov	r0, r4
 3009 1298 B0EE480A 		fcpys	s0, s16
 3010 129c FFF7FEFF 		bl	buffer_get_float32
 3011              	.LVL308:
 3012              		.loc 1 274 0
 3013 12a0 3146     		mov	r1, r6
 3014              		.loc 1 273 0
 3015 12a2 85ED120A 		fsts	s0, [r5, #72]
 3016              		.loc 1 274 0
 3017 12a6 2046     		mov	r0, r4
 3018 12a8 B0EE680A 		fcpys	s0, s17
 3019 12ac FFF7FEFF 		bl	buffer_get_float32
 3020              	.LVL309:
 3021              		.loc 1 275 0
ARM GAS  /tmp/ccq8Pe5l.s 			page 54


 3022 12b0 3146     		mov	r1, r6
 3023              		.loc 1 274 0
 3024 12b2 85ED130A 		fsts	s0, [r5, #76]
 3025              		.loc 1 275 0
 3026 12b6 2046     		mov	r0, r4
 3027 12b8 B0EE680A 		fcpys	s0, s17
 3028 12bc FFF7FEFF 		bl	buffer_get_float32
 3029              	.LVL310:
 3030              		.loc 1 277 0
 3031 12c0 D5F804E0 		ldr	lr, [r5, #4]	@ float
 3032              		.loc 1 279 0
 3033 12c4 EA68     		ldr	r2, [r5, #12]	@ float
 3034              		.loc 1 280 0
 3035 12c6 2B69     		ldr	r3, [r5, #16]	@ float
 3036              		.loc 1 278 0
 3037 12c8 AF68     		ldr	r7, [r5, #8]	@ float
 3038              		.loc 1 277 0
 3039 12ca C5F854E0 		str	lr, [r5, #84]	@ float
 3040              		.loc 1 282 0
 3041 12ce 3146     		mov	r1, r6
 3042 12d0 2046     		mov	r0, r4
 3043              		.loc 1 275 0
 3044 12d2 85ED140A 		fsts	s0, [r5, #80]
 3045              		.loc 1 279 0
 3046 12d6 EA65     		str	r2, [r5, #92]	@ float
 3047              		.loc 1 280 0
 3048 12d8 2B66     		str	r3, [r5, #96]	@ float
 3049              		.loc 1 278 0
 3050 12da AF65     		str	r7, [r5, #88]	@ float
 3051              		.loc 1 282 0
 3052 12dc FFF7FEFF 		bl	buffer_get_int32
 3053              	.LVL311:
 3054 12e0 07EE900A 		fmsr	s15, r0	@ int
 3055 12e4 F8EEE77A 		fsitos	s15, s15
 3056              		.loc 1 283 0
 3057 12e8 3146     		mov	r1, r6
 3058              		.loc 1 282 0
 3059 12ea C7EE887A 		fdivs	s15, s15, s16
 3060              		.loc 1 283 0
 3061 12ee 2046     		mov	r0, r4
 3062              		.loc 1 282 0
 3063 12f0 C5ED197A 		fsts	s15, [r5, #100]
 3064              		.loc 1 283 0
 3065 12f4 FFF7FEFF 		bl	buffer_get_int32
 3066              	.LVL312:
 3067 12f8 07EE900A 		fmsr	s15, r0	@ int
 3068 12fc F8EEE77A 		fsitos	s15, s15
 3069              		.loc 1 284 0
 3070 1300 3146     		mov	r1, r6
 3071              		.loc 1 283 0
 3072 1302 C7EE887A 		fdivs	s15, s15, s16
 3073              		.loc 1 284 0
 3074 1306 2046     		mov	r0, r4
 3075              		.loc 1 283 0
 3076 1308 C5ED1A7A 		fsts	s15, [r5, #104]
 3077              		.loc 1 284 0
 3078 130c FFF7FEFF 		bl	buffer_get_int32
ARM GAS  /tmp/ccq8Pe5l.s 			page 55


 3079              	.LVL313:
 3080 1310 07EE900A 		fmsr	s15, r0	@ int
 3081 1314 F8EEE77A 		fsitos	s15, s15
 3082              		.loc 1 285 0
 3083 1318 3146     		mov	r1, r6
 3084              		.loc 1 284 0
 3085 131a C7EE887A 		fdivs	s15, s15, s16
 3086              		.loc 1 285 0
 3087 131e 2046     		mov	r0, r4
 3088              		.loc 1 284 0
 3089 1320 C5ED1B7A 		fsts	s15, [r5, #108]
 3090              		.loc 1 285 0
 3091 1324 FFF7FEFF 		bl	buffer_get_int32
 3092              	.LVL314:
 3093 1328 07EE900A 		fmsr	s15, r0	@ int
 3094 132c F8EEE77A 		fsitos	s15, s15
 3095              		.loc 1 286 0
 3096 1330 3146     		mov	r1, r6
 3097              		.loc 1 285 0
 3098 1332 C7EE887A 		fdivs	s15, s15, s16
 3099              		.loc 1 286 0
 3100 1336 2046     		mov	r0, r4
 3101              		.loc 1 285 0
 3102 1338 C5ED1C7A 		fsts	s15, [r5, #112]
 3103              		.loc 1 286 0
 3104 133c FFF7FEFF 		bl	buffer_get_int32
 3105              	.LVL315:
 3106 1340 07EE900A 		fmsr	s15, r0	@ int
 3107 1344 F8EEE77A 		fsitos	s15, s15
 3108              		.loc 1 287 0
 3109 1348 3146     		mov	r1, r6
 3110              		.loc 1 286 0
 3111 134a C7EE887A 		fdivs	s15, s15, s16
 3112              		.loc 1 287 0
 3113 134e 2046     		mov	r0, r4
 3114              		.loc 1 286 0
 3115 1350 C5ED1D7A 		fsts	s15, [r5, #116]
 3116              		.loc 1 287 0
 3117 1354 FFF7FEFF 		bl	buffer_get_int32
 3118              	.LVL316:
 3119 1358 07EE900A 		fmsr	s15, r0	@ int
 3120 135c F8EEE77A 		fsitos	s15, s15
 3121              		.loc 1 288 0
 3122 1360 3146     		mov	r1, r6
 3123              		.loc 1 287 0
 3124 1362 C7EE887A 		fdivs	s15, s15, s16
 3125              		.loc 1 288 0
 3126 1366 2046     		mov	r0, r4
 3127              		.loc 1 287 0
 3128 1368 C5ED1E7A 		fsts	s15, [r5, #120]
 3129              		.loc 1 288 0
 3130 136c FFF7FEFF 		bl	buffer_get_int32
 3131              	.LVL317:
 3132 1370 07EE900A 		fmsr	s15, r0	@ int
 3133 1374 F8EEE77A 		fsitos	s15, s15
 3134              		.loc 1 290 0
 3135 1378 009A     		ldr	r2, [sp]
ARM GAS  /tmp/ccq8Pe5l.s 			page 56


 3136              		.loc 1 288 0
 3137 137a C7EE887A 		fdivs	s15, s15, s16
 3138              		.loc 1 290 0
 3139 137e A118     		adds	r1, r4, r2
 3140 1380 05F18003 		add	r3, r5, #128
 3141              		.loc 1 291 0
 3142 1384 0832     		adds	r2, r2, #8
 3143 1386 0092     		str	r2, [sp]
 3144              		.loc 1 288 0
 3145 1388 C5ED1F7A 		fsts	s15, [r5, #124]
 3146              		.loc 1 290 0
 3147 138c 0868     		ldr	r0, [r1]	@ unaligned
 3148 138e 4968     		ldr	r1, [r1, #4]	@ unaligned
 3149 1390 03C3     		stmia	r3!, {r0, r1}
 3150              		.loc 1 292 0
 3151 1392 3146     		mov	r1, r6
 3152 1394 2046     		mov	r0, r4
 3153 1396 FFF7FEFF 		bl	buffer_get_int32
 3154              	.LVL318:
 3155 139a 07EE900A 		fmsr	s15, r0	@ int
 3156 139e F8EEE77A 		fsitos	s15, s15
 3157              		.loc 1 294 0
 3158 13a2 3146     		mov	r1, r6
 3159              		.loc 1 292 0
 3160 13a4 C7EE887A 		fdivs	s15, s15, s16
 3161              		.loc 1 294 0
 3162 13a8 2046     		mov	r0, r4
 3163 13aa B0EE490A 		fcpys	s0, s18
 3164              		.loc 1 292 0
 3165 13ae C5ED227A 		fsts	s15, [r5, #136]
 3166              		.loc 1 294 0
 3167 13b2 FFF7FEFF 		bl	buffer_get_float32
 3168              	.LVL319:
 3169              		.loc 1 295 0
 3170 13b6 3146     		mov	r1, r6
 3171              		.loc 1 294 0
 3172 13b8 85ED230A 		fsts	s0, [r5, #140]
 3173              		.loc 1 295 0
 3174 13bc 2046     		mov	r0, r4
 3175 13be B0EE490A 		fcpys	s0, s18
 3176 13c2 FFF7FEFF 		bl	buffer_get_float32
 3177              	.LVL320:
 3178              		.loc 1 296 0
 3179 13c6 3146     		mov	r1, r6
 3180              		.loc 1 295 0
 3181 13c8 85ED240A 		fsts	s0, [r5, #144]
 3182              		.loc 1 296 0
 3183 13cc 2046     		mov	r0, r4
 3184 13ce B0EE480A 		fcpys	s0, s16
 3185 13d2 FFF7FEFF 		bl	buffer_get_float32
 3186              	.LVL321:
 3187              		.loc 1 297 0
 3188 13d6 3146     		mov	r1, r6
 3189              		.loc 1 296 0
 3190 13d8 85ED250A 		fsts	s0, [r5, #148]
 3191              		.loc 1 297 0
 3192 13dc 2046     		mov	r0, r4
ARM GAS  /tmp/ccq8Pe5l.s 			page 57


 3193 13de B0EE680A 		fcpys	s0, s17
 3194 13e2 FFF7FEFF 		bl	buffer_get_float32
 3195              	.LVL322:
 3196              		.loc 1 298 0
 3197 13e6 009B     		ldr	r3, [sp]
 3198              		.loc 1 297 0
 3199 13e8 85ED260A 		fsts	s0, [r5, #152]
 3200              		.loc 1 298 0
 3201 13ec E25C     		ldrb	r2, [r4, r3]	@ zero_extendqisi2
 3202 13ee 0032     		adds	r2, r2, #0
 3203 13f0 18BF     		it	ne
 3204 13f2 0122     		movne	r2, #1
 3205 13f4 0133     		adds	r3, r3, #1
 3206              		.loc 1 299 0
 3207 13f6 3146     		mov	r1, r6
 3208 13f8 B0EE480A 		fcpys	s0, s16
 3209 13fc 2046     		mov	r0, r4
 3210              		.loc 1 298 0
 3211 13fe 85F8A020 		strb	r2, [r5, #160]
 3212 1402 0093     		str	r3, [sp]
 3213              		.loc 1 299 0
 3214 1404 FFF7FEFF 		bl	buffer_get_float32
 3215              	.LVL323:
 3216              		.loc 1 300 0
 3217 1408 3146     		mov	r1, r6
 3218              		.loc 1 299 0
 3219 140a 85ED270A 		fsts	s0, [r5, #156]
 3220              		.loc 1 300 0
 3221 140e 2046     		mov	r0, r4
 3222 1410 B0EE480A 		fcpys	s0, s16
 3223 1414 FFF7FEFF 		bl	buffer_get_float32
 3224              	.LVL324:
 3225              		.loc 1 301 0
 3226 1418 009B     		ldr	r3, [sp]
 3227              		.loc 1 300 0
 3228 141a 85ED290A 		fsts	s0, [r5, #164]
 3229              		.loc 1 301 0
 3230 141e E25C     		ldrb	r2, [r4, r3]	@ zero_extendqisi2
 3231 1420 85F8DC20 		strb	r2, [r5, #220]
 3232 1424 0133     		adds	r3, r3, #1
 3233              		.loc 1 302 0
 3234 1426 3146     		mov	r1, r6
 3235 1428 B0EE480A 		fcpys	s0, s16
 3236 142c 2046     		mov	r0, r4
 3237              		.loc 1 301 0
 3238 142e 0093     		str	r3, [sp]
 3239              		.loc 1 302 0
 3240 1430 FFF7FEFF 		bl	buffer_get_float32
 3241              	.LVL325:
 3242              		.loc 1 303 0
 3243 1434 3146     		mov	r1, r6
 3244              		.loc 1 302 0
 3245 1436 85ED2E0A 		fsts	s0, [r5, #184]
 3246              		.loc 1 303 0
 3247 143a 2046     		mov	r0, r4
 3248 143c B0EE480A 		fcpys	s0, s16
 3249 1440 FFF7FEFF 		bl	buffer_get_float32
ARM GAS  /tmp/ccq8Pe5l.s 			page 58


 3250              	.LVL326:
 3251              		.loc 1 304 0
 3252 1444 3146     		mov	r1, r6
 3253              		.loc 1 303 0
 3254 1446 85ED2F0A 		fsts	s0, [r5, #188]
 3255              		.loc 1 304 0
 3256 144a 2046     		mov	r0, r4
 3257 144c 9FED2E0A 		flds	s0, .L153+16
 3258 1450 FFF7FEFF 		bl	buffer_get_float32
 3259              	.LVL327:
 3260              		.loc 1 305 0
 3261 1454 3146     		mov	r1, r6
 3262              		.loc 1 304 0
 3263 1456 85ED2A0A 		fsts	s0, [r5, #168]
 3264              		.loc 1 305 0
 3265 145a 2046     		mov	r0, r4
 3266 145c B0EE490A 		fcpys	s0, s18
 3267 1460 FFF7FEFF 		bl	buffer_get_float32
 3268              	.LVL328:
 3269              		.loc 1 306 0
 3270 1464 3146     		mov	r1, r6
 3271              		.loc 1 305 0
 3272 1466 85ED2B0A 		fsts	s0, [r5, #172]
 3273              		.loc 1 306 0
 3274 146a 2046     		mov	r0, r4
 3275 146c B0EE490A 		fcpys	s0, s18
 3276 1470 FFF7FEFF 		bl	buffer_get_float32
 3277              	.LVL329:
 3278              		.loc 1 307 0
 3279 1474 3146     		mov	r1, r6
 3280              		.loc 1 306 0
 3281 1476 85ED2C0A 		fsts	s0, [r5, #176]
 3282              		.loc 1 307 0
 3283 147a 2046     		mov	r0, r4
 3284 147c B7EE000A 		fconsts	s0, #112
 3285 1480 FFF7FEFF 		bl	buffer_get_float32
 3286              	.LVL330:
 3287              		.loc 1 308 0
 3288 1484 3146     		mov	r1, r6
 3289              		.loc 1 307 0
 3290 1486 85ED2D0A 		fsts	s0, [r5, #180]
 3291              		.loc 1 308 0
 3292 148a 2046     		mov	r0, r4
 3293 148c B0EE480A 		fcpys	s0, s16
 3294 1490 FFF7FEFF 		bl	buffer_get_float32
 3295              	.LVL331:
 3296              		.loc 1 309 0
 3297 1494 3146     		mov	r1, r6
 3298              		.loc 1 308 0
 3299 1496 85ED300A 		fsts	s0, [r5, #192]
 3300              		.loc 1 309 0
 3301 149a 2046     		mov	r0, r4
 3302 149c B0EE480A 		fcpys	s0, s16
 3303 14a0 FFF7FEFF 		bl	buffer_get_float32
 3304              	.LVL332:
 3305              		.loc 1 310 0
 3306 14a4 3146     		mov	r1, r6
ARM GAS  /tmp/ccq8Pe5l.s 			page 59


 3307              		.loc 1 309 0
 3308 14a6 85ED310A 		fsts	s0, [r5, #196]
 3309              		.loc 1 310 0
 3310 14aa 2046     		mov	r0, r4
 3311 14ac B0EE480A 		fcpys	s0, s16
 3312 14b0 FFF7FEFF 		bl	buffer_get_float32
 3313              	.LVL333:
 3314              		.loc 1 311 0
 3315 14b4 3146     		mov	r1, r6
 3316              		.loc 1 310 0
 3317 14b6 85ED320A 		fsts	s0, [r5, #200]
 3318              		.loc 1 311 0
 3319 14ba 2046     		mov	r0, r4
 3320 14bc B0EE480A 		fcpys	s0, s16
 3321 14c0 FFF7FEFF 		bl	buffer_get_float32
 3322              	.LVL334:
 3323              		.loc 1 312 0
 3324 14c4 3146     		mov	r1, r6
 3325              		.loc 1 311 0
 3326 14c6 85ED330A 		fsts	s0, [r5, #204]
 3327              		.loc 1 312 0
 3328 14ca 2046     		mov	r0, r4
 3329 14cc B0EE480A 		fcpys	s0, s16
 3330 14d0 FFF7FEFF 		bl	buffer_get_float32
 3331              	.LVL335:
 3332              		.loc 1 313 0
 3333 14d4 3146     		mov	r1, r6
 3334              		.loc 1 312 0
 3335 14d6 85ED340A 		fsts	s0, [r5, #208]
 3336              		.loc 1 313 0
 3337 14da 2046     		mov	r0, r4
 3338 14dc B0EE480A 		fcpys	s0, s16
 3339 14e0 FFF7FEFF 		bl	buffer_get_float32
 3340              	.LVL336:
 3341              		.loc 1 314 0
 3342 14e4 3146     		mov	r1, r6
 3343              		.loc 1 313 0
 3344 14e6 85ED350A 		fsts	s0, [r5, #212]
 3345              		.loc 1 314 0
 3346 14ea 2046     		mov	r0, r4
 3347 14ec B0EE480A 		fcpys	s0, s16
 3348 14f0 FFF7FEFF 		bl	buffer_get_float32
 3349              	.LVL337:
 3350              		.loc 1 315 0
 3351 14f4 009B     		ldr	r3, [sp]
 3352 14f6 09E0     		b	.L154
 3353              	.L155:
 3354              		.align	2
 3355              	.L153:
 3356 14f8 00000000 		.word	.LANCHOR11
 3357 14fc 00007A44 		.word	1148846080
 3358 1500 00247449 		.word	1232348160
 3359 1504 0050C347 		.word	1203982336
 3360 1508 20BCBE4C 		.word	1287568416
 3361              	.L154:
 3362              		.loc 1 314 0
 3363 150c 85ED360A 		fsts	s0, [r5, #216]
ARM GAS  /tmp/ccq8Pe5l.s 			page 60


 3364              		.loc 1 315 0
 3365 1510 E218     		adds	r2, r4, r3
 3366              		.loc 1 317 0
 3367 1512 3146     		mov	r1, r6
 3368              		.loc 1 315 0
 3369 1514 1768     		ldr	r7, [r2]	@ unaligned
 3370 1516 5268     		ldr	r2, [r2, #4]	@ unaligned
 3371 1518 C5F8E120 		str	r2, [r5, #225]	@ unaligned
 3372              		.loc 1 316 0
 3373 151c 0833     		adds	r3, r3, #8
 3374              		.loc 1 317 0
 3375 151e 2046     		mov	r0, r4
 3376              		.loc 1 315 0
 3377 1520 C5F8DD70 		str	r7, [r5, #221]	@ unaligned
 3378              		.loc 1 316 0
 3379 1524 0093     		str	r3, [sp]
 3380              		.loc 1 317 0
 3381 1526 FFF7FEFF 		bl	buffer_get_int32
 3382              	.LVL338:
 3383 152a 07EE900A 		fmsr	s15, r0	@ int
 3384 152e F8EEE77A 		fsitos	s15, s15
 3385              		.loc 1 319 0
 3386 1532 3146     		mov	r1, r6
 3387              		.loc 1 317 0
 3388 1534 C7EE887A 		fdivs	s15, s15, s16
 3389              		.loc 1 319 0
 3390 1538 2046     		mov	r0, r4
 3391              		.loc 1 317 0
 3392 153a C5ED3A7A 		fsts	s15, [r5, #232]
 3393              		.loc 1 319 0
 3394 153e FFF7FEFF 		bl	buffer_get_int32
 3395              	.LVL339:
 3396 1542 07EE900A 		fmsr	s15, r0	@ int
 3397 1546 F8EEE77A 		fsitos	s15, s15
 3398              		.loc 1 320 0
 3399 154a 3146     		mov	r1, r6
 3400              		.loc 1 319 0
 3401 154c C7EEA87A 		fdivs	s15, s15, s17
 3402              		.loc 1 320 0
 3403 1550 2046     		mov	r0, r4
 3404              		.loc 1 319 0
 3405 1552 C5ED3B7A 		fsts	s15, [r5, #236]
 3406              		.loc 1 320 0
 3407 1556 FFF7FEFF 		bl	buffer_get_int32
 3408              	.LVL340:
 3409 155a 07EE900A 		fmsr	s15, r0	@ int
 3410 155e F8EEE77A 		fsitos	s15, s15
 3411              		.loc 1 321 0
 3412 1562 3146     		mov	r1, r6
 3413              		.loc 1 320 0
 3414 1564 C7EEA87A 		fdivs	s15, s15, s17
 3415              		.loc 1 321 0
 3416 1568 2046     		mov	r0, r4
 3417              		.loc 1 320 0
 3418 156a C5ED3C7A 		fsts	s15, [r5, #240]
 3419              		.loc 1 321 0
 3420 156e FFF7FEFF 		bl	buffer_get_int32
ARM GAS  /tmp/ccq8Pe5l.s 			page 61


 3421              	.LVL341:
 3422 1572 07EE900A 		fmsr	s15, r0	@ int
 3423 1576 F8EEE77A 		fsitos	s15, s15
 3424              		.loc 1 322 0
 3425 157a 3146     		mov	r1, r6
 3426              		.loc 1 321 0
 3427 157c C7EEA87A 		fdivs	s15, s15, s17
 3428              		.loc 1 322 0
 3429 1580 2046     		mov	r0, r4
 3430              		.loc 1 321 0
 3431 1582 C5ED3D7A 		fsts	s15, [r5, #244]
 3432              		.loc 1 322 0
 3433 1586 FFF7FEFF 		bl	buffer_get_int32
 3434              	.LVL342:
 3435 158a 07EE900A 		fmsr	s15, r0	@ int
 3436 158e F8EEE77A 		fsitos	s15, s15
 3437              		.loc 1 324 0
 3438 1592 3146     		mov	r1, r6
 3439              		.loc 1 322 0
 3440 1594 C7EE887A 		fdivs	s15, s15, s16
 3441              		.loc 1 324 0
 3442 1598 2046     		mov	r0, r4
 3443              		.loc 1 322 0
 3444 159a C5ED3E7A 		fsts	s15, [r5, #248]
 3445              		.loc 1 324 0
 3446 159e FFF7FEFF 		bl	buffer_get_int32
 3447              	.LVL343:
 3448 15a2 07EE900A 		fmsr	s15, r0	@ int
 3449 15a6 F8EEE77A 		fsitos	s15, s15
 3450              		.loc 1 325 0
 3451 15aa 3146     		mov	r1, r6
 3452              		.loc 1 324 0
 3453 15ac C7EEA87A 		fdivs	s15, s15, s17
 3454              		.loc 1 325 0
 3455 15b0 2046     		mov	r0, r4
 3456              		.loc 1 324 0
 3457 15b2 C5ED3F7A 		fsts	s15, [r5, #252]
 3458              		.loc 1 325 0
 3459 15b6 FFF7FEFF 		bl	buffer_get_int32
 3460              	.LVL344:
 3461 15ba 07EE900A 		fmsr	s15, r0	@ int
 3462 15be F8EEE77A 		fsitos	s15, s15
 3463              		.loc 1 326 0
 3464 15c2 3146     		mov	r1, r6
 3465              		.loc 1 325 0
 3466 15c4 C7EEA87A 		fdivs	s15, s15, s17
 3467              		.loc 1 326 0
 3468 15c8 2046     		mov	r0, r4
 3469              		.loc 1 325 0
 3470 15ca C5ED407A 		fsts	s15, [r5, #256]
 3471              		.loc 1 326 0
 3472 15ce FFF7FEFF 		bl	buffer_get_int32
 3473              	.LVL345:
 3474 15d2 07EE900A 		fmsr	s15, r0	@ int
 3475 15d6 F8EEE77A 		fsitos	s15, s15
 3476              		.loc 1 327 0
 3477 15da 3146     		mov	r1, r6
ARM GAS  /tmp/ccq8Pe5l.s 			page 62


 3478              		.loc 1 326 0
 3479 15dc C7EEA87A 		fdivs	s15, s15, s17
 3480              		.loc 1 327 0
 3481 15e0 2046     		mov	r0, r4
 3482              		.loc 1 326 0
 3483 15e2 C5ED417A 		fsts	s15, [r5, #260]
 3484              		.loc 1 327 0
 3485 15e6 FFF7FEFF 		bl	buffer_get_int32
 3486              	.LVL346:
 3487 15ea 07EE900A 		fmsr	s15, r0	@ int
 3488 15ee F8EEE77A 		fsitos	s15, s15
 3489              		.loc 1 329 0
 3490 15f2 3146     		mov	r1, r6
 3491              		.loc 1 327 0
 3492 15f4 C7EE897A 		fdivs	s15, s15, s18
 3493              		.loc 1 329 0
 3494 15f8 2046     		mov	r0, r4
 3495              		.loc 1 327 0
 3496 15fa C5ED427A 		fsts	s15, [r5, #264]
 3497              		.loc 1 329 0
 3498 15fe FFF7FEFF 		bl	buffer_get_int32
 3499              	.LVL347:
 3500 1602 07EE900A 		fmsr	s15, r0	@ int
 3501 1606 F8EEE77A 		fsitos	s15, s15
 3502              		.loc 1 330 0
 3503 160a 3146     		mov	r1, r6
 3504              		.loc 1 329 0
 3505 160c C7EEA87A 		fdivs	s15, s15, s17
 3506              		.loc 1 330 0
 3507 1610 2046     		mov	r0, r4
 3508              		.loc 1 329 0
 3509 1612 C5ED437A 		fsts	s15, [r5, #268]
 3510              		.loc 1 330 0
 3511 1616 FFF7FEFF 		bl	buffer_get_int32
 3512              	.LVL348:
 3513 161a 07EE900A 		fmsr	s15, r0	@ int
 3514 161e F8EEE77A 		fsitos	s15, s15
 3515              		.loc 1 331 0
 3516 1622 3146     		mov	r1, r6
 3517              		.loc 1 330 0
 3518 1624 87EE888A 		fdivs	s16, s15, s16
 3519              		.loc 1 331 0
 3520 1628 2046     		mov	r0, r4
 3521              		.loc 1 330 0
 3522 162a 85ED448A 		fsts	s16, [r5, #272]
 3523              		.loc 1 331 0
 3524 162e FFF7FEFF 		bl	buffer_get_int32
 3525              	.LVL349:
 3526 1632 07EE900A 		fmsr	s15, r0	@ int
 3527 1636 F8EEE77A 		fsitos	s15, s15
 3528              		.loc 1 332 0
 3529 163a 3146     		mov	r1, r6
 3530              		.loc 1 331 0
 3531 163c C7EEA87A 		fdivs	s15, s15, s17
 3532              		.loc 1 332 0
 3533 1640 2046     		mov	r0, r4
 3534 1642 B0EE490A 		fcpys	s0, s18
ARM GAS  /tmp/ccq8Pe5l.s 			page 63


 3535              		.loc 1 331 0
 3536 1646 C5ED457A 		fsts	s15, [r5, #276]
 3537              		.loc 1 332 0
 3538 164a FFF7FEFF 		bl	buffer_get_float32
 3539              	.LVL350:
 3540              		.loc 1 334 0
 3541 164e 3146     		mov	r1, r6
 3542 1650 2046     		mov	r0, r4
 3543              		.loc 1 332 0
 3544 1652 85ED460A 		fsts	s0, [r5, #280]
 3545              		.loc 1 334 0
 3546 1656 FFF7FEFF 		bl	buffer_get_int32
 3547              	.LVL351:
 3548              		.loc 1 335 0
 3549 165a 3146     		mov	r1, r6
 3550              		.loc 1 334 0
 3551 165c C5F81C01 		str	r0, [r5, #284]
 3552              		.loc 1 335 0
 3553 1660 B0EE680A 		fcpys	s0, s17
 3554 1664 2046     		mov	r0, r4
 3555 1666 FFF7FEFF 		bl	buffer_get_float32
 3556              	.LVL352:
 3557              		.loc 1 336 0
 3558 166a 3146     		mov	r1, r6
 3559              		.loc 1 335 0
 3560 166c 85ED480A 		fsts	s0, [r5, #288]
 3561              		.loc 1 336 0
 3562 1670 2046     		mov	r0, r4
 3563 1672 B0EE680A 		fcpys	s0, s17
 3564 1676 FFF7FEFF 		bl	buffer_get_float32
 3565              	.LVL353:
 3566              		.loc 1 337 0
 3567 167a 3146     		mov	r1, r6
 3568              		.loc 1 336 0
 3569 167c 85ED490A 		fsts	s0, [r5, #292]
 3570              		.loc 1 337 0
 3571 1680 2046     		mov	r0, r4
 3572 1682 B0EE680A 		fcpys	s0, s17
 3573 1686 FFF7FEFF 		bl	buffer_get_float32
 3574              	.LVL354:
 3575              		.loc 1 338 0
 3576 168a 3146     		mov	r1, r6
 3577 168c 2046     		mov	r0, r4
 3578              		.loc 1 337 0
 3579 168e 85ED4A0A 		fsts	s0, [r5, #296]
 3580              		.loc 1 338 0
 3581 1692 FFF7FEFF 		bl	buffer_get_uint32
 3582              	.LVL355:
 3583 1696 C5F82C01 		str	r0, [r5, #300]
 3584              		.loc 1 340 0
 3585 169a 2846     		mov	r0, r5
 3586 169c FFF7FEFF 		bl	conf_general_store_mc_configuration
 3587              	.LVL356:
 3588              		.loc 1 341 0
 3589 16a0 2846     		mov	r0, r5
 3590 16a2 FFF7FEFF 		bl	mc_interface_set_configuration
 3591              	.LVL357:
ARM GAS  /tmp/ccq8Pe5l.s 			page 64


 3592              	.LBB135:
 3593              	.LBB136:
 3594              		.loc 1 94 0
 3595 16a6 214B     		ldr	r3, .L156
 3596              	.LBE136:
 3597              	.LBE135:
 3598              		.loc 1 348 0
 3599 16a8 2148     		ldr	r0, .L156+4
 3600              	.LBB139:
 3601              	.LBB137:
 3602              		.loc 1 94 0
 3603 16aa 1B68     		ldr	r3, [r3]
 3604              	.LBE137:
 3605              	.LBE139:
 3606              		.loc 1 348 0
 3607 16ac 0C22     		movs	r2, #12
 3608 16ae 0121     		movs	r1, #1
 3609 16b0 0270     		strb	r2, [r0]
 3610              	.LVL358:
 3611 16b2 0091     		str	r1, [sp]
 3612              	.LBB140:
 3613              	.LBB138:
 3614              		.loc 1 94 0
 3615 16b4 002B     		cmp	r3, #0
 3616 16b6 7FF4ADA8 		bne	.L125
 3617 16ba FEF768BE 		b	.L24
 3618              	.LVL359:
 3619              	.L45:
 3620              	.LBE138:
 3621              	.LBE140:
 3622              		.loc 1 612 0
 3623 16be 6946     		mov	r1, sp
 3624 16c0 2046     		mov	r0, r4
 3625 16c2 9FED200A 		flds	s0, .L156+24
 3626 16c6 FFF7FEFF 		bl	buffer_get_float32
 3627              	.LVL360:
 3628 16ca 1A4B     		ldr	r3, .L156+8
 3629              		.loc 1 613 0
 3630 16cc 6946     		mov	r1, sp
 3631              		.loc 1 612 0
 3632 16ce 83ED000A 		fsts	s0, [r3]
 3633              		.loc 1 613 0
 3634 16d2 2046     		mov	r0, r4
 3635 16d4 9FED1B0A 		flds	s0, .L156+24
 3636 16d8 FFF7FEFF 		bl	buffer_get_float32
 3637              	.LVL361:
 3638 16dc 164B     		ldr	r3, .L156+12
 3639              		.loc 1 614 0
 3640 16de 6946     		mov	r1, sp
 3641 16e0 2046     		mov	r0, r4
 3642              		.loc 1 613 0
 3643 16e2 83ED000A 		fsts	s0, [r3]
 3644              		.loc 1 614 0
 3645 16e6 9FED170A 		flds	s0, .L156+24
 3646 16ea FFF7FEFF 		bl	buffer_get_float32
 3647              	.LVL362:
 3648              		.loc 1 616 0
ARM GAS  /tmp/ccq8Pe5l.s 			page 65


 3649 16ee 134A     		ldr	r2, .L156+16
 3650              		.loc 1 614 0
 3651 16f0 134B     		ldr	r3, .L156+20
 3652              		.loc 1 616 0
 3653 16f2 1068     		ldr	r0, [r2]
 3654              		.loc 1 614 0
 3655 16f4 83ED000A 		fsts	s0, [r3]
 3656              		.loc 1 616 0
 3657 16f8 0121     		movs	r1, #1
 3658 16fa FFF7FEFF 		bl	chEvtSignal
 3659              	.LVL363:
 3660              		.loc 1 617 0
 3661 16fe FEF746BE 		b	.L24
 3662              	.L43:
 3663              		.loc 1 599 0
 3664 1702 2AA9     		add	r1, sp, #168
 3665 1704 4578     		ldrb	r5, [r0, #1]	@ zero_extendqisi2
 3666              	.LVL364:
 3667 1706 0123     		movs	r3, #1
 3668 1708 0035     		adds	r5, r5, #0
 3669 170a 41F8A83D 		str	r3, [r1, #-168]!
 3670              		.loc 1 600 0
 3671 170e 2046     		mov	r0, r4
 3672              		.loc 1 599 0
 3673 1710 18BF     		it	ne
 3674 1712 0125     		movne	r5, #1
 3675              	.LVL365:
 3676              		.loc 1 600 0
 3677 1714 FFF7FEFF 		bl	buffer_get_uint16
 3678              	.LVL366:
 3679              		.loc 1 601 0
 3680 1718 009B     		ldr	r3, [sp]
 3681              		.loc 1 600 0
 3682 171a 0146     		mov	r1, r0
 3683              	.LVL367:
 3684              		.loc 1 602 0
 3685 171c E25C     		ldrb	r2, [r4, r3]	@ zero_extendqisi2
 3686 171e 2846     		mov	r0, r5
 3687              		.loc 1 601 0
 3688 1720 0133     		adds	r3, r3, #1
 3689 1722 0093     		str	r3, [sp]
 3690              	.LVL368:
 3691              		.loc 1 602 0
 3692 1724 FFF7FEFF 		bl	mc_interface_sample_print_data
 3693              	.LVL369:
 3694              		.loc 1 603 0
 3695 1728 FEF731BE 		b	.L24
 3696              	.L157:
 3697              		.align	2
 3698              	.L156:
 3699 172c 00000000 		.word	.LANCHOR9
 3700 1730 00000000 		.word	.LANCHOR8
 3701 1734 00000000 		.word	.LANCHOR1
 3702 1738 00000000 		.word	.LANCHOR2
 3703 173c 00000000 		.word	.LANCHOR0
 3704 1740 00000000 		.word	.LANCHOR3
 3705 1744 00007A44 		.word	1148846080
ARM GAS  /tmp/ccq8Pe5l.s 			page 66


 3706              	.LVL370:
 3707              	.L41:
 3708              		.loc 1 452 0
 3709 1748 FFF7FEFF 		bl	app_get_configuration
 3710              	.LVL371:
 3711 174c A022     		movs	r2, #160
 3712 174e 0146     		mov	r1, r0
 3713 1750 02A8     		add	r0, sp, #8
 3714 1752 FFF7FEFF 		bl	memcpy
 3715              	.LVL372:
 3716              		.loc 1 455 0
 3717 1756 0125     		movs	r5, #1
 3718              	.LVL373:
 3719 1758 7B78     		ldrb	r3, [r7, #1]	@ zero_extendqisi2
 3720 175a 8DF80830 		strb	r3, [sp, #8]
 3721              		.loc 1 456 0
 3722 175e 6946     		mov	r1, sp
 3723 1760 2046     		mov	r0, r4
 3724              		.loc 1 455 0
 3725 1762 0095     		str	r5, [sp]
 3726              		.loc 1 456 0
 3727 1764 FFF7FEFF 		bl	buffer_get_uint32
 3728              	.LVL374:
 3729              		.loc 1 457 0
 3730 1768 6946     		mov	r1, sp
 3731              		.loc 1 456 0
 3732 176a 0390     		str	r0, [sp, #12]
 3733              		.loc 1 457 0
 3734 176c 2046     		mov	r0, r4
 3735 176e FFF7FEFF 		bl	buffer_get_int32
 3736              	.LVL375:
 3737 1772 07EE900A 		fmsr	s15, r0	@ int
 3738 1776 1FED0D8A 		flds	s16, .L156+24
 3739              		.loc 1 458 0
 3740 177a 009B     		ldr	r3, [sp]
 3741              		.loc 1 457 0
 3742 177c F8EEE77A 		fsitos	s15, s15
 3743              		.loc 1 458 0
 3744 1780 E25C     		ldrb	r2, [r4, r3]	@ zero_extendqisi2
 3745              		.loc 1 457 0
 3746 1782 C7EE887A 		fdivs	s15, s15, s16
 3747              		.loc 1 458 0
 3748 1786 0032     		adds	r2, r2, #0
 3749 1788 18BF     		it	ne
 3750 178a 0122     		movne	r2, #1
 3751 178c 2B44     		add	r3, r3, r5
 3752              		.loc 1 459 0
 3753 178e 6946     		mov	r1, sp
 3754 1790 2046     		mov	r0, r4
 3755              		.loc 1 458 0
 3756 1792 8DF81420 		strb	r2, [sp, #20]
 3757 1796 0093     		str	r3, [sp]
 3758              		.loc 1 457 0
 3759 1798 CDED047A 		fsts	s15, [sp, #16]
 3760              		.loc 1 459 0
 3761 179c FFF7FEFF 		bl	buffer_get_uint16
 3762              	.LVL376:
ARM GAS  /tmp/ccq8Pe5l.s 			page 67


 3763              		.loc 1 461 0
 3764 17a0 009B     		ldr	r3, [sp]
 3765              		.loc 1 459 0
 3766 17a2 0690     		str	r0, [sp, #24]
 3767              		.loc 1 463 0
 3768 17a4 E118     		adds	r1, r4, r3
 3769              		.loc 1 461 0
 3770 17a6 E25C     		ldrb	r2, [r4, r3]	@ zero_extendqisi2
 3771              		.loc 1 463 0
 3772 17a8 4978     		ldrb	r1, [r1, #1]	@ zero_extendqisi2
 3773 17aa 8DF82010 		strb	r1, [sp, #32]
 3774 17ae 0233     		adds	r3, r3, #2
 3775              		.loc 1 464 0
 3776 17b0 6946     		mov	r1, sp
 3777 17b2 2046     		mov	r0, r4
 3778              		.loc 1 461 0
 3779 17b4 8DF81C20 		strb	r2, [sp, #28]
 3780              		.loc 1 463 0
 3781 17b8 0093     		str	r3, [sp]
 3782              		.loc 1 464 0
 3783 17ba FFF7FEFF 		bl	buffer_get_int32
 3784              	.LVL377:
 3785 17be 07EE900A 		fmsr	s15, r0	@ int
 3786 17c2 F8EEE77A 		fsitos	s15, s15
 3787              		.loc 1 465 0
 3788 17c6 6946     		mov	r1, sp
 3789              		.loc 1 464 0
 3790 17c8 C7EE887A 		fdivs	s15, s15, s16
 3791              		.loc 1 465 0
 3792 17cc 2046     		mov	r0, r4
 3793              		.loc 1 464 0
 3794 17ce CDED097A 		fsts	s15, [sp, #36]
 3795              		.loc 1 465 0
 3796 17d2 FFF7FEFF 		bl	buffer_get_int32
 3797              	.LVL378:
 3798 17d6 07EE900A 		fmsr	s15, r0	@ int
 3799 17da F8EEE77A 		fsitos	s15, s15
 3800              		.loc 1 466 0
 3801 17de 6946     		mov	r1, sp
 3802              		.loc 1 465 0
 3803 17e0 C7EE887A 		fdivs	s15, s15, s16
 3804              		.loc 1 466 0
 3805 17e4 2046     		mov	r0, r4
 3806              		.loc 1 465 0
 3807 17e6 CDED0A7A 		fsts	s15, [sp, #40]
 3808              		.loc 1 466 0
 3809 17ea FFF7FEFF 		bl	buffer_get_int32
 3810              	.LVL379:
 3811 17ee 07EE900A 		fmsr	s15, r0	@ int
 3812 17f2 F8EEE77A 		fsitos	s15, s15
 3813              		.loc 1 467 0
 3814 17f6 6946     		mov	r1, sp
 3815              		.loc 1 466 0
 3816 17f8 C7EE887A 		fdivs	s15, s15, s16
 3817              		.loc 1 467 0
 3818 17fc 2046     		mov	r0, r4
 3819              		.loc 1 466 0
ARM GAS  /tmp/ccq8Pe5l.s 			page 68


 3820 17fe CDED0B7A 		fsts	s15, [sp, #44]
 3821              		.loc 1 467 0
 3822 1802 FFF7FEFF 		bl	buffer_get_int32
 3823              	.LVL380:
 3824 1806 07EE900A 		fmsr	s15, r0	@ int
 3825 180a F8EEE77A 		fsitos	s15, s15
 3826              		.loc 1 468 0
 3827 180e 009B     		ldr	r3, [sp]
 3828              		.loc 1 467 0
 3829 1810 C7EE887A 		fdivs	s15, s15, s16
 3830              		.loc 1 469 0
 3831 1814 E118     		adds	r1, r4, r3
 3832              		.loc 1 468 0
 3833 1816 E25C     		ldrb	r2, [r4, r3]	@ zero_extendqisi2
 3834              		.loc 1 469 0
 3835 1818 4E78     		ldrb	r6, [r1, #1]	@ zero_extendqisi2
 3836              		.loc 1 468 0
 3837 181a 0032     		adds	r2, r2, #0
 3838 181c 18BF     		it	ne
 3839 181e 0122     		movne	r2, #1
 3840              		.loc 1 469 0
 3841 1820 0036     		adds	r6, r6, #0
 3842 1822 18BF     		it	ne
 3843 1824 0126     		movne	r6, #1
 3844 1826 0233     		adds	r3, r3, #2
 3845              		.loc 1 470 0
 3846 1828 6946     		mov	r1, sp
 3847 182a 2046     		mov	r0, r4
 3848              		.loc 1 468 0
 3849 182c 8DF83420 		strb	r2, [sp, #52]
 3850              		.loc 1 469 0
 3851 1830 0093     		str	r3, [sp]
 3852 1832 8DF83560 		strb	r6, [sp, #53]
 3853              		.loc 1 467 0
 3854 1836 CDED0C7A 		fsts	s15, [sp, #48]
 3855              		.loc 1 470 0
 3856 183a FFF7FEFF 		bl	buffer_get_int32
 3857              	.LVL381:
 3858 183e 07EE900A 		fmsr	s15, r0	@ int
 3859 1842 F8EEE77A 		fsitos	s15, s15
 3860              		.loc 1 471 0
 3861 1846 6946     		mov	r1, sp
 3862              		.loc 1 470 0
 3863 1848 C7EE887A 		fdivs	s15, s15, s16
 3864              		.loc 1 471 0
 3865 184c 2046     		mov	r0, r4
 3866              		.loc 1 470 0
 3867 184e CDED0E7A 		fsts	s15, [sp, #56]
 3868              		.loc 1 471 0
 3869 1852 FFF7FEFF 		bl	buffer_get_int32
 3870              	.LVL382:
 3871 1856 07EE900A 		fmsr	s15, r0	@ int
 3872 185a F8EEE77A 		fsitos	s15, s15
 3873              		.loc 1 472 0
 3874 185e 009B     		ldr	r3, [sp]
 3875              		.loc 1 471 0
 3876 1860 C7EE887A 		fdivs	s15, s15, s16
ARM GAS  /tmp/ccq8Pe5l.s 			page 69


 3877              		.loc 1 473 0
 3878 1864 E118     		adds	r1, r4, r3
 3879              		.loc 1 472 0
 3880 1866 E25C     		ldrb	r2, [r4, r3]	@ zero_extendqisi2
 3881              		.loc 1 473 0
 3882 1868 4E78     		ldrb	r6, [r1, #1]	@ zero_extendqisi2
 3883              		.loc 1 472 0
 3884 186a 0032     		adds	r2, r2, #0
 3885 186c 18BF     		it	ne
 3886 186e 0122     		movne	r2, #1
 3887              		.loc 1 473 0
 3888 1870 0036     		adds	r6, r6, #0
 3889 1872 18BF     		it	ne
 3890 1874 0126     		movne	r6, #1
 3891 1876 0233     		adds	r3, r3, #2
 3892              		.loc 1 474 0
 3893 1878 6946     		mov	r1, sp
 3894 187a 2046     		mov	r0, r4
 3895              		.loc 1 473 0
 3896 187c 8DF84160 		strb	r6, [sp, #65]
 3897              		.loc 1 472 0
 3898 1880 8DF84020 		strb	r2, [sp, #64]
 3899              		.loc 1 473 0
 3900 1884 0093     		str	r3, [sp]
 3901              		.loc 1 471 0
 3902 1886 CDED0F7A 		fsts	s15, [sp, #60]
 3903              		.loc 1 474 0
 3904 188a FFF7FEFF 		bl	buffer_get_int32
 3905              	.LVL383:
 3906 188e 07EE900A 		fmsr	s15, r0	@ int
 3907 1892 F8EEE77A 		fsitos	s15, s15
 3908              		.loc 1 476 0
 3909 1896 009B     		ldr	r3, [sp]
 3910              		.loc 1 474 0
 3911 1898 C7EE887A 		fdivs	s15, s15, s16
 3912              		.loc 1 476 0
 3913 189c 5A19     		adds	r2, r3, r5
 3914              		.loc 1 477 0
 3915 189e 6946     		mov	r1, sp
 3916              		.loc 1 476 0
 3917 18a0 E35C     		ldrb	r3, [r4, r3]	@ zero_extendqisi2
 3918 18a2 0092     		str	r2, [sp]
 3919              		.loc 1 477 0
 3920 18a4 2046     		mov	r0, r4
 3921              		.loc 1 476 0
 3922 18a6 8DF84830 		strb	r3, [sp, #72]
 3923              		.loc 1 474 0
 3924 18aa CDED117A 		fsts	s15, [sp, #68]
 3925              		.loc 1 477 0
 3926 18ae FFF7FEFF 		bl	buffer_get_int32
 3927              	.LVL384:
 3928 18b2 07EE900A 		fmsr	s15, r0	@ int
 3929 18b6 F8EEE77A 		fsitos	s15, s15
 3930              		.loc 1 478 0
 3931 18ba 6946     		mov	r1, sp
 3932              		.loc 1 477 0
 3933 18bc C7EE887A 		fdivs	s15, s15, s16
ARM GAS  /tmp/ccq8Pe5l.s 			page 70


 3934              		.loc 1 478 0
 3935 18c0 2046     		mov	r0, r4
 3936              		.loc 1 477 0
 3937 18c2 CDED137A 		fsts	s15, [sp, #76]
 3938              		.loc 1 478 0
 3939 18c6 FFF7FEFF 		bl	buffer_get_int32
 3940              	.LVL385:
 3941 18ca 07EE900A 		fmsr	s15, r0	@ int
 3942 18ce F8EEE77A 		fsitos	s15, s15
 3943              		.loc 1 479 0
 3944 18d2 6946     		mov	r1, sp
 3945              		.loc 1 478 0
 3946 18d4 C7EE887A 		fdivs	s15, s15, s16
 3947              		.loc 1 479 0
 3948 18d8 2046     		mov	r0, r4
 3949              		.loc 1 478 0
 3950 18da CDED147A 		fsts	s15, [sp, #80]
 3951              		.loc 1 479 0
 3952 18de FFF7FEFF 		bl	buffer_get_int32
 3953              	.LVL386:
 3954 18e2 07EE900A 		fmsr	s15, r0	@ int
 3955 18e6 F8EEE77A 		fsitos	s15, s15
 3956              		.loc 1 480 0
 3957 18ea 009B     		ldr	r3, [sp]
 3958              		.loc 1 479 0
 3959 18ec C7EE887A 		fdivs	s15, s15, s16
 3960              		.loc 1 481 0
 3961 18f0 E218     		adds	r2, r4, r3
 3962              		.loc 1 480 0
 3963 18f2 E15C     		ldrb	r1, [r4, r3]	@ zero_extendqisi2
 3964              		.loc 1 481 0
 3965 18f4 92F801C0 		ldrb	ip, [r2, #1]	@ zero_extendqisi2
 3966              		.loc 1 482 0
 3967 18f8 92F802E0 		ldrb	lr, [r2, #2]	@ zero_extendqisi2
 3968              		.loc 1 483 0
 3969 18fc D778     		ldrb	r7, [r2, #3]	@ zero_extendqisi2
 3970              		.loc 1 484 0
 3971 18fe 1679     		ldrb	r6, [r2, #4]	@ zero_extendqisi2
 3972              		.loc 1 481 0
 3973 1900 1CF1000C 		adds	ip, ip, #0
 3974 1904 18BF     		it	ne
 3975 1906 4FF0010C 		movne	ip, #1
 3976              		.loc 1 482 0
 3977 190a 1EF1000E 		adds	lr, lr, #0
 3978 190e 18BF     		it	ne
 3979 1910 4FF0010E 		movne	lr, #1
 3980              		.loc 1 483 0
 3981 1914 0037     		adds	r7, r7, #0
 3982 1916 18BF     		it	ne
 3983 1918 0127     		movne	r7, #1
 3984              		.loc 1 484 0
 3985 191a 0036     		adds	r6, r6, #0
 3986 191c 18BF     		it	ne
 3987 191e 0126     		movne	r6, #1
 3988              		.loc 1 480 0
 3989 1920 0A1C     		adds	r2, r1, #0
 3990 1922 18BF     		it	ne
ARM GAS  /tmp/ccq8Pe5l.s 			page 71


 3991 1924 0122     		movne	r2, #1
 3992              		.loc 1 484 0
 3993 1926 0533     		adds	r3, r3, #5
 3994              		.loc 1 485 0
 3995 1928 6946     		mov	r1, sp
 3996 192a 2046     		mov	r0, r4
 3997              		.loc 1 481 0
 3998 192c 8DF859C0 		strb	ip, [sp, #89]
 3999              		.loc 1 482 0
 4000 1930 8DF85AE0 		strb	lr, [sp, #90]
 4001              		.loc 1 480 0
 4002 1934 8DF85820 		strb	r2, [sp, #88]
 4003              		.loc 1 484 0
 4004 1938 0093     		str	r3, [sp]
 4005              		.loc 1 479 0
 4006 193a CDED157A 		fsts	s15, [sp, #84]
 4007              		.loc 1 483 0
 4008 193e 8DF85B70 		strb	r7, [sp, #91]
 4009              		.loc 1 484 0
 4010 1942 8DF85C60 		strb	r6, [sp, #92]
 4011              		.loc 1 485 0
 4012 1946 FFF7FEFF 		bl	buffer_get_int32
 4013              	.LVL387:
 4014 194a 07EE900A 		fmsr	s15, r0	@ int
 4015 194e F8EEE77A 		fsitos	s15, s15
 4016              		.loc 1 486 0
 4017 1952 6946     		mov	r1, sp
 4018              		.loc 1 485 0
 4019 1954 C7EE887A 		fdivs	s15, s15, s16
 4020              		.loc 1 486 0
 4021 1958 2046     		mov	r0, r4
 4022              		.loc 1 485 0
 4023 195a CDED187A 		fsts	s15, [sp, #96]
 4024              		.loc 1 486 0
 4025 195e FFF7FEFF 		bl	buffer_get_int32
 4026              	.LVL388:
 4027 1962 07EE900A 		fmsr	s15, r0	@ int
 4028 1966 F8EEE77A 		fsitos	s15, s15
 4029              		.loc 1 487 0
 4030 196a 009B     		ldr	r3, [sp]
 4031              		.loc 1 486 0
 4032 196c C7EE887A 		fdivs	s15, s15, s16
 4033              		.loc 1 488 0
 4034 1970 E118     		adds	r1, r4, r3
 4035              		.loc 1 487 0
 4036 1972 E25C     		ldrb	r2, [r4, r3]	@ zero_extendqisi2
 4037              		.loc 1 488 0
 4038 1974 4E78     		ldrb	r6, [r1, #1]	@ zero_extendqisi2
 4039              		.loc 1 487 0
 4040 1976 0032     		adds	r2, r2, #0
 4041 1978 18BF     		it	ne
 4042 197a 0122     		movne	r2, #1
 4043              		.loc 1 488 0
 4044 197c 0036     		adds	r6, r6, #0
 4045 197e 18BF     		it	ne
 4046 1980 0126     		movne	r6, #1
 4047 1982 0233     		adds	r3, r3, #2
ARM GAS  /tmp/ccq8Pe5l.s 			page 72


 4048              		.loc 1 489 0
 4049 1984 6946     		mov	r1, sp
 4050 1986 2046     		mov	r0, r4
 4051              		.loc 1 487 0
 4052 1988 8DF86820 		strb	r2, [sp, #104]
 4053              		.loc 1 488 0
 4054 198c 0093     		str	r3, [sp]
 4055 198e 8DF86960 		strb	r6, [sp, #105]
 4056              		.loc 1 486 0
 4057 1992 CDED197A 		fsts	s15, [sp, #100]
 4058              		.loc 1 489 0
 4059 1996 FFF7FEFF 		bl	buffer_get_int32
 4060              	.LVL389:
 4061 199a 07EE900A 		fmsr	s15, r0	@ int
 4062 199e F8EEE77A 		fsitos	s15, s15
 4063              		.loc 1 490 0
 4064 19a2 6946     		mov	r1, sp
 4065              		.loc 1 489 0
 4066 19a4 C7EE887A 		fdivs	s15, s15, s16
 4067              		.loc 1 490 0
 4068 19a8 2046     		mov	r0, r4
 4069              		.loc 1 489 0
 4070 19aa CDED1B7A 		fsts	s15, [sp, #108]
 4071              		.loc 1 490 0
 4072 19ae FFF7FEFF 		bl	buffer_get_uint16
 4073              	.LVL390:
 4074              		.loc 1 492 0
 4075 19b2 6946     		mov	r1, sp
 4076              		.loc 1 490 0
 4077 19b4 1C90     		str	r0, [sp, #112]
 4078              		.loc 1 492 0
 4079 19b6 2046     		mov	r0, r4
 4080 19b8 FFF7FEFF 		bl	buffer_get_uint32
 4081              	.LVL391:
 4082              		.loc 1 494 0
 4083 19bc 009B     		ldr	r3, [sp]
 4084              		.loc 1 492 0
 4085 19be 1D90     		str	r0, [sp, #116]
 4086              		.loc 1 494 0
 4087 19c0 5A19     		adds	r2, r3, r5
 4088              		.loc 1 495 0
 4089 19c2 2046     		mov	r0, r4
 4090              		.loc 1 494 0
 4091 19c4 E35C     		ldrb	r3, [r4, r3]	@ zero_extendqisi2
 4092 19c6 0092     		str	r2, [sp]
 4093              		.loc 1 495 0
 4094 19c8 6946     		mov	r1, sp
 4095 19ca B0EE480A 		fcpys	s0, s16
 4096              		.loc 1 494 0
 4097 19ce 8DF87830 		strb	r3, [sp, #120]
 4098              		.loc 1 495 0
 4099 19d2 FFF7FEFF 		bl	buffer_get_float32
 4100              	.LVL392:
 4101              		.loc 1 496 0
 4102 19d6 2046     		mov	r0, r4
 4103 19d8 6946     		mov	r1, sp
 4104              		.loc 1 495 0
ARM GAS  /tmp/ccq8Pe5l.s 			page 73


 4105 19da 8DED1F0A 		fsts	s0, [sp, #124]
 4106              		.loc 1 496 0
 4107 19de B0EE480A 		fcpys	s0, s16
 4108 19e2 FFF7FEFF 		bl	buffer_get_float32
 4109              	.LVL393:
 4110              		.loc 1 497 0
 4111 19e6 2046     		mov	r0, r4
 4112 19e8 6946     		mov	r1, sp
 4113              		.loc 1 496 0
 4114 19ea 8DED200A 		fsts	s0, [sp, #128]
 4115              		.loc 1 497 0
 4116 19ee B0EE480A 		fcpys	s0, s16
 4117 19f2 FFF7FEFF 		bl	buffer_get_float32
 4118              	.LVL394:
 4119              		.loc 1 498 0
 4120 19f6 2046     		mov	r0, r4
 4121 19f8 6946     		mov	r1, sp
 4122              		.loc 1 497 0
 4123 19fa 8DED210A 		fsts	s0, [sp, #132]
 4124              		.loc 1 498 0
 4125 19fe B0EE480A 		fcpys	s0, s16
 4126 1a02 FFF7FEFF 		bl	buffer_get_float32
 4127              	.LVL395:
 4128              		.loc 1 499 0
 4129 1a06 2046     		mov	r0, r4
 4130 1a08 6946     		mov	r1, sp
 4131              		.loc 1 498 0
 4132 1a0a 8DED220A 		fsts	s0, [sp, #136]
 4133              		.loc 1 499 0
 4134 1a0e B0EE480A 		fcpys	s0, s16
 4135 1a12 FFF7FEFF 		bl	buffer_get_float32
 4136              	.LVL396:
 4137              		.loc 1 500 0
 4138 1a16 2046     		mov	r0, r4
 4139 1a18 6946     		mov	r1, sp
 4140              		.loc 1 499 0
 4141 1a1a 8DED230A 		fsts	s0, [sp, #140]
 4142              		.loc 1 500 0
 4143 1a1e B0EE480A 		fcpys	s0, s16
 4144 1a22 FFF7FEFF 		bl	buffer_get_float32
 4145              	.LVL397:
 4146              		.loc 1 501 0
 4147 1a26 009B     		ldr	r3, [sp]
 4148              		.loc 1 500 0
 4149 1a28 8DED240A 		fsts	s0, [sp, #144]
 4150              		.loc 1 502 0
 4151 1a2c E118     		adds	r1, r4, r3
 4152              		.loc 1 501 0
 4153 1a2e E25C     		ldrb	r2, [r4, r3]	@ zero_extendqisi2
 4154              		.loc 1 502 0
 4155 1a30 4E78     		ldrb	r6, [r1, #1]	@ zero_extendqisi2
 4156 1a32 0036     		adds	r6, r6, #0
 4157 1a34 18BF     		it	ne
 4158 1a36 0126     		movne	r6, #1
 4159              		.loc 1 501 0
 4160 1a38 0032     		adds	r2, r2, #0
 4161 1a3a 18BF     		it	ne
ARM GAS  /tmp/ccq8Pe5l.s 			page 74


 4162 1a3c 0122     		movne	r2, #1
 4163              		.loc 1 502 0
 4164 1a3e 0233     		adds	r3, r3, #2
 4165              		.loc 1 503 0
 4166 1a40 2046     		mov	r0, r4
 4167 1a42 6946     		mov	r1, sp
 4168 1a44 B0EE480A 		fcpys	s0, s16
 4169              		.loc 1 502 0
 4170 1a48 8DF89560 		strb	r6, [sp, #149]
 4171              		.loc 1 501 0
 4172 1a4c 8DF89420 		strb	r2, [sp, #148]
 4173              		.loc 1 502 0
 4174 1a50 0093     		str	r3, [sp]
 4175              		.loc 1 503 0
 4176 1a52 FFF7FEFF 		bl	buffer_get_float32
 4177              	.LVL398:
 4178              		.loc 1 505 0
 4179 1a56 009A     		ldr	r2, [sp]
 4180              		.loc 1 503 0
 4181 1a58 8DED260A 		fsts	s0, [sp, #152]
 4182              		.loc 1 506 0
 4183 1a5c A318     		adds	r3, r4, r2
 4184              		.loc 1 511 0
 4185 1a5e 1946     		mov	r1, r3
 4186              		.loc 1 513 0
 4187 1a60 587A     		ldrb	r0, [r3, #9]	@ zero_extendqisi2
 4188              		.loc 1 511 0
 4189 1a62 31F806EF 		ldrh	lr, [r1, #6]!	@ unaligned
 4190              		.loc 1 506 0
 4191 1a66 93F801C0 		ldrb	ip, [r3, #1]	@ zero_extendqisi2
 4192              		.loc 1 505 0
 4193 1a6a 14F80290 		ldrb	r9, [r4, r2]	@ zero_extendqisi2
 4194              		.loc 1 511 0
 4195 1a6e 91F80280 		ldrb	r8, [r1, #2]	@ zero_extendqisi2
 4196              	.LVL399:
 4197              		.loc 1 507 0
 4198 1a72 9F78     		ldrb	r7, [r3, #2]	@ zero_extendqisi2
 4199              		.loc 1 510 0
 4200 1a74 5979     		ldrb	r1, [r3, #5]	@ zero_extendqisi2
 4201              		.loc 1 508 0
 4202 1a76 DE78     		ldrb	r6, [r3, #3]	@ zero_extendqisi2
 4203              		.loc 1 509 0
 4204 1a78 1C79     		ldrb	r4, [r3, #4]	@ zero_extendqisi2
 4205              	.LVL400:
 4206              		.loc 1 511 0
 4207 1a7a ADF8A2E0 		strh	lr, [sp, #162]	@ unaligned
 4208              		.loc 1 513 0
 4209 1a7e 031C     		adds	r3, r0, #0
 4210 1a80 02F10A02 		add	r2, r2, #10
 4211 1a84 18BF     		it	ne
 4212 1a86 0123     		movne	r3, #1
 4213              		.loc 1 515 0
 4214 1a88 02A8     		add	r0, sp, #8
 4215              		.loc 1 513 0
 4216 1a8a 0092     		str	r2, [sp]
 4217 1a8c 8DF8A530 		strb	r3, [sp, #165]
 4218              		.loc 1 506 0
ARM GAS  /tmp/ccq8Pe5l.s 			page 75


 4219 1a90 8DF89DC0 		strb	ip, [sp, #157]
 4220              		.loc 1 510 0
 4221 1a94 8DF8A110 		strb	r1, [sp, #161]
 4222              		.loc 1 505 0
 4223 1a98 8DF89C90 		strb	r9, [sp, #156]
 4224              		.loc 1 511 0
 4225 1a9c 8DF8A480 		strb	r8, [sp, #164]
 4226              		.loc 1 507 0
 4227 1aa0 8DF89E70 		strb	r7, [sp, #158]
 4228              		.loc 1 508 0
 4229 1aa4 8DF89F60 		strb	r6, [sp, #159]
 4230              		.loc 1 509 0
 4231 1aa8 8DF8A040 		strb	r4, [sp, #160]
 4232              		.loc 1 515 0
 4233 1aac FFF7FEFF 		bl	conf_general_store_app_configuration
 4234              	.LVL401:
 4235              		.loc 1 516 0
 4236 1ab0 02A8     		add	r0, sp, #8
 4237 1ab2 FFF7FEFF 		bl	app_set_configuration
 4238              	.LVL402:
 4239              		.loc 1 517 0
 4240 1ab6 0398     		ldr	r0, [sp, #12]
 4241 1ab8 9DED040A 		flds	s0, [sp, #16]
 4242 1abc FFF7FEFF 		bl	timeout_configure
 4243              	.LVL403:
 4244              	.LBB141:
 4245              	.LBB142:
 4246              		.loc 1 94 0
 4247 1ac0 154B     		ldr	r3, .L158
 4248              	.LBE142:
 4249              	.LBE141:
 4250              		.loc 1 520 0
 4251 1ac2 1648     		ldr	r0, .L158+4
 4252              	.LBB145:
 4253              	.LBB143:
 4254              		.loc 1 94 0
 4255 1ac4 1B68     		ldr	r3, [r3]
 4256              	.LBE143:
 4257              	.LBE145:
 4258              		.loc 1 520 0
 4259 1ac6 0095     		str	r5, [sp]
 4260 1ac8 0F22     		movs	r2, #15
 4261 1aca 0270     		strb	r2, [r0]
 4262              	.LVL404:
 4263              	.LBB146:
 4264              	.LBB144:
 4265              		.loc 1 94 0
 4266 1acc 002B     		cmp	r3, #0
 4267 1ace 3EF45EAC 		beq	.L24
 4268              	.LBE144:
 4269              	.LBE146:
 4270              		.loc 1 782 0
 4271 1ad2 2946     		mov	r1, r5
 4272 1ad4 FEF79EBE 		b	.L125
 4273              	.LVL405:
 4274              	.L138:
 4275 1ad8 9DED010A 		flds	s0, [sp, #4]
ARM GAS  /tmp/ccq8Pe5l.s 			page 76


 4276 1adc FFF717B8 		b	.L67
 4277              	.LVL406:
 4278              	.L137:
 4279 1ae0 9DED020A 		flds	s0, [sp, #8]
 4280 1ae4 FEF7BCBF 		b	.L70
 4281              	.LVL407:
 4282              	.L135:
 4283              		.loc 1 527 0
 4284 1ae8 FFF7FEFF 		bl	app_get_configuration
 4285              	.LVL408:
 4286 1aec A022     		movs	r2, #160
 4287 1aee 0146     		mov	r1, r0
 4288 1af0 02A8     		add	r0, sp, #8
 4289 1af2 FFF7FEFF 		bl	memcpy
 4290              	.LVL409:
 4291 1af6 FEF7C2BA 		b	.L65
 4292              	.LVL410:
 4293              	.L136:
 4294              		.loc 1 226 0
 4295 1afa FFF7FEFF 		bl	mc_interface_release_motor
 4296              	.LVL411:
 4297 1afe FEF762BC 		b	.L51
 4298              	.LVL412:
 4299              	.L139:
 4300              		.loc 1 355 0
 4301 1b02 FFF7FEFF 		bl	mc_interface_get_configuration
 4302              	.LVL413:
 4303 1b06 4FF49872 		mov	r2, #304
 4304 1b0a 0146     		mov	r1, r0
 4305 1b0c 0448     		ldr	r0, .L158+8
 4306 1b0e FFF7FEFF 		bl	memcpy
 4307              	.LVL414:
 4308 1b12 FFF72AB8 		b	.L63
 4309              	.L159:
 4310 1b16 00BF     		.align	2
 4311              	.L158:
 4312 1b18 00000000 		.word	.LANCHOR9
 4313 1b1c 00000000 		.word	.LANCHOR8
 4314 1b20 00000000 		.word	.LANCHOR11
 4315              		.cfi_endproc
 4316              	.LFE259:
 4317              		.size	commands_process_packet, .-commands_process_packet
 4318              		.section	.text.commands_printf,"ax",%progbits
 4319              		.align	2
 4320              		.p2align 4,,15
 4321              		.global	commands_printf
 4322              		.thumb
 4323              		.thumb_func
 4324              		.type	commands_printf, %function
 4325              	commands_printf:
 4326              	.LFB260:
 4327              		.loc 1 791 0
 4328              		.cfi_startproc
 4329              		@ args = 4, pretend = 16, frame = 8
 4330              		@ frame_needed = 0, uses_anonymous_args = 1
 4331              	.LVL415:
 4332 0000 0FB4     		push	{r0, r1, r2, r3}
ARM GAS  /tmp/ccq8Pe5l.s 			page 77


 4333              		.cfi_def_cfa_offset 16
 4334              		.cfi_offset 0, -16
 4335              		.cfi_offset 1, -12
 4336              		.cfi_offset 2, -8
 4337              		.cfi_offset 3, -4
 4338 0002 00B5     		push	{lr}
 4339              		.cfi_def_cfa_offset 20
 4340              		.cfi_offset 14, -20
 4341 0004 83B0     		sub	sp, sp, #12
 4342              		.cfi_def_cfa_offset 32
 4343              		.loc 1 791 0
 4344 0006 04AB     		add	r3, sp, #16
 4345              		.loc 1 797 0
 4346 0008 0C48     		ldr	r0, .L168
 4347              		.loc 1 791 0
 4348 000a 53F8042B 		ldr	r2, [r3], #4
 4349              		.loc 1 793 0
 4350 000e 0193     		str	r3, [sp, #4]
 4351              		.loc 1 797 0
 4352 0010 1421     		movs	r1, #20
 4353 0012 00F8011B 		strb	r1, [r0], #1
 4354              		.loc 1 798 0
 4355 0016 FE21     		movs	r1, #254
 4356 0018 FFF7FEFF 		bl	vsnprintf
 4357              	.LVL416:
 4358              		.loc 1 801 0
 4359 001c 0028     		cmp	r0, #0
 4360 001e 08DD     		ble	.L160
 4361              	.LVL417:
 4362              	.LBB147:
 4363              	.LBB148:
 4364              		.loc 1 94 0
 4365 0020 074B     		ldr	r3, .L168+4
 4366 0022 1B68     		ldr	r3, [r3]
 4367              	.LBE148:
 4368              	.LBE147:
 4369              		.loc 1 802 0
 4370 0024 FD28     		cmp	r0, #253
 4371 0026 D4BF     		ite	le
 4372 0028 411C     		addle	r1, r0, #1
 4373 002a FF21     		movgt	r1, #255
 4374              	.LVL418:
 4375              	.LBB150:
 4376              	.LBB149:
 4377              		.loc 1 94 0
 4378 002c 0BB1     		cbz	r3, .L160
 4379              		.loc 1 95 0
 4380 002e 0348     		ldr	r0, .L168
 4381              	.LVL419:
 4382 0030 9847     		blx	r3
 4383              	.LVL420:
 4384              	.L160:
 4385              	.LBE149:
 4386              	.LBE150:
 4387              		.loc 1 804 0
 4388 0032 03B0     		add	sp, sp, #12
 4389              		.cfi_def_cfa_offset 20
ARM GAS  /tmp/ccq8Pe5l.s 			page 78


 4390              		@ sp needed
 4391 0034 5DF804EB 		ldr	lr, [sp], #4
 4392              		.cfi_restore 14
 4393              		.cfi_def_cfa_offset 16
 4394 0038 04B0     		add	sp, sp, #16
 4395              		.cfi_restore 3
 4396              		.cfi_restore 2
 4397              		.cfi_restore 1
 4398              		.cfi_restore 0
 4399              		.cfi_def_cfa_offset 0
 4400 003a 7047     		bx	lr
 4401              	.L169:
 4402              		.align	2
 4403              	.L168:
 4404 003c 00000000 		.word	.LANCHOR15
 4405 0040 00000000 		.word	.LANCHOR9
 4406              		.cfi_endproc
 4407              	.LFE260:
 4408              		.size	commands_printf, .-commands_printf
 4409              		.section	.text.commands_send_samples,"ax",%progbits
 4410              		.align	2
 4411              		.p2align 4,,15
 4412              		.global	commands_send_samples
 4413              		.thumb
 4414              		.thumb_func
 4415              		.type	commands_send_samples, %function
 4416              	commands_send_samples:
 4417              	.LFB261:
 4418              		.loc 1 806 0
 4419              		.cfi_startproc
 4420              		@ args = 0, pretend = 0, frame = 0
 4421              		@ frame_needed = 1, uses_anonymous_args = 0
 4422              	.LVL421:
 4423 0000 F8B5     		push	{r3, r4, r5, r6, r7, lr}
 4424              		.cfi_def_cfa_offset 24
 4425              		.cfi_offset 3, -24
 4426              		.cfi_offset 4, -20
 4427              		.cfi_offset 5, -16
 4428              		.cfi_offset 6, -12
 4429              		.cfi_offset 7, -8
 4430              		.cfi_offset 14, -4
 4431              		.loc 1 807 0
 4432 0002 01F10803 		add	r3, r1, #8
 4433 0006 23F00703 		bic	r3, r3, #7
 4434              		.loc 1 806 0
 4435 000a 00AF     		add	r7, sp, #0
 4436              		.cfi_def_cfa_register 7
 4437              		.loc 1 807 0
 4438 000c ADEB030D 		sub	sp, sp, r3
 4439              	.LBB151:
 4440              		.loc 1 812 0
 4441 0010 0029     		cmp	r1, #0
 4442              	.LBE151:
 4443              		.loc 1 810 0
 4444 0012 4FF01203 		mov	r3, #18
 4445 0016 8DF80030 		strb	r3, [sp]
 4446              		.loc 1 807 0
ARM GAS  /tmp/ccq8Pe5l.s 			page 79


 4447 001a 6E46     		mov	r6, sp
 4448              	.LVL422:
 4449              	.LBB152:
 4450              		.loc 1 812 0
 4451 001c 11DD     		ble	.L174
 4452 001e 421E     		subs	r2, r0, #1
 4453 0020 6B46     		mov	r3, sp
 4454 0022 0DEB0105 		add	r5, sp, r1
 4455              	.LVL423:
 4456              	.L172:
 4457              		.loc 1 813 0 discriminator 3
 4458 0026 12F8014F 		ldrb	r4, [r2, #1]!	@ zero_extendqisi2
 4459              	.LVL424:
 4460 002a 03F8014F 		strb	r4, [r3, #1]!
 4461              	.LVL425:
 4462              		.loc 1 812 0 discriminator 3
 4463 002e AB42     		cmp	r3, r5
 4464 0030 F9D1     		bne	.L172
 4465 0032 0131     		adds	r1, r1, #1
 4466              	.LVL426:
 4467              	.L171:
 4468              	.LBE152:
 4469              	.LBB153:
 4470              	.LBB154:
 4471              		.loc 1 94 0
 4472 0034 044B     		ldr	r3, .L180
 4473 0036 1B68     		ldr	r3, [r3]
 4474 0038 0BB1     		cbz	r3, .L170
 4475 003a 3046     		mov	r0, r6
 4476              	.LVL427:
 4477              		.loc 1 95 0
 4478 003c 9847     		blx	r3
 4479              	.LVL428:
 4480              	.L170:
 4481              	.LBE154:
 4482              	.LBE153:
 4483              		.loc 1 817 0
 4484 003e BD46     		mov	sp, r7
 4485              		.cfi_remember_state
 4486              		.cfi_def_cfa_register 13
 4487              		@ sp needed
 4488 0040 F8BD     		pop	{r3, r4, r5, r6, r7, pc}
 4489              	.LVL429:
 4490              	.L174:
 4491              		.cfi_restore_state
 4492              	.LBB155:
 4493              		.loc 1 812 0
 4494 0042 0121     		movs	r1, #1
 4495              	.LVL430:
 4496 0044 F6E7     		b	.L171
 4497              	.L181:
 4498 0046 00BF     		.align	2
 4499              	.L180:
 4500 0048 00000000 		.word	.LANCHOR9
 4501              	.LBE155:
 4502              		.cfi_endproc
 4503              	.LFE261:
ARM GAS  /tmp/ccq8Pe5l.s 			page 80


 4504              		.size	commands_send_samples, .-commands_send_samples
 4505              		.section	.text.commands_send_rotor_pos,"ax",%progbits
 4506              		.align	2
 4507              		.p2align 4,,15
 4508              		.global	commands_send_rotor_pos
 4509              		.thumb
 4510              		.thumb_func
 4511              		.type	commands_send_rotor_pos, %function
 4512              	commands_send_rotor_pos:
 4513              	.LFB262:
 4514              		.loc 1 819 0
 4515              		.cfi_startproc
 4516              		@ args = 0, pretend = 0, frame = 16
 4517              		@ frame_needed = 0, uses_anonymous_args = 0
 4518              	.LVL431:
 4519 0000 10B5     		push	{r4, lr}
 4520              		.cfi_def_cfa_offset 8
 4521              		.cfi_offset 4, -8
 4522              		.cfi_offset 14, -4
 4523              		.loc 1 824 0
 4524 0002 DFED0D7A 		flds	s15, .L188
 4525              		.loc 1 819 0
 4526 0006 84B0     		sub	sp, sp, #16
 4527              		.cfi_def_cfa_offset 24
 4528              		.loc 1 823 0
 4529 0008 04AC     		add	r4, sp, #16
 4530              		.loc 1 824 0
 4531 000a 20EE270A 		fmuls	s0, s0, s15
 4532              	.LVL432:
 4533              		.loc 1 823 0
 4534 000e 1523     		movs	r3, #21
 4535 0010 04F8083D 		strb	r3, [r4, #-8]!
 4536              		.loc 1 824 0
 4537 0014 FDEEC07A 		ftosizs	s15, s0
 4538              		.loc 1 823 0
 4539 0018 0123     		movs	r3, #1
 4540              		.loc 1 824 0
 4541 001a 17EE901A 		fmrs	r1, s15	@ int
 4542 001e 2046     		mov	r0, r4
 4543 0020 01AA     		add	r2, sp, #4
 4544              		.loc 1 823 0
 4545 0022 0193     		str	r3, [sp, #4]
 4546              		.loc 1 824 0
 4547 0024 FFF7FEFF 		bl	buffer_append_int32
 4548              	.LVL433:
 4549              	.LBB156:
 4550              	.LBB157:
 4551              		.loc 1 94 0
 4552 0028 044B     		ldr	r3, .L188+4
 4553              	.LBE157:
 4554              	.LBE156:
 4555              		.loc 1 826 0
 4556 002a 0199     		ldr	r1, [sp, #4]
 4557              	.LVL434:
 4558              	.LBB159:
 4559              	.LBB158:
 4560              		.loc 1 94 0
ARM GAS  /tmp/ccq8Pe5l.s 			page 81


 4561 002c 1B68     		ldr	r3, [r3]
 4562 002e 0BB1     		cbz	r3, .L182
 4563              		.loc 1 95 0
 4564 0030 2046     		mov	r0, r4
 4565 0032 9847     		blx	r3
 4566              	.LVL435:
 4567              	.L182:
 4568              	.LBE158:
 4569              	.LBE159:
 4570              		.loc 1 827 0
 4571 0034 04B0     		add	sp, sp, #16
 4572              		.cfi_def_cfa_offset 8
 4573              		@ sp needed
 4574 0036 10BD     		pop	{r4, pc}
 4575              	.LVL436:
 4576              	.L189:
 4577              		.align	2
 4578              	.L188:
 4579 0038 0050C347 		.word	1203982336
 4580 003c 00000000 		.word	.LANCHOR9
 4581              		.cfi_endproc
 4582              	.LFE262:
 4583              		.size	commands_send_rotor_pos, .-commands_send_rotor_pos
 4584              		.section	.text.commands_send_experiment_samples,"ax",%progbits
 4585              		.align	2
 4586              		.p2align 4,,15
 4587              		.global	commands_send_experiment_samples
 4588              		.thumb
 4589              		.thumb_func
 4590              		.type	commands_send_experiment_samples, %function
 4591              	commands_send_experiment_samples:
 4592              	.LFB263:
 4593              		.loc 1 829 0
 4594              		.cfi_startproc
 4595              		@ args = 0, pretend = 0, frame = 8
 4596              		@ frame_needed = 1, uses_anonymous_args = 0
 4597              	.LVL437:
 4598              		.loc 1 830 0
 4599 0000 8B00     		lsls	r3, r1, #2
 4600 0002 FF2B     		cmp	r3, #255
 4601 0004 34DC     		bgt	.L202
 4602              	.LVL438:
 4603              		.loc 1 829 0
 4604 0006 2DE9F043 		push	{r4, r5, r6, r7, r8, r9, lr}
 4605              		.cfi_def_cfa_offset 28
 4606              		.cfi_offset 4, -28
 4607              		.cfi_offset 5, -24
 4608              		.cfi_offset 6, -20
 4609              		.cfi_offset 7, -16
 4610              		.cfi_offset 8, -12
 4611              		.cfi_offset 9, -8
 4612              		.cfi_offset 14, -4
 4613 000a 2DED028B 		fstmfdd	sp!, {d8}
 4614              		.cfi_def_cfa_offset 36
 4615              		.cfi_offset 80, -36
 4616              		.cfi_offset 81, -32
 4617              		.loc 1 834 0
ARM GAS  /tmp/ccq8Pe5l.s 			page 82


 4618 000e 0833     		adds	r3, r3, #8
 4619              	.LVL439:
 4620              		.loc 1 829 0
 4621 0010 83B0     		sub	sp, sp, #12
 4622              		.cfi_def_cfa_offset 48
 4623              		.loc 1 834 0
 4624 0012 23F00703 		bic	r3, r3, #7
 4625              	.LVL440:
 4626              		.loc 1 829 0
 4627 0016 0E46     		mov	r6, r1
 4628 0018 00AF     		add	r7, sp, #0
 4629              		.cfi_def_cfa_register 7
 4630 001a E946     		mov	r9, sp
 4631              		.loc 1 834 0
 4632 001c ADEB030D 		sub	sp, sp, r3
 4633              		.loc 1 837 0
 4634 0020 0121     		movs	r1, #1
 4635              	.LVL441:
 4636 0022 1623     		movs	r3, #22
 4637              	.LBB160:
 4638              		.loc 1 839 0
 4639 0024 002E     		cmp	r6, #0
 4640              	.LBE160:
 4641              		.loc 1 837 0
 4642 0026 8DF80030 		strb	r3, [sp]
 4643              		.loc 1 834 0
 4644 002a E846     		mov	r8, sp
 4645              	.LVL442:
 4646              		.loc 1 837 0
 4647 002c 7960     		str	r1, [r7, #4]
 4648              	.LBB161:
 4649              		.loc 1 839 0
 4650 002e 13DD     		ble	.L192
 4651              		.loc 1 840 0
 4652 0030 9FED108A 		flds	s16, .L203
 4653 0034 0546     		mov	r5, r0
 4654              		.loc 1 839 0
 4655 0036 0024     		movs	r4, #0
 4656              	.LVL443:
 4657              	.L193:
 4658              		.loc 1 840 0 discriminator 3
 4659 0038 F5EC017A 		fldmias	r5!, {s15}
 4660 003c 67EE887A 		fmuls	s15, s15, s16
 4661              		.loc 1 839 0 discriminator 3
 4662 0040 0134     		adds	r4, r4, #1
 4663              	.LVL444:
 4664              		.loc 1 840 0 discriminator 3
 4665 0042 FDEEE77A 		ftosizs	s15, s15
 4666 0046 4046     		mov	r0, r8
 4667 0048 17EE901A 		fmrs	r1, s15	@ int
 4668 004c 3A1D     		adds	r2, r7, #4
 4669 004e FFF7FEFF 		bl	buffer_append_int32
 4670              	.LVL445:
 4671              		.loc 1 839 0 discriminator 3
 4672 0052 B442     		cmp	r4, r6
 4673 0054 F0D1     		bne	.L193
 4674 0056 7968     		ldr	r1, [r7, #4]
ARM GAS  /tmp/ccq8Pe5l.s 			page 83


 4675              	.LVL446:
 4676              	.L192:
 4677              	.LBE161:
 4678              	.LBB162:
 4679              	.LBB163:
 4680              		.loc 1 94 0
 4681 0058 074B     		ldr	r3, .L203+4
 4682 005a 1B68     		ldr	r3, [r3]
 4683 005c 0BB1     		cbz	r3, .L194
 4684              		.loc 1 95 0
 4685 005e 4046     		mov	r0, r8
 4686 0060 9847     		blx	r3
 4687              	.LVL447:
 4688              	.L194:
 4689              	.LBE163:
 4690              	.LBE162:
 4691              		.loc 1 844 0
 4692 0062 0C37     		adds	r7, r7, #12
 4693              		.cfi_def_cfa_offset 36
 4694 0064 CD46     		mov	sp, r9
 4695 0066 BD46     		mov	sp, r7
 4696              		.cfi_def_cfa_register 13
 4697              		@ sp needed
 4698 0068 BDEC028B 		fldmfdd	sp!, {d8}
 4699              		.cfi_restore 80
 4700              		.cfi_restore 81
 4701              		.cfi_def_cfa_offset 28
 4702 006c BDE8F083 		pop	{r4, r5, r6, r7, r8, r9, pc}
 4703              	.LVL448:
 4704              	.L202:
 4705              		.cfi_def_cfa_offset 0
 4706              		.cfi_restore 4
 4707              		.cfi_restore 5
 4708              		.cfi_restore 6
 4709              		.cfi_restore 7
 4710              		.cfi_restore 8
 4711              		.cfi_restore 9
 4712              		.cfi_restore 14
 4713 0070 7047     		bx	lr
 4714              	.L204:
 4715 0072 00BF     		.align	2
 4716              	.L203:
 4717 0074 00401C46 		.word	1176256512
 4718 0078 00000000 		.word	.LANCHOR9
 4719              		.cfi_endproc
 4720              	.LFE263:
 4721              		.size	commands_send_experiment_samples, .-commands_send_experiment_samples
 4722              		.section	.text.commands_get_disp_pos_mode,"ax",%progbits
 4723              		.align	2
 4724              		.p2align 4,,15
 4725              		.global	commands_get_disp_pos_mode
 4726              		.thumb
 4727              		.thumb_func
 4728              		.type	commands_get_disp_pos_mode, %function
 4729              	commands_get_disp_pos_mode:
 4730              	.LFB264:
 4731              		.loc 1 846 0
ARM GAS  /tmp/ccq8Pe5l.s 			page 84


 4732              		.cfi_startproc
 4733              		@ args = 0, pretend = 0, frame = 0
 4734              		@ frame_needed = 0, uses_anonymous_args = 0
 4735              		@ link register save eliminated.
 4736              		.loc 1 847 0
 4737 0000 014B     		ldr	r3, .L206
 4738              		.loc 1 848 0
 4739 0002 1878     		ldrb	r0, [r3]	@ zero_extendqisi2
 4740 0004 7047     		bx	lr
 4741              	.L207:
 4742 0006 00BF     		.align	2
 4743              	.L206:
 4744 0008 00000000 		.word	.LANCHOR12
 4745              		.cfi_endproc
 4746              	.LFE264:
 4747              		.size	commands_get_disp_pos_mode, .-commands_get_disp_pos_mode
 4748              		.section	.text.commands_set_app_data_handler,"ax",%progbits
 4749              		.align	2
 4750              		.p2align 4,,15
 4751              		.global	commands_set_app_data_handler
 4752              		.thumb
 4753              		.thumb_func
 4754              		.type	commands_set_app_data_handler, %function
 4755              	commands_set_app_data_handler:
 4756              	.LFB265:
 4757              		.loc 1 850 0
 4758              		.cfi_startproc
 4759              		@ args = 0, pretend = 0, frame = 0
 4760              		@ frame_needed = 0, uses_anonymous_args = 0
 4761              		@ link register save eliminated.
 4762              	.LVL449:
 4763              		.loc 1 851 0
 4764 0000 014B     		ldr	r3, .L209
 4765 0002 1860     		str	r0, [r3]
 4766 0004 7047     		bx	lr
 4767              	.L210:
 4768 0006 00BF     		.align	2
 4769              	.L209:
 4770 0008 00000000 		.word	.LANCHOR14
 4771              		.cfi_endproc
 4772              	.LFE265:
 4773              		.size	commands_set_app_data_handler, .-commands_set_app_data_handler
 4774              		.section	.text.commands_send_app_data,"ax",%progbits
 4775              		.align	2
 4776              		.p2align 4,,15
 4777              		.global	commands_send_app_data
 4778              		.thumb
 4779              		.thumb_func
 4780              		.type	commands_send_app_data, %function
 4781              	commands_send_app_data:
 4782              	.LFB266:
 4783              		.loc 1 854 0
 4784              		.cfi_startproc
 4785              		@ args = 0, pretend = 0, frame = 0
 4786              		@ frame_needed = 0, uses_anonymous_args = 0
 4787              	.LVL450:
 4788 0000 70B5     		push	{r4, r5, r6, lr}
ARM GAS  /tmp/ccq8Pe5l.s 			page 85


 4789              		.cfi_def_cfa_offset 16
 4790              		.cfi_offset 4, -16
 4791              		.cfi_offset 5, -12
 4792              		.cfi_offset 6, -8
 4793              		.cfi_offset 14, -4
 4794              		.loc 1 857 0
 4795 0002 0A4D     		ldr	r5, .L214
 4796              		.loc 1 854 0
 4797 0004 0246     		mov	r2, r0
 4798              		.loc 1 857 0
 4799 0006 2846     		mov	r0, r5
 4800              	.LVL451:
 4801              		.loc 1 854 0
 4802 0008 0C46     		mov	r4, r1
 4803              		.loc 1 857 0
 4804 000a 2323     		movs	r3, #35
 4805              		.loc 1 858 0
 4806 000c 1146     		mov	r1, r2
 4807              	.LVL452:
 4808              		.loc 1 857 0
 4809 000e 00F8013B 		strb	r3, [r0], #1
 4810              		.loc 1 858 0
 4811 0012 2246     		mov	r2, r4
 4812              	.LVL453:
 4813 0014 FFF7FEFF 		bl	memcpy
 4814              	.LVL454:
 4815              	.LBB164:
 4816              	.LBB165:
 4817              		.loc 1 94 0
 4818 0018 054B     		ldr	r3, .L214+4
 4819 001a 1B68     		ldr	r3, [r3]
 4820              	.LBE165:
 4821              	.LBE164:
 4822              		.loc 1 859 0
 4823 001c 611C     		adds	r1, r4, #1
 4824              	.LVL455:
 4825              	.LBB168:
 4826              	.LBB166:
 4827              		.loc 1 94 0
 4828 001e 1BB1     		cbz	r3, .L211
 4829              		.loc 1 95 0
 4830 0020 2846     		mov	r0, r5
 4831              	.LBE166:
 4832              	.LBE168:
 4833              		.loc 1 862 0
 4834 0022 BDE87040 		pop	{r4, r5, r6, lr}
 4835              		.cfi_remember_state
 4836              		.cfi_restore 14
 4837              		.cfi_restore 6
 4838              		.cfi_restore 5
 4839              		.cfi_restore 4
 4840              		.cfi_def_cfa_offset 0
 4841              	.LVL456:
 4842              	.LBB169:
 4843              	.LBB167:
 4844              		.loc 1 95 0
 4845 0026 1847     		bx	r3	@ indirect register sibling call
ARM GAS  /tmp/ccq8Pe5l.s 			page 86


 4846              	.LVL457:
 4847              	.L211:
 4848              		.cfi_restore_state
 4849 0028 70BD     		pop	{r4, r5, r6, pc}
 4850              	.LVL458:
 4851              	.L215:
 4852 002a 00BF     		.align	2
 4853              	.L214:
 4854 002c 00000000 		.word	.LANCHOR8
 4855 0030 00000000 		.word	.LANCHOR9
 4856              	.LBE167:
 4857              	.LBE169:
 4858              		.cfi_endproc
 4859              	.LFE266:
 4860              		.size	commands_send_app_data, .-commands_send_app_data
 4861              		.section	.bss.send_func,"aw",%nobits
 4862              		.align	2
 4863              		.set	.LANCHOR9,. + 0
 4864              		.type	send_func, %object
 4865              		.size	send_func, 4
 4866              	send_func:
 4867 0000 00000000 		.space	4
 4868              		.section	.bss.detect_min_rpm,"aw",%nobits
 4869              		.align	2
 4870              		.set	.LANCHOR2,. + 0
 4871              		.type	detect_min_rpm, %object
 4872              		.size	detect_min_rpm, 4
 4873              	detect_min_rpm:
 4874 0000 00000000 		.space	4
 4875              		.section	.bss.appdata_func,"aw",%nobits
 4876              		.align	2
 4877              		.set	.LANCHOR14,. + 0
 4878              		.type	appdata_func, %object
 4879              		.size	appdata_func, 4
 4880              	appdata_func:
 4881 0000 00000000 		.space	4
 4882              		.section	.bss.detect_hall_table,"aw",%nobits
 4883              		.align	2
 4884              		.set	.LANCHOR6,. + 0
 4885              		.type	detect_hall_table, %object
 4886              		.size	detect_hall_table, 8
 4887              	detect_hall_table:
 4888 0000 00000000 		.space	8
 4888      00000000 
 4889              		.section	.bss.mcconf.11176,"aw",%nobits
 4890              		.align	2
 4891              		.set	.LANCHOR11,. + 0
 4892              		.type	mcconf.11176, %object
 4893              		.size	mcconf.11176, 304
 4894              	mcconf.11176:
 4895 0000 00000000 		.space	304
 4895      00000000 
 4895      00000000 
 4895      00000000 
 4895      00000000 
 4896              		.section	.bss.mcconf_old.11177,"aw",%nobits
 4897              		.align	2
ARM GAS  /tmp/ccq8Pe5l.s 			page 87


 4898              		.set	.LANCHOR13,. + 0
 4899              		.type	mcconf_old.11177, %object
 4900              		.size	mcconf_old.11177, 304
 4901              	mcconf_old.11177:
 4902 0000 00000000 		.space	304
 4902      00000000 
 4902      00000000 
 4902      00000000 
 4902      00000000 
 4903              		.section	.bss.detect_hall_res,"aw",%nobits
 4904              		.align	2
 4905              		.set	.LANCHOR7,. + 0
 4906              		.type	detect_hall_res, %object
 4907              		.size	detect_hall_res, 4
 4908              	detect_hall_res:
 4909 0000 00000000 		.space	4
 4910              		.section	.bss.detect_thread_wa,"aw",%nobits
 4911              		.align	3
 4912              		.set	.LANCHOR10,. + 0
 4913              		.type	detect_thread_wa, %object
 4914              		.size	detect_thread_wa, 2456
 4915              	detect_thread_wa:
 4916 0000 00000000 		.space	2456
 4916      00000000 
 4916      00000000 
 4916      00000000 
 4916      00000000 
 4917              		.section	.bss.send_buffer,"aw",%nobits
 4918              		.align	2
 4919              		.set	.LANCHOR8,. + 0
 4920              		.type	send_buffer, %object
 4921              		.size	send_buffer, 1024
 4922              	send_buffer:
 4923 0000 00000000 		.space	1024
 4923      00000000 
 4923      00000000 
 4923      00000000 
 4923      00000000 
 4924              		.section	.rodata.str1.4,"aMS",%progbits,1
 4925              		.align	2
 4926              	.LC0:
 4927 0000 44657465 		.ascii	"Detect\000"
 4927      637400
 4928              		.section	.bss.detect_tp,"aw",%nobits
 4929              		.align	2
 4930              		.set	.LANCHOR0,. + 0
 4931              		.type	detect_tp, %object
 4932              		.size	detect_tp, 4
 4933              	detect_tp:
 4934 0000 00000000 		.space	4
 4935              		.section	.bss.detect_low_duty,"aw",%nobits
 4936              		.align	2
 4937              		.set	.LANCHOR3,. + 0
 4938              		.type	detect_low_duty, %object
 4939              		.size	detect_low_duty, 4
 4940              	detect_low_duty:
 4941 0000 00000000 		.space	4
ARM GAS  /tmp/ccq8Pe5l.s 			page 88


 4942              		.section	.bss.print_buffer.11235,"aw",%nobits
 4943              		.align	2
 4944              		.set	.LANCHOR15,. + 0
 4945              		.type	print_buffer.11235, %object
 4946              		.size	print_buffer.11235, 255
 4947              	print_buffer.11235:
 4948 0000 00000000 		.space	255
 4948      00000000 
 4948      00000000 
 4948      00000000 
 4948      00000000 
 4949              		.section	.bss.detect_current,"aw",%nobits
 4950              		.align	2
 4951              		.set	.LANCHOR1,. + 0
 4952              		.type	detect_current, %object
 4953              		.size	detect_current, 4
 4954              	detect_current:
 4955 0000 00000000 		.space	4
 4956              		.section	.bss.detect_coupling_k,"aw",%nobits
 4957              		.align	2
 4958              		.set	.LANCHOR5,. + 0
 4959              		.type	detect_coupling_k, %object
 4960              		.size	detect_coupling_k, 4
 4961              	detect_coupling_k:
 4962 0000 00000000 		.space	4
 4963              		.section	.bss.detect_cycle_int_limit,"aw",%nobits
 4964              		.align	2
 4965              		.set	.LANCHOR4,. + 0
 4966              		.type	detect_cycle_int_limit, %object
 4967              		.size	detect_cycle_int_limit, 4
 4968              	detect_cycle_int_limit:
 4969 0000 00000000 		.space	4
 4970              		.section	.bss.display_position_mode,"aw",%nobits
 4971              		.set	.LANCHOR12,. + 0
 4972              		.type	display_position_mode, %object
 4973              		.size	display_position_mode, 1
 4974              	display_position_mode:
 4975 0000 00       		.space	1
 4976              		.text
 4977              	.Letext0:
 4978              		.file 4 "/usr/arm-none-eabi/include/machine/_default_types.h"
 4979              		.file 5 "/usr/arm-none-eabi/include/sys/_stdint.h"
 4980              		.file 6 "/usr/lib/gcc/arm-none-eabi/4.9.3/include/stddef.h"
 4981              		.file 7 "ChibiOS_3.0.2/os/rt/ports/ARMCMx/compilers/GCC/chtypes.h"
 4982              		.file 8 "ChibiOS_3.0.2/os/rt/include/chsystypes.h"
 4983              		.file 9 "ChibiOS_3.0.2/os/rt/include/chschd.h"
 4984              		.file 10 "ChibiOS_3.0.2/os/rt/ports/ARMCMx/chcore.h"
 4985              		.file 11 "ChibiOS_3.0.2/os/rt/ports/ARMCMx/chcore_v7m.h"
 4986              		.file 12 "ChibiOS_3.0.2/os/rt/include/chtm.h"
 4987              		.file 13 "ChibiOS_3.0.2/os/rt/include/chsem.h"
 4988              		.file 14 "ChibiOS_3.0.2/os/rt/include/chmtx.h"
 4989              		.file 15 "ChibiOS_3.0.2/os/rt/include/chthreads.h"
 4990              		.file 16 "datatypes.h"
 4991              		.file 17 "ChibiOS_3.0.2/ext/stdperiph_stm32f4/inc/stm32f4xx_flash.h"
 4992              		.file 18 "/usr/lib/gcc/arm-none-eabi/4.9.3/include/stdarg.h"
 4993              		.file 19 "<built-in>"
 4994              		.file 20 "ChibiOS_3.0.2/os/ext/CMSIS/include/core_cm4.h"
ARM GAS  /tmp/ccq8Pe5l.s 			page 89


 4995              		.file 21 "mc_interface.h"
 4996              		.file 22 "ChibiOS_3.0.2/os/rt/include/chevents.h"
 4997              		.file 23 "conf_general.h"
 4998              		.file 24 "buffer.h"
 4999              		.file 25 "mcpwm_foc.h"
 5000              		.file 26 "mcpwm.h"
 5001              		.file 27 "timeout.h"
 5002              		.file 28 "servo_dec.h"
 5003              		.file 29 "/usr/arm-none-eabi/include/math.h"
 5004              		.file 30 "flash_helper.h"
 5005              		.file 31 "applications/app.h"
 5006              		.file 32 "comm_can.h"
 5007              		.file 33 "terminal.h"
 5008              		.file 34 "/usr/arm-none-eabi/include/stdio.h"
 5009              		.section	.debug_info,"",%progbits
 5010              	.Ldebug_info0:
 5011 0000 77430000 		.4byte	0x4377
 5012 0004 0400     		.2byte	0x4
 5013 0006 00000000 		.4byte	.Ldebug_abbrev0
 5014 000a 04       		.byte	0x4
 5015 000b 01       		.uleb128 0x1
 5016 000c 741F0000 		.4byte	.LASF509
 5017 0010 01       		.byte	0x1
 5018 0011 F80D0000 		.4byte	.LASF510
 5019 0015 08140000 		.4byte	.LASF511
 5020 0019 68020000 		.4byte	.Ldebug_ranges0+0x268
 5021 001d 00000000 		.4byte	0
 5022 0021 00000000 		.4byte	.Ldebug_line0
 5023 0025 02       		.uleb128 0x2
 5024 0026 04       		.byte	0x4
 5025 0027 04       		.byte	0x4
 5026 0028 06070000 		.4byte	.LASF0
 5027 002c 03       		.uleb128 0x3
 5028 002d 04       		.byte	0x4
 5029 002e 05       		.byte	0x5
 5030 002f 696E7400 		.ascii	"int\000"
 5031 0033 04       		.uleb128 0x4
 5032 0034 291F0000 		.4byte	.LASF2
 5033 0038 04       		.byte	0x4
 5034 0039 1B       		.byte	0x1b
 5035 003a 3E000000 		.4byte	0x3e
 5036 003e 02       		.uleb128 0x2
 5037 003f 01       		.byte	0x1
 5038 0040 06       		.byte	0x6
 5039 0041 0E100000 		.4byte	.LASF1
 5040 0045 04       		.uleb128 0x4
 5041 0046 12010000 		.4byte	.LASF3
 5042 004a 04       		.byte	0x4
 5043 004b 1D       		.byte	0x1d
 5044 004c 50000000 		.4byte	0x50
 5045 0050 02       		.uleb128 0x2
 5046 0051 01       		.byte	0x1
 5047 0052 08       		.byte	0x8
 5048 0053 CC060000 		.4byte	.LASF4
 5049 0057 04       		.uleb128 0x4
 5050 0058 F4050000 		.4byte	.LASF5
 5051 005c 04       		.byte	0x4
ARM GAS  /tmp/ccq8Pe5l.s 			page 90


 5052 005d 29       		.byte	0x29
 5053 005e 62000000 		.4byte	0x62
 5054 0062 02       		.uleb128 0x2
 5055 0063 02       		.byte	0x2
 5056 0064 05       		.byte	0x5
 5057 0065 26210000 		.4byte	.LASF6
 5058 0069 04       		.uleb128 0x4
 5059 006a FE050000 		.4byte	.LASF7
 5060 006e 04       		.byte	0x4
 5061 006f 2B       		.byte	0x2b
 5062 0070 74000000 		.4byte	0x74
 5063 0074 02       		.uleb128 0x2
 5064 0075 02       		.byte	0x2
 5065 0076 07       		.byte	0x7
 5066 0077 FB0F0000 		.4byte	.LASF8
 5067 007b 04       		.uleb128 0x4
 5068 007c 1D190000 		.4byte	.LASF9
 5069 0080 04       		.byte	0x4
 5070 0081 3F       		.byte	0x3f
 5071 0082 86000000 		.4byte	0x86
 5072 0086 02       		.uleb128 0x2
 5073 0087 04       		.byte	0x4
 5074 0088 05       		.byte	0x5
 5075 0089 8B120000 		.4byte	.LASF10
 5076 008d 04       		.uleb128 0x4
 5077 008e 27190000 		.4byte	.LASF11
 5078 0092 04       		.byte	0x4
 5079 0093 41       		.byte	0x41
 5080 0094 98000000 		.4byte	0x98
 5081 0098 02       		.uleb128 0x2
 5082 0099 04       		.byte	0x4
 5083 009a 07       		.byte	0x7
 5084 009b 39140000 		.4byte	.LASF12
 5085 009f 02       		.uleb128 0x2
 5086 00a0 08       		.byte	0x8
 5087 00a1 05       		.byte	0x5
 5088 00a2 A91D0000 		.4byte	.LASF13
 5089 00a6 04       		.uleb128 0x4
 5090 00a7 2B0D0000 		.4byte	.LASF14
 5091 00ab 04       		.byte	0x4
 5092 00ac 5B       		.byte	0x5b
 5093 00ad B1000000 		.4byte	0xb1
 5094 00b1 02       		.uleb128 0x2
 5095 00b2 08       		.byte	0x8
 5096 00b3 07       		.byte	0x7
 5097 00b4 DE1A0000 		.4byte	.LASF15
 5098 00b8 02       		.uleb128 0x2
 5099 00b9 04       		.byte	0x4
 5100 00ba 07       		.byte	0x7
 5101 00bb E6200000 		.4byte	.LASF16
 5102 00bf 04       		.uleb128 0x4
 5103 00c0 770F0000 		.4byte	.LASF17
 5104 00c4 05       		.byte	0x5
 5105 00c5 13       		.byte	0x13
 5106 00c6 33000000 		.4byte	0x33
 5107 00ca 04       		.uleb128 0x4
 5108 00cb 4D0A0000 		.4byte	.LASF18
ARM GAS  /tmp/ccq8Pe5l.s 			page 91


 5109 00cf 05       		.byte	0x5
 5110 00d0 14       		.byte	0x14
 5111 00d1 45000000 		.4byte	0x45
 5112 00d5 04       		.uleb128 0x4
 5113 00d6 F30F0000 		.4byte	.LASF19
 5114 00da 05       		.byte	0x5
 5115 00db 19       		.byte	0x19
 5116 00dc 57000000 		.4byte	0x57
 5117 00e0 04       		.uleb128 0x4
 5118 00e1 A8010000 		.4byte	.LASF20
 5119 00e5 05       		.byte	0x5
 5120 00e6 1A       		.byte	0x1a
 5121 00e7 69000000 		.4byte	0x69
 5122 00eb 04       		.uleb128 0x4
 5123 00ec 65030000 		.4byte	.LASF21
 5124 00f0 05       		.byte	0x5
 5125 00f1 1F       		.byte	0x1f
 5126 00f2 7B000000 		.4byte	0x7b
 5127 00f6 04       		.uleb128 0x4
 5128 00f7 74130000 		.4byte	.LASF22
 5129 00fb 05       		.byte	0x5
 5130 00fc 20       		.byte	0x20
 5131 00fd 8D000000 		.4byte	0x8d
 5132 0101 04       		.uleb128 0x4
 5133 0102 27080000 		.4byte	.LASF23
 5134 0106 05       		.byte	0x5
 5135 0107 26       		.byte	0x26
 5136 0108 A6000000 		.4byte	0xa6
 5137 010c 04       		.uleb128 0x4
 5138 010d 390A0000 		.4byte	.LASF24
 5139 0111 06       		.byte	0x6
 5140 0112 D4       		.byte	0xd4
 5141 0113 B8000000 		.4byte	0xb8
 5142 0117 05       		.uleb128 0x5
 5143 0118 EB000000 		.4byte	0xeb
 5144 011c 04       		.uleb128 0x4
 5145 011d 9F090000 		.4byte	.LASF25
 5146 0121 07       		.byte	0x7
 5147 0122 45       		.byte	0x45
 5148 0123 F6000000 		.4byte	0xf6
 5149 0127 04       		.uleb128 0x4
 5150 0128 870E0000 		.4byte	.LASF26
 5151 012c 07       		.byte	0x7
 5152 012d 48       		.byte	0x48
 5153 012e CA000000 		.4byte	0xca
 5154 0132 04       		.uleb128 0x4
 5155 0133 E61B0000 		.4byte	.LASF27
 5156 0137 07       		.byte	0x7
 5157 0138 49       		.byte	0x49
 5158 0139 CA000000 		.4byte	0xca
 5159 013d 04       		.uleb128 0x4
 5160 013e F00D0000 		.4byte	.LASF28
 5161 0142 07       		.byte	0x7
 5162 0143 4A       		.byte	0x4a
 5163 0144 CA000000 		.4byte	0xca
 5164 0148 04       		.uleb128 0x4
 5165 0149 C60F0000 		.4byte	.LASF29
ARM GAS  /tmp/ccq8Pe5l.s 			page 92


 5166 014d 07       		.byte	0x7
 5167 014e 4B       		.byte	0x4b
 5168 014f CA000000 		.4byte	0xca
 5169 0153 04       		.uleb128 0x4
 5170 0154 66050000 		.4byte	.LASF30
 5171 0158 07       		.byte	0x7
 5172 0159 4C       		.byte	0x4c
 5173 015a F6000000 		.4byte	0xf6
 5174 015e 04       		.uleb128 0x4
 5175 015f 74000000 		.4byte	.LASF31
 5176 0163 07       		.byte	0x7
 5177 0164 4D       		.byte	0x4d
 5178 0165 EB000000 		.4byte	0xeb
 5179 0169 04       		.uleb128 0x4
 5180 016a D1130000 		.4byte	.LASF32
 5181 016e 07       		.byte	0x7
 5182 016f 4F       		.byte	0x4f
 5183 0170 F6000000 		.4byte	0xf6
 5184 0174 04       		.uleb128 0x4
 5185 0175 5C160000 		.4byte	.LASF33
 5186 0179 07       		.byte	0x7
 5187 017a 51       		.byte	0x51
 5188 017b EB000000 		.4byte	0xeb
 5189 017f 04       		.uleb128 0x4
 5190 0180 6D030000 		.4byte	.LASF34
 5191 0184 08       		.byte	0x8
 5192 0185 33       		.byte	0x33
 5193 0186 F6000000 		.4byte	0xf6
 5194 018a 04       		.uleb128 0x4
 5195 018b 45030000 		.4byte	.LASF35
 5196 018f 08       		.byte	0x8
 5197 0190 3F       		.byte	0x3f
 5198 0191 95010000 		.4byte	0x195
 5199 0195 06       		.uleb128 0x6
 5200 0196 FC060000 		.4byte	.LASF57
 5201 019a 48       		.byte	0x48
 5202 019b 09       		.byte	0x9
 5203 019c C2       		.byte	0xc2
 5204 019d 9A020000 		.4byte	0x29a
 5205 01a1 07       		.uleb128 0x7
 5206 01a2 C30D0000 		.4byte	.LASF36
 5207 01a6 09       		.byte	0x9
 5208 01a7 C3       		.byte	0xc3
 5209 01a8 A5020000 		.4byte	0x2a5
 5210 01ac 00       		.byte	0
 5211 01ad 07       		.uleb128 0x7
 5212 01ae 6D0A0000 		.4byte	.LASF37
 5213 01b2 09       		.byte	0x9
 5214 01b3 C5       		.byte	0xc5
 5215 01b4 A5020000 		.4byte	0x2a5
 5216 01b8 04       		.byte	0x4
 5217 01b9 07       		.uleb128 0x7
 5218 01ba 0D0D0000 		.4byte	.LASF38
 5219 01be 09       		.byte	0x9
 5220 01bf C7       		.byte	0xc7
 5221 01c0 53010000 		.4byte	0x153
 5222 01c4 08       		.byte	0x8
ARM GAS  /tmp/ccq8Pe5l.s 			page 93


 5223 01c5 07       		.uleb128 0x7
 5224 01c6 77070000 		.4byte	.LASF39
 5225 01ca 09       		.byte	0x9
 5226 01cb C8       		.byte	0xc8
 5227 01cc D5040000 		.4byte	0x4d5
 5228 01d0 0C       		.byte	0xc
 5229 01d1 07       		.uleb128 0x7
 5230 01d2 60020000 		.4byte	.LASF40
 5231 01d6 09       		.byte	0x9
 5232 01d7 CA       		.byte	0xca
 5233 01d8 A5020000 		.4byte	0x2a5
 5234 01dc 10       		.byte	0x10
 5235 01dd 07       		.uleb128 0x7
 5236 01de A11E0000 		.4byte	.LASF41
 5237 01e2 09       		.byte	0x9
 5238 01e3 CB       		.byte	0xcb
 5239 01e4 A5020000 		.4byte	0x2a5
 5240 01e8 14       		.byte	0x14
 5241 01e9 07       		.uleb128 0x7
 5242 01ea 1B1C0000 		.4byte	.LASF42
 5243 01ee 09       		.byte	0x9
 5244 01ef D2       		.byte	0xd2
 5245 01f0 1A070000 		.4byte	0x71a
 5246 01f4 18       		.byte	0x18
 5247 01f5 07       		.uleb128 0x7
 5248 01f6 6A210000 		.4byte	.LASF43
 5249 01fa 09       		.byte	0x9
 5250 01fb DD       		.byte	0xdd
 5251 01fc 32010000 		.4byte	0x132
 5252 0200 1C       		.byte	0x1c
 5253 0201 07       		.uleb128 0x7
 5254 0202 771B0000 		.4byte	.LASF44
 5255 0206 09       		.byte	0x9
 5256 0207 E1       		.byte	0xe1
 5257 0208 27010000 		.4byte	0x127
 5258 020c 1D       		.byte	0x1d
 5259 020d 07       		.uleb128 0x7
 5260 020e 4A120000 		.4byte	.LASF45
 5261 0212 09       		.byte	0x9
 5262 0213 E6       		.byte	0xe6
 5263 0214 3D010000 		.4byte	0x13d
 5264 0218 1E       		.byte	0x1e
 5265 0219 07       		.uleb128 0x7
 5266 021a 2A100000 		.4byte	.LASF46
 5267 021e 09       		.byte	0x9
 5268 021f EC       		.byte	0xec
 5269 0220 48010000 		.4byte	0x148
 5270 0224 1F       		.byte	0x1f
 5271 0225 07       		.uleb128 0x7
 5272 0226 3F100000 		.4byte	.LASF47
 5273 022a 09       		.byte	0x9
 5274 022b F3       		.byte	0xf3
 5275 022c 2C070000 		.4byte	0x72c
 5276 0230 20       		.byte	0x20
 5277 0231 08       		.uleb128 0x8
 5278 0232 705F7500 		.ascii	"p_u\000"
 5279 0236 09       		.byte	0x9
ARM GAS  /tmp/ccq8Pe5l.s 			page 94


 5280 0237 3101     		.2byte	0x131
 5281 0239 55060000 		.4byte	0x655
 5282 023d 24       		.byte	0x24
 5283 023e 09       		.uleb128 0x9
 5284 023f 6B040000 		.4byte	.LASF48
 5285 0243 09       		.byte	0x9
 5286 0244 3601     		.2byte	0x136
 5287 0246 AB020000 		.4byte	0x2ab
 5288 024a 28       		.byte	0x28
 5289 024b 09       		.uleb128 0x9
 5290 024c E6100000 		.4byte	.LASF49
 5291 0250 09       		.byte	0x9
 5292 0251 3C01     		.2byte	0x13c
 5293 0253 CF020000 		.4byte	0x2cf
 5294 0257 2C       		.byte	0x2c
 5295 0258 09       		.uleb128 0x9
 5296 0259 26060000 		.4byte	.LASF50
 5297 025d 09       		.byte	0x9
 5298 025e 4001     		.2byte	0x140
 5299 0260 5E010000 		.4byte	0x15e
 5300 0264 34       		.byte	0x34
 5301 0265 09       		.uleb128 0x9
 5302 0266 B6190000 		.4byte	.LASF51
 5303 026a 09       		.byte	0x9
 5304 026b 4601     		.2byte	0x146
 5305 026d 69010000 		.4byte	0x169
 5306 0271 38       		.byte	0x38
 5307 0272 09       		.uleb128 0x9
 5308 0273 C81B0000 		.4byte	.LASF52
 5309 0277 09       		.byte	0x9
 5310 0278 4D01     		.2byte	0x14d
 5311 027a 14070000 		.4byte	0x714
 5312 027e 3C       		.byte	0x3c
 5313 027f 09       		.uleb128 0x9
 5314 0280 4F180000 		.4byte	.LASF53
 5315 0284 09       		.byte	0x9
 5316 0285 5101     		.2byte	0x151
 5317 0287 53010000 		.4byte	0x153
 5318 028b 40       		.byte	0x40
 5319 028c 09       		.uleb128 0x9
 5320 028d 030E0000 		.4byte	.LASF54
 5321 0291 09       		.byte	0x9
 5322 0292 5801     		.2byte	0x158
 5323 0294 82030000 		.4byte	0x382
 5324 0298 44       		.byte	0x44
 5325 0299 00       		.byte	0
 5326 029a 04       		.uleb128 0x4
 5327 029b D41E0000 		.4byte	.LASF55
 5328 029f 08       		.byte	0x8
 5329 02a0 44       		.byte	0x44
 5330 02a1 A5020000 		.4byte	0x2a5
 5331 02a5 0A       		.uleb128 0xa
 5332 02a6 04       		.byte	0x4
 5333 02a7 8A010000 		.4byte	0x18a
 5334 02ab 04       		.uleb128 0x4
 5335 02ac 98040000 		.4byte	.LASF56
 5336 02b0 08       		.byte	0x8
ARM GAS  /tmp/ccq8Pe5l.s 			page 95


 5337 02b1 49       		.byte	0x49
 5338 02b2 B6020000 		.4byte	0x2b6
 5339 02b6 06       		.uleb128 0x6
 5340 02b7 72210000 		.4byte	.LASF58
 5341 02bb 04       		.byte	0x4
 5342 02bc 09       		.byte	0x9
 5343 02bd B0       		.byte	0xb0
 5344 02be CF020000 		.4byte	0x2cf
 5345 02c2 07       		.uleb128 0x7
 5346 02c3 C30D0000 		.4byte	.LASF36
 5347 02c7 09       		.byte	0x9
 5348 02c8 B1       		.byte	0xb1
 5349 02c9 A5020000 		.4byte	0x2a5
 5350 02cd 00       		.byte	0
 5351 02ce 00       		.byte	0
 5352 02cf 04       		.uleb128 0x4
 5353 02d0 0C120000 		.4byte	.LASF59
 5354 02d4 08       		.byte	0x8
 5355 02d5 50       		.byte	0x50
 5356 02d6 DA020000 		.4byte	0x2da
 5357 02da 06       		.uleb128 0x6
 5358 02db 1D020000 		.4byte	.LASF60
 5359 02df 08       		.byte	0x8
 5360 02e0 09       		.byte	0x9
 5361 02e1 B7       		.byte	0xb7
 5362 02e2 FF020000 		.4byte	0x2ff
 5363 02e6 07       		.uleb128 0x7
 5364 02e7 C30D0000 		.4byte	.LASF36
 5365 02eb 09       		.byte	0x9
 5366 02ec B8       		.byte	0xb8
 5367 02ed A5020000 		.4byte	0x2a5
 5368 02f1 00       		.byte	0
 5369 02f2 07       		.uleb128 0x7
 5370 02f3 6D0A0000 		.4byte	.LASF37
 5371 02f7 09       		.byte	0x9
 5372 02f8 B9       		.byte	0xb9
 5373 02f9 A5020000 		.4byte	0x2a5
 5374 02fd 04       		.byte	0x4
 5375 02fe 00       		.byte	0
 5376 02ff 04       		.uleb128 0x4
 5377 0300 EF060000 		.4byte	.LASF61
 5378 0304 08       		.byte	0x8
 5379 0305 57       		.byte	0x57
 5380 0306 0A030000 		.4byte	0x30a
 5381 030a 0B       		.uleb128 0xb
 5382 030b 0F190000 		.4byte	.LASF62
 5383 030f 1C       		.byte	0x1c
 5384 0310 09       		.byte	0x9
 5385 0311 9001     		.2byte	0x190
 5386 0313 66030000 		.4byte	0x366
 5387 0317 09       		.uleb128 0x9
 5388 0318 20150000 		.4byte	.LASF63
 5389 031c 09       		.byte	0x9
 5390 031d 9101     		.2byte	0x191
 5391 031f CF020000 		.4byte	0x2cf
 5392 0323 00       		.byte	0
 5393 0324 09       		.uleb128 0x9
ARM GAS  /tmp/ccq8Pe5l.s 			page 96


 5394 0325 921A0000 		.4byte	.LASF64
 5395 0329 09       		.byte	0x9
 5396 032a 9201     		.2byte	0x192
 5397 032c 53010000 		.4byte	0x153
 5398 0330 08       		.byte	0x8
 5399 0331 09       		.uleb128 0x9
 5400 0332 66090000 		.4byte	.LASF65
 5401 0336 09       		.byte	0x9
 5402 0337 9401     		.2byte	0x194
 5403 0339 D5040000 		.4byte	0x4d5
 5404 033d 0C       		.byte	0xc
 5405 033e 09       		.uleb128 0x9
 5406 033f 9E0F0000 		.4byte	.LASF66
 5407 0343 09       		.byte	0x9
 5408 0344 9701     		.2byte	0x197
 5409 0346 A5020000 		.4byte	0x2a5
 5410 034a 10       		.byte	0x10
 5411 034b 09       		.uleb128 0x9
 5412 034c 650A0000 		.4byte	.LASF67
 5413 0350 09       		.byte	0x9
 5414 0351 9801     		.2byte	0x198
 5415 0353 A5020000 		.4byte	0x2a5
 5416 0357 14       		.byte	0x14
 5417 0358 09       		.uleb128 0x9
 5418 0359 93070000 		.4byte	.LASF68
 5419 035d 09       		.byte	0x9
 5420 035e 9B01     		.2byte	0x19b
 5421 0360 A5020000 		.4byte	0x2a5
 5422 0364 18       		.byte	0x18
 5423 0365 00       		.byte	0
 5424 0366 04       		.uleb128 0x4
 5425 0367 F6170000 		.4byte	.LASF69
 5426 036b 08       		.byte	0x8
 5427 036c 5C       		.byte	0x5c
 5428 036d 71030000 		.4byte	0x371
 5429 0371 0A       		.uleb128 0xa
 5430 0372 04       		.byte	0x4
 5431 0373 77030000 		.4byte	0x377
 5432 0377 0C       		.uleb128 0xc
 5433 0378 82030000 		.4byte	0x382
 5434 037c 0D       		.uleb128 0xd
 5435 037d 82030000 		.4byte	0x382
 5436 0381 00       		.byte	0
 5437 0382 0E       		.uleb128 0xe
 5438 0383 04       		.byte	0x4
 5439 0384 04       		.uleb128 0x4
 5440 0385 56090000 		.4byte	.LASF70
 5441 0389 08       		.byte	0x8
 5442 038a 61       		.byte	0x61
 5443 038b 8F030000 		.4byte	0x38f
 5444 038f 0B       		.uleb128 0xb
 5445 0390 661B0000 		.4byte	.LASF71
 5446 0394 14       		.byte	0x14
 5447 0395 09       		.byte	0x9
 5448 0396 6B01     		.2byte	0x16b
 5449 0398 DE030000 		.4byte	0x3de
 5450 039c 09       		.uleb128 0x9
ARM GAS  /tmp/ccq8Pe5l.s 			page 97


 5451 039d 6C090000 		.4byte	.LASF72
 5452 03a1 09       		.byte	0x9
 5453 03a2 6C01     		.2byte	0x16c
 5454 03a4 31070000 		.4byte	0x731
 5455 03a8 00       		.byte	0
 5456 03a9 09       		.uleb128 0x9
 5457 03aa B2060000 		.4byte	.LASF73
 5458 03ae 09       		.byte	0x9
 5459 03af 6D01     		.2byte	0x16d
 5460 03b1 31070000 		.4byte	0x731
 5461 03b5 04       		.byte	0x4
 5462 03b6 09       		.uleb128 0x9
 5463 03b7 E10F0000 		.4byte	.LASF74
 5464 03bb 09       		.byte	0x9
 5465 03bc 6E01     		.2byte	0x16e
 5466 03be 7F010000 		.4byte	0x17f
 5467 03c2 08       		.byte	0x8
 5468 03c3 09       		.uleb128 0x9
 5469 03c4 281B0000 		.4byte	.LASF75
 5470 03c8 09       		.byte	0x9
 5471 03c9 6F01     		.2byte	0x16f
 5472 03cb 66030000 		.4byte	0x366
 5473 03cf 0C       		.byte	0xc
 5474 03d0 09       		.uleb128 0x9
 5475 03d1 7D070000 		.4byte	.LASF76
 5476 03d5 09       		.byte	0x9
 5477 03d6 7101     		.2byte	0x171
 5478 03d8 82030000 		.4byte	0x382
 5479 03dc 10       		.byte	0x10
 5480 03dd 00       		.byte	0
 5481 03de 04       		.uleb128 0x4
 5482 03df 871C0000 		.4byte	.LASF77
 5483 03e3 08       		.byte	0x8
 5484 03e4 66       		.byte	0x66
 5485 03e5 E9030000 		.4byte	0x3e9
 5486 03e9 0B       		.uleb128 0xb
 5487 03ea 4E030000 		.4byte	.LASF78
 5488 03ee 10       		.byte	0x10
 5489 03ef 09       		.byte	0x9
 5490 03f0 7B01     		.2byte	0x17b
 5491 03f2 2B040000 		.4byte	0x42b
 5492 03f6 09       		.uleb128 0x9
 5493 03f7 6C090000 		.4byte	.LASF72
 5494 03fb 09       		.byte	0x9
 5495 03fc 7C01     		.2byte	0x17c
 5496 03fe 31070000 		.4byte	0x731
 5497 0402 00       		.byte	0
 5498 0403 09       		.uleb128 0x9
 5499 0404 B2060000 		.4byte	.LASF73
 5500 0408 09       		.byte	0x9
 5501 0409 7E01     		.2byte	0x17e
 5502 040b 31070000 		.4byte	0x731
 5503 040f 04       		.byte	0x4
 5504 0410 09       		.uleb128 0x9
 5505 0411 E10F0000 		.4byte	.LASF74
 5506 0415 09       		.byte	0x9
 5507 0416 8001     		.2byte	0x180
ARM GAS  /tmp/ccq8Pe5l.s 			page 98


 5508 0418 7F010000 		.4byte	0x17f
 5509 041c 08       		.byte	0x8
 5510 041d 09       		.uleb128 0x9
 5511 041e 4F010000 		.4byte	.LASF79
 5512 0422 09       		.byte	0x9
 5513 0423 8201     		.2byte	0x182
 5514 0425 2C070000 		.4byte	0x72c
 5515 0429 0C       		.byte	0xc
 5516 042a 00       		.byte	0
 5517 042b 04       		.uleb128 0x4
 5518 042c 48070000 		.4byte	.LASF80
 5519 0430 08       		.byte	0x8
 5520 0431 6B       		.byte	0x6b
 5521 0432 36040000 		.4byte	0x436
 5522 0436 0B       		.uleb128 0xb
 5523 0437 32190000 		.4byte	.LASF81
 5524 043b 04       		.byte	0x4
 5525 043c 09       		.byte	0x9
 5526 043d A201     		.2byte	0x1a2
 5527 043f 51040000 		.4byte	0x451
 5528 0443 09       		.uleb128 0x9
 5529 0444 7E0F0000 		.4byte	.LASF82
 5530 0448 09       		.byte	0x9
 5531 0449 AA01     		.2byte	0x1aa
 5532 044b 37070000 		.4byte	0x737
 5533 044f 00       		.byte	0
 5534 0450 00       		.byte	0
 5535 0451 04       		.uleb128 0x4
 5536 0452 06010000 		.4byte	.LASF83
 5537 0456 08       		.byte	0x8
 5538 0457 70       		.byte	0x70
 5539 0458 5C040000 		.4byte	0x45c
 5540 045c 0F       		.uleb128 0xf
 5541 045d 80110000 		.4byte	.LASF84
 5542 0461 5802     		.2byte	0x258
 5543 0463 09       		.byte	0x9
 5544 0464 C201     		.2byte	0x1c2
 5545 0466 B8040000 		.4byte	0x4b8
 5546 046a 09       		.uleb128 0x9
 5547 046b 92040000 		.4byte	.LASF85
 5548 046f 09       		.byte	0x9
 5549 0470 C601     		.2byte	0x1c6
 5550 0472 FF020000 		.4byte	0x2ff
 5551 0476 00       		.byte	0
 5552 0477 09       		.uleb128 0x9
 5553 0478 5C040000 		.4byte	.LASF86
 5554 047c 09       		.byte	0x9
 5555 047d CA01     		.2byte	0x1ca
 5556 047f DE030000 		.4byte	0x3de
 5557 0483 1C       		.byte	0x1c
 5558 0484 08       		.uleb128 0x8
 5559 0485 64626700 		.ascii	"dbg\000"
 5560 0489 09       		.byte	0x9
 5561 048a CE01     		.2byte	0x1ce
 5562 048c 2B040000 		.4byte	0x42b
 5563 0490 2C       		.byte	0x2c
 5564 0491 09       		.uleb128 0x9
ARM GAS  /tmp/ccq8Pe5l.s 			page 99


 5565 0492 94120000 		.4byte	.LASF87
 5566 0496 09       		.byte	0x9
 5567 0497 D201     		.2byte	0x1d2
 5568 0499 8A010000 		.4byte	0x18a
 5569 049d 30       		.byte	0x30
 5570 049e 08       		.uleb128 0x8
 5571 049f 746D00   		.ascii	"tm\000"
 5572 04a2 09       		.byte	0x9
 5573 04a3 D701     		.2byte	0x1d7
 5574 04a5 4A060000 		.4byte	0x64a
 5575 04a9 78       		.byte	0x78
 5576 04aa 09       		.uleb128 0x9
 5577 04ab 191B0000 		.4byte	.LASF88
 5578 04af 09       		.byte	0x9
 5579 04b0 E301     		.2byte	0x1e3
 5580 04b2 3C070000 		.4byte	0x73c
 5581 04b6 80       		.byte	0x80
 5582 04b7 00       		.byte	0
 5583 04b8 02       		.uleb128 0x2
 5584 04b9 04       		.byte	0x4
 5585 04ba 07       		.byte	0x7
 5586 04bb EA0F0000 		.4byte	.LASF89
 5587 04bf 04       		.uleb128 0x4
 5588 04c0 C8130000 		.4byte	.LASF90
 5589 04c4 0A       		.byte	0xa
 5590 04c5 65       		.byte	0x65
 5591 04c6 82030000 		.4byte	0x382
 5592 04ca 04       		.uleb128 0x4
 5593 04cb A7060000 		.4byte	.LASF91
 5594 04cf 0A       		.byte	0xa
 5595 04d0 6D       		.byte	0x6d
 5596 04d1 01010000 		.4byte	0x101
 5597 04d5 06       		.uleb128 0x6
 5598 04d6 02130000 		.4byte	.LASF92
 5599 04da 04       		.byte	0x4
 5600 04db 0A       		.byte	0xa
 5601 04dc 89       		.byte	0x89
 5602 04dd EE040000 		.4byte	0x4ee
 5603 04e1 10       		.uleb128 0x10
 5604 04e2 72313300 		.ascii	"r13\000"
 5605 04e6 0A       		.byte	0xa
 5606 04e7 8A       		.byte	0x8a
 5607 04e8 2F060000 		.4byte	0x62f
 5608 04ec 00       		.byte	0
 5609 04ed 00       		.byte	0
 5610 04ee 06       		.uleb128 0x6
 5611 04ef 17000000 		.4byte	.LASF93
 5612 04f3 64       		.byte	0x64
 5613 04f4 0B       		.byte	0xb
 5614 04f5 F4       		.byte	0xf4
 5615 04f6 2F060000 		.4byte	0x62f
 5616 04fa 10       		.uleb128 0x10
 5617 04fb 73313600 		.ascii	"s16\000"
 5618 04ff 0B       		.byte	0xb
 5619 0500 F6       		.byte	0xf6
 5620 0501 BF040000 		.4byte	0x4bf
 5621 0505 00       		.byte	0
ARM GAS  /tmp/ccq8Pe5l.s 			page 100


 5622 0506 10       		.uleb128 0x10
 5623 0507 73313700 		.ascii	"s17\000"
 5624 050b 0B       		.byte	0xb
 5625 050c F7       		.byte	0xf7
 5626 050d BF040000 		.4byte	0x4bf
 5627 0511 04       		.byte	0x4
 5628 0512 10       		.uleb128 0x10
 5629 0513 73313800 		.ascii	"s18\000"
 5630 0517 0B       		.byte	0xb
 5631 0518 F8       		.byte	0xf8
 5632 0519 BF040000 		.4byte	0x4bf
 5633 051d 08       		.byte	0x8
 5634 051e 10       		.uleb128 0x10
 5635 051f 73313900 		.ascii	"s19\000"
 5636 0523 0B       		.byte	0xb
 5637 0524 F9       		.byte	0xf9
 5638 0525 BF040000 		.4byte	0x4bf
 5639 0529 0C       		.byte	0xc
 5640 052a 10       		.uleb128 0x10
 5641 052b 73323000 		.ascii	"s20\000"
 5642 052f 0B       		.byte	0xb
 5643 0530 FA       		.byte	0xfa
 5644 0531 BF040000 		.4byte	0x4bf
 5645 0535 10       		.byte	0x10
 5646 0536 10       		.uleb128 0x10
 5647 0537 73323100 		.ascii	"s21\000"
 5648 053b 0B       		.byte	0xb
 5649 053c FB       		.byte	0xfb
 5650 053d BF040000 		.4byte	0x4bf
 5651 0541 14       		.byte	0x14
 5652 0542 10       		.uleb128 0x10
 5653 0543 73323200 		.ascii	"s22\000"
 5654 0547 0B       		.byte	0xb
 5655 0548 FC       		.byte	0xfc
 5656 0549 BF040000 		.4byte	0x4bf
 5657 054d 18       		.byte	0x18
 5658 054e 10       		.uleb128 0x10
 5659 054f 73323300 		.ascii	"s23\000"
 5660 0553 0B       		.byte	0xb
 5661 0554 FD       		.byte	0xfd
 5662 0555 BF040000 		.4byte	0x4bf
 5663 0559 1C       		.byte	0x1c
 5664 055a 10       		.uleb128 0x10
 5665 055b 73323400 		.ascii	"s24\000"
 5666 055f 0B       		.byte	0xb
 5667 0560 FE       		.byte	0xfe
 5668 0561 BF040000 		.4byte	0x4bf
 5669 0565 20       		.byte	0x20
 5670 0566 10       		.uleb128 0x10
 5671 0567 73323500 		.ascii	"s25\000"
 5672 056b 0B       		.byte	0xb
 5673 056c FF       		.byte	0xff
 5674 056d BF040000 		.4byte	0x4bf
 5675 0571 24       		.byte	0x24
 5676 0572 08       		.uleb128 0x8
 5677 0573 73323600 		.ascii	"s26\000"
 5678 0577 0B       		.byte	0xb
ARM GAS  /tmp/ccq8Pe5l.s 			page 101


 5679 0578 0001     		.2byte	0x100
 5680 057a BF040000 		.4byte	0x4bf
 5681 057e 28       		.byte	0x28
 5682 057f 08       		.uleb128 0x8
 5683 0580 73323700 		.ascii	"s27\000"
 5684 0584 0B       		.byte	0xb
 5685 0585 0101     		.2byte	0x101
 5686 0587 BF040000 		.4byte	0x4bf
 5687 058b 2C       		.byte	0x2c
 5688 058c 08       		.uleb128 0x8
 5689 058d 73323800 		.ascii	"s28\000"
 5690 0591 0B       		.byte	0xb
 5691 0592 0201     		.2byte	0x102
 5692 0594 BF040000 		.4byte	0x4bf
 5693 0598 30       		.byte	0x30
 5694 0599 08       		.uleb128 0x8
 5695 059a 73323900 		.ascii	"s29\000"
 5696 059e 0B       		.byte	0xb
 5697 059f 0301     		.2byte	0x103
 5698 05a1 BF040000 		.4byte	0x4bf
 5699 05a5 34       		.byte	0x34
 5700 05a6 08       		.uleb128 0x8
 5701 05a7 73333000 		.ascii	"s30\000"
 5702 05ab 0B       		.byte	0xb
 5703 05ac 0401     		.2byte	0x104
 5704 05ae BF040000 		.4byte	0x4bf
 5705 05b2 38       		.byte	0x38
 5706 05b3 08       		.uleb128 0x8
 5707 05b4 73333100 		.ascii	"s31\000"
 5708 05b8 0B       		.byte	0xb
 5709 05b9 0501     		.2byte	0x105
 5710 05bb BF040000 		.4byte	0x4bf
 5711 05bf 3C       		.byte	0x3c
 5712 05c0 08       		.uleb128 0x8
 5713 05c1 723400   		.ascii	"r4\000"
 5714 05c4 0B       		.byte	0xb
 5715 05c5 0701     		.2byte	0x107
 5716 05c7 BF040000 		.4byte	0x4bf
 5717 05cb 40       		.byte	0x40
 5718 05cc 08       		.uleb128 0x8
 5719 05cd 723500   		.ascii	"r5\000"
 5720 05d0 0B       		.byte	0xb
 5721 05d1 0801     		.2byte	0x108
 5722 05d3 BF040000 		.4byte	0x4bf
 5723 05d7 44       		.byte	0x44
 5724 05d8 08       		.uleb128 0x8
 5725 05d9 723600   		.ascii	"r6\000"
 5726 05dc 0B       		.byte	0xb
 5727 05dd 0901     		.2byte	0x109
 5728 05df BF040000 		.4byte	0x4bf
 5729 05e3 48       		.byte	0x48
 5730 05e4 08       		.uleb128 0x8
 5731 05e5 723700   		.ascii	"r7\000"
 5732 05e8 0B       		.byte	0xb
 5733 05e9 0A01     		.2byte	0x10a
 5734 05eb BF040000 		.4byte	0x4bf
 5735 05ef 4C       		.byte	0x4c
ARM GAS  /tmp/ccq8Pe5l.s 			page 102


 5736 05f0 08       		.uleb128 0x8
 5737 05f1 723800   		.ascii	"r8\000"
 5738 05f4 0B       		.byte	0xb
 5739 05f5 0B01     		.2byte	0x10b
 5740 05f7 BF040000 		.4byte	0x4bf
 5741 05fb 50       		.byte	0x50
 5742 05fc 08       		.uleb128 0x8
 5743 05fd 723900   		.ascii	"r9\000"
 5744 0600 0B       		.byte	0xb
 5745 0601 0C01     		.2byte	0x10c
 5746 0603 BF040000 		.4byte	0x4bf
 5747 0607 54       		.byte	0x54
 5748 0608 08       		.uleb128 0x8
 5749 0609 72313000 		.ascii	"r10\000"
 5750 060d 0B       		.byte	0xb
 5751 060e 0D01     		.2byte	0x10d
 5752 0610 BF040000 		.4byte	0x4bf
 5753 0614 58       		.byte	0x58
 5754 0615 08       		.uleb128 0x8
 5755 0616 72313100 		.ascii	"r11\000"
 5756 061a 0B       		.byte	0xb
 5757 061b 0E01     		.2byte	0x10e
 5758 061d BF040000 		.4byte	0x4bf
 5759 0621 5C       		.byte	0x5c
 5760 0622 08       		.uleb128 0x8
 5761 0623 6C7200   		.ascii	"lr\000"
 5762 0626 0B       		.byte	0xb
 5763 0627 0F01     		.2byte	0x10f
 5764 0629 BF040000 		.4byte	0x4bf
 5765 062d 60       		.byte	0x60
 5766 062e 00       		.byte	0
 5767 062f 0A       		.uleb128 0xa
 5768 0630 04       		.byte	0x4
 5769 0631 EE040000 		.4byte	0x4ee
 5770 0635 11       		.uleb128 0x11
 5771 0636 04       		.byte	0x4
 5772 0637 0C       		.byte	0xc
 5773 0638 38       		.byte	0x38
 5774 0639 4A060000 		.4byte	0x64a
 5775 063d 07       		.uleb128 0x7
 5776 063e F51A0000 		.4byte	.LASF94
 5777 0642 0C       		.byte	0xc
 5778 0643 3C       		.byte	0x3c
 5779 0644 1C010000 		.4byte	0x11c
 5780 0648 00       		.byte	0
 5781 0649 00       		.byte	0
 5782 064a 04       		.uleb128 0x4
 5783 064b 181F0000 		.4byte	.LASF95
 5784 064f 0C       		.byte	0xc
 5785 0650 3D       		.byte	0x3d
 5786 0651 35060000 		.4byte	0x635
 5787 0655 12       		.uleb128 0x12
 5788 0656 04       		.byte	0x4
 5789 0657 09       		.byte	0x9
 5790 0658 FA       		.byte	0xfa
 5791 0659 B2060000 		.4byte	0x6b2
 5792 065d 13       		.uleb128 0x13
ARM GAS  /tmp/ccq8Pe5l.s 			page 103


 5793 065e C60C0000 		.4byte	.LASF96
 5794 0662 09       		.byte	0x9
 5795 0663 0101     		.2byte	0x101
 5796 0665 5E010000 		.4byte	0x15e
 5797 0669 13       		.uleb128 0x13
 5798 066a C60A0000 		.4byte	.LASF97
 5799 066e 09       		.byte	0x9
 5800 066f 0801     		.2byte	0x108
 5801 0671 5E010000 		.4byte	0x15e
 5802 0675 13       		.uleb128 0x13
 5803 0676 34180000 		.4byte	.LASF98
 5804 067a 09       		.byte	0x9
 5805 067b 0F01     		.2byte	0x10f
 5806 067d 82030000 		.4byte	0x382
 5807 0681 13       		.uleb128 0x13
 5808 0682 FC120000 		.4byte	.LASF99
 5809 0686 09       		.byte	0x9
 5810 0687 1601     		.2byte	0x116
 5811 0689 B2060000 		.4byte	0x6b2
 5812 068d 13       		.uleb128 0x13
 5813 068e 1C010000 		.4byte	.LASF100
 5814 0692 09       		.byte	0x9
 5815 0693 1E01     		.2byte	0x11e
 5816 0695 DD060000 		.4byte	0x6dd
 5817 0699 13       		.uleb128 0x13
 5818 069a 7B180000 		.4byte	.LASF101
 5819 069e 09       		.byte	0x9
 5820 069f 2701     		.2byte	0x127
 5821 06a1 14070000 		.4byte	0x714
 5822 06a5 13       		.uleb128 0x13
 5823 06a6 7F1B0000 		.4byte	.LASF102
 5824 06aa 09       		.byte	0x9
 5825 06ab 2F01     		.2byte	0x12f
 5826 06ad 69010000 		.4byte	0x169
 5827 06b1 00       		.byte	0
 5828 06b2 0A       		.uleb128 0xa
 5829 06b3 04       		.byte	0x4
 5830 06b4 9A020000 		.4byte	0x29a
 5831 06b8 06       		.uleb128 0x6
 5832 06b9 AC110000 		.4byte	.LASF103
 5833 06bd 0C       		.byte	0xc
 5834 06be 0D       		.byte	0xd
 5835 06bf 34       		.byte	0x34
 5836 06c0 DD060000 		.4byte	0x6dd
 5837 06c4 07       		.uleb128 0x7
 5838 06c5 501D0000 		.4byte	.LASF104
 5839 06c9 0D       		.byte	0xd
 5840 06ca 35       		.byte	0x35
 5841 06cb CF020000 		.4byte	0x2cf
 5842 06cf 00       		.byte	0
 5843 06d0 07       		.uleb128 0x7
 5844 06d1 E9060000 		.4byte	.LASF105
 5845 06d5 0D       		.byte	0xd
 5846 06d6 37       		.byte	0x37
 5847 06d7 74010000 		.4byte	0x174
 5848 06db 08       		.byte	0x8
 5849 06dc 00       		.byte	0
ARM GAS  /tmp/ccq8Pe5l.s 			page 104


 5850 06dd 0A       		.uleb128 0xa
 5851 06de 04       		.byte	0x4
 5852 06df B8060000 		.4byte	0x6b8
 5853 06e3 06       		.uleb128 0x6
 5854 06e4 CD080000 		.4byte	.LASF106
 5855 06e8 10       		.byte	0x10
 5856 06e9 0E       		.byte	0xe
 5857 06ea 39       		.byte	0x39
 5858 06eb 14070000 		.4byte	0x714
 5859 06ef 07       		.uleb128 0x7
 5860 06f0 9F120000 		.4byte	.LASF107
 5861 06f4 0E       		.byte	0xe
 5862 06f5 3A       		.byte	0x3a
 5863 06f6 CF020000 		.4byte	0x2cf
 5864 06fa 00       		.byte	0
 5865 06fb 07       		.uleb128 0x7
 5866 06fc 37110000 		.4byte	.LASF108
 5867 0700 0E       		.byte	0xe
 5868 0701 3C       		.byte	0x3c
 5869 0702 A5020000 		.4byte	0x2a5
 5870 0706 08       		.byte	0x8
 5871 0707 07       		.uleb128 0x7
 5872 0708 75010000 		.4byte	.LASF109
 5873 070c 0E       		.byte	0xe
 5874 070d 3E       		.byte	0x3e
 5875 070e 62070000 		.4byte	0x762
 5876 0712 0C       		.byte	0xc
 5877 0713 00       		.byte	0
 5878 0714 0A       		.uleb128 0xa
 5879 0715 04       		.byte	0x4
 5880 0716 E3060000 		.4byte	0x6e3
 5881 071a 0A       		.uleb128 0xa
 5882 071b 04       		.byte	0x4
 5883 071c 20070000 		.4byte	0x720
 5884 0720 14       		.uleb128 0x14
 5885 0721 25070000 		.4byte	0x725
 5886 0725 02       		.uleb128 0x2
 5887 0726 01       		.byte	0x1
 5888 0727 08       		.byte	0x8
 5889 0728 1B150000 		.4byte	.LASF110
 5890 072c 05       		.uleb128 0x5
 5891 072d 7F010000 		.4byte	0x17f
 5892 0731 0A       		.uleb128 0xa
 5893 0732 04       		.byte	0x4
 5894 0733 84030000 		.4byte	0x384
 5895 0737 05       		.uleb128 0x5
 5896 0738 1A070000 		.4byte	0x71a
 5897 073c 15       		.uleb128 0x15
 5898 073d CA040000 		.4byte	0x4ca
 5899 0741 4C070000 		.4byte	0x74c
 5900 0745 16       		.uleb128 0x16
 5901 0746 B8040000 		.4byte	0x4b8
 5902 074a 3A       		.byte	0x3a
 5903 074b 00       		.byte	0
 5904 074c 04       		.uleb128 0x4
 5905 074d E2050000 		.4byte	.LASF111
 5906 0751 0F       		.byte	0xf
ARM GAS  /tmp/ccq8Pe5l.s 			page 105


 5907 0752 34       		.byte	0x34
 5908 0753 71030000 		.4byte	0x371
 5909 0757 04       		.uleb128 0x4
 5910 0758 AE190000 		.4byte	.LASF112
 5911 075c 0E       		.byte	0xe
 5912 075d 34       		.byte	0x34
 5913 075e E3060000 		.4byte	0x6e3
 5914 0762 0A       		.uleb128 0xa
 5915 0763 04       		.byte	0x4
 5916 0764 57070000 		.4byte	0x757
 5917 0768 0A       		.uleb128 0xa
 5918 0769 04       		.byte	0x4
 5919 076a CA000000 		.4byte	0xca
 5920 076e 0A       		.uleb128 0xa
 5921 076f 04       		.byte	0x4
 5922 0770 74070000 		.4byte	0x774
 5923 0774 14       		.uleb128 0x14
 5924 0775 CA000000 		.4byte	0xca
 5925 0779 17       		.uleb128 0x17
 5926 077a 01       		.byte	0x1
 5927 077b 10       		.byte	0x10
 5928 077c 28       		.byte	0x28
 5929 077d 94070000 		.4byte	0x794
 5930 0781 18       		.uleb128 0x18
 5931 0782 BA1C0000 		.4byte	.LASF113
 5932 0786 00       		.sleb128 0
 5933 0787 18       		.uleb128 0x18
 5934 0788 D5140000 		.4byte	.LASF114
 5935 078c 01       		.sleb128 1
 5936 078d 18       		.uleb128 0x18
 5937 078e AF030000 		.4byte	.LASF115
 5938 0792 02       		.sleb128 2
 5939 0793 00       		.byte	0
 5940 0794 04       		.uleb128 0x4
 5941 0795 C0030000 		.4byte	.LASF116
 5942 0799 10       		.byte	0x10
 5943 079a 2C       		.byte	0x2c
 5944 079b 79070000 		.4byte	0x779
 5945 079f 17       		.uleb128 0x17
 5946 07a0 01       		.byte	0x1
 5947 07a1 10       		.byte	0x10
 5948 07a2 2E       		.byte	0x2e
 5949 07a3 B4070000 		.4byte	0x7b4
 5950 07a7 18       		.uleb128 0x18
 5951 07a8 D6120000 		.4byte	.LASF117
 5952 07ac 00       		.sleb128 0
 5953 07ad 18       		.uleb128 0x18
 5954 07ae 82210000 		.4byte	.LASF118
 5955 07b2 01       		.sleb128 1
 5956 07b3 00       		.byte	0
 5957 07b4 04       		.uleb128 0x4
 5958 07b5 0E1C0000 		.4byte	.LASF119
 5959 07b9 10       		.byte	0x10
 5960 07ba 31       		.byte	0x31
 5961 07bb 9F070000 		.4byte	0x79f
 5962 07bf 17       		.uleb128 0x17
 5963 07c0 01       		.byte	0x1
ARM GAS  /tmp/ccq8Pe5l.s 			page 106


 5964 07c1 10       		.byte	0x10
 5965 07c2 33       		.byte	0x33
 5966 07c3 DA070000 		.4byte	0x7da
 5967 07c7 18       		.uleb128 0x18
 5968 07c8 F2180000 		.4byte	.LASF120
 5969 07cc 00       		.sleb128 0
 5970 07cd 18       		.uleb128 0x18
 5971 07ce 17090000 		.4byte	.LASF121
 5972 07d2 01       		.sleb128 1
 5973 07d3 18       		.uleb128 0x18
 5974 07d4 A7090000 		.4byte	.LASF122
 5975 07d8 02       		.sleb128 2
 5976 07d9 00       		.byte	0
 5977 07da 04       		.uleb128 0x4
 5978 07db 7C120000 		.4byte	.LASF123
 5979 07df 10       		.byte	0x10
 5980 07e0 37       		.byte	0x37
 5981 07e1 BF070000 		.4byte	0x7bf
 5982 07e5 17       		.uleb128 0x17
 5983 07e6 01       		.byte	0x1
 5984 07e7 10       		.byte	0x10
 5985 07e8 39       		.byte	0x39
 5986 07e9 00080000 		.4byte	0x800
 5987 07ed 18       		.uleb128 0x18
 5988 07ee 2F120000 		.4byte	.LASF124
 5989 07f2 00       		.sleb128 0
 5990 07f3 18       		.uleb128 0x18
 5991 07f4 8B050000 		.4byte	.LASF125
 5992 07f8 01       		.sleb128 1
 5993 07f9 18       		.uleb128 0x18
 5994 07fa C91A0000 		.4byte	.LASF126
 5995 07fe 02       		.sleb128 2
 5996 07ff 00       		.byte	0
 5997 0800 04       		.uleb128 0x4
 5998 0801 D3200000 		.4byte	.LASF127
 5999 0805 10       		.byte	0x10
 6000 0806 3D       		.byte	0x3d
 6001 0807 E5070000 		.4byte	0x7e5
 6002 080b 17       		.uleb128 0x17
 6003 080c 01       		.byte	0x1
 6004 080d 10       		.byte	0x10
 6005 080e 3F       		.byte	0x3f
 6006 080f 26080000 		.4byte	0x826
 6007 0813 18       		.uleb128 0x18
 6008 0814 50210000 		.4byte	.LASF128
 6009 0818 00       		.sleb128 0
 6010 0819 18       		.uleb128 0x18
 6011 081a CF0E0000 		.4byte	.LASF129
 6012 081e 01       		.sleb128 1
 6013 081f 18       		.uleb128 0x18
 6014 0820 560C0000 		.4byte	.LASF130
 6015 0824 02       		.sleb128 2
 6016 0825 00       		.byte	0
 6017 0826 04       		.uleb128 0x4
 6018 0827 82180000 		.4byte	.LASF131
 6019 082b 10       		.byte	0x10
 6020 082c 43       		.byte	0x43
ARM GAS  /tmp/ccq8Pe5l.s 			page 107


 6021 082d 0B080000 		.4byte	0x80b
 6022 0831 17       		.uleb128 0x17
 6023 0832 01       		.byte	0x1
 6024 0833 10       		.byte	0x10
 6025 0834 45       		.byte	0x45
 6026 0835 64080000 		.4byte	0x864
 6027 0839 18       		.uleb128 0x18
 6028 083a 8F160000 		.4byte	.LASF132
 6029 083e 00       		.sleb128 0
 6030 083f 18       		.uleb128 0x18
 6031 0840 710C0000 		.4byte	.LASF133
 6032 0844 01       		.sleb128 1
 6033 0845 18       		.uleb128 0x18
 6034 0846 07160000 		.4byte	.LASF134
 6035 084a 02       		.sleb128 2
 6036 084b 18       		.uleb128 0x18
 6037 084c B61A0000 		.4byte	.LASF135
 6038 0850 03       		.sleb128 3
 6039 0851 18       		.uleb128 0x18
 6040 0852 C7070000 		.4byte	.LASF136
 6041 0856 04       		.sleb128 4
 6042 0857 18       		.uleb128 0x18
 6043 0858 87030000 		.4byte	.LASF137
 6044 085c 05       		.sleb128 5
 6045 085d 18       		.uleb128 0x18
 6046 085e CB100000 		.4byte	.LASF138
 6047 0862 06       		.sleb128 6
 6048 0863 00       		.byte	0
 6049 0864 04       		.uleb128 0x4
 6050 0865 631D0000 		.4byte	.LASF139
 6051 0869 10       		.byte	0x10
 6052 086a 4D       		.byte	0x4d
 6053 086b 31080000 		.4byte	0x831
 6054 086f 17       		.uleb128 0x17
 6055 0870 01       		.byte	0x1
 6056 0871 10       		.byte	0x10
 6057 0872 58       		.byte	0x58
 6058 0873 A2080000 		.4byte	0x8a2
 6059 0877 18       		.uleb128 0x18
 6060 0878 D6080000 		.4byte	.LASF140
 6061 087c 00       		.sleb128 0
 6062 087d 18       		.uleb128 0x18
 6063 087e 04020000 		.4byte	.LASF141
 6064 0882 01       		.sleb128 1
 6065 0883 18       		.uleb128 0x18
 6066 0884 8C080000 		.4byte	.LASF142
 6067 0888 02       		.sleb128 2
 6068 0889 18       		.uleb128 0x18
 6069 088a C2010000 		.4byte	.LASF143
 6070 088e 03       		.sleb128 3
 6071 088f 18       		.uleb128 0x18
 6072 0890 400C0000 		.4byte	.LASF144
 6073 0894 04       		.sleb128 4
 6074 0895 18       		.uleb128 0x18
 6075 0896 9D0B0000 		.4byte	.LASF145
 6076 089a 05       		.sleb128 5
 6077 089b 18       		.uleb128 0x18
ARM GAS  /tmp/ccq8Pe5l.s 			page 108


 6078 089c F6140000 		.4byte	.LASF146
 6079 08a0 06       		.sleb128 6
 6080 08a1 00       		.byte	0
 6081 08a2 04       		.uleb128 0x4
 6082 08a3 791C0000 		.4byte	.LASF147
 6083 08a7 10       		.byte	0x10
 6084 08a8 60       		.byte	0x60
 6085 08a9 6F080000 		.4byte	0x86f
 6086 08ad 19       		.uleb128 0x19
 6087 08ae 3001     		.2byte	0x130
 6088 08b0 10       		.byte	0x10
 6089 08b1 6C       		.byte	0x6c
 6090 08b2 6B0C0000 		.4byte	0xc6b
 6091 08b6 07       		.uleb128 0x7
 6092 08b7 0B0E0000 		.4byte	.LASF148
 6093 08bb 10       		.byte	0x10
 6094 08bc 6E       		.byte	0x6e
 6095 08bd 94070000 		.4byte	0x794
 6096 08c1 00       		.byte	0
 6097 08c2 07       		.uleb128 0x7
 6098 08c3 A8070000 		.4byte	.LASF149
 6099 08c7 10       		.byte	0x10
 6100 08c8 6F       		.byte	0x6f
 6101 08c9 B4070000 		.4byte	0x7b4
 6102 08cd 01       		.byte	0x1
 6103 08ce 07       		.uleb128 0x7
 6104 08cf 320E0000 		.4byte	.LASF150
 6105 08d3 10       		.byte	0x10
 6106 08d4 70       		.byte	0x70
 6107 08d5 26080000 		.4byte	0x826
 6108 08d9 02       		.byte	0x2
 6109 08da 07       		.uleb128 0x7
 6110 08db E6180000 		.4byte	.LASF151
 6111 08df 10       		.byte	0x10
 6112 08e0 71       		.byte	0x71
 6113 08e1 DA070000 		.4byte	0x7da
 6114 08e5 03       		.byte	0x3
 6115 08e6 07       		.uleb128 0x7
 6116 08e7 8A110000 		.4byte	.LASF152
 6117 08eb 10       		.byte	0x10
 6118 08ec 73       		.byte	0x73
 6119 08ed 25000000 		.4byte	0x25
 6120 08f1 04       		.byte	0x4
 6121 08f2 07       		.uleb128 0x7
 6122 08f3 E2150000 		.4byte	.LASF153
 6123 08f7 10       		.byte	0x10
 6124 08f8 74       		.byte	0x74
 6125 08f9 25000000 		.4byte	0x25
 6126 08fd 08       		.byte	0x8
 6127 08fe 07       		.uleb128 0x7
 6128 08ff 901E0000 		.4byte	.LASF154
 6129 0903 10       		.byte	0x10
 6130 0904 75       		.byte	0x75
 6131 0905 25000000 		.4byte	0x25
 6132 0909 0C       		.byte	0xc
 6133 090a 07       		.uleb128 0x7
 6134 090b 97010000 		.4byte	.LASF155
ARM GAS  /tmp/ccq8Pe5l.s 			page 109


 6135 090f 10       		.byte	0x10
 6136 0910 76       		.byte	0x76
 6137 0911 25000000 		.4byte	0x25
 6138 0915 10       		.byte	0x10
 6139 0916 07       		.uleb128 0x7
 6140 0917 3F000000 		.4byte	.LASF156
 6141 091b 10       		.byte	0x10
 6142 091c 77       		.byte	0x77
 6143 091d 25000000 		.4byte	0x25
 6144 0921 14       		.byte	0x14
 6145 0922 07       		.uleb128 0x7
 6146 0923 40020000 		.4byte	.LASF157
 6147 0927 10       		.byte	0x10
 6148 0928 78       		.byte	0x78
 6149 0929 25000000 		.4byte	0x25
 6150 092d 18       		.byte	0x18
 6151 092e 07       		.uleb128 0x7
 6152 092f 34100000 		.4byte	.LASF158
 6153 0933 10       		.byte	0x10
 6154 0934 79       		.byte	0x79
 6155 0935 25000000 		.4byte	0x25
 6156 0939 1C       		.byte	0x1c
 6157 093a 07       		.uleb128 0x7
 6158 093b 2D000000 		.4byte	.LASF159
 6159 093f 10       		.byte	0x10
 6160 0940 7A       		.byte	0x7a
 6161 0941 25000000 		.4byte	0x25
 6162 0945 20       		.byte	0x20
 6163 0946 07       		.uleb128 0x7
 6164 0947 EA1D0000 		.4byte	.LASF160
 6165 094b 10       		.byte	0x10
 6166 094c 7B       		.byte	0x7b
 6167 094d 25000000 		.4byte	0x25
 6168 0951 24       		.byte	0x24
 6169 0952 07       		.uleb128 0x7
 6170 0953 B90B0000 		.4byte	.LASF161
 6171 0957 10       		.byte	0x10
 6172 0958 7C       		.byte	0x7c
 6173 0959 25000000 		.4byte	0x25
 6174 095d 28       		.byte	0x28
 6175 095e 07       		.uleb128 0x7
 6176 095f AA0A0000 		.4byte	.LASF162
 6177 0963 10       		.byte	0x10
 6178 0964 7D       		.byte	0x7d
 6179 0965 25000000 		.4byte	0x25
 6180 0969 2C       		.byte	0x2c
 6181 096a 07       		.uleb128 0x7
 6182 096b 890B0000 		.4byte	.LASF163
 6183 096f 10       		.byte	0x10
 6184 0970 7E       		.byte	0x7e
 6185 0971 25000000 		.4byte	0x25
 6186 0975 30       		.byte	0x30
 6187 0976 07       		.uleb128 0x7
 6188 0977 93130000 		.4byte	.LASF164
 6189 097b 10       		.byte	0x10
 6190 097c 7F       		.byte	0x7f
 6191 097d 25000000 		.4byte	0x25
ARM GAS  /tmp/ccq8Pe5l.s 			page 110


 6192 0981 34       		.byte	0x34
 6193 0982 07       		.uleb128 0x7
 6194 0983 7C010000 		.4byte	.LASF165
 6195 0987 10       		.byte	0x10
 6196 0988 80       		.byte	0x80
 6197 0989 6B0C0000 		.4byte	0xc6b
 6198 098d 38       		.byte	0x38
 6199 098e 07       		.uleb128 0x7
 6200 098f B2070000 		.4byte	.LASF166
 6201 0993 10       		.byte	0x10
 6202 0994 81       		.byte	0x81
 6203 0995 6B0C0000 		.4byte	0xc6b
 6204 0999 39       		.byte	0x39
 6205 099a 07       		.uleb128 0x7
 6206 099b 57070000 		.4byte	.LASF167
 6207 099f 10       		.byte	0x10
 6208 09a0 82       		.byte	0x82
 6209 09a1 25000000 		.4byte	0x25
 6210 09a5 3C       		.byte	0x3c
 6211 09a6 07       		.uleb128 0x7
 6212 09a7 1D030000 		.4byte	.LASF168
 6213 09ab 10       		.byte	0x10
 6214 09ac 83       		.byte	0x83
 6215 09ad 25000000 		.4byte	0x25
 6216 09b1 40       		.byte	0x40
 6217 09b2 07       		.uleb128 0x7
 6218 09b3 8A150000 		.4byte	.LASF169
 6219 09b7 10       		.byte	0x10
 6220 09b8 84       		.byte	0x84
 6221 09b9 25000000 		.4byte	0x25
 6222 09bd 44       		.byte	0x44
 6223 09be 07       		.uleb128 0x7
 6224 09bf D5180000 		.4byte	.LASF170
 6225 09c3 10       		.byte	0x10
 6226 09c4 85       		.byte	0x85
 6227 09c5 25000000 		.4byte	0x25
 6228 09c9 48       		.byte	0x48
 6229 09ca 07       		.uleb128 0x7
 6230 09cb 98200000 		.4byte	.LASF171
 6231 09cf 10       		.byte	0x10
 6232 09d0 86       		.byte	0x86
 6233 09d1 25000000 		.4byte	0x25
 6234 09d5 4C       		.byte	0x4c
 6235 09d6 07       		.uleb128 0x7
 6236 09d7 CD0C0000 		.4byte	.LASF172
 6237 09db 10       		.byte	0x10
 6238 09dc 87       		.byte	0x87
 6239 09dd 25000000 		.4byte	0x25
 6240 09e1 50       		.byte	0x50
 6241 09e2 07       		.uleb128 0x7
 6242 09e3 C5090000 		.4byte	.LASF173
 6243 09e7 10       		.byte	0x10
 6244 09e8 89       		.byte	0x89
 6245 09e9 25000000 		.4byte	0x25
 6246 09ed 54       		.byte	0x54
 6247 09ee 07       		.uleb128 0x7
 6248 09ef 3D0E0000 		.4byte	.LASF174
ARM GAS  /tmp/ccq8Pe5l.s 			page 111


 6249 09f3 10       		.byte	0x10
 6250 09f4 8A       		.byte	0x8a
 6251 09f5 25000000 		.4byte	0x25
 6252 09f9 58       		.byte	0x58
 6253 09fa 07       		.uleb128 0x7
 6254 09fb 381A0000 		.4byte	.LASF175
 6255 09ff 10       		.byte	0x10
 6256 0a00 8B       		.byte	0x8b
 6257 0a01 25000000 		.4byte	0x25
 6258 0a05 5C       		.byte	0x5c
 6259 0a06 07       		.uleb128 0x7
 6260 0a07 321F0000 		.4byte	.LASF176
 6261 0a0b 10       		.byte	0x10
 6262 0a0c 8C       		.byte	0x8c
 6263 0a0d 25000000 		.4byte	0x25
 6264 0a11 60       		.byte	0x60
 6265 0a12 07       		.uleb128 0x7
 6266 0a13 650C0000 		.4byte	.LASF177
 6267 0a17 10       		.byte	0x10
 6268 0a18 8E       		.byte	0x8e
 6269 0a19 25000000 		.4byte	0x25
 6270 0a1d 64       		.byte	0x64
 6271 0a1e 07       		.uleb128 0x7
 6272 0a1f A7040000 		.4byte	.LASF178
 6273 0a23 10       		.byte	0x10
 6274 0a24 8F       		.byte	0x8f
 6275 0a25 25000000 		.4byte	0x25
 6276 0a29 68       		.byte	0x68
 6277 0a2a 07       		.uleb128 0x7
 6278 0a2b 4C0E0000 		.4byte	.LASF179
 6279 0a2f 10       		.byte	0x10
 6280 0a30 90       		.byte	0x90
 6281 0a31 25000000 		.4byte	0x25
 6282 0a35 6C       		.byte	0x6c
 6283 0a36 07       		.uleb128 0x7
 6284 0a37 640F0000 		.4byte	.LASF180
 6285 0a3b 10       		.byte	0x10
 6286 0a3c 91       		.byte	0x91
 6287 0a3d 25000000 		.4byte	0x25
 6288 0a41 70       		.byte	0x70
 6289 0a42 07       		.uleb128 0x7
 6290 0a43 830D0000 		.4byte	.LASF181
 6291 0a47 10       		.byte	0x10
 6292 0a48 92       		.byte	0x92
 6293 0a49 25000000 		.4byte	0x25
 6294 0a4d 74       		.byte	0x74
 6295 0a4e 07       		.uleb128 0x7
 6296 0a4f D21B0000 		.4byte	.LASF182
 6297 0a53 10       		.byte	0x10
 6298 0a54 93       		.byte	0x93
 6299 0a55 25000000 		.4byte	0x25
 6300 0a59 78       		.byte	0x78
 6301 0a5a 07       		.uleb128 0x7
 6302 0a5b 28150000 		.4byte	.LASF183
 6303 0a5f 10       		.byte	0x10
 6304 0a60 94       		.byte	0x94
 6305 0a61 25000000 		.4byte	0x25
ARM GAS  /tmp/ccq8Pe5l.s 			page 112


 6306 0a65 7C       		.byte	0x7c
 6307 0a66 07       		.uleb128 0x7
 6308 0a67 BB0E0000 		.4byte	.LASF184
 6309 0a6b 10       		.byte	0x10
 6310 0a6c 96       		.byte	0x96
 6311 0a6d 720C0000 		.4byte	0xc72
 6312 0a71 80       		.byte	0x80
 6313 0a72 07       		.uleb128 0x7
 6314 0a73 A8160000 		.4byte	.LASF185
 6315 0a77 10       		.byte	0x10
 6316 0a78 97       		.byte	0x97
 6317 0a79 25000000 		.4byte	0x25
 6318 0a7d 88       		.byte	0x88
 6319 0a7e 07       		.uleb128 0x7
 6320 0a7f EB040000 		.4byte	.LASF186
 6321 0a83 10       		.byte	0x10
 6322 0a84 99       		.byte	0x99
 6323 0a85 25000000 		.4byte	0x25
 6324 0a89 8C       		.byte	0x8c
 6325 0a8a 07       		.uleb128 0x7
 6326 0a8b C3040000 		.4byte	.LASF187
 6327 0a8f 10       		.byte	0x10
 6328 0a90 9A       		.byte	0x9a
 6329 0a91 25000000 		.4byte	0x25
 6330 0a95 90       		.byte	0x90
 6331 0a96 07       		.uleb128 0x7
 6332 0a97 31070000 		.4byte	.LASF188
 6333 0a9b 10       		.byte	0x10
 6334 0a9c 9B       		.byte	0x9b
 6335 0a9d 25000000 		.4byte	0x25
 6336 0aa1 94       		.byte	0x94
 6337 0aa2 07       		.uleb128 0x7
 6338 0aa3 FC1A0000 		.4byte	.LASF189
 6339 0aa7 10       		.byte	0x10
 6340 0aa8 9C       		.byte	0x9c
 6341 0aa9 25000000 		.4byte	0x25
 6342 0aad 98       		.byte	0x98
 6343 0aae 07       		.uleb128 0x7
 6344 0aaf 68020000 		.4byte	.LASF190
 6345 0ab3 10       		.byte	0x10
 6346 0ab4 9D       		.byte	0x9d
 6347 0ab5 25000000 		.4byte	0x25
 6348 0ab9 9C       		.byte	0x9c
 6349 0aba 07       		.uleb128 0x7
 6350 0abb D4090000 		.4byte	.LASF191
 6351 0abf 10       		.byte	0x10
 6352 0ac0 9E       		.byte	0x9e
 6353 0ac1 6B0C0000 		.4byte	0xc6b
 6354 0ac5 A0       		.byte	0xa0
 6355 0ac6 07       		.uleb128 0x7
 6356 0ac7 62130000 		.4byte	.LASF192
 6357 0acb 10       		.byte	0x10
 6358 0acc 9F       		.byte	0x9f
 6359 0acd 25000000 		.4byte	0x25
 6360 0ad1 A4       		.byte	0xa4
 6361 0ad2 07       		.uleb128 0x7
 6362 0ad3 8F060000 		.4byte	.LASF193
ARM GAS  /tmp/ccq8Pe5l.s 			page 113


 6363 0ad7 10       		.byte	0x10
 6364 0ad8 A0       		.byte	0xa0
 6365 0ad9 25000000 		.4byte	0x25
 6366 0add A8       		.byte	0xa8
 6367 0ade 07       		.uleb128 0x7
 6368 0adf 9B060000 		.4byte	.LASF194
 6369 0ae3 10       		.byte	0x10
 6370 0ae4 A1       		.byte	0xa1
 6371 0ae5 25000000 		.4byte	0x25
 6372 0ae9 AC       		.byte	0xac
 6373 0aea 07       		.uleb128 0x7
 6374 0aeb 370F0000 		.4byte	.LASF195
 6375 0aef 10       		.byte	0x10
 6376 0af0 A2       		.byte	0xa2
 6377 0af1 25000000 		.4byte	0x25
 6378 0af5 B0       		.byte	0xb0
 6379 0af6 07       		.uleb128 0x7
 6380 0af7 E3070000 		.4byte	.LASF196
 6381 0afb 10       		.byte	0x10
 6382 0afc A3       		.byte	0xa3
 6383 0afd 25000000 		.4byte	0x25
 6384 0b01 B4       		.byte	0xb4
 6385 0b02 07       		.uleb128 0x7
 6386 0b03 7A170000 		.4byte	.LASF197
 6387 0b07 10       		.byte	0x10
 6388 0b08 A4       		.byte	0xa4
 6389 0b09 25000000 		.4byte	0x25
 6390 0b0d B8       		.byte	0xb8
 6391 0b0e 07       		.uleb128 0x7
 6392 0b0f 6F170000 		.4byte	.LASF198
 6393 0b13 10       		.byte	0x10
 6394 0b14 A5       		.byte	0xa5
 6395 0b15 25000000 		.4byte	0x25
 6396 0b19 BC       		.byte	0xbc
 6397 0b1a 07       		.uleb128 0x7
 6398 0b1b 3F110000 		.4byte	.LASF199
 6399 0b1f 10       		.byte	0x10
 6400 0b20 A6       		.byte	0xa6
 6401 0b21 25000000 		.4byte	0x25
 6402 0b25 C0       		.byte	0xc0
 6403 0b26 07       		.uleb128 0x7
 6404 0b27 0D110000 		.4byte	.LASF200
 6405 0b2b 10       		.byte	0x10
 6406 0b2c A7       		.byte	0xa7
 6407 0b2d 25000000 		.4byte	0x25
 6408 0b31 C4       		.byte	0xc4
 6409 0b32 07       		.uleb128 0x7
 6410 0b33 46170000 		.4byte	.LASF201
 6411 0b37 10       		.byte	0x10
 6412 0b38 A8       		.byte	0xa8
 6413 0b39 25000000 		.4byte	0x25
 6414 0b3d C8       		.byte	0xc8
 6415 0b3e 07       		.uleb128 0x7
 6416 0b3f C1190000 		.4byte	.LASF202
 6417 0b43 10       		.byte	0x10
 6418 0b44 A9       		.byte	0xa9
 6419 0b45 25000000 		.4byte	0x25
ARM GAS  /tmp/ccq8Pe5l.s 			page 114


 6420 0b49 CC       		.byte	0xcc
 6421 0b4a 07       		.uleb128 0x7
 6422 0b4b 031F0000 		.4byte	.LASF203
 6423 0b4f 10       		.byte	0x10
 6424 0b50 AA       		.byte	0xaa
 6425 0b51 25000000 		.4byte	0x25
 6426 0b55 D0       		.byte	0xd0
 6427 0b56 07       		.uleb128 0x7
 6428 0b57 8F0E0000 		.4byte	.LASF204
 6429 0b5b 10       		.byte	0x10
 6430 0b5c AB       		.byte	0xab
 6431 0b5d 25000000 		.4byte	0x25
 6432 0b61 D4       		.byte	0xd4
 6433 0b62 07       		.uleb128 0x7
 6434 0b63 57170000 		.4byte	.LASF205
 6435 0b67 10       		.byte	0x10
 6436 0b68 AC       		.byte	0xac
 6437 0b69 25000000 		.4byte	0x25
 6438 0b6d D8       		.byte	0xd8
 6439 0b6e 07       		.uleb128 0x7
 6440 0b6f 991A0000 		.4byte	.LASF206
 6441 0b73 10       		.byte	0x10
 6442 0b74 AD       		.byte	0xad
 6443 0b75 00080000 		.4byte	0x800
 6444 0b79 DC       		.byte	0xdc
 6445 0b7a 07       		.uleb128 0x7
 6446 0b7b E90B0000 		.4byte	.LASF207
 6447 0b7f 10       		.byte	0x10
 6448 0b80 AE       		.byte	0xae
 6449 0b81 820C0000 		.4byte	0xc82
 6450 0b85 DD       		.byte	0xdd
 6451 0b86 07       		.uleb128 0x7
 6452 0b87 530F0000 		.4byte	.LASF208
 6453 0b8b 10       		.byte	0x10
 6454 0b8c AF       		.byte	0xaf
 6455 0b8d 25000000 		.4byte	0x25
 6456 0b91 E8       		.byte	0xe8
 6457 0b92 07       		.uleb128 0x7
 6458 0b93 B5160000 		.4byte	.LASF209
 6459 0b97 10       		.byte	0x10
 6460 0b98 B1       		.byte	0xb1
 6461 0b99 25000000 		.4byte	0x25
 6462 0b9d EC       		.byte	0xec
 6463 0b9e 07       		.uleb128 0x7
 6464 0b9f 9F160000 		.4byte	.LASF210
 6465 0ba3 10       		.byte	0x10
 6466 0ba4 B2       		.byte	0xb2
 6467 0ba5 25000000 		.4byte	0x25
 6468 0ba9 F0       		.byte	0xf0
 6469 0baa 07       		.uleb128 0x7
 6470 0bab 77060000 		.4byte	.LASF211
 6471 0baf 10       		.byte	0x10
 6472 0bb0 B3       		.byte	0xb3
 6473 0bb1 25000000 		.4byte	0x25
 6474 0bb5 F4       		.byte	0xf4
 6475 0bb6 07       		.uleb128 0x7
 6476 0bb7 DA060000 		.4byte	.LASF212
ARM GAS  /tmp/ccq8Pe5l.s 			page 115


 6477 0bbb 10       		.byte	0x10
 6478 0bbc B4       		.byte	0xb4
 6479 0bbd 25000000 		.4byte	0x25
 6480 0bc1 F8       		.byte	0xf8
 6481 0bc2 07       		.uleb128 0x7
 6482 0bc3 9B140000 		.4byte	.LASF213
 6483 0bc7 10       		.byte	0x10
 6484 0bc8 B6       		.byte	0xb6
 6485 0bc9 25000000 		.4byte	0x25
 6486 0bcd FC       		.byte	0xfc
 6487 0bce 1A       		.uleb128 0x1a
 6488 0bcf 81140000 		.4byte	.LASF214
 6489 0bd3 10       		.byte	0x10
 6490 0bd4 B7       		.byte	0xb7
 6491 0bd5 25000000 		.4byte	0x25
 6492 0bd9 0001     		.2byte	0x100
 6493 0bdb 1A       		.uleb128 0x1a
 6494 0bdc 78140000 		.4byte	.LASF215
 6495 0be0 10       		.byte	0x10
 6496 0be1 B8       		.byte	0xb8
 6497 0be2 25000000 		.4byte	0x25
 6498 0be6 0401     		.2byte	0x104
 6499 0be8 1A       		.uleb128 0x1a
 6500 0be9 E71E0000 		.4byte	.LASF216
 6501 0bed 10       		.byte	0x10
 6502 0bee B9       		.byte	0xb9
 6503 0bef 25000000 		.4byte	0x25
 6504 0bf3 0801     		.2byte	0x108
 6505 0bf5 1A       		.uleb128 0x1a
 6506 0bf6 EE010000 		.4byte	.LASF217
 6507 0bfa 10       		.byte	0x10
 6508 0bfb BB       		.byte	0xbb
 6509 0bfc 25000000 		.4byte	0x25
 6510 0c00 0C01     		.2byte	0x10c
 6511 0c02 1A       		.uleb128 0x1a
 6512 0c03 E9090000 		.4byte	.LASF218
 6513 0c07 10       		.byte	0x10
 6514 0c08 BC       		.byte	0xbc
 6515 0c09 25000000 		.4byte	0x25
 6516 0c0d 1001     		.2byte	0x110
 6517 0c0f 1A       		.uleb128 0x1a
 6518 0c10 D20D0000 		.4byte	.LASF219
 6519 0c14 10       		.byte	0x10
 6520 0c15 BD       		.byte	0xbd
 6521 0c16 25000000 		.4byte	0x25
 6522 0c1a 1401     		.2byte	0x114
 6523 0c1c 1A       		.uleb128 0x1a
 6524 0c1d 4B140000 		.4byte	.LASF220
 6525 0c21 10       		.byte	0x10
 6526 0c22 BE       		.byte	0xbe
 6527 0c23 25000000 		.4byte	0x25
 6528 0c27 1801     		.2byte	0x118
 6529 0c29 1A       		.uleb128 0x1a
 6530 0c2a 2C060000 		.4byte	.LASF221
 6531 0c2e 10       		.byte	0x10
 6532 0c2f C0       		.byte	0xc0
 6533 0c30 EB000000 		.4byte	0xeb
ARM GAS  /tmp/ccq8Pe5l.s 			page 116


 6534 0c34 1C01     		.2byte	0x11c
 6535 0c36 1A       		.uleb128 0x1a
 6536 0c37 711D0000 		.4byte	.LASF222
 6537 0c3b 10       		.byte	0x10
 6538 0c3c C1       		.byte	0xc1
 6539 0c3d 25000000 		.4byte	0x25
 6540 0c41 2001     		.2byte	0x120
 6541 0c43 1A       		.uleb128 0x1a
 6542 0c44 2C030000 		.4byte	.LASF223
 6543 0c48 10       		.byte	0x10
 6544 0c49 C2       		.byte	0xc2
 6545 0c4a 25000000 		.4byte	0x25
 6546 0c4e 2401     		.2byte	0x124
 6547 0c50 1A       		.uleb128 0x1a
 6548 0c51 890C0000 		.4byte	.LASF224
 6549 0c55 10       		.byte	0x10
 6550 0c56 C3       		.byte	0xc3
 6551 0c57 25000000 		.4byte	0x25
 6552 0c5b 2801     		.2byte	0x128
 6553 0c5d 1A       		.uleb128 0x1a
 6554 0c5e 92210000 		.4byte	.LASF225
 6555 0c62 10       		.byte	0x10
 6556 0c63 C4       		.byte	0xc4
 6557 0c64 F6000000 		.4byte	0xf6
 6558 0c68 2C01     		.2byte	0x12c
 6559 0c6a 00       		.byte	0
 6560 0c6b 02       		.uleb128 0x2
 6561 0c6c 01       		.byte	0x1
 6562 0c6d 02       		.byte	0x2
 6563 0c6e 28010000 		.4byte	.LASF226
 6564 0c72 15       		.uleb128 0x15
 6565 0c73 BF000000 		.4byte	0xbf
 6566 0c77 820C0000 		.4byte	0xc82
 6567 0c7b 16       		.uleb128 0x16
 6568 0c7c B8040000 		.4byte	0x4b8
 6569 0c80 07       		.byte	0x7
 6570 0c81 00       		.byte	0
 6571 0c82 15       		.uleb128 0x15
 6572 0c83 CA000000 		.4byte	0xca
 6573 0c87 920C0000 		.4byte	0xc92
 6574 0c8b 16       		.uleb128 0x16
 6575 0c8c B8040000 		.4byte	0x4b8
 6576 0c90 07       		.byte	0x7
 6577 0c91 00       		.byte	0
 6578 0c92 04       		.uleb128 0x4
 6579 0c93 821D0000 		.4byte	.LASF227
 6580 0c97 10       		.byte	0x10
 6581 0c98 C5       		.byte	0xc5
 6582 0c99 AD080000 		.4byte	0x8ad
 6583 0c9d 17       		.uleb128 0x17
 6584 0c9e 01       		.byte	0x1
 6585 0c9f 10       		.byte	0x10
 6586 0ca0 C8       		.byte	0xc8
 6587 0ca1 DC0C0000 		.4byte	0xcdc
 6588 0ca5 18       		.uleb128 0x18
 6589 0ca6 CC140000 		.4byte	.LASF228
 6590 0caa 00       		.sleb128 0
ARM GAS  /tmp/ccq8Pe5l.s 			page 117


 6591 0cab 18       		.uleb128 0x18
 6592 0cac E60A0000 		.4byte	.LASF229
 6593 0cb0 01       		.sleb128 1
 6594 0cb1 18       		.uleb128 0x18
 6595 0cb2 FF150000 		.4byte	.LASF230
 6596 0cb6 02       		.sleb128 2
 6597 0cb7 18       		.uleb128 0x18
 6598 0cb8 3B180000 		.4byte	.LASF231
 6599 0cbc 03       		.sleb128 3
 6600 0cbd 18       		.uleb128 0x18
 6601 0cbe 7D150000 		.4byte	.LASF232
 6602 0cc2 04       		.sleb128 4
 6603 0cc3 18       		.uleb128 0x18
 6604 0cc4 5A180000 		.4byte	.LASF233
 6605 0cc8 05       		.sleb128 5
 6606 0cc9 18       		.uleb128 0x18
 6607 0cca 930A0000 		.4byte	.LASF234
 6608 0cce 06       		.sleb128 6
 6609 0ccf 18       		.uleb128 0x18
 6610 0cd0 F7150000 		.4byte	.LASF235
 6611 0cd4 07       		.sleb128 7
 6612 0cd5 18       		.uleb128 0x18
 6613 0cd6 85170000 		.4byte	.LASF236
 6614 0cda 08       		.sleb128 8
 6615 0cdb 00       		.byte	0
 6616 0cdc 04       		.uleb128 0x4
 6617 0cdd 63040000 		.4byte	.LASF237
 6618 0ce1 10       		.byte	0x10
 6619 0ce2 D2       		.byte	0xd2
 6620 0ce3 9D0C0000 		.4byte	0xc9d
 6621 0ce7 17       		.uleb128 0x17
 6622 0ce8 01       		.byte	0x1
 6623 0ce9 10       		.byte	0x10
 6624 0cea D5       		.byte	0xd5
 6625 0ceb 200D0000 		.4byte	0xd20
 6626 0cef 18       		.uleb128 0x18
 6627 0cf0 51000000 		.4byte	.LASF238
 6628 0cf4 00       		.sleb128 0
 6629 0cf5 18       		.uleb128 0x18
 6630 0cf6 130F0000 		.4byte	.LASF239
 6631 0cfa 01       		.sleb128 1
 6632 0cfb 18       		.uleb128 0x18
 6633 0cfc A3200000 		.4byte	.LASF240
 6634 0d00 02       		.sleb128 2
 6635 0d01 18       		.uleb128 0x18
 6636 0d02 B9110000 		.4byte	.LASF241
 6637 0d06 03       		.sleb128 3
 6638 0d07 18       		.uleb128 0x18
 6639 0d08 FB1B0000 		.4byte	.LASF242
 6640 0d0c 04       		.sleb128 4
 6641 0d0d 18       		.uleb128 0x18
 6642 0d0e 1F1A0000 		.4byte	.LASF243
 6643 0d12 05       		.sleb128 5
 6644 0d13 18       		.uleb128 0x18
 6645 0d14 EA120000 		.4byte	.LASF244
 6646 0d18 06       		.sleb128 6
 6647 0d19 18       		.uleb128 0x18
ARM GAS  /tmp/ccq8Pe5l.s 			page 118


 6648 0d1a BC050000 		.4byte	.LASF245
 6649 0d1e 07       		.sleb128 7
 6650 0d1f 00       		.byte	0
 6651 0d20 04       		.uleb128 0x4
 6652 0d21 600B0000 		.4byte	.LASF246
 6653 0d25 10       		.byte	0x10
 6654 0d26 DE       		.byte	0xde
 6655 0d27 E70C0000 		.4byte	0xce7
 6656 0d2b 11       		.uleb128 0x11
 6657 0d2c 28       		.byte	0x28
 6658 0d2d 10       		.byte	0x10
 6659 0d2e E0       		.byte	0xe0
 6660 0d2f C30D0000 		.4byte	0xdc3
 6661 0d33 07       		.uleb128 0x7
 6662 0d34 23000000 		.4byte	.LASF247
 6663 0d38 10       		.byte	0x10
 6664 0d39 E1       		.byte	0xe1
 6665 0d3a 200D0000 		.4byte	0xd20
 6666 0d3e 00       		.byte	0
 6667 0d3f 07       		.uleb128 0x7
 6668 0d40 2E1E0000 		.4byte	.LASF248
 6669 0d44 10       		.byte	0x10
 6670 0d45 E2       		.byte	0xe2
 6671 0d46 25000000 		.4byte	0x25
 6672 0d4a 04       		.byte	0x4
 6673 0d4b 07       		.uleb128 0x7
 6674 0d4c 23010000 		.4byte	.LASF249
 6675 0d50 10       		.byte	0x10
 6676 0d51 E3       		.byte	0xe3
 6677 0d52 25000000 		.4byte	0x25
 6678 0d56 08       		.byte	0x8
 6679 0d57 07       		.uleb128 0x7
 6680 0d58 441F0000 		.4byte	.LASF250
 6681 0d5c 10       		.byte	0x10
 6682 0d5d E4       		.byte	0xe4
 6683 0d5e 25000000 		.4byte	0x25
 6684 0d62 0C       		.byte	0xc
 6685 0d63 07       		.uleb128 0x7
 6686 0d64 F8090000 		.4byte	.LASF251
 6687 0d68 10       		.byte	0x10
 6688 0d69 E5       		.byte	0xe5
 6689 0d6a 25000000 		.4byte	0x25
 6690 0d6e 10       		.byte	0x10
 6691 0d6f 07       		.uleb128 0x7
 6692 0d70 3A070000 		.4byte	.LASF252
 6693 0d74 10       		.byte	0x10
 6694 0d75 E6       		.byte	0xe6
 6695 0d76 6B0C0000 		.4byte	0xc6b
 6696 0d7a 14       		.byte	0x14
 6697 0d7b 07       		.uleb128 0x7
 6698 0d7c D6190000 		.4byte	.LASF253
 6699 0d80 10       		.byte	0x10
 6700 0d81 E7       		.byte	0xe7
 6701 0d82 6B0C0000 		.4byte	0xc6b
 6702 0d86 15       		.byte	0x15
 6703 0d87 07       		.uleb128 0x7
 6704 0d88 11040000 		.4byte	.LASF254
ARM GAS  /tmp/ccq8Pe5l.s 			page 119


 6705 0d8c 10       		.byte	0x10
 6706 0d8d E8       		.byte	0xe8
 6707 0d8e 25000000 		.4byte	0x25
 6708 0d92 18       		.byte	0x18
 6709 0d93 07       		.uleb128 0x7
 6710 0d94 01110000 		.4byte	.LASF255
 6711 0d98 10       		.byte	0x10
 6712 0d99 E9       		.byte	0xe9
 6713 0d9a 25000000 		.4byte	0x25
 6714 0d9e 1C       		.byte	0x1c
 6715 0d9f 07       		.uleb128 0x7
 6716 0da0 A5020000 		.4byte	.LASF256
 6717 0da4 10       		.byte	0x10
 6718 0da5 EA       		.byte	0xea
 6719 0da6 6B0C0000 		.4byte	0xc6b
 6720 0daa 20       		.byte	0x20
 6721 0dab 10       		.uleb128 0x10
 6722 0dac 746300   		.ascii	"tc\000"
 6723 0daf 10       		.byte	0x10
 6724 0db0 EB       		.byte	0xeb
 6725 0db1 6B0C0000 		.4byte	0xc6b
 6726 0db5 21       		.byte	0x21
 6727 0db6 07       		.uleb128 0x7
 6728 0db7 DF040000 		.4byte	.LASF257
 6729 0dbb 10       		.byte	0x10
 6730 0dbc EC       		.byte	0xec
 6731 0dbd 25000000 		.4byte	0x25
 6732 0dc1 24       		.byte	0x24
 6733 0dc2 00       		.byte	0
 6734 0dc3 04       		.uleb128 0x4
 6735 0dc4 A3050000 		.4byte	.LASF258
 6736 0dc8 10       		.byte	0x10
 6737 0dc9 ED       		.byte	0xed
 6738 0dca 2B0D0000 		.4byte	0xd2b
 6739 0dce 17       		.uleb128 0x17
 6740 0dcf 01       		.byte	0x1
 6741 0dd0 10       		.byte	0x10
 6742 0dd1 F0       		.byte	0xf0
 6743 0dd2 130E0000 		.4byte	0xe13
 6744 0dd6 18       		.uleb128 0x18
 6745 0dd7 94190000 		.4byte	.LASF259
 6746 0ddb 00       		.sleb128 0
 6747 0ddc 18       		.uleb128 0x18
 6748 0ddd C91D0000 		.4byte	.LASF260
 6749 0de1 01       		.sleb128 1
 6750 0de2 18       		.uleb128 0x18
 6751 0de3 020A0000 		.4byte	.LASF261
 6752 0de7 02       		.sleb128 2
 6753 0de8 18       		.uleb128 0x18
 6754 0de9 4C0D0000 		.4byte	.LASF262
 6755 0ded 03       		.sleb128 3
 6756 0dee 18       		.uleb128 0x18
 6757 0def 9A0D0000 		.4byte	.LASF263
 6758 0df3 04       		.sleb128 4
 6759 0df4 18       		.uleb128 0x18
 6760 0df5 B7020000 		.4byte	.LASF264
 6761 0df9 05       		.sleb128 5
ARM GAS  /tmp/ccq8Pe5l.s 			page 120


 6762 0dfa 18       		.uleb128 0x18
 6763 0dfb 00210000 		.4byte	.LASF265
 6764 0dff 06       		.sleb128 6
 6765 0e00 18       		.uleb128 0x18
 6766 0e01 5E190000 		.4byte	.LASF266
 6767 0e05 07       		.sleb128 7
 6768 0e06 18       		.uleb128 0x18
 6769 0e07 420B0000 		.4byte	.LASF267
 6770 0e0b 08       		.sleb128 8
 6771 0e0c 18       		.uleb128 0x18
 6772 0e0d 140E0000 		.4byte	.LASF268
 6773 0e11 09       		.sleb128 9
 6774 0e12 00       		.byte	0
 6775 0e13 04       		.uleb128 0x4
 6776 0e14 7E160000 		.4byte	.LASF269
 6777 0e18 10       		.byte	0x10
 6778 0e19 FB       		.byte	0xfb
 6779 0e1a CE0D0000 		.4byte	0xdce
 6780 0e1e 11       		.uleb128 0x11
 6781 0e1f 2C       		.byte	0x2c
 6782 0e20 10       		.byte	0x10
 6783 0e21 FD       		.byte	0xfd
 6784 0e22 E70E0000 		.4byte	0xee7
 6785 0e26 07       		.uleb128 0x7
 6786 0e27 23000000 		.4byte	.LASF247
 6787 0e2b 10       		.byte	0x10
 6788 0e2c FE       		.byte	0xfe
 6789 0e2d 130E0000 		.4byte	0xe13
 6790 0e31 00       		.byte	0
 6791 0e32 07       		.uleb128 0x7
 6792 0e33 23010000 		.4byte	.LASF249
 6793 0e37 10       		.byte	0x10
 6794 0e38 FF       		.byte	0xff
 6795 0e39 25000000 		.4byte	0x25
 6796 0e3d 04       		.byte	0x4
 6797 0e3e 09       		.uleb128 0x9
 6798 0e3f D4050000 		.4byte	.LASF270
 6799 0e43 10       		.byte	0x10
 6800 0e44 0001     		.2byte	0x100
 6801 0e46 25000000 		.4byte	0x25
 6802 0e4a 08       		.byte	0x8
 6803 0e4b 09       		.uleb128 0x9
 6804 0e4c EA140000 		.4byte	.LASF271
 6805 0e50 10       		.byte	0x10
 6806 0e51 0101     		.2byte	0x101
 6807 0e53 25000000 		.4byte	0x25
 6808 0e57 0C       		.byte	0xc
 6809 0e58 09       		.uleb128 0x9
 6810 0e59 581D0000 		.4byte	.LASF272
 6811 0e5d 10       		.byte	0x10
 6812 0e5e 0201     		.2byte	0x102
 6813 0e60 6B0C0000 		.4byte	0xc6b
 6814 0e64 10       		.byte	0x10
 6815 0e65 09       		.uleb128 0x9
 6816 0e66 D6190000 		.4byte	.LASF253
 6817 0e6a 10       		.byte	0x10
 6818 0e6b 0301     		.2byte	0x103
ARM GAS  /tmp/ccq8Pe5l.s 			page 121


 6819 0e6d 6B0C0000 		.4byte	0xc6b
 6820 0e71 11       		.byte	0x11
 6821 0e72 09       		.uleb128 0x9
 6822 0e73 2E010000 		.4byte	.LASF273
 6823 0e77 10       		.byte	0x10
 6824 0e78 0401     		.2byte	0x104
 6825 0e7a 6B0C0000 		.4byte	0xc6b
 6826 0e7e 12       		.byte	0x12
 6827 0e7f 09       		.uleb128 0x9
 6828 0e80 90180000 		.4byte	.LASF274
 6829 0e84 10       		.byte	0x10
 6830 0e85 0501     		.2byte	0x105
 6831 0e87 6B0C0000 		.4byte	0xc6b
 6832 0e8b 13       		.byte	0x13
 6833 0e8c 09       		.uleb128 0x9
 6834 0e8d 5A010000 		.4byte	.LASF275
 6835 0e91 10       		.byte	0x10
 6836 0e92 0601     		.2byte	0x106
 6837 0e94 6B0C0000 		.4byte	0xc6b
 6838 0e98 14       		.byte	0x14
 6839 0e99 09       		.uleb128 0x9
 6840 0e9a 11040000 		.4byte	.LASF254
 6841 0e9e 10       		.byte	0x10
 6842 0e9f 0701     		.2byte	0x107
 6843 0ea1 25000000 		.4byte	0x25
 6844 0ea5 18       		.byte	0x18
 6845 0ea6 09       		.uleb128 0x9
 6846 0ea7 01110000 		.4byte	.LASF255
 6847 0eab 10       		.byte	0x10
 6848 0eac 0801     		.2byte	0x108
 6849 0eae 25000000 		.4byte	0x25
 6850 0eb2 1C       		.byte	0x1c
 6851 0eb3 09       		.uleb128 0x9
 6852 0eb4 A5020000 		.4byte	.LASF256
 6853 0eb8 10       		.byte	0x10
 6854 0eb9 0901     		.2byte	0x109
 6855 0ebb 6B0C0000 		.4byte	0xc6b
 6856 0ebf 20       		.byte	0x20
 6857 0ec0 08       		.uleb128 0x8
 6858 0ec1 746300   		.ascii	"tc\000"
 6859 0ec4 10       		.byte	0x10
 6860 0ec5 0A01     		.2byte	0x10a
 6861 0ec7 6B0C0000 		.4byte	0xc6b
 6862 0ecb 21       		.byte	0x21
 6863 0ecc 09       		.uleb128 0x9
 6864 0ecd DF040000 		.4byte	.LASF257
 6865 0ed1 10       		.byte	0x10
 6866 0ed2 0B01     		.2byte	0x10b
 6867 0ed4 25000000 		.4byte	0x25
 6868 0ed8 24       		.byte	0x24
 6869 0ed9 09       		.uleb128 0x9
 6870 0eda 84070000 		.4byte	.LASF276
 6871 0ede 10       		.byte	0x10
 6872 0edf 0C01     		.2byte	0x10c
 6873 0ee1 F6000000 		.4byte	0xf6
 6874 0ee5 28       		.byte	0x28
 6875 0ee6 00       		.byte	0
ARM GAS  /tmp/ccq8Pe5l.s 			page 122


 6876 0ee7 1B       		.uleb128 0x1b
 6877 0ee8 1B060000 		.4byte	.LASF277
 6878 0eec 10       		.byte	0x10
 6879 0eed 0D01     		.2byte	0x10d
 6880 0eef 1E0E0000 		.4byte	0xe1e
 6881 0ef3 1C       		.uleb128 0x1c
 6882 0ef4 01       		.byte	0x1
 6883 0ef5 10       		.byte	0x10
 6884 0ef6 1001     		.2byte	0x110
 6885 0ef8 0F0F0000 		.4byte	0xf0f
 6886 0efc 18       		.uleb128 0x18
 6887 0efd F8110000 		.4byte	.LASF278
 6888 0f01 00       		.sleb128 0
 6889 0f02 18       		.uleb128 0x18
 6890 0f03 00000000 		.4byte	.LASF279
 6891 0f07 01       		.sleb128 1
 6892 0f08 18       		.uleb128 0x18
 6893 0f09 DB110000 		.4byte	.LASF280
 6894 0f0d 02       		.sleb128 2
 6895 0f0e 00       		.byte	0
 6896 0f0f 1B       		.uleb128 0x1b
 6897 0f10 51120000 		.4byte	.LASF281
 6898 0f14 10       		.byte	0x10
 6899 0f15 1401     		.2byte	0x114
 6900 0f17 F30E0000 		.4byte	0xef3
 6901 0f1b 1D       		.uleb128 0x1d
 6902 0f1c 24       		.byte	0x24
 6903 0f1d 10       		.byte	0x10
 6904 0f1e 1601     		.2byte	0x116
 6905 0f20 A60F0000 		.4byte	0xfa6
 6906 0f24 09       		.uleb128 0x9
 6907 0f25 23000000 		.4byte	.LASF247
 6908 0f29 10       		.byte	0x10
 6909 0f2a 1701     		.2byte	0x117
 6910 0f2c 0F0F0000 		.4byte	0xf0f
 6911 0f30 00       		.byte	0
 6912 0f31 09       		.uleb128 0x9
 6913 0f32 23010000 		.4byte	.LASF249
 6914 0f36 10       		.byte	0x10
 6915 0f37 1801     		.2byte	0x118
 6916 0f39 25000000 		.4byte	0x25
 6917 0f3d 04       		.byte	0x4
 6918 0f3e 09       		.uleb128 0x9
 6919 0f3f 11040000 		.4byte	.LASF254
 6920 0f43 10       		.byte	0x10
 6921 0f44 1901     		.2byte	0x119
 6922 0f46 25000000 		.4byte	0x25
 6923 0f4a 08       		.byte	0x8
 6924 0f4b 09       		.uleb128 0x9
 6925 0f4c 01110000 		.4byte	.LASF255
 6926 0f50 10       		.byte	0x10
 6927 0f51 1A01     		.2byte	0x11a
 6928 0f53 25000000 		.4byte	0x25
 6929 0f57 0C       		.byte	0xc
 6930 0f58 09       		.uleb128 0x9
 6931 0f59 3B150000 		.4byte	.LASF282
 6932 0f5d 10       		.byte	0x10
ARM GAS  /tmp/ccq8Pe5l.s 			page 123


 6933 0f5e 1B01     		.2byte	0x11b
 6934 0f60 25000000 		.4byte	0x25
 6935 0f64 10       		.byte	0x10
 6936 0f65 09       		.uleb128 0x9
 6937 0f66 43090000 		.4byte	.LASF283
 6938 0f6a 10       		.byte	0x10
 6939 0f6b 1C01     		.2byte	0x11c
 6940 0f6d 25000000 		.4byte	0x25
 6941 0f71 14       		.byte	0x14
 6942 0f72 09       		.uleb128 0x9
 6943 0f73 F5070000 		.4byte	.LASF284
 6944 0f77 10       		.byte	0x10
 6945 0f78 1D01     		.2byte	0x11d
 6946 0f7a 25000000 		.4byte	0x25
 6947 0f7e 18       		.byte	0x18
 6948 0f7f 09       		.uleb128 0x9
 6949 0f80 A5020000 		.4byte	.LASF256
 6950 0f84 10       		.byte	0x10
 6951 0f85 1E01     		.2byte	0x11e
 6952 0f87 6B0C0000 		.4byte	0xc6b
 6953 0f8b 1C       		.byte	0x1c
 6954 0f8c 08       		.uleb128 0x8
 6955 0f8d 746300   		.ascii	"tc\000"
 6956 0f90 10       		.byte	0x10
 6957 0f91 1F01     		.2byte	0x11f
 6958 0f93 6B0C0000 		.4byte	0xc6b
 6959 0f97 1D       		.byte	0x1d
 6960 0f98 09       		.uleb128 0x9
 6961 0f99 DF040000 		.4byte	.LASF257
 6962 0f9d 10       		.byte	0x10
 6963 0f9e 2001     		.2byte	0x120
 6964 0fa0 25000000 		.4byte	0x25
 6965 0fa4 20       		.byte	0x20
 6966 0fa5 00       		.byte	0
 6967 0fa6 1B       		.uleb128 0x1b
 6968 0fa7 88190000 		.4byte	.LASF285
 6969 0fab 10       		.byte	0x10
 6970 0fac 2101     		.2byte	0x121
 6971 0fae 1B0F0000 		.4byte	0xf1b
 6972 0fb2 1C       		.uleb128 0x1c
 6973 0fb3 01       		.byte	0x1
 6974 0fb4 10       		.byte	0x10
 6975 0fb5 2401     		.2byte	0x124
 6976 0fb7 CE0F0000 		.4byte	0xfce
 6977 0fbb 18       		.uleb128 0x18
 6978 0fbc 9D110000 		.4byte	.LASF286
 6979 0fc0 00       		.sleb128 0
 6980 0fc1 18       		.uleb128 0x18
 6981 0fc2 FB160000 		.4byte	.LASF287
 6982 0fc6 01       		.sleb128 1
 6983 0fc7 18       		.uleb128 0x18
 6984 0fc8 15180000 		.4byte	.LASF288
 6985 0fcc 02       		.sleb128 2
 6986 0fcd 00       		.byte	0
 6987 0fce 1B       		.uleb128 0x1b
 6988 0fcf 39090000 		.4byte	.LASF289
 6989 0fd3 10       		.byte	0x10
ARM GAS  /tmp/ccq8Pe5l.s 			page 124


 6990 0fd4 2801     		.2byte	0x128
 6991 0fd6 B20F0000 		.4byte	0xfb2
 6992 0fda 1C       		.uleb128 0x1c
 6993 0fdb 01       		.byte	0x1
 6994 0fdc 10       		.byte	0x10
 6995 0fdd 2A01     		.2byte	0x12a
 6996 0fdf FC0F0000 		.4byte	0xffc
 6997 0fe3 18       		.uleb128 0x18
 6998 0fe4 B1010000 		.4byte	.LASF290
 6999 0fe8 00       		.sleb128 0
 7000 0fe9 18       		.uleb128 0x18
 7001 0fea 07050000 		.4byte	.LASF291
 7002 0fee 01       		.sleb128 1
 7003 0fef 18       		.uleb128 0x18
 7004 0ff0 17070000 		.4byte	.LASF292
 7005 0ff4 02       		.sleb128 2
 7006 0ff5 18       		.uleb128 0x18
 7007 0ff6 F5020000 		.4byte	.LASF293
 7008 0ffa 03       		.sleb128 3
 7009 0ffb 00       		.byte	0
 7010 0ffc 1B       		.uleb128 0x1b
 7011 0ffd A5130000 		.4byte	.LASF294
 7012 1001 10       		.byte	0x10
 7013 1002 2F01     		.2byte	0x12f
 7014 1004 DA0F0000 		.4byte	0xfda
 7015 1008 1C       		.uleb128 0x1c
 7016 1009 01       		.byte	0x1
 7017 100a 10       		.byte	0x10
 7018 100b 3701     		.2byte	0x137
 7019 100d 24100000 		.4byte	0x1024
 7020 1011 18       		.uleb128 0x18
 7021 1012 8A140000 		.4byte	.LASF295
 7022 1016 00       		.sleb128 0
 7023 1017 18       		.uleb128 0x18
 7024 1018 DF1D0000 		.4byte	.LASF296
 7025 101c 01       		.sleb128 1
 7026 101d 18       		.uleb128 0x18
 7027 101e 5D1E0000 		.4byte	.LASF297
 7028 1022 02       		.sleb128 2
 7029 1023 00       		.byte	0
 7030 1024 1B       		.uleb128 0x1b
 7031 1025 7B050000 		.4byte	.LASF298
 7032 1029 10       		.byte	0x10
 7033 102a 3B01     		.2byte	0x13b
 7034 102c 08100000 		.4byte	0x1008
 7035 1030 1C       		.uleb128 0x1c
 7036 1031 01       		.byte	0x1
 7037 1032 10       		.byte	0x10
 7038 1033 3D01     		.2byte	0x13d
 7039 1035 9A100000 		.4byte	0x109a
 7040 1039 18       		.uleb128 0x18
 7041 103a 22110000 		.4byte	.LASF299
 7042 103e 00       		.sleb128 0
 7043 103f 18       		.uleb128 0x18
 7044 1040 E0020000 		.4byte	.LASF300
 7045 1044 01       		.sleb128 1
 7046 1045 18       		.uleb128 0x18
ARM GAS  /tmp/ccq8Pe5l.s 			page 125


 7047 1046 F1000000 		.4byte	.LASF301
 7048 104a 02       		.sleb128 2
 7049 104b 18       		.uleb128 0x18
 7050 104c 261D0000 		.4byte	.LASF302
 7051 1050 03       		.sleb128 3
 7052 1051 18       		.uleb128 0x18
 7053 1052 7A1E0000 		.4byte	.LASF303
 7054 1056 04       		.sleb128 4
 7055 1057 18       		.uleb128 0x18
 7056 1058 DA0D0000 		.4byte	.LASF304
 7057 105c 05       		.sleb128 5
 7058 105d 18       		.uleb128 0x18
 7059 105e DD0E0000 		.4byte	.LASF305
 7060 1062 06       		.sleb128 6
 7061 1063 18       		.uleb128 0x18
 7062 1064 321C0000 		.4byte	.LASF306
 7063 1068 07       		.sleb128 7
 7064 1069 18       		.uleb128 0x18
 7065 106a FF1D0000 		.4byte	.LASF307
 7066 106e 08       		.sleb128 8
 7067 106f 18       		.uleb128 0x18
 7068 1070 C30B0000 		.4byte	.LASF308
 7069 1074 09       		.sleb128 9
 7070 1075 18       		.uleb128 0x18
 7071 1076 A50E0000 		.4byte	.LASF309
 7072 107a 0A       		.sleb128 10
 7073 107b 18       		.uleb128 0x18
 7074 107c B21B0000 		.4byte	.LASF310
 7075 1080 0B       		.sleb128 11
 7076 1081 18       		.uleb128 0x18
 7077 1082 931D0000 		.4byte	.LASF311
 7078 1086 0C       		.sleb128 12
 7079 1087 18       		.uleb128 0x18
 7080 1088 360D0000 		.4byte	.LASF312
 7081 108c 0D       		.sleb128 13
 7082 108d 18       		.uleb128 0x18
 7083 108e 53150000 		.4byte	.LASF313
 7084 1092 0E       		.sleb128 14
 7085 1093 18       		.uleb128 0x18
 7086 1094 46080000 		.4byte	.LASF314
 7087 1098 0F       		.sleb128 15
 7088 1099 00       		.byte	0
 7089 109a 1B       		.uleb128 0x1b
 7090 109b A0030000 		.4byte	.LASF315
 7091 109f 10       		.byte	0x10
 7092 10a0 4E01     		.2byte	0x14e
 7093 10a2 30100000 		.4byte	0x1030
 7094 10a6 1D       		.uleb128 0x1d
 7095 10a7 0A       		.byte	0xa
 7096 10a8 10       		.byte	0x10
 7097 10a9 5001     		.2byte	0x150
 7098 10ab 18110000 		.4byte	0x1118
 7099 10af 09       		.uleb128 0x9
 7100 10b0 09190000 		.4byte	.LASF316
 7101 10b4 10       		.byte	0x10
 7102 10b5 5101     		.2byte	0x151
 7103 10b7 CE0F0000 		.4byte	0xfce
ARM GAS  /tmp/ccq8Pe5l.s 			page 126


 7104 10bb 00       		.byte	0
 7105 10bc 09       		.uleb128 0x9
 7106 10bd C6140000 		.4byte	.LASF317
 7107 10c1 10       		.byte	0x10
 7108 10c2 5201     		.2byte	0x152
 7109 10c4 FC0F0000 		.4byte	0xffc
 7110 10c8 01       		.byte	0x1
 7111 10c9 09       		.uleb128 0x9
 7112 10ca 1C120000 		.4byte	.LASF318
 7113 10ce 10       		.byte	0x10
 7114 10cf 5301     		.2byte	0x153
 7115 10d1 24100000 		.4byte	0x1024
 7116 10d5 02       		.byte	0x2
 7117 10d6 09       		.uleb128 0x9
 7118 10d7 3B1E0000 		.4byte	.LASF319
 7119 10db 10       		.byte	0x10
 7120 10dc 5401     		.2byte	0x154
 7121 10de 9A100000 		.4byte	0x109a
 7122 10e2 03       		.byte	0x3
 7123 10e3 09       		.uleb128 0x9
 7124 10e4 AF020000 		.4byte	.LASF320
 7125 10e8 10       		.byte	0x10
 7126 10e9 5501     		.2byte	0x155
 7127 10eb 50000000 		.4byte	0x50
 7128 10ef 04       		.byte	0x4
 7129 10f0 09       		.uleb128 0x9
 7130 10f1 CA0D0000 		.4byte	.LASF321
 7131 10f5 10       		.byte	0x10
 7132 10f6 5601     		.2byte	0x156
 7133 10f8 50000000 		.4byte	0x50
 7134 10fc 05       		.byte	0x5
 7135 10fd 09       		.uleb128 0x9
 7136 10fe 7B0D0000 		.4byte	.LASF322
 7137 1102 10       		.byte	0x10
 7138 1103 5701     		.2byte	0x157
 7139 1105 18110000 		.4byte	0x1118
 7140 1109 06       		.byte	0x6
 7141 110a 09       		.uleb128 0x9
 7142 110b CF0A0000 		.4byte	.LASF323
 7143 110f 10       		.byte	0x10
 7144 1110 5801     		.2byte	0x158
 7145 1112 6B0C0000 		.4byte	0xc6b
 7146 1116 09       		.byte	0x9
 7147 1117 00       		.byte	0
 7148 1118 15       		.uleb128 0x15
 7149 1119 50000000 		.4byte	0x50
 7150 111d 28110000 		.4byte	0x1128
 7151 1121 16       		.uleb128 0x16
 7152 1122 B8040000 		.4byte	0x4b8
 7153 1126 02       		.byte	0x2
 7154 1127 00       		.byte	0
 7155 1128 1B       		.uleb128 0x1b
 7156 1129 0C070000 		.4byte	.LASF324
 7157 112d 10       		.byte	0x10
 7158 112e 5901     		.2byte	0x159
 7159 1130 A6100000 		.4byte	0x10a6
 7160 1134 1D       		.uleb128 0x1d
ARM GAS  /tmp/ccq8Pe5l.s 			page 127


 7161 1135 A0       		.byte	0xa0
 7162 1136 10       		.byte	0x10
 7163 1137 5B01     		.2byte	0x15b
 7164 1139 CD110000 		.4byte	0x11cd
 7165 113d 09       		.uleb128 0x9
 7166 113e F51E0000 		.4byte	.LASF325
 7167 1142 10       		.byte	0x10
 7168 1143 5D01     		.2byte	0x15d
 7169 1145 CA000000 		.4byte	0xca
 7170 1149 00       		.byte	0
 7171 114a 09       		.uleb128 0x9
 7172 114b 400A0000 		.4byte	.LASF326
 7173 114f 10       		.byte	0x10
 7174 1150 5E01     		.2byte	0x15e
 7175 1152 F6000000 		.4byte	0xf6
 7176 1156 04       		.byte	0x4
 7177 1157 09       		.uleb128 0x9
 7178 1158 880F0000 		.4byte	.LASF327
 7179 115c 10       		.byte	0x10
 7180 115d 5F01     		.2byte	0x15f
 7181 115f 25000000 		.4byte	0x25
 7182 1163 08       		.byte	0x8
 7183 1164 09       		.uleb128 0x9
 7184 1165 550A0000 		.4byte	.LASF328
 7185 1169 10       		.byte	0x10
 7186 116a 6001     		.2byte	0x160
 7187 116c 6B0C0000 		.4byte	0xc6b
 7188 1170 0C       		.byte	0xc
 7189 1171 09       		.uleb128 0x9
 7190 1172 A91E0000 		.4byte	.LASF329
 7191 1176 10       		.byte	0x10
 7192 1177 6101     		.2byte	0x161
 7193 1179 F6000000 		.4byte	0xf6
 7194 117d 10       		.byte	0x10
 7195 117e 09       		.uleb128 0x9
 7196 117f 44180000 		.4byte	.LASF330
 7197 1183 10       		.byte	0x10
 7198 1184 6401     		.2byte	0x164
 7199 1186 DC0C0000 		.4byte	0xcdc
 7200 118a 14       		.byte	0x14
 7201 118b 09       		.uleb128 0x9
 7202 118c A0100000 		.4byte	.LASF331
 7203 1190 10       		.byte	0x10
 7204 1191 6701     		.2byte	0x167
 7205 1193 C30D0000 		.4byte	0xdc3
 7206 1197 18       		.byte	0x18
 7207 1198 09       		.uleb128 0x9
 7208 1199 6E050000 		.4byte	.LASF332
 7209 119d 10       		.byte	0x10
 7210 119e 6A01     		.2byte	0x16a
 7211 11a0 E70E0000 		.4byte	0xee7
 7212 11a4 40       		.byte	0x40
 7213 11a5 09       		.uleb128 0x9
 7214 11a6 DB030000 		.4byte	.LASF333
 7215 11aa 10       		.byte	0x10
 7216 11ab 6D01     		.2byte	0x16d
 7217 11ad F6000000 		.4byte	0xf6
ARM GAS  /tmp/ccq8Pe5l.s 			page 128


 7218 11b1 6C       		.byte	0x6c
 7219 11b2 09       		.uleb128 0x9
 7220 11b3 290F0000 		.4byte	.LASF334
 7221 11b7 10       		.byte	0x10
 7222 11b8 7001     		.2byte	0x170
 7223 11ba A60F0000 		.4byte	0xfa6
 7224 11be 70       		.byte	0x70
 7225 11bf 09       		.uleb128 0x9
 7226 11c0 D2040000 		.4byte	.LASF335
 7227 11c4 10       		.byte	0x10
 7228 11c5 7301     		.2byte	0x173
 7229 11c7 28110000 		.4byte	0x1128
 7230 11cb 94       		.byte	0x94
 7231 11cc 00       		.byte	0
 7232 11cd 1B       		.uleb128 0x1b
 7233 11ce DA160000 		.4byte	.LASF336
 7234 11d2 10       		.byte	0x10
 7235 11d3 7401     		.2byte	0x174
 7236 11d5 34110000 		.4byte	0x1134
 7237 11d9 1C       		.uleb128 0x1c
 7238 11da 01       		.byte	0x1
 7239 11db 10       		.byte	0x10
 7240 11dc 7701     		.2byte	0x177
 7241 11de BB120000 		.4byte	0x12bb
 7242 11e2 18       		.uleb128 0x18
 7243 11e3 7A000000 		.4byte	.LASF337
 7244 11e7 00       		.sleb128 0
 7245 11e8 18       		.uleb128 0x18
 7246 11e9 BE120000 		.4byte	.LASF338
 7247 11ed 01       		.sleb128 1
 7248 11ee 18       		.uleb128 0x18
 7249 11ef 8C090000 		.4byte	.LASF339
 7250 11f3 02       		.sleb128 2
 7251 11f4 18       		.uleb128 0x18
 7252 11f5 74090000 		.4byte	.LASF340
 7253 11f9 03       		.sleb128 3
 7254 11fa 18       		.uleb128 0x18
 7255 11fb 4C160000 		.4byte	.LASF341
 7256 11ff 04       		.sleb128 4
 7257 1200 18       		.uleb128 0x18
 7258 1201 7B0B0000 		.4byte	.LASF342
 7259 1205 05       		.sleb128 5
 7260 1206 18       		.uleb128 0x18
 7261 1207 A60F0000 		.4byte	.LASF343
 7262 120b 06       		.sleb128 6
 7263 120c 18       		.uleb128 0x18
 7264 120d 4F1B0000 		.4byte	.LASF344
 7265 1211 07       		.sleb128 7
 7266 1212 18       		.uleb128 0x18
 7267 1213 A51B0000 		.4byte	.LASF345
 7268 1217 08       		.sleb128 8
 7269 1218 18       		.uleb128 0x18
 7270 1219 BB130000 		.4byte	.LASF346
 7271 121d 09       		.sleb128 9
 7272 121e 18       		.uleb128 0x18
 7273 121f A7120000 		.4byte	.LASF347
 7274 1223 0A       		.sleb128 10
ARM GAS  /tmp/ccq8Pe5l.s 			page 129


 7275 1224 18       		.uleb128 0x18
 7276 1225 F80B0000 		.4byte	.LASF348
 7277 1229 0B       		.sleb128 11
 7278 122a 18       		.uleb128 0x18
 7279 122b 77030000 		.4byte	.LASF349
 7280 122f 0C       		.sleb128 12
 7281 1230 18       		.uleb128 0x18
 7282 1231 D90B0000 		.4byte	.LASF350
 7283 1235 0D       		.sleb128 13
 7284 1236 18       		.uleb128 0x18
 7285 1237 34160000 		.4byte	.LASF351
 7286 123b 0E       		.sleb128 14
 7287 123c 18       		.uleb128 0x18
 7288 123d F6190000 		.4byte	.LASF352
 7289 1241 0F       		.sleb128 15
 7290 1242 18       		.uleb128 0x18
 7291 1243 AB180000 		.4byte	.LASF353
 7292 1247 10       		.sleb128 16
 7293 1248 18       		.uleb128 0x18
 7294 1249 151E0000 		.4byte	.LASF354
 7295 124d 11       		.sleb128 17
 7296 124e 18       		.uleb128 0x18
 7297 124f 09060000 		.4byte	.LASF355
 7298 1253 12       		.sleb128 18
 7299 1254 18       		.uleb128 0x18
 7300 1255 B71D0000 		.4byte	.LASF356
 7301 1259 13       		.sleb128 19
 7302 125a 18       		.uleb128 0x18
 7303 125b CF160000 		.4byte	.LASF357
 7304 125f 14       		.sleb128 20
 7305 1260 18       		.uleb128 0x18
 7306 1261 3C1D0000 		.4byte	.LASF358
 7307 1265 15       		.sleb128 21
 7308 1266 18       		.uleb128 0x18
 7309 1267 D80C0000 		.4byte	.LASF359
 7310 126b 16       		.sleb128 22
 7311 126c 18       		.uleb128 0x18
 7312 126d 4A1A0000 		.4byte	.LASF360
 7313 1271 17       		.sleb128 23
 7314 1272 18       		.uleb128 0x18
 7315 1273 FF170000 		.4byte	.LASF361
 7316 1277 18       		.sleb128 24
 7317 1278 18       		.uleb128 0x18
 7318 1279 740A0000 		.4byte	.LASF362
 7319 127d 19       		.sleb128 25
 7320 127e 18       		.uleb128 0x18
 7321 127f 20160000 		.4byte	.LASF363
 7322 1283 1A       		.sleb128 26
 7323 1284 18       		.uleb128 0x18
 7324 1285 BC000000 		.4byte	.LASF364
 7325 1289 1B       		.sleb128 27
 7326 128a 18       		.uleb128 0x18
 7327 128b 86040000 		.4byte	.LASF365
 7328 128f 1C       		.sleb128 28
 7329 1290 18       		.uleb128 0x18
 7330 1291 9D070000 		.4byte	.LASF366
 7331 1295 1D       		.sleb128 29
ARM GAS  /tmp/ccq8Pe5l.s 			page 130


 7332 1296 18       		.uleb128 0x18
 7333 1297 2B0C0000 		.4byte	.LASF367
 7334 129b 1E       		.sleb128 30
 7335 129c 18       		.uleb128 0x18
 7336 129d E1190000 		.4byte	.LASF368
 7337 12a1 1F       		.sleb128 31
 7338 12a2 18       		.uleb128 0x18
 7339 12a3 7D130000 		.4byte	.LASF369
 7340 12a7 20       		.sleb128 32
 7341 12a8 18       		.uleb128 0x18
 7342 12a9 B50C0000 		.4byte	.LASF370
 7343 12ad 21       		.sleb128 33
 7344 12ae 18       		.uleb128 0x18
 7345 12af 67180000 		.4byte	.LASF371
 7346 12b3 22       		.sleb128 34
 7347 12b4 18       		.uleb128 0x18
 7348 12b5 111D0000 		.4byte	.LASF372
 7349 12b9 23       		.sleb128 35
 7350 12ba 00       		.byte	0
 7351 12bb 1B       		.uleb128 0x1b
 7352 12bc B70F0000 		.4byte	.LASF373
 7353 12c0 10       		.byte	0x10
 7354 12c1 9C01     		.2byte	0x19c
 7355 12c3 D9110000 		.4byte	0x11d9
 7356 12c7 1D       		.uleb128 0x1d
 7357 12c8 18       		.byte	0x18
 7358 12c9 10       		.byte	0x10
 7359 12ca CC01     		.2byte	0x1cc
 7360 12cc 2C130000 		.4byte	0x132c
 7361 12d0 09       		.uleb128 0x9
 7362 12d1 9B020000 		.4byte	.LASF374
 7363 12d5 10       		.byte	0x10
 7364 12d6 CD01     		.2byte	0x1cd
 7365 12d8 2C000000 		.4byte	0x2c
 7366 12dc 00       		.byte	0
 7367 12dd 09       		.uleb128 0x9
 7368 12de A0020000 		.4byte	.LASF375
 7369 12e2 10       		.byte	0x10
 7370 12e3 CE01     		.2byte	0x1ce
 7371 12e5 2C000000 		.4byte	0x2c
 7372 12e9 04       		.byte	0x4
 7373 12ea 09       		.uleb128 0x9
 7374 12eb 4A040000 		.4byte	.LASF376
 7375 12ef 10       		.byte	0x10
 7376 12f0 CF01     		.2byte	0x1cf
 7377 12f2 2C000000 		.4byte	0x2c
 7378 12f6 08       		.byte	0x8
 7379 12f7 09       		.uleb128 0x9
 7380 12f8 50040000 		.4byte	.LASF377
 7381 12fc 10       		.byte	0x10
 7382 12fd D001     		.2byte	0x1d0
 7383 12ff 2C000000 		.4byte	0x2c
 7384 1303 0C       		.byte	0xc
 7385 1304 09       		.uleb128 0x9
 7386 1305 56040000 		.4byte	.LASF378
 7387 1309 10       		.byte	0x10
 7388 130a D101     		.2byte	0x1d1
ARM GAS  /tmp/ccq8Pe5l.s 			page 131


 7389 130c 2C000000 		.4byte	0x2c
 7390 1310 10       		.byte	0x10
 7391 1311 09       		.uleb128 0x9
 7392 1312 34090000 		.4byte	.LASF379
 7393 1316 10       		.byte	0x10
 7394 1317 D201     		.2byte	0x1d2
 7395 1319 6B0C0000 		.4byte	0xc6b
 7396 131d 14       		.byte	0x14
 7397 131e 09       		.uleb128 0x9
 7398 131f 51090000 		.4byte	.LASF380
 7399 1323 10       		.byte	0x10
 7400 1324 D301     		.2byte	0x1d3
 7401 1326 6B0C0000 		.4byte	0xc6b
 7402 132a 15       		.byte	0x15
 7403 132b 00       		.byte	0
 7404 132c 1B       		.uleb128 0x1b
 7405 132d 9F0A0000 		.4byte	.LASF381
 7406 1331 10       		.byte	0x10
 7407 1332 D401     		.2byte	0x1d4
 7408 1334 C7120000 		.4byte	0x12c7
 7409 1338 17       		.uleb128 0x17
 7410 1339 01       		.byte	0x1
 7411 133a 11       		.byte	0x11
 7412 133b 35       		.byte	0x35
 7413 133c 77130000 		.4byte	0x1377
 7414 1340 18       		.uleb128 0x18
 7415 1341 BA090000 		.4byte	.LASF382
 7416 1345 01       		.sleb128 1
 7417 1346 18       		.uleb128 0x18
 7418 1347 5C080000 		.4byte	.LASF383
 7419 134b 02       		.sleb128 2
 7420 134c 18       		.uleb128 0x18
 7421 134d E1000000 		.4byte	.LASF384
 7422 1351 03       		.sleb128 3
 7423 1352 18       		.uleb128 0x18
 7424 1353 D1000000 		.4byte	.LASF385
 7425 1357 04       		.sleb128 4
 7426 1358 18       		.uleb128 0x18
 7427 1359 8A000000 		.4byte	.LASF386
 7428 135d 05       		.sleb128 5
 7429 135e 18       		.uleb128 0x18
 7430 135f 221C0000 		.4byte	.LASF387
 7431 1363 06       		.sleb128 6
 7432 1364 18       		.uleb128 0x18
 7433 1365 E9080000 		.4byte	.LASF388
 7434 1369 07       		.sleb128 7
 7435 136a 18       		.uleb128 0x18
 7436 136b D8010000 		.4byte	.LASF389
 7437 136f 08       		.sleb128 8
 7438 1370 18       		.uleb128 0x18
 7439 1371 EC160000 		.4byte	.LASF390
 7440 1375 09       		.sleb128 9
 7441 1376 00       		.byte	0
 7442 1377 0A       		.uleb128 0xa
 7443 1378 04       		.byte	0x4
 7444 1379 50000000 		.4byte	0x50
 7445 137d 0A       		.uleb128 0xa
ARM GAS  /tmp/ccq8Pe5l.s 			page 132


 7446 137e 04       		.byte	0x4
 7447 137f 25070000 		.4byte	0x725
 7448 1383 02       		.uleb128 0x2
 7449 1384 08       		.byte	0x8
 7450 1385 04       		.byte	0x4
 7451 1386 A4180000 		.4byte	.LASF391
 7452 138a 02       		.uleb128 0x2
 7453 138b 08       		.byte	0x8
 7454 138c 04       		.byte	0x4
 7455 138d AF130000 		.4byte	.LASF392
 7456 1391 04       		.uleb128 0x4
 7457 1392 80060000 		.4byte	.LASF393
 7458 1396 12       		.byte	0x12
 7459 1397 28       		.byte	0x28
 7460 1398 9C130000 		.4byte	0x139c
 7461 139c 06       		.uleb128 0x6
 7462 139d 60210000 		.4byte	.LASF394
 7463 13a1 04       		.byte	0x4
 7464 13a2 13       		.byte	0x13
 7465 13a3 00       		.byte	0
 7466 13a4 B3130000 		.4byte	0x13b3
 7467 13a8 1E       		.uleb128 0x1e
 7468 13a9 481C0000 		.4byte	.LASF395
 7469 13ad 82030000 		.4byte	0x382
 7470 13b1 00       		.byte	0
 7471 13b2 00       		.byte	0
 7472 13b3 04       		.uleb128 0x4
 7473 13b4 2C090000 		.4byte	.LASF396
 7474 13b8 12       		.byte	0x12
 7475 13b9 62       		.byte	0x62
 7476 13ba 91130000 		.4byte	0x1391
 7477 13be 1F       		.uleb128 0x1f
 7478 13bf 061B0000 		.4byte	.LASF512
 7479 13c3 02       		.byte	0x2
 7480 13c4 84       		.byte	0x84
 7481 13c5 03       		.byte	0x3
 7482 13c6 D6130000 		.4byte	0x13d6
 7483 13ca 20       		.uleb128 0x20
 7484 13cb 4E0F0000 		.4byte	.LASF397
 7485 13cf 02       		.byte	0x2
 7486 13d0 84       		.byte	0x84
 7487 13d1 1A070000 		.4byte	0x71a
 7488 13d5 00       		.byte	0
 7489 13d6 21       		.uleb128 0x21
 7490 13d7 9D150000 		.4byte	.LASF513
 7491 13db 0F       		.byte	0xf
 7492 13dc AE       		.byte	0xae
 7493 13dd A5020000 		.4byte	0x2a5
 7494 13e1 03       		.byte	0x3
 7495 13e2 22       		.uleb128 0x22
 7496 13e3 3B210000 		.4byte	.LASF448
 7497 13e7 01       		.byte	0x1
 7498 13e8 5D       		.byte	0x5d
 7499 13e9 01       		.byte	0x1
 7500 13ea 05140000 		.4byte	0x1405
 7501 13ee 20       		.uleb128 0x20
 7502 13ef 42190000 		.4byte	.LASF398
ARM GAS  /tmp/ccq8Pe5l.s 			page 133


 7503 13f3 01       		.byte	0x1
 7504 13f4 5D       		.byte	0x5d
 7505 13f5 77130000 		.4byte	0x1377
 7506 13f9 23       		.uleb128 0x23
 7507 13fa 6C656E00 		.ascii	"len\000"
 7508 13fe 01       		.byte	0x1
 7509 13ff 5D       		.byte	0x5d
 7510 1400 B8000000 		.4byte	0xb8
 7511 1404 00       		.byte	0
 7512 1405 24       		.uleb128 0x24
 7513 1406 AE050000 		.4byte	.LASF514
 7514 140a 03       		.byte	0x3
 7515 140b 5401     		.2byte	0x154
 7516 140d 03       		.byte	0x3
 7517 140e 25       		.uleb128 0x25
 7518 140f 54110000 		.4byte	.LASF515
 7519 1413 01       		.byte	0x1
 7520 1414 6003     		.2byte	0x360
 7521 1416 00000000 		.4byte	.LFB267
 7522 141a 00010000 		.4byte	.LFE267-.LFB267
 7523 141e 01       		.uleb128 0x1
 7524 141f 9C       		.byte	0x9c
 7525 1420 14150000 		.4byte	0x1514
 7526 1424 26       		.uleb128 0x26
 7527 1425 61726700 		.ascii	"arg\000"
 7528 1429 01       		.byte	0x1
 7529 142a 6003     		.2byte	0x360
 7530 142c 82030000 		.4byte	0x382
 7531 1430 00000000 		.4byte	.LLST0
 7532 1434 27       		.uleb128 0x27
 7533 1435 BE130000 		.4byte	0x13be
 7534 1439 04000000 		.4byte	.LBB56
 7535 143d 00000000 		.4byte	.Ldebug_ranges0+0
 7536 1441 01       		.byte	0x1
 7537 1442 6303     		.2byte	0x363
 7538 1444 55140000 		.4byte	0x1455
 7539 1448 28       		.uleb128 0x28
 7540 1449 CA130000 		.4byte	0x13ca
 7541 144d 06       		.uleb128 0x6
 7542 144e 03       		.byte	0x3
 7543 144f 00000000 		.4byte	.LC0
 7544 1453 9F       		.byte	0x9f
 7545 1454 00       		.byte	0
 7546 1455 29       		.uleb128 0x29
 7547 1456 20000000 		.4byte	.Ldebug_ranges0+0x20
 7548 145a 2A       		.uleb128 0x2a
 7549 145b 696E6400 		.ascii	"ind\000"
 7550 145f 01       		.byte	0x1
 7551 1460 7103     		.2byte	0x371
 7552 1462 EB000000 		.4byte	0xeb
 7553 1466 02       		.uleb128 0x2
 7554 1467 91       		.byte	0x91
 7555 1468 4C       		.sleb128 -52
 7556 1469 27       		.uleb128 0x27
 7557 146a E2130000 		.4byte	0x13e2
 7558 146e 92000000 		.4byte	.LBB62
 7559 1472 48000000 		.4byte	.Ldebug_ranges0+0x48
ARM GAS  /tmp/ccq8Pe5l.s 			page 134


 7560 1476 01       		.byte	0x1
 7561 1477 7803     		.2byte	0x378
 7562 1479 9F140000 		.4byte	0x149f
 7563 147d 2B       		.uleb128 0x2b
 7564 147e F9130000 		.4byte	0x13f9
 7565 1482 21000000 		.4byte	.LLST1
 7566 1486 2B       		.uleb128 0x2b
 7567 1487 EE130000 		.4byte	0x13ee
 7568 148b 34000000 		.4byte	.LLST2
 7569 148f 2C       		.uleb128 0x2c
 7570 1490 BA000000 		.4byte	.LVL7
 7571 1494 02       		.uleb128 0x2
 7572 1495 75       		.byte	0x75
 7573 1496 00       		.sleb128 0
 7574 1497 2D       		.uleb128 0x2d
 7575 1498 01       		.uleb128 0x1
 7576 1499 50       		.byte	0x50
 7577 149a 02       		.uleb128 0x2
 7578 149b 74       		.byte	0x74
 7579 149c 00       		.sleb128 0
 7580 149d 00       		.byte	0
 7581 149e 00       		.byte	0
 7582 149f 2E       		.uleb128 0x2e
 7583 14a0 3C000000 		.4byte	.LVL2
 7584 14a4 323E0000 		.4byte	0x3e32
 7585 14a8 B2140000 		.4byte	0x14b2
 7586 14ac 2D       		.uleb128 0x2d
 7587 14ad 01       		.uleb128 0x1
 7588 14ae 50       		.byte	0x50
 7589 14af 01       		.uleb128 0x1
 7590 14b0 31       		.byte	0x31
 7591 14b1 00       		.byte	0
 7592 14b2 2E       		.uleb128 0x2e
 7593 14b3 54000000 		.4byte	.LVL3
 7594 14b7 473E0000 		.4byte	0x3e47
 7595 14bb DB140000 		.4byte	0x14db
 7596 14bf 2D       		.uleb128 0x2d
 7597 14c0 01       		.uleb128 0x1
 7598 14c1 53       		.byte	0x53
 7599 14c2 02       		.uleb128 0x2
 7600 14c3 77       		.byte	0x77
 7601 14c4 00       		.sleb128 0
 7602 14c5 2D       		.uleb128 0x2d
 7603 14c6 01       		.uleb128 0x1
 7604 14c7 52       		.byte	0x52
 7605 14c8 05       		.uleb128 0x5
 7606 14c9 03       		.byte	0x3
 7607 14ca 00000000 		.4byte	.LANCHOR6
 7608 14ce 2D       		.uleb128 0x2d
 7609 14cf 01       		.uleb128 0x1
 7610 14d0 51       		.byte	0x51
 7611 14d1 02       		.uleb128 0x2
 7612 14d2 75       		.byte	0x75
 7613 14d3 00       		.sleb128 0
 7614 14d4 2D       		.uleb128 0x2d
 7615 14d5 01       		.uleb128 0x1
 7616 14d6 50       		.byte	0x50
ARM GAS  /tmp/ccq8Pe5l.s 			page 135


 7617 14d7 02       		.uleb128 0x2
 7618 14d8 76       		.byte	0x76
 7619 14d9 00       		.sleb128 0
 7620 14da 00       		.byte	0
 7621 14db 2E       		.uleb128 0x2e
 7622 14dc 7A000000 		.4byte	.LVL4
 7623 14e0 863E0000 		.4byte	0x3e86
 7624 14e4 FC140000 		.4byte	0x14fc
 7625 14e8 2D       		.uleb128 0x2d
 7626 14e9 01       		.uleb128 0x1
 7627 14ea 52       		.byte	0x52
 7628 14eb 02       		.uleb128 0x2
 7629 14ec 91       		.byte	0x91
 7630 14ed 4C       		.sleb128 -52
 7631 14ee 2D       		.uleb128 0x2d
 7632 14ef 01       		.uleb128 0x1
 7633 14f0 51       		.byte	0x51
 7634 14f1 03       		.uleb128 0x3
 7635 14f2 91       		.byte	0x91
 7636 14f3 44       		.sleb128 -60
 7637 14f4 06       		.byte	0x6
 7638 14f5 2D       		.uleb128 0x2d
 7639 14f6 01       		.uleb128 0x1
 7640 14f7 50       		.byte	0x50
 7641 14f8 02       		.uleb128 0x2
 7642 14f9 74       		.byte	0x74
 7643 14fa 00       		.sleb128 0
 7644 14fb 00       		.byte	0
 7645 14fc 2F       		.uleb128 0x2f
 7646 14fd 92000000 		.4byte	.LVL5
 7647 1501 863E0000 		.4byte	0x3e86
 7648 1505 2D       		.uleb128 0x2d
 7649 1506 01       		.uleb128 0x1
 7650 1507 52       		.byte	0x52
 7651 1508 02       		.uleb128 0x2
 7652 1509 91       		.byte	0x91
 7653 150a 4C       		.sleb128 -52
 7654 150b 2D       		.uleb128 0x2d
 7655 150c 01       		.uleb128 0x1
 7656 150d 50       		.byte	0x50
 7657 150e 02       		.uleb128 0x2
 7658 150f 74       		.byte	0x74
 7659 1510 00       		.sleb128 0
 7660 1511 00       		.byte	0
 7661 1512 00       		.byte	0
 7662 1513 00       		.byte	0
 7663 1514 30       		.uleb128 0x30
 7664 1515 41010000 		.4byte	.LASF399
 7665 1519 01       		.byte	0x1
 7666 151a 46       		.byte	0x46
 7667 151b 00000000 		.4byte	.LFB256
 7668 151f 24000000 		.4byte	.LFE256-.LFB256
 7669 1523 01       		.uleb128 0x1
 7670 1524 9C       		.byte	0x9c
 7671 1525 59150000 		.4byte	0x1559
 7672 1529 2F       		.uleb128 0x2f
 7673 152a 16000000 		.4byte	.LVL9
ARM GAS  /tmp/ccq8Pe5l.s 			page 136


 7674 152e A73E0000 		.4byte	0x3ea7
 7675 1532 2D       		.uleb128 0x2d
 7676 1533 01       		.uleb128 0x1
 7677 1534 53       		.byte	0x53
 7678 1535 05       		.uleb128 0x5
 7679 1536 03       		.byte	0x3
 7680 1537 00000000 		.4byte	detect_thread
 7681 153b 2D       		.uleb128 0x2d
 7682 153c 01       		.uleb128 0x1
 7683 153d 52       		.byte	0x52
 7684 153e 02       		.uleb128 0x2
 7685 153f 08       		.byte	0x8
 7686 1540 40       		.byte	0x40
 7687 1541 2D       		.uleb128 0x2d
 7688 1542 01       		.uleb128 0x1
 7689 1543 51       		.byte	0x51
 7690 1544 03       		.uleb128 0x3
 7691 1545 0A       		.byte	0xa
 7692 1546 9809     		.2byte	0x998
 7693 1548 2D       		.uleb128 0x2d
 7694 1549 01       		.uleb128 0x1
 7695 154a 50       		.byte	0x50
 7696 154b 05       		.uleb128 0x5
 7697 154c 03       		.byte	0x3
 7698 154d 00000000 		.4byte	.LANCHOR10
 7699 1551 2D       		.uleb128 0x2d
 7700 1552 02       		.uleb128 0x2
 7701 1553 7D       		.byte	0x7d
 7702 1554 00       		.sleb128 0
 7703 1555 01       		.uleb128 0x1
 7704 1556 30       		.byte	0x30
 7705 1557 00       		.byte	0
 7706 1558 00       		.byte	0
 7707 1559 30       		.uleb128 0x30
 7708 155a 62160000 		.4byte	.LASF400
 7709 155e 01       		.byte	0x1
 7710 155f 50       		.byte	0x50
 7711 1560 00000000 		.4byte	.LFB257
 7712 1564 0C000000 		.4byte	.LFE257-.LFB257
 7713 1568 01       		.uleb128 0x1
 7714 1569 9C       		.byte	0x9c
 7715 156a 7C150000 		.4byte	0x157c
 7716 156e 31       		.uleb128 0x31
 7717 156f 98110000 		.4byte	.LASF401
 7718 1573 01       		.byte	0x1
 7719 1574 50       		.byte	0x50
 7720 1575 8C150000 		.4byte	0x158c
 7721 1579 01       		.uleb128 0x1
 7722 157a 50       		.byte	0x50
 7723 157b 00       		.byte	0
 7724 157c 0C       		.uleb128 0xc
 7725 157d 8C150000 		.4byte	0x158c
 7726 1581 0D       		.uleb128 0xd
 7727 1582 77130000 		.4byte	0x1377
 7728 1586 0D       		.uleb128 0xd
 7729 1587 B8000000 		.4byte	0xb8
 7730 158b 00       		.byte	0
ARM GAS  /tmp/ccq8Pe5l.s 			page 137


 7731 158c 0A       		.uleb128 0xa
 7732 158d 04       		.byte	0x4
 7733 158e 7C150000 		.4byte	0x157c
 7734 1592 32       		.uleb128 0x32
 7735 1593 E2130000 		.4byte	0x13e2
 7736 1597 00000000 		.4byte	.LFB258
 7737 159b 10000000 		.4byte	.LFE258-.LFB258
 7738 159f 01       		.uleb128 0x1
 7739 15a0 9C       		.byte	0x9c
 7740 15a1 CC150000 		.4byte	0x15cc
 7741 15a5 2B       		.uleb128 0x2b
 7742 15a6 EE130000 		.4byte	0x13ee
 7743 15aa 4C000000 		.4byte	.LLST3
 7744 15ae 2B       		.uleb128 0x2b
 7745 15af F9130000 		.4byte	0x13f9
 7746 15b3 78000000 		.4byte	.LLST4
 7747 15b7 33       		.uleb128 0x33
 7748 15b8 08000000 		.4byte	.LVL12
 7749 15bc 2D       		.uleb128 0x2d
 7750 15bd 01       		.uleb128 0x1
 7751 15be 51       		.byte	0x51
 7752 15bf 03       		.uleb128 0x3
 7753 15c0 F3       		.byte	0xf3
 7754 15c1 01       		.uleb128 0x1
 7755 15c2 51       		.byte	0x51
 7756 15c3 2D       		.uleb128 0x2d
 7757 15c4 01       		.uleb128 0x1
 7758 15c5 50       		.byte	0x50
 7759 15c6 03       		.uleb128 0x3
 7760 15c7 F3       		.byte	0xf3
 7761 15c8 01       		.uleb128 0x1
 7762 15c9 50       		.byte	0x50
 7763 15ca 00       		.byte	0
 7764 15cb 00       		.byte	0
 7765 15cc 34       		.uleb128 0x34
 7766 15cd 071A0000 		.4byte	.LASF402
 7767 15d1 01       		.byte	0x1
 7768 15d2 6C       		.byte	0x6c
 7769 15d3 00000000 		.4byte	.LFB259
 7770 15d7 241B0000 		.4byte	.LFE259-.LFB259
 7771 15db 01       		.uleb128 0x1
 7772 15dc 9C       		.byte	0x9c
 7773 15dd 0F390000 		.4byte	0x390f
 7774 15e1 35       		.uleb128 0x35
 7775 15e2 42190000 		.4byte	.LASF398
 7776 15e6 01       		.byte	0x1
 7777 15e7 6C       		.byte	0x6c
 7778 15e8 77130000 		.4byte	0x1377
 7779 15ec A4000000 		.4byte	.LLST5
 7780 15f0 36       		.uleb128 0x36
 7781 15f1 6C656E00 		.ascii	"len\000"
 7782 15f5 01       		.byte	0x1
 7783 15f6 6C       		.byte	0x6c
 7784 15f7 B8000000 		.4byte	0xb8
 7785 15fb D1020000 		.4byte	.LLST6
 7786 15ff 37       		.uleb128 0x37
 7787 1600 DC0A0000 		.4byte	.LASF403
ARM GAS  /tmp/ccq8Pe5l.s 			page 138


 7788 1604 01       		.byte	0x1
 7789 1605 71       		.byte	0x71
 7790 1606 BB120000 		.4byte	0x12bb
 7791 160a E8040000 		.4byte	.LLST7
 7792 160e 38       		.uleb128 0x38
 7793 160f 696E6400 		.ascii	"ind\000"
 7794 1613 01       		.byte	0x1
 7795 1614 72       		.byte	0x72
 7796 1615 EB000000 		.4byte	0xeb
 7797 1619 03       		.uleb128 0x3
 7798 161a 91       		.byte	0x91
 7799 161b A07E     		.sleb128 -224
 7800 161d 37       		.uleb128 0x37
 7801 161e DD130000 		.4byte	.LASF404
 7802 1622 01       		.byte	0x1
 7803 1623 73       		.byte	0x73
 7804 1624 E0000000 		.4byte	0xe0
 7805 1628 27050000 		.4byte	.LLST8
 7806 162c 37       		.uleb128 0x37
 7807 162d 30210000 		.4byte	.LASF405
 7808 1631 01       		.byte	0x1
 7809 1632 74       		.byte	0x74
 7810 1633 CA000000 		.4byte	0xca
 7811 1637 3A050000 		.4byte	.LLST9
 7812 163b 37       		.uleb128 0x37
 7813 163c 77110000 		.4byte	.LASF406
 7814 1640 01       		.byte	0x1
 7815 1641 75       		.byte	0x75
 7816 1642 6B0C0000 		.4byte	0xc6b
 7817 1646 53050000 		.4byte	.LLST10
 7818 164a 39       		.uleb128 0x39
 7819 164b A7190000 		.4byte	.LASF407
 7820 164f 01       		.byte	0x1
 7821 1650 76       		.byte	0x76
 7822 1651 920C0000 		.4byte	0xc92
 7823 1655 05       		.uleb128 0x5
 7824 1656 03       		.byte	0x3
 7825 1657 00000000 		.4byte	mcconf.11176
 7826 165b 39       		.uleb128 0x39
 7827 165c 871A0000 		.4byte	.LASF408
 7828 1660 01       		.byte	0x1
 7829 1661 76       		.byte	0x76
 7830 1662 920C0000 		.4byte	0xc92
 7831 1666 05       		.uleb128 0x5
 7832 1667 03       		.byte	0x3
 7833 1668 00000000 		.4byte	mcconf_old.11177
 7834 166c 39       		.uleb128 0x39
 7835 166d EF0C0000 		.4byte	.LASF409
 7836 1671 01       		.byte	0x1
 7837 1672 77       		.byte	0x77
 7838 1673 CD110000 		.4byte	0x11cd
 7839 1677 03       		.uleb128 0x3
 7840 1678 91       		.byte	0x91
 7841 1679 A87E     		.sleb128 -216
 7842 167b 37       		.uleb128 0x37
 7843 167c 710B0000 		.4byte	.LASF410
 7844 1680 01       		.byte	0x1
ARM GAS  /tmp/ccq8Pe5l.s 			page 139


 7845 1681 78       		.byte	0x78
 7846 1682 E0000000 		.4byte	0xe0
 7847 1686 66050000 		.4byte	.LLST11
 7848 168a 37       		.uleb128 0x37
 7849 168b 29130000 		.4byte	.LASF411
 7850 168f 01       		.byte	0x1
 7851 1690 79       		.byte	0x79
 7852 1691 F6000000 		.4byte	0xf6
 7853 1695 84050000 		.4byte	.LLST12
 7854 1699 39       		.uleb128 0x39
 7855 169a 04030000 		.4byte	.LASF412
 7856 169e 01       		.byte	0x1
 7857 169f 7A       		.byte	0x7a
 7858 16a0 2C130000 		.4byte	0x132c
 7859 16a4 03       		.uleb128 0x3
 7860 16a5 91       		.byte	0x91
 7861 16a6 A87E     		.sleb128 -216
 7862 16a8 27       		.uleb128 0x27
 7863 16a9 E2130000 		.4byte	0x13e2
 7864 16ad 40030000 		.4byte	.LBB76
 7865 16b1 78000000 		.4byte	.Ldebug_ranges0+0x78
 7866 16b5 01       		.byte	0x1
 7867 16b6 5202     		.2byte	0x252
 7868 16b8 DE160000 		.4byte	0x16de
 7869 16bc 2B       		.uleb128 0x2b
 7870 16bd F9130000 		.4byte	0x13f9
 7871 16c1 97050000 		.4byte	.LLST13
 7872 16c5 2B       		.uleb128 0x2b
 7873 16c6 EE130000 		.4byte	0x13ee
 7874 16ca AA050000 		.4byte	.LLST14
 7875 16ce 2C       		.uleb128 0x2c
 7876 16cf 8E030000 		.4byte	.LVL49
 7877 16d3 02       		.uleb128 0x2
 7878 16d4 75       		.byte	0x75
 7879 16d5 00       		.sleb128 0
 7880 16d6 2D       		.uleb128 0x2d
 7881 16d7 01       		.uleb128 0x1
 7882 16d8 50       		.byte	0x50
 7883 16d9 02       		.uleb128 0x2
 7884 16da 74       		.byte	0x74
 7885 16db 00       		.sleb128 0
 7886 16dc 00       		.byte	0
 7887 16dd 00       		.byte	0
 7888 16de 27       		.uleb128 0x27
 7889 16df E2130000 		.4byte	0x13e2
 7890 16e3 26040000 		.4byte	.LBB82
 7891 16e7 98000000 		.4byte	.Ldebug_ranges0+0x98
 7892 16eb 01       		.byte	0x1
 7893 16ec F902     		.2byte	0x2f9
 7894 16ee 11170000 		.4byte	0x1711
 7895 16f2 2B       		.uleb128 0x2b
 7896 16f3 F9130000 		.4byte	0x13f9
 7897 16f7 C2050000 		.4byte	.LLST15
 7898 16fb 2B       		.uleb128 0x2b
 7899 16fc EE130000 		.4byte	0x13ee
 7900 1700 D5050000 		.4byte	.LLST16
 7901 1704 3A       		.uleb128 0x3a
ARM GAS  /tmp/ccq8Pe5l.s 			page 140


 7902 1705 34040000 		.4byte	.LVL66
 7903 1709 2D       		.uleb128 0x2d
 7904 170a 01       		.uleb128 0x1
 7905 170b 50       		.byte	0x50
 7906 170c 02       		.uleb128 0x2
 7907 170d 74       		.byte	0x74
 7908 170e 00       		.sleb128 0
 7909 170f 00       		.byte	0
 7910 1710 00       		.byte	0
 7911 1711 3B       		.uleb128 0x3b
 7912 1712 E2130000 		.4byte	0x13e2
 7913 1716 48070000 		.4byte	.LBB86
 7914 171a B0000000 		.4byte	.Ldebug_ranges0+0xb0
 7915 171e 01       		.byte	0x1
 7916 171f B9       		.byte	0xb9
 7917 1720 37170000 		.4byte	0x1737
 7918 1724 2B       		.uleb128 0x2b
 7919 1725 F9130000 		.4byte	0x13f9
 7920 1729 ED050000 		.4byte	.LLST17
 7921 172d 2B       		.uleb128 0x2b
 7922 172e EE130000 		.4byte	0x13ee
 7923 1732 00060000 		.4byte	.LLST18
 7924 1736 00       		.byte	0
 7925 1737 3B       		.uleb128 0x3b
 7926 1738 E2130000 		.4byte	0x13e2
 7927 173c A2070000 		.4byte	.LBB92
 7928 1740 D0000000 		.4byte	.Ldebug_ranges0+0xd0
 7929 1744 01       		.byte	0x1
 7930 1745 9F       		.byte	0x9f
 7931 1746 6C170000 		.4byte	0x176c
 7932 174a 2B       		.uleb128 0x2b
 7933 174b F9130000 		.4byte	0x13f9
 7934 174f 18060000 		.4byte	.LLST19
 7935 1753 2B       		.uleb128 0x2b
 7936 1754 EE130000 		.4byte	0x13ee
 7937 1758 2C060000 		.4byte	.LLST20
 7938 175c 3A       		.uleb128 0x3a
 7939 175d C6070000 		.4byte	.LVL126
 7940 1761 2D       		.uleb128 0x2d
 7941 1762 01       		.uleb128 0x1
 7942 1763 50       		.byte	0x50
 7943 1764 05       		.uleb128 0x5
 7944 1765 03       		.byte	0x3
 7945 1766 00000000 		.4byte	.LANCHOR8
 7946 176a 00       		.byte	0
 7947 176b 00       		.byte	0
 7948 176c 3B       		.uleb128 0x3b
 7949 176d E2130000 		.4byte	0x13e2
 7950 1771 D4070000 		.4byte	.LBB98
 7951 1775 F0000000 		.4byte	.Ldebug_ranges0+0xf0
 7952 1779 01       		.byte	0x1
 7953 177a 94       		.byte	0x94
 7954 177b 92170000 		.4byte	0x1792
 7955 177f 2B       		.uleb128 0x2b
 7956 1780 F9130000 		.4byte	0x13f9
 7957 1784 44060000 		.4byte	.LLST21
 7958 1788 2B       		.uleb128 0x2b
ARM GAS  /tmp/ccq8Pe5l.s 			page 141


 7959 1789 EE130000 		.4byte	0x13ee
 7960 178d 58060000 		.4byte	.LLST22
 7961 1791 00       		.byte	0
 7962 1792 3B       		.uleb128 0x3b
 7963 1793 E2130000 		.4byte	0x13e2
 7964 1797 F8070000 		.4byte	.LBB104
 7965 179b 10010000 		.4byte	.Ldebug_ranges0+0x110
 7966 179f 01       		.byte	0x1
 7967 17a0 86       		.byte	0x86
 7968 17a1 B8170000 		.4byte	0x17b8
 7969 17a5 2B       		.uleb128 0x2b
 7970 17a6 F9130000 		.4byte	0x13f9
 7971 17aa 70060000 		.4byte	.LLST23
 7972 17ae 2B       		.uleb128 0x2b
 7973 17af EE130000 		.4byte	0x13ee
 7974 17b3 84060000 		.4byte	.LLST24
 7975 17b7 00       		.byte	0
 7976 17b8 3C       		.uleb128 0x3c
 7977 17b9 05140000 		.4byte	0x1405
 7978 17bd 22090000 		.4byte	.LBB110
 7979 17c1 02000000 		.4byte	.LBE110-.LBB110
 7980 17c5 01       		.byte	0x1
 7981 17c6 DB02     		.2byte	0x2db
 7982 17c8 3D       		.uleb128 0x3d
 7983 17c9 26090000 		.4byte	.LBB112
 7984 17cd 90000000 		.4byte	.LBE112-.LBB112
 7985 17d1 F5180000 		.4byte	0x18f5
 7986 17d5 3E       		.uleb128 0x3e
 7987 17d6 46100000 		.4byte	.LASF413
 7988 17da 01       		.byte	0x1
 7989 17db C302     		.2byte	0x2c3
 7990 17dd 25000000 		.4byte	0x25
 7991 17e1 9C060000 		.4byte	.LLST25
 7992 17e5 3F       		.uleb128 0x3f
 7993 17e6 C60E0000 		.4byte	.LASF414
 7994 17ea 01       		.byte	0x1
 7995 17eb CB02     		.2byte	0x2cb
 7996 17ed 820C0000 		.4byte	0xc82
 7997 17f1 03       		.uleb128 0x3
 7998 17f2 91       		.byte	0x91
 7999 17f3 A87E     		.sleb128 -216
 8000 17f5 40       		.uleb128 0x40
 8001 17f6 72657300 		.ascii	"res\000"
 8002 17fa 01       		.byte	0x1
 8003 17fb CC02     		.2byte	0x2cc
 8004 17fd 6B0C0000 		.4byte	0xc6b
 8005 1801 BC060000 		.4byte	.LLST26
 8006 1805 27       		.uleb128 0x27
 8007 1806 E2130000 		.4byte	0x13e2
 8008 180a 2C090000 		.4byte	.LBB113
 8009 180e 30010000 		.4byte	.Ldebug_ranges0+0x130
 8010 1812 01       		.byte	0x1
 8011 1813 D502     		.2byte	0x2d5
 8012 1815 41180000 		.4byte	0x1841
 8013 1819 2B       		.uleb128 0x2b
 8014 181a F9130000 		.4byte	0x13f9
 8015 181e CF060000 		.4byte	.LLST27
ARM GAS  /tmp/ccq8Pe5l.s 			page 142


 8016 1822 2B       		.uleb128 0x2b
 8017 1823 EE130000 		.4byte	0x13ee
 8018 1827 E3060000 		.4byte	.LLST28
 8019 182b 3A       		.uleb128 0x3a
 8020 182c B6090000 		.4byte	.LVL177
 8021 1830 2D       		.uleb128 0x2d
 8022 1831 01       		.uleb128 0x1
 8023 1832 51       		.byte	0x51
 8024 1833 02       		.uleb128 0x2
 8025 1834 76       		.byte	0x76
 8026 1835 00       		.sleb128 0
 8027 1836 2D       		.uleb128 0x2d
 8028 1837 01       		.uleb128 0x1
 8029 1838 50       		.byte	0x50
 8030 1839 05       		.uleb128 0x5
 8031 183a 03       		.byte	0x3
 8032 183b 00000000 		.4byte	.LANCHOR8
 8033 183f 00       		.byte	0
 8034 1840 00       		.byte	0
 8035 1841 41       		.uleb128 0x41
 8036 1842 2A090000 		.4byte	.LVL165
 8037 1846 D03E0000 		.4byte	0x3ed0
 8038 184a 2E       		.uleb128 0x2e
 8039 184b 3A090000 		.4byte	.LVL167
 8040 184f EB3E0000 		.4byte	0x3eeb
 8041 1853 65180000 		.4byte	0x1865
 8042 1857 2D       		.uleb128 0x2d
 8043 1858 01       		.uleb128 0x1
 8044 1859 52       		.byte	0x52
 8045 185a 03       		.uleb128 0x3
 8046 185b 0A       		.byte	0xa
 8047 185c 3001     		.2byte	0x130
 8048 185e 2D       		.uleb128 0x2d
 8049 185f 01       		.uleb128 0x1
 8050 1860 50       		.byte	0x50
 8051 1861 02       		.uleb128 0x2
 8052 1862 75       		.byte	0x75
 8053 1863 00       		.sleb128 0
 8054 1864 00       		.byte	0
 8055 1865 2E       		.uleb128 0x2e
 8056 1866 46090000 		.4byte	.LVL168
 8057 186a EB3E0000 		.4byte	0x3eeb
 8058 186e 89180000 		.4byte	0x1889
 8059 1872 2D       		.uleb128 0x2d
 8060 1873 01       		.uleb128 0x1
 8061 1874 52       		.byte	0x52
 8062 1875 03       		.uleb128 0x3
 8063 1876 0A       		.byte	0xa
 8064 1877 3001     		.2byte	0x130
 8065 1879 2D       		.uleb128 0x2d
 8066 187a 01       		.uleb128 0x1
 8067 187b 51       		.byte	0x51
 8068 187c 02       		.uleb128 0x2
 8069 187d 75       		.byte	0x75
 8070 187e 00       		.sleb128 0
 8071 187f 2D       		.uleb128 0x2d
 8072 1880 01       		.uleb128 0x1
ARM GAS  /tmp/ccq8Pe5l.s 			page 143


 8073 1881 50       		.byte	0x50
 8074 1882 05       		.uleb128 0x5
 8075 1883 03       		.byte	0x3
 8076 1884 00000000 		.4byte	.LANCHOR13
 8077 1888 00       		.byte	0
 8078 1889 2E       		.uleb128 0x2e
 8079 188a 58090000 		.4byte	.LVL169
 8080 188e 0F3F0000 		.4byte	0x3f0f
 8081 1892 B0180000 		.4byte	0x18b0
 8082 1896 2D       		.uleb128 0x2d
 8083 1897 01       		.uleb128 0x1
 8084 1898 51       		.byte	0x51
 8085 1899 03       		.uleb128 0x3
 8086 189a 91       		.byte	0x91
 8087 189b A07E     		.sleb128 -224
 8088 189d 2D       		.uleb128 0x2d
 8089 189e 02       		.uleb128 0x2
 8090 189f 90       		.byte	0x90
 8091 18a0 40       		.uleb128 0x40
 8092 18a1 07       		.uleb128 0x7
 8093 18a2 F4       		.byte	0xf4
 8094 18a3 25       		.uleb128 0x25
 8095 18a4 04       		.byte	0x4
 8096 18a5 00007A44 		.4byte	0x447a0000
 8097 18a9 2D       		.uleb128 0x2d
 8098 18aa 01       		.uleb128 0x1
 8099 18ab 50       		.byte	0x50
 8100 18ac 02       		.uleb128 0x2
 8101 18ad 74       		.byte	0x74
 8102 18ae 00       		.sleb128 0
 8103 18af 00       		.byte	0
 8104 18b0 2E       		.uleb128 0x2e
 8105 18b1 78090000 		.4byte	.LVL171
 8106 18b5 2E3F0000 		.4byte	0x3f2e
 8107 18b9 C4180000 		.4byte	0x18c4
 8108 18bd 2D       		.uleb128 0x2d
 8109 18be 01       		.uleb128 0x1
 8110 18bf 50       		.byte	0x50
 8111 18c0 02       		.uleb128 0x2
 8112 18c1 75       		.byte	0x75
 8113 18c2 00       		.sleb128 0
 8114 18c3 00       		.byte	0
 8115 18c4 2E       		.uleb128 0x2e
 8116 18c5 82090000 		.4byte	.LVL172
 8117 18c9 453F0000 		.4byte	0x3f45
 8118 18cd E1180000 		.4byte	0x18e1
 8119 18d1 2D       		.uleb128 0x2d
 8120 18d2 01       		.uleb128 0x1
 8121 18d3 50       		.byte	0x50
 8122 18d4 03       		.uleb128 0x3
 8123 18d5 91       		.byte	0x91
 8124 18d6 A87E     		.sleb128 -216
 8125 18d8 2D       		.uleb128 0x2d
 8126 18d9 02       		.uleb128 0x2
 8127 18da 90       		.byte	0x90
 8128 18db 40       		.uleb128 0x40
 8129 18dc 03       		.uleb128 0x3
ARM GAS  /tmp/ccq8Pe5l.s 			page 144


 8130 18dd F5       		.byte	0xf5
 8131 18de 50       		.uleb128 0x50
 8132 18df 25       		.uleb128 0x25
 8133 18e0 00       		.byte	0
 8134 18e1 2F       		.uleb128 0x2f
 8135 18e2 8A090000 		.4byte	.LVL174
 8136 18e6 2E3F0000 		.4byte	0x3f2e
 8137 18ea 2D       		.uleb128 0x2d
 8138 18eb 01       		.uleb128 0x1
 8139 18ec 50       		.byte	0x50
 8140 18ed 05       		.uleb128 0x5
 8141 18ee 03       		.byte	0x3
 8142 18ef 00000000 		.4byte	.LANCHOR13
 8143 18f3 00       		.byte	0
 8144 18f4 00       		.byte	0
 8145 18f5 27       		.uleb128 0x27
 8146 18f6 E2130000 		.4byte	0x13e2
 8147 18fa E6090000 		.4byte	.LBB119
 8148 18fe 50010000 		.4byte	.Ldebug_ranges0+0x150
 8149 1902 01       		.byte	0x1
 8150 1903 B902     		.2byte	0x2b9
 8151 1905 1C190000 		.4byte	0x191c
 8152 1909 2B       		.uleb128 0x2b
 8153 190a F9130000 		.4byte	0x13f9
 8154 190e FB060000 		.4byte	.LLST29
 8155 1912 2B       		.uleb128 0x2b
 8156 1913 EE130000 		.4byte	0x13ee
 8157 1917 0E070000 		.4byte	.LLST30
 8158 191b 00       		.byte	0
 8159 191c 3D       		.uleb128 0x3d
 8160 191d FC090000 		.4byte	.LBB125
 8161 1921 BC000000 		.4byte	.LBE125-.LBB125
 8162 1925 7F1A0000 		.4byte	0x1a7f
 8163 1929 3E       		.uleb128 0x3e
 8164 192a 46100000 		.4byte	.LASF413
 8165 192e 01       		.byte	0x1
 8166 192f 8602     		.2byte	0x286
 8167 1931 25000000 		.4byte	0x25
 8168 1935 26070000 		.4byte	.LLST31
 8169 1939 3E       		.uleb128 0x3e
 8170 193a 69150000 		.4byte	.LASF415
 8171 193e 01       		.byte	0x1
 8172 193f 8702     		.2byte	0x287
 8173 1941 25000000 		.4byte	0x25
 8174 1945 52070000 		.4byte	.LLST32
 8175 1949 3E       		.uleb128 0x3e
 8176 194a 79160000 		.4byte	.LASF416
 8177 194e 01       		.byte	0x1
 8178 194f 8802     		.2byte	0x288
 8179 1951 25000000 		.4byte	0x25
 8180 1955 7E070000 		.4byte	.LLST33
 8181 1959 3E       		.uleb128 0x3e
 8182 195a 7B040000 		.4byte	.LASF417
 8183 195e 01       		.byte	0x1
 8184 195f 8902     		.2byte	0x289
 8185 1961 25000000 		.4byte	0x25
 8186 1965 AA070000 		.4byte	.LLST34
ARM GAS  /tmp/ccq8Pe5l.s 			page 145


 8187 1969 3F       		.uleb128 0x3f
 8188 196a 83050000 		.4byte	.LASF418
 8189 196e 01       		.byte	0x1
 8190 196f 8B02     		.2byte	0x28b
 8191 1971 25000000 		.4byte	0x25
 8192 1975 03       		.uleb128 0x3
 8193 1976 91       		.byte	0x91
 8194 1977 A87E     		.sleb128 -216
 8195 1979 40       		.uleb128 0x40
 8196 197a 72657300 		.ascii	"res\000"
 8197 197e 01       		.byte	0x1
 8198 197f 8C02     		.2byte	0x28c
 8199 1981 6B0C0000 		.4byte	0xc6b
 8200 1985 CA070000 		.4byte	.LLST35
 8201 1989 27       		.uleb128 0x27
 8202 198a E2130000 		.4byte	0x13e2
 8203 198e 760A0000 		.4byte	.LBB126
 8204 1992 70010000 		.4byte	.Ldebug_ranges0+0x170
 8205 1996 01       		.byte	0x1
 8206 1997 9502     		.2byte	0x295
 8207 1999 B0190000 		.4byte	0x19b0
 8208 199d 2B       		.uleb128 0x2b
 8209 199e F9130000 		.4byte	0x13f9
 8210 19a2 E8070000 		.4byte	.LLST36
 8211 19a6 2B       		.uleb128 0x2b
 8212 19a7 EE130000 		.4byte	0x13ee
 8213 19ab FB070000 		.4byte	.LLST37
 8214 19af 00       		.byte	0
 8215 19b0 2E       		.uleb128 0x2e
 8216 19b1 080A0000 		.4byte	.LVL187
 8217 19b5 0F3F0000 		.4byte	0x3f0f
 8218 19b9 D6190000 		.4byte	0x19d6
 8219 19bd 2D       		.uleb128 0x2d
 8220 19be 01       		.uleb128 0x1
 8221 19bf 51       		.byte	0x51
 8222 19c0 02       		.uleb128 0x2
 8223 19c1 7D       		.byte	0x7d
 8224 19c2 00       		.sleb128 0
 8225 19c3 2D       		.uleb128 0x2d
 8226 19c4 02       		.uleb128 0x2
 8227 19c5 90       		.byte	0x90
 8228 19c6 40       		.uleb128 0x40
 8229 19c7 07       		.uleb128 0x7
 8230 19c8 F4       		.byte	0xf4
 8231 19c9 25       		.uleb128 0x25
 8232 19ca 04       		.byte	0x4
 8233 19cb 00007A44 		.4byte	0x447a0000
 8234 19cf 2D       		.uleb128 0x2d
 8235 19d0 01       		.uleb128 0x1
 8236 19d1 50       		.byte	0x50
 8237 19d2 02       		.uleb128 0x2
 8238 19d3 74       		.byte	0x74
 8239 19d4 00       		.sleb128 0
 8240 19d5 00       		.byte	0
 8241 19d6 2E       		.uleb128 0x2e
 8242 19d7 180A0000 		.4byte	.LVL190
 8243 19db 0F3F0000 		.4byte	0x3f0f
ARM GAS  /tmp/ccq8Pe5l.s 			page 146


 8244 19df FC190000 		.4byte	0x19fc
 8245 19e3 2D       		.uleb128 0x2d
 8246 19e4 01       		.uleb128 0x1
 8247 19e5 51       		.byte	0x51
 8248 19e6 02       		.uleb128 0x2
 8249 19e7 7D       		.byte	0x7d
 8250 19e8 00       		.sleb128 0
 8251 19e9 2D       		.uleb128 0x2d
 8252 19ea 02       		.uleb128 0x2
 8253 19eb 90       		.byte	0x90
 8254 19ec 40       		.uleb128 0x40
 8255 19ed 07       		.uleb128 0x7
 8256 19ee F4       		.byte	0xf4
 8257 19ef 25       		.uleb128 0x25
 8258 19f0 04       		.byte	0x4
 8259 19f1 00007A44 		.4byte	0x447a0000
 8260 19f5 2D       		.uleb128 0x2d
 8261 19f6 01       		.uleb128 0x1
 8262 19f7 50       		.byte	0x50
 8263 19f8 02       		.uleb128 0x2
 8264 19f9 74       		.byte	0x74
 8265 19fa 00       		.sleb128 0
 8266 19fb 00       		.byte	0
 8267 19fc 2E       		.uleb128 0x2e
 8268 19fd 280A0000 		.4byte	.LVL193
 8269 1a01 0F3F0000 		.4byte	0x3f0f
 8270 1a05 221A0000 		.4byte	0x1a22
 8271 1a09 2D       		.uleb128 0x2d
 8272 1a0a 01       		.uleb128 0x1
 8273 1a0b 51       		.byte	0x51
 8274 1a0c 02       		.uleb128 0x2
 8275 1a0d 7D       		.byte	0x7d
 8276 1a0e 00       		.sleb128 0
 8277 1a0f 2D       		.uleb128 0x2d
 8278 1a10 02       		.uleb128 0x2
 8279 1a11 90       		.byte	0x90
 8280 1a12 40       		.uleb128 0x40
 8281 1a13 07       		.uleb128 0x7
 8282 1a14 F4       		.byte	0xf4
 8283 1a15 25       		.uleb128 0x25
 8284 1a16 04       		.byte	0x4
 8285 1a17 00007A44 		.4byte	0x447a0000
 8286 1a1b 2D       		.uleb128 0x2d
 8287 1a1c 01       		.uleb128 0x1
 8288 1a1d 50       		.byte	0x50
 8289 1a1e 02       		.uleb128 0x2
 8290 1a1f 74       		.byte	0x74
 8291 1a20 00       		.sleb128 0
 8292 1a21 00       		.byte	0
 8293 1a22 2E       		.uleb128 0x2e
 8294 1a23 380A0000 		.4byte	.LVL196
 8295 1a27 0F3F0000 		.4byte	0x3f0f
 8296 1a2b 481A0000 		.4byte	0x1a48
 8297 1a2f 2D       		.uleb128 0x2d
 8298 1a30 01       		.uleb128 0x1
 8299 1a31 51       		.byte	0x51
 8300 1a32 02       		.uleb128 0x2
ARM GAS  /tmp/ccq8Pe5l.s 			page 147


 8301 1a33 7D       		.byte	0x7d
 8302 1a34 00       		.sleb128 0
 8303 1a35 2D       		.uleb128 0x2d
 8304 1a36 02       		.uleb128 0x2
 8305 1a37 90       		.byte	0x90
 8306 1a38 40       		.uleb128 0x40
 8307 1a39 07       		.uleb128 0x7
 8308 1a3a F4       		.byte	0xf4
 8309 1a3b 25       		.uleb128 0x25
 8310 1a3c 04       		.byte	0x4
 8311 1a3d 00247449 		.4byte	0x49742400
 8312 1a41 2D       		.uleb128 0x2d
 8313 1a42 01       		.uleb128 0x1
 8314 1a43 50       		.byte	0x50
 8315 1a44 02       		.uleb128 0x2
 8316 1a45 74       		.byte	0x74
 8317 1a46 00       		.sleb128 0
 8318 1a47 00       		.byte	0
 8319 1a48 2E       		.uleb128 0x2e
 8320 1a49 4E0A0000 		.4byte	.LVL199
 8321 1a4d 5F3F0000 		.4byte	0x3f5f
 8322 1a51 751A0000 		.4byte	0x1a75
 8323 1a55 2D       		.uleb128 0x2d
 8324 1a56 01       		.uleb128 0x1
 8325 1a57 50       		.byte	0x50
 8326 1a58 03       		.uleb128 0x3
 8327 1a59 91       		.byte	0x91
 8328 1a5a A87E     		.sleb128 -216
 8329 1a5c 2D       		.uleb128 0x2d
 8330 1a5d 02       		.uleb128 0x2
 8331 1a5e 90       		.byte	0x90
 8332 1a5f 42       		.uleb128 0x42
 8333 1a60 03       		.uleb128 0x3
 8334 1a61 F5       		.byte	0xf5
 8335 1a62 50       		.uleb128 0x50
 8336 1a63 25       		.uleb128 0x25
 8337 1a64 2D       		.uleb128 0x2d
 8338 1a65 02       		.uleb128 0x2
 8339 1a66 90       		.byte	0x90
 8340 1a67 41       		.uleb128 0x41
 8341 1a68 03       		.uleb128 0x3
 8342 1a69 F5       		.byte	0xf5
 8343 1a6a 51       		.uleb128 0x51
 8344 1a6b 25       		.uleb128 0x25
 8345 1a6c 2D       		.uleb128 0x2d
 8346 1a6d 02       		.uleb128 0x2
 8347 1a6e 90       		.byte	0x90
 8348 1a6f 40       		.uleb128 0x40
 8349 1a70 03       		.uleb128 0x3
 8350 1a71 F5       		.byte	0xf5
 8351 1a72 52       		.uleb128 0x52
 8352 1a73 25       		.uleb128 0x25
 8353 1a74 00       		.byte	0
 8354 1a75 41       		.uleb128 0x41
 8355 1a76 760A0000 		.4byte	.LVL203
 8356 1a7a 883F0000 		.4byte	0x3f88
 8357 1a7e 00       		.byte	0
ARM GAS  /tmp/ccq8Pe5l.s 			page 148


 8358 1a7f 3D       		.uleb128 0x3d
 8359 1a80 B80A0000 		.4byte	.LBB130
 8360 1a84 7E000000 		.4byte	.LBE130-.LBB130
 8361 1a88 6A1B0000 		.4byte	0x1b6a
 8362 1a8c 2A       		.uleb128 0x2a
 8363 1a8d 7200     		.ascii	"r\000"
 8364 1a8f 01       		.byte	0x1
 8365 1a90 7202     		.2byte	0x272
 8366 1a92 25000000 		.4byte	0x25
 8367 1a96 03       		.uleb128 0x3
 8368 1a97 91       		.byte	0x91
 8369 1a98 A47E     		.sleb128 -220
 8370 1a9a 2A       		.uleb128 0x2a
 8371 1a9b 6C00     		.ascii	"l\000"
 8372 1a9d 01       		.byte	0x1
 8373 1a9e 7302     		.2byte	0x273
 8374 1aa0 25000000 		.4byte	0x25
 8375 1aa4 03       		.uleb128 0x3
 8376 1aa5 91       		.byte	0x91
 8377 1aa6 A87E     		.sleb128 -216
 8378 1aa8 40       		.uleb128 0x40
 8379 1aa9 72657300 		.ascii	"res\000"
 8380 1aad 01       		.byte	0x1
 8381 1aae 7402     		.2byte	0x274
 8382 1ab0 6B0C0000 		.4byte	0xc6b
 8383 1ab4 13080000 		.4byte	.LLST38
 8384 1ab8 41       		.uleb128 0x41
 8385 1ab9 BC0A0000 		.4byte	.LVL206
 8386 1abd D03E0000 		.4byte	0x3ed0
 8387 1ac1 2E       		.uleb128 0x2e
 8388 1ac2 CE0A0000 		.4byte	.LVL208
 8389 1ac6 EB3E0000 		.4byte	0x3eeb
 8390 1aca DC1A0000 		.4byte	0x1adc
 8391 1ace 2D       		.uleb128 0x2d
 8392 1acf 01       		.uleb128 0x1
 8393 1ad0 52       		.byte	0x52
 8394 1ad1 03       		.uleb128 0x3
 8395 1ad2 0A       		.byte	0xa
 8396 1ad3 3001     		.2byte	0x130
 8397 1ad5 2D       		.uleb128 0x2d
 8398 1ad6 01       		.uleb128 0x1
 8399 1ad7 50       		.byte	0x50
 8400 1ad8 02       		.uleb128 0x2
 8401 1ad9 74       		.byte	0x74
 8402 1ada 00       		.sleb128 0
 8403 1adb 00       		.byte	0
 8404 1adc 2E       		.uleb128 0x2e
 8405 1add DA0A0000 		.4byte	.LVL209
 8406 1ae1 EB3E0000 		.4byte	0x3eeb
 8407 1ae5 001B0000 		.4byte	0x1b00
 8408 1ae9 2D       		.uleb128 0x2d
 8409 1aea 01       		.uleb128 0x1
 8410 1aeb 52       		.byte	0x52
 8411 1aec 03       		.uleb128 0x3
 8412 1aed 0A       		.byte	0xa
 8413 1aee 3001     		.2byte	0x130
 8414 1af0 2D       		.uleb128 0x2d
ARM GAS  /tmp/ccq8Pe5l.s 			page 149


 8415 1af1 01       		.uleb128 0x1
 8416 1af2 51       		.byte	0x51
 8417 1af3 02       		.uleb128 0x2
 8418 1af4 74       		.byte	0x74
 8419 1af5 00       		.sleb128 0
 8420 1af6 2D       		.uleb128 0x2d
 8421 1af7 01       		.uleb128 0x1
 8422 1af8 50       		.byte	0x50
 8423 1af9 05       		.uleb128 0x5
 8424 1afa 03       		.byte	0x3
 8425 1afb 00000000 		.4byte	.LANCHOR13
 8426 1aff 00       		.byte	0
 8427 1b00 2E       		.uleb128 0x2e
 8428 1b01 E40A0000 		.4byte	.LVL210
 8429 1b05 2E3F0000 		.4byte	0x3f2e
 8430 1b09 141B0000 		.4byte	0x1b14
 8431 1b0d 2D       		.uleb128 0x2d
 8432 1b0e 01       		.uleb128 0x1
 8433 1b0f 50       		.byte	0x50
 8434 1b10 02       		.uleb128 0x2
 8435 1b11 74       		.byte	0x74
 8436 1b12 00       		.sleb128 0
 8437 1b13 00       		.byte	0
 8438 1b14 2E       		.uleb128 0x2e
 8439 1b15 F40A0000 		.4byte	.LVL211
 8440 1b19 A83F0000 		.4byte	0x3fa8
 8441 1b1d 301B0000 		.4byte	0x1b30
 8442 1b21 2D       		.uleb128 0x2d
 8443 1b22 01       		.uleb128 0x1
 8444 1b23 51       		.byte	0x51
 8445 1b24 03       		.uleb128 0x3
 8446 1b25 91       		.byte	0x91
 8447 1b26 A87E     		.sleb128 -216
 8448 1b28 2D       		.uleb128 0x2d
 8449 1b29 01       		.uleb128 0x1
 8450 1b2a 50       		.byte	0x50
 8451 1b2b 03       		.uleb128 0x3
 8452 1b2c 91       		.byte	0x91
 8453 1b2d A47E     		.sleb128 -220
 8454 1b2f 00       		.byte	0
 8455 1b30 2E       		.uleb128 0x2e
 8456 1b31 FC0A0000 		.4byte	.LVL213
 8457 1b35 2E3F0000 		.4byte	0x3f2e
 8458 1b39 471B0000 		.4byte	0x1b47
 8459 1b3d 2D       		.uleb128 0x2d
 8460 1b3e 01       		.uleb128 0x1
 8461 1b3f 50       		.byte	0x50
 8462 1b40 05       		.uleb128 0x5
 8463 1b41 03       		.byte	0x3
 8464 1b42 00000000 		.4byte	.LANCHOR13
 8465 1b46 00       		.byte	0
 8466 1b47 2F       		.uleb128 0x2f
 8467 1b48 280B0000 		.4byte	.LVL216
 8468 1b4c 883F0000 		.4byte	0x3f88
 8469 1b50 2D       		.uleb128 0x2d
 8470 1b51 01       		.uleb128 0x1
 8471 1b52 51       		.byte	0x51
ARM GAS  /tmp/ccq8Pe5l.s 			page 150


 8472 1b53 02       		.uleb128 0x2
 8473 1b54 75       		.byte	0x75
 8474 1b55 00       		.sleb128 0
 8475 1b56 2D       		.uleb128 0x2d
 8476 1b57 02       		.uleb128 0x2
 8477 1b58 90       		.byte	0x90
 8478 1b59 41       		.uleb128 0x41
 8479 1b5a 07       		.uleb128 0x7
 8480 1b5b F4       		.byte	0xf4
 8481 1b5c 25       		.uleb128 0x25
 8482 1b5d 04       		.byte	0x4
 8483 1b5e 00247449 		.4byte	0x49742400
 8484 1b62 2D       		.uleb128 0x2d
 8485 1b63 01       		.uleb128 0x1
 8486 1b64 50       		.byte	0x50
 8487 1b65 02       		.uleb128 0x2
 8488 1b66 74       		.byte	0x74
 8489 1b67 00       		.sleb128 0
 8490 1b68 00       		.byte	0
 8491 1b69 00       		.byte	0
 8492 1b6a 27       		.uleb128 0x27
 8493 1b6b E2130000 		.4byte	0x13e2
 8494 1b6f 24110000 		.4byte	.LBB131
 8495 1b73 88010000 		.4byte	.Ldebug_ranges0+0x188
 8496 1b77 01       		.byte	0x1
 8497 1b78 C001     		.2byte	0x1c0
 8498 1b7a 911B0000 		.4byte	0x1b91
 8499 1b7e 2B       		.uleb128 0x2b
 8500 1b7f F9130000 		.4byte	0x13f9
 8501 1b83 31080000 		.4byte	.LLST39
 8502 1b87 2B       		.uleb128 0x2b
 8503 1b88 EE130000 		.4byte	0x13ee
 8504 1b8c 44080000 		.4byte	.LLST40
 8505 1b90 00       		.byte	0
 8506 1b91 27       		.uleb128 0x27
 8507 1b92 E2130000 		.4byte	0x13e2
 8508 1b96 A6160000 		.4byte	.LBB135
 8509 1b9a A0010000 		.4byte	.Ldebug_ranges0+0x1a0
 8510 1b9e 01       		.byte	0x1
 8511 1b9f 5D01     		.2byte	0x15d
 8512 1ba1 B81B0000 		.4byte	0x1bb8
 8513 1ba5 2B       		.uleb128 0x2b
 8514 1ba6 F9130000 		.4byte	0x13f9
 8515 1baa 5C080000 		.4byte	.LLST41
 8516 1bae 2B       		.uleb128 0x2b
 8517 1baf EE130000 		.4byte	0x13ee
 8518 1bb3 70080000 		.4byte	.LLST42
 8519 1bb7 00       		.byte	0
 8520 1bb8 27       		.uleb128 0x27
 8521 1bb9 E2130000 		.4byte	0x13e2
 8522 1bbd C01A0000 		.4byte	.LBB141
 8523 1bc1 C0010000 		.4byte	.Ldebug_ranges0+0x1c0
 8524 1bc5 01       		.byte	0x1
 8525 1bc6 0902     		.2byte	0x209
 8526 1bc8 DF1B0000 		.4byte	0x1bdf
 8527 1bcc 2B       		.uleb128 0x2b
 8528 1bcd F9130000 		.4byte	0x13f9
ARM GAS  /tmp/ccq8Pe5l.s 			page 151


 8529 1bd1 88080000 		.4byte	.LLST43
 8530 1bd5 2B       		.uleb128 0x2b
 8531 1bd6 EE130000 		.4byte	0x13ee
 8532 1bda 9C080000 		.4byte	.LLST44
 8533 1bde 00       		.byte	0
 8534 1bdf 2E       		.uleb128 0x2e
 8535 1be0 7E000000 		.4byte	.LVL18
 8536 1be4 C23F0000 		.4byte	0x3fc2
 8537 1be8 F41B0000 		.4byte	0x1bf4
 8538 1bec 2D       		.uleb128 0x2d
 8539 1bed 01       		.uleb128 0x1
 8540 1bee 50       		.byte	0x50
 8541 1bef 03       		.uleb128 0x3
 8542 1bf0 91       		.byte	0x91
 8543 1bf1 A87E     		.sleb128 -216
 8544 1bf3 00       		.byte	0
 8545 1bf4 2E       		.uleb128 0x2e
 8546 1bf5 9C000000 		.4byte	.LVL21
 8547 1bf9 D93F0000 		.4byte	0x3fd9
 8548 1bfd 0E1C0000 		.4byte	0x1c0e
 8549 1c01 2D       		.uleb128 0x2d
 8550 1c02 01       		.uleb128 0x1
 8551 1c03 52       		.byte	0x52
 8552 1c04 02       		.uleb128 0x2
 8553 1c05 7D       		.byte	0x7d
 8554 1c06 00       		.sleb128 0
 8555 1c07 2D       		.uleb128 0x2d
 8556 1c08 01       		.uleb128 0x1
 8557 1c09 50       		.byte	0x50
 8558 1c0a 02       		.uleb128 0x2
 8559 1c0b 74       		.byte	0x74
 8560 1c0c 00       		.sleb128 0
 8561 1c0d 00       		.byte	0
 8562 1c0e 2E       		.uleb128 0x2e
 8563 1c0f B4000000 		.4byte	.LVL22
 8564 1c13 863E0000 		.4byte	0x3e86
 8565 1c17 281C0000 		.4byte	0x1c28
 8566 1c1b 2D       		.uleb128 0x2d
 8567 1c1c 01       		.uleb128 0x1
 8568 1c1d 52       		.byte	0x52
 8569 1c1e 02       		.uleb128 0x2
 8570 1c1f 7D       		.byte	0x7d
 8571 1c20 00       		.sleb128 0
 8572 1c21 2D       		.uleb128 0x2d
 8573 1c22 01       		.uleb128 0x1
 8574 1c23 50       		.byte	0x50
 8575 1c24 02       		.uleb128 0x2
 8576 1c25 74       		.byte	0x74
 8577 1c26 00       		.sleb128 0
 8578 1c27 00       		.byte	0
 8579 1c28 2E       		.uleb128 0x2e
 8580 1c29 CC000000 		.4byte	.LVL23
 8581 1c2d F43F0000 		.4byte	0x3ff4
 8582 1c31 421C0000 		.4byte	0x1c42
 8583 1c35 2D       		.uleb128 0x2d
 8584 1c36 01       		.uleb128 0x1
 8585 1c37 52       		.byte	0x52
ARM GAS  /tmp/ccq8Pe5l.s 			page 152


 8586 1c38 02       		.uleb128 0x2
 8587 1c39 7D       		.byte	0x7d
 8588 1c3a 00       		.sleb128 0
 8589 1c3b 2D       		.uleb128 0x2d
 8590 1c3c 01       		.uleb128 0x1
 8591 1c3d 50       		.byte	0x50
 8592 1c3e 02       		.uleb128 0x2
 8593 1c3f 74       		.byte	0x74
 8594 1c40 00       		.sleb128 0
 8595 1c41 00       		.byte	0
 8596 1c42 2E       		.uleb128 0x2e
 8597 1c43 F8000000 		.4byte	.LVL24
 8598 1c47 863E0000 		.4byte	0x3e86
 8599 1c4b 5C1C0000 		.4byte	0x1c5c
 8600 1c4f 2D       		.uleb128 0x2d
 8601 1c50 01       		.uleb128 0x1
 8602 1c51 52       		.byte	0x52
 8603 1c52 02       		.uleb128 0x2
 8604 1c53 7D       		.byte	0x7d
 8605 1c54 00       		.sleb128 0
 8606 1c55 2D       		.uleb128 0x2d
 8607 1c56 01       		.uleb128 0x1
 8608 1c57 50       		.byte	0x50
 8609 1c58 02       		.uleb128 0x2
 8610 1c59 74       		.byte	0x74
 8611 1c5a 00       		.sleb128 0
 8612 1c5b 00       		.byte	0
 8613 1c5c 2E       		.uleb128 0x2e
 8614 1c5d 10010000 		.4byte	.LVL25
 8615 1c61 863E0000 		.4byte	0x3e86
 8616 1c65 761C0000 		.4byte	0x1c76
 8617 1c69 2D       		.uleb128 0x2d
 8618 1c6a 01       		.uleb128 0x1
 8619 1c6b 52       		.byte	0x52
 8620 1c6c 02       		.uleb128 0x2
 8621 1c6d 7D       		.byte	0x7d
 8622 1c6e 00       		.sleb128 0
 8623 1c6f 2D       		.uleb128 0x2d
 8624 1c70 01       		.uleb128 0x1
 8625 1c71 50       		.byte	0x50
 8626 1c72 02       		.uleb128 0x2
 8627 1c73 74       		.byte	0x74
 8628 1c74 00       		.sleb128 0
 8629 1c75 00       		.byte	0
 8630 1c76 2E       		.uleb128 0x2e
 8631 1c77 28010000 		.4byte	.LVL26
 8632 1c7b 863E0000 		.4byte	0x3e86
 8633 1c7f 901C0000 		.4byte	0x1c90
 8634 1c83 2D       		.uleb128 0x2d
 8635 1c84 01       		.uleb128 0x1
 8636 1c85 52       		.byte	0x52
 8637 1c86 02       		.uleb128 0x2
 8638 1c87 7D       		.byte	0x7d
 8639 1c88 00       		.sleb128 0
 8640 1c89 2D       		.uleb128 0x2d
 8641 1c8a 01       		.uleb128 0x1
 8642 1c8b 50       		.byte	0x50
ARM GAS  /tmp/ccq8Pe5l.s 			page 153


 8643 1c8c 02       		.uleb128 0x2
 8644 1c8d 74       		.byte	0x74
 8645 1c8e 00       		.sleb128 0
 8646 1c8f 00       		.byte	0
 8647 1c90 2E       		.uleb128 0x2e
 8648 1c91 40010000 		.4byte	.LVL27
 8649 1c95 863E0000 		.4byte	0x3e86
 8650 1c99 AA1C0000 		.4byte	0x1caa
 8651 1c9d 2D       		.uleb128 0x2d
 8652 1c9e 01       		.uleb128 0x1
 8653 1c9f 52       		.byte	0x52
 8654 1ca0 02       		.uleb128 0x2
 8655 1ca1 7D       		.byte	0x7d
 8656 1ca2 00       		.sleb128 0
 8657 1ca3 2D       		.uleb128 0x2d
 8658 1ca4 01       		.uleb128 0x1
 8659 1ca5 50       		.byte	0x50
 8660 1ca6 02       		.uleb128 0x2
 8661 1ca7 74       		.byte	0x74
 8662 1ca8 00       		.sleb128 0
 8663 1ca9 00       		.byte	0
 8664 1caa 2E       		.uleb128 0x2e
 8665 1cab 6C010000 		.4byte	.LVL28
 8666 1caf 863E0000 		.4byte	0x3e86
 8667 1cb3 C41C0000 		.4byte	0x1cc4
 8668 1cb7 2D       		.uleb128 0x2d
 8669 1cb8 01       		.uleb128 0x1
 8670 1cb9 52       		.byte	0x52
 8671 1cba 02       		.uleb128 0x2
 8672 1cbb 7D       		.byte	0x7d
 8673 1cbc 00       		.sleb128 0
 8674 1cbd 2D       		.uleb128 0x2d
 8675 1cbe 01       		.uleb128 0x1
 8676 1cbf 50       		.byte	0x50
 8677 1cc0 02       		.uleb128 0x2
 8678 1cc1 74       		.byte	0x74
 8679 1cc2 00       		.sleb128 0
 8680 1cc3 00       		.byte	0
 8681 1cc4 2E       		.uleb128 0x2e
 8682 1cc5 84010000 		.4byte	.LVL29
 8683 1cc9 863E0000 		.4byte	0x3e86
 8684 1ccd DE1C0000 		.4byte	0x1cde
 8685 1cd1 2D       		.uleb128 0x2d
 8686 1cd2 01       		.uleb128 0x1
 8687 1cd3 52       		.byte	0x52
 8688 1cd4 02       		.uleb128 0x2
 8689 1cd5 7D       		.byte	0x7d
 8690 1cd6 00       		.sleb128 0
 8691 1cd7 2D       		.uleb128 0x2d
 8692 1cd8 01       		.uleb128 0x1
 8693 1cd9 50       		.byte	0x50
 8694 1cda 02       		.uleb128 0x2
 8695 1cdb 74       		.byte	0x74
 8696 1cdc 00       		.sleb128 0
 8697 1cdd 00       		.byte	0
 8698 1cde 2E       		.uleb128 0x2e
 8699 1cdf B0010000 		.4byte	.LVL30
ARM GAS  /tmp/ccq8Pe5l.s 			page 154


 8700 1ce3 863E0000 		.4byte	0x3e86
 8701 1ce7 F81C0000 		.4byte	0x1cf8
 8702 1ceb 2D       		.uleb128 0x2d
 8703 1cec 01       		.uleb128 0x1
 8704 1ced 52       		.byte	0x52
 8705 1cee 02       		.uleb128 0x2
 8706 1cef 7D       		.byte	0x7d
 8707 1cf0 00       		.sleb128 0
 8708 1cf1 2D       		.uleb128 0x2d
 8709 1cf2 01       		.uleb128 0x1
 8710 1cf3 50       		.byte	0x50
 8711 1cf4 02       		.uleb128 0x2
 8712 1cf5 74       		.byte	0x74
 8713 1cf6 00       		.sleb128 0
 8714 1cf7 00       		.byte	0
 8715 1cf8 2E       		.uleb128 0x2e
 8716 1cf9 D4010000 		.4byte	.LVL31
 8717 1cfd 863E0000 		.4byte	0x3e86
 8718 1d01 121D0000 		.4byte	0x1d12
 8719 1d05 2D       		.uleb128 0x2d
 8720 1d06 01       		.uleb128 0x1
 8721 1d07 52       		.byte	0x52
 8722 1d08 02       		.uleb128 0x2
 8723 1d09 7D       		.byte	0x7d
 8724 1d0a 00       		.sleb128 0
 8725 1d0b 2D       		.uleb128 0x2d
 8726 1d0c 01       		.uleb128 0x1
 8727 1d0d 50       		.byte	0x50
 8728 1d0e 02       		.uleb128 0x2
 8729 1d0f 74       		.byte	0x74
 8730 1d10 00       		.sleb128 0
 8731 1d11 00       		.byte	0
 8732 1d12 2E       		.uleb128 0x2e
 8733 1d13 EC010000 		.4byte	.LVL32
 8734 1d17 863E0000 		.4byte	0x3e86
 8735 1d1b 2C1D0000 		.4byte	0x1d2c
 8736 1d1f 2D       		.uleb128 0x2d
 8737 1d20 01       		.uleb128 0x1
 8738 1d21 52       		.byte	0x52
 8739 1d22 02       		.uleb128 0x2
 8740 1d23 7D       		.byte	0x7d
 8741 1d24 00       		.sleb128 0
 8742 1d25 2D       		.uleb128 0x2d
 8743 1d26 01       		.uleb128 0x1
 8744 1d27 50       		.byte	0x50
 8745 1d28 02       		.uleb128 0x2
 8746 1d29 74       		.byte	0x74
 8747 1d2a 00       		.sleb128 0
 8748 1d2b 00       		.byte	0
 8749 1d2c 2E       		.uleb128 0x2e
 8750 1d2d 04020000 		.4byte	.LVL33
 8751 1d31 863E0000 		.4byte	0x3e86
 8752 1d35 461D0000 		.4byte	0x1d46
 8753 1d39 2D       		.uleb128 0x2d
 8754 1d3a 01       		.uleb128 0x1
 8755 1d3b 52       		.byte	0x52
 8756 1d3c 02       		.uleb128 0x2
ARM GAS  /tmp/ccq8Pe5l.s 			page 155


 8757 1d3d 7D       		.byte	0x7d
 8758 1d3e 00       		.sleb128 0
 8759 1d3f 2D       		.uleb128 0x2d
 8760 1d40 01       		.uleb128 0x1
 8761 1d41 50       		.byte	0x50
 8762 1d42 02       		.uleb128 0x2
 8763 1d43 74       		.byte	0x74
 8764 1d44 00       		.sleb128 0
 8765 1d45 00       		.byte	0
 8766 1d46 2E       		.uleb128 0x2e
 8767 1d47 46020000 		.4byte	.LVL35
 8768 1d4b 863E0000 		.4byte	0x3e86
 8769 1d4f 601D0000 		.4byte	0x1d60
 8770 1d53 2D       		.uleb128 0x2d
 8771 1d54 01       		.uleb128 0x1
 8772 1d55 52       		.byte	0x52
 8773 1d56 02       		.uleb128 0x2
 8774 1d57 7D       		.byte	0x7d
 8775 1d58 00       		.sleb128 0
 8776 1d59 2D       		.uleb128 0x2d
 8777 1d5a 01       		.uleb128 0x1
 8778 1d5b 50       		.byte	0x50
 8779 1d5c 02       		.uleb128 0x2
 8780 1d5d 74       		.byte	0x74
 8781 1d5e 00       		.sleb128 0
 8782 1d5f 00       		.byte	0
 8783 1d60 2E       		.uleb128 0x2e
 8784 1d61 5E020000 		.4byte	.LVL36
 8785 1d65 863E0000 		.4byte	0x3e86
 8786 1d69 7A1D0000 		.4byte	0x1d7a
 8787 1d6d 2D       		.uleb128 0x2d
 8788 1d6e 01       		.uleb128 0x1
 8789 1d6f 52       		.byte	0x52
 8790 1d70 02       		.uleb128 0x2
 8791 1d71 7D       		.byte	0x7d
 8792 1d72 00       		.sleb128 0
 8793 1d73 2D       		.uleb128 0x2d
 8794 1d74 01       		.uleb128 0x1
 8795 1d75 50       		.byte	0x50
 8796 1d76 02       		.uleb128 0x2
 8797 1d77 74       		.byte	0x74
 8798 1d78 00       		.sleb128 0
 8799 1d79 00       		.byte	0
 8800 1d7a 2E       		.uleb128 0x2e
 8801 1d7b 8A020000 		.4byte	.LVL37
 8802 1d7f 863E0000 		.4byte	0x3e86
 8803 1d83 941D0000 		.4byte	0x1d94
 8804 1d87 2D       		.uleb128 0x2d
 8805 1d88 01       		.uleb128 0x1
 8806 1d89 52       		.byte	0x52
 8807 1d8a 02       		.uleb128 0x2
 8808 1d8b 7D       		.byte	0x7d
 8809 1d8c 00       		.sleb128 0
 8810 1d8d 2D       		.uleb128 0x2d
 8811 1d8e 01       		.uleb128 0x1
 8812 1d8f 50       		.byte	0x50
 8813 1d90 02       		.uleb128 0x2
ARM GAS  /tmp/ccq8Pe5l.s 			page 156


 8814 1d91 74       		.byte	0x74
 8815 1d92 00       		.sleb128 0
 8816 1d93 00       		.byte	0
 8817 1d94 2E       		.uleb128 0x2e
 8818 1d95 96020000 		.4byte	.LVL38
 8819 1d99 F43F0000 		.4byte	0x3ff4
 8820 1d9d AE1D0000 		.4byte	0x1dae
 8821 1da1 2D       		.uleb128 0x2d
 8822 1da2 01       		.uleb128 0x1
 8823 1da3 52       		.byte	0x52
 8824 1da4 02       		.uleb128 0x2
 8825 1da5 7D       		.byte	0x7d
 8826 1da6 00       		.sleb128 0
 8827 1da7 2D       		.uleb128 0x2d
 8828 1da8 01       		.uleb128 0x1
 8829 1da9 50       		.byte	0x50
 8830 1daa 02       		.uleb128 0x2
 8831 1dab 74       		.byte	0x74
 8832 1dac 00       		.sleb128 0
 8833 1dad 00       		.byte	0
 8834 1dae 2E       		.uleb128 0x2e
 8835 1daf A0020000 		.4byte	.LVL39
 8836 1db3 D93F0000 		.4byte	0x3fd9
 8837 1db7 C81D0000 		.4byte	0x1dc8
 8838 1dbb 2D       		.uleb128 0x2d
 8839 1dbc 01       		.uleb128 0x1
 8840 1dbd 52       		.byte	0x52
 8841 1dbe 02       		.uleb128 0x2
 8842 1dbf 7D       		.byte	0x7d
 8843 1dc0 00       		.sleb128 0
 8844 1dc1 2D       		.uleb128 0x2d
 8845 1dc2 01       		.uleb128 0x1
 8846 1dc3 50       		.byte	0x50
 8847 1dc4 02       		.uleb128 0x2
 8848 1dc5 74       		.byte	0x74
 8849 1dc6 00       		.sleb128 0
 8850 1dc7 00       		.byte	0
 8851 1dc8 2E       		.uleb128 0x2e
 8852 1dc9 BC020000 		.4byte	.LVL40
 8853 1dcd 883F0000 		.4byte	0x3f88
 8854 1dd1 EA1D0000 		.4byte	0x1dea
 8855 1dd5 2D       		.uleb128 0x2d
 8856 1dd6 01       		.uleb128 0x1
 8857 1dd7 51       		.byte	0x51
 8858 1dd8 02       		.uleb128 0x2
 8859 1dd9 7D       		.byte	0x7d
 8860 1dda 00       		.sleb128 0
 8861 1ddb 2D       		.uleb128 0x2d
 8862 1ddc 02       		.uleb128 0x2
 8863 1ddd 90       		.byte	0x90
 8864 1dde 41       		.uleb128 0x41
 8865 1ddf 03       		.uleb128 0x3
 8866 1de0 F5       		.byte	0xf5
 8867 1de1 50       		.uleb128 0x50
 8868 1de2 25       		.uleb128 0x25
 8869 1de3 2D       		.uleb128 0x2d
 8870 1de4 01       		.uleb128 0x1
ARM GAS  /tmp/ccq8Pe5l.s 			page 157


 8871 1de5 50       		.byte	0x50
 8872 1de6 02       		.uleb128 0x2
 8873 1de7 74       		.byte	0x74
 8874 1de8 00       		.sleb128 0
 8875 1de9 00       		.byte	0
 8876 1dea 2E       		.uleb128 0x2e
 8877 1deb CC020000 		.4byte	.LVL41
 8878 1def 883F0000 		.4byte	0x3f88
 8879 1df3 0C1E0000 		.4byte	0x1e0c
 8880 1df7 2D       		.uleb128 0x2d
 8881 1df8 01       		.uleb128 0x1
 8882 1df9 51       		.byte	0x51
 8883 1dfa 02       		.uleb128 0x2
 8884 1dfb 7D       		.byte	0x7d
 8885 1dfc 00       		.sleb128 0
 8886 1dfd 2D       		.uleb128 0x2d
 8887 1dfe 02       		.uleb128 0x2
 8888 1dff 90       		.byte	0x90
 8889 1e00 41       		.uleb128 0x41
 8890 1e01 03       		.uleb128 0x3
 8891 1e02 F5       		.byte	0xf5
 8892 1e03 50       		.uleb128 0x50
 8893 1e04 25       		.uleb128 0x25
 8894 1e05 2D       		.uleb128 0x2d
 8895 1e06 01       		.uleb128 0x1
 8896 1e07 50       		.byte	0x50
 8897 1e08 02       		.uleb128 0x2
 8898 1e09 74       		.byte	0x74
 8899 1e0a 00       		.sleb128 0
 8900 1e0b 00       		.byte	0
 8901 1e0c 2E       		.uleb128 0x2e
 8902 1e0d DC020000 		.4byte	.LVL42
 8903 1e11 883F0000 		.4byte	0x3f88
 8904 1e15 2E1E0000 		.4byte	0x1e2e
 8905 1e19 2D       		.uleb128 0x2d
 8906 1e1a 01       		.uleb128 0x1
 8907 1e1b 51       		.byte	0x51
 8908 1e1c 02       		.uleb128 0x2
 8909 1e1d 7D       		.byte	0x7d
 8910 1e1e 00       		.sleb128 0
 8911 1e1f 2D       		.uleb128 0x2d
 8912 1e20 02       		.uleb128 0x2
 8913 1e21 90       		.byte	0x90
 8914 1e22 41       		.uleb128 0x41
 8915 1e23 03       		.uleb128 0x3
 8916 1e24 F5       		.byte	0xf5
 8917 1e25 50       		.uleb128 0x50
 8918 1e26 25       		.uleb128 0x25
 8919 1e27 2D       		.uleb128 0x2d
 8920 1e28 01       		.uleb128 0x1
 8921 1e29 50       		.byte	0x50
 8922 1e2a 02       		.uleb128 0x2
 8923 1e2b 74       		.byte	0x74
 8924 1e2c 00       		.sleb128 0
 8925 1e2d 00       		.byte	0
 8926 1e2e 2E       		.uleb128 0x2e
 8927 1e2f EC020000 		.4byte	.LVL43
ARM GAS  /tmp/ccq8Pe5l.s 			page 158


 8928 1e33 883F0000 		.4byte	0x3f88
 8929 1e37 501E0000 		.4byte	0x1e50
 8930 1e3b 2D       		.uleb128 0x2d
 8931 1e3c 01       		.uleb128 0x1
 8932 1e3d 51       		.byte	0x51
 8933 1e3e 02       		.uleb128 0x2
 8934 1e3f 7D       		.byte	0x7d
 8935 1e40 00       		.sleb128 0
 8936 1e41 2D       		.uleb128 0x2d
 8937 1e42 02       		.uleb128 0x2
 8938 1e43 90       		.byte	0x90
 8939 1e44 41       		.uleb128 0x41
 8940 1e45 03       		.uleb128 0x3
 8941 1e46 F5       		.byte	0xf5
 8942 1e47 50       		.uleb128 0x50
 8943 1e48 25       		.uleb128 0x25
 8944 1e49 2D       		.uleb128 0x2d
 8945 1e4a 01       		.uleb128 0x1
 8946 1e4b 50       		.byte	0x50
 8947 1e4c 02       		.uleb128 0x2
 8948 1e4d 74       		.byte	0x74
 8949 1e4e 00       		.sleb128 0
 8950 1e4f 00       		.byte	0
 8951 1e50 2E       		.uleb128 0x2e
 8952 1e51 FC020000 		.4byte	.LVL44
 8953 1e55 883F0000 		.4byte	0x3f88
 8954 1e59 721E0000 		.4byte	0x1e72
 8955 1e5d 2D       		.uleb128 0x2d
 8956 1e5e 01       		.uleb128 0x1
 8957 1e5f 51       		.byte	0x51
 8958 1e60 02       		.uleb128 0x2
 8959 1e61 7D       		.byte	0x7d
 8960 1e62 00       		.sleb128 0
 8961 1e63 2D       		.uleb128 0x2d
 8962 1e64 02       		.uleb128 0x2
 8963 1e65 90       		.byte	0x90
 8964 1e66 41       		.uleb128 0x41
 8965 1e67 03       		.uleb128 0x3
 8966 1e68 F5       		.byte	0xf5
 8967 1e69 50       		.uleb128 0x50
 8968 1e6a 25       		.uleb128 0x25
 8969 1e6b 2D       		.uleb128 0x2d
 8970 1e6c 01       		.uleb128 0x1
 8971 1e6d 50       		.byte	0x50
 8972 1e6e 02       		.uleb128 0x2
 8973 1e6f 74       		.byte	0x74
 8974 1e70 00       		.sleb128 0
 8975 1e71 00       		.byte	0
 8976 1e72 2E       		.uleb128 0x2e
 8977 1e73 0C030000 		.4byte	.LVL45
 8978 1e77 883F0000 		.4byte	0x3f88
 8979 1e7b 941E0000 		.4byte	0x1e94
 8980 1e7f 2D       		.uleb128 0x2d
 8981 1e80 01       		.uleb128 0x1
 8982 1e81 51       		.byte	0x51
 8983 1e82 02       		.uleb128 0x2
 8984 1e83 7D       		.byte	0x7d
ARM GAS  /tmp/ccq8Pe5l.s 			page 159


 8985 1e84 00       		.sleb128 0
 8986 1e85 2D       		.uleb128 0x2d
 8987 1e86 02       		.uleb128 0x2
 8988 1e87 90       		.byte	0x90
 8989 1e88 41       		.uleb128 0x41
 8990 1e89 03       		.uleb128 0x3
 8991 1e8a F5       		.byte	0xf5
 8992 1e8b 50       		.uleb128 0x50
 8993 1e8c 25       		.uleb128 0x25
 8994 1e8d 2D       		.uleb128 0x2d
 8995 1e8e 01       		.uleb128 0x1
 8996 1e8f 50       		.byte	0x50
 8997 1e90 02       		.uleb128 0x2
 8998 1e91 74       		.byte	0x74
 8999 1e92 00       		.sleb128 0
 9000 1e93 00       		.byte	0
 9001 1e94 2E       		.uleb128 0x2e
 9002 1e95 38030000 		.4byte	.LVL46
 9003 1e99 863E0000 		.4byte	0x3e86
 9004 1e9d B91E0000 		.4byte	0x1eb9
 9005 1ea1 2D       		.uleb128 0x2d
 9006 1ea2 01       		.uleb128 0x1
 9007 1ea3 52       		.byte	0x52
 9008 1ea4 02       		.uleb128 0x2
 9009 1ea5 7D       		.byte	0x7d
 9010 1ea6 00       		.sleb128 0
 9011 1ea7 2D       		.uleb128 0x2d
 9012 1ea8 01       		.uleb128 0x1
 9013 1ea9 51       		.byte	0x51
 9014 1eaa 07       		.uleb128 0x7
 9015 1eab F5       		.byte	0xf5
 9016 1eac 50       		.uleb128 0x50
 9017 1ead 25       		.uleb128 0x25
 9018 1eae F7       		.byte	0xf7
 9019 1eaf 2C       		.uleb128 0x2c
 9020 1eb0 F7       		.byte	0xf7
 9021 1eb1 00       		.uleb128 0
 9022 1eb2 2D       		.uleb128 0x2d
 9023 1eb3 01       		.uleb128 0x1
 9024 1eb4 50       		.byte	0x50
 9025 1eb5 02       		.uleb128 0x2
 9026 1eb6 74       		.byte	0x74
 9027 1eb7 00       		.sleb128 0
 9028 1eb8 00       		.byte	0
 9029 1eb9 41       		.uleb128 0x41
 9030 1eba 9C030000 		.4byte	.LVL51
 9031 1ebe D03E0000 		.4byte	0x3ed0
 9032 1ec2 2E       		.uleb128 0x2e
 9033 1ec3 AA030000 		.4byte	.LVL53
 9034 1ec7 EB3E0000 		.4byte	0x3eeb
 9035 1ecb DD1E0000 		.4byte	0x1edd
 9036 1ecf 2D       		.uleb128 0x2d
 9037 1ed0 01       		.uleb128 0x1
 9038 1ed1 52       		.byte	0x52
 9039 1ed2 03       		.uleb128 0x3
 9040 1ed3 0A       		.byte	0xa
 9041 1ed4 3001     		.2byte	0x130
ARM GAS  /tmp/ccq8Pe5l.s 			page 160


 9042 1ed6 2D       		.uleb128 0x2d
 9043 1ed7 01       		.uleb128 0x1
 9044 1ed8 50       		.byte	0x50
 9045 1ed9 02       		.uleb128 0x2
 9046 1eda 74       		.byte	0x74
 9047 1edb 00       		.sleb128 0
 9048 1edc 00       		.byte	0
 9049 1edd 41       		.uleb128 0x41
 9050 1ede C6030000 		.4byte	.LVL54
 9051 1ee2 0F400000 		.4byte	0x400f
 9052 1ee6 41       		.uleb128 0x41
 9053 1ee7 CA030000 		.4byte	.LVL55
 9054 1eeb 16400000 		.4byte	0x4016
 9055 1eef 2E       		.uleb128 0x2e
 9056 1ef0 F8030000 		.4byte	.LVL60
 9057 1ef4 1D400000 		.4byte	0x401d
 9058 1ef8 021F0000 		.4byte	0x1f02
 9059 1efc 2D       		.uleb128 0x2d
 9060 1efd 01       		.uleb128 0x1
 9061 1efe 50       		.byte	0x50
 9062 1eff 01       		.uleb128 0x1
 9063 1f00 30       		.byte	0x30
 9064 1f01 00       		.byte	0
 9065 1f02 2E       		.uleb128 0x2e
 9066 1f03 0C040000 		.4byte	.LVL61
 9067 1f07 863E0000 		.4byte	0x3e86
 9068 1f0b 1C1F0000 		.4byte	0x1f1c
 9069 1f0f 2D       		.uleb128 0x2d
 9070 1f10 01       		.uleb128 0x1
 9071 1f11 52       		.byte	0x52
 9072 1f12 02       		.uleb128 0x2
 9073 1f13 75       		.byte	0x75
 9074 1f14 00       		.sleb128 0
 9075 1f15 2D       		.uleb128 0x2d
 9076 1f16 01       		.uleb128 0x1
 9077 1f17 50       		.byte	0x50
 9078 1f18 02       		.uleb128 0x2
 9079 1f19 74       		.byte	0x74
 9080 1f1a 00       		.sleb128 0
 9081 1f1b 00       		.byte	0
 9082 1f1c 2E       		.uleb128 0x2e
 9083 1f1d 12040000 		.4byte	.LVL62
 9084 1f21 32400000 		.4byte	0x4032
 9085 1f25 2F1F0000 		.4byte	0x1f2f
 9086 1f29 2D       		.uleb128 0x2d
 9087 1f2a 01       		.uleb128 0x1
 9088 1f2b 50       		.byte	0x50
 9089 1f2c 01       		.uleb128 0x1
 9090 1f2d 30       		.byte	0x30
 9091 1f2e 00       		.byte	0
 9092 1f2f 2E       		.uleb128 0x2e
 9093 1f30 26040000 		.4byte	.LVL63
 9094 1f34 863E0000 		.4byte	0x3e86
 9095 1f38 491F0000 		.4byte	0x1f49
 9096 1f3c 2D       		.uleb128 0x2d
 9097 1f3d 01       		.uleb128 0x1
 9098 1f3e 52       		.byte	0x52
ARM GAS  /tmp/ccq8Pe5l.s 			page 161


 9099 1f3f 02       		.uleb128 0x2
 9100 1f40 75       		.byte	0x75
 9101 1f41 00       		.sleb128 0
 9102 1f42 2D       		.uleb128 0x2d
 9103 1f43 01       		.uleb128 0x1
 9104 1f44 50       		.byte	0x50
 9105 1f45 02       		.uleb128 0x2
 9106 1f46 74       		.byte	0x74
 9107 1f47 00       		.sleb128 0
 9108 1f48 00       		.byte	0
 9109 1f49 2E       		.uleb128 0x2e
 9110 1f4a 46040000 		.4byte	.LVL68
 9111 1f4e 47400000 		.4byte	0x4047
 9112 1f52 631F0000 		.4byte	0x1f63
 9113 1f56 2D       		.uleb128 0x2d
 9114 1f57 01       		.uleb128 0x1
 9115 1f58 51       		.byte	0x51
 9116 1f59 02       		.uleb128 0x2
 9117 1f5a 7D       		.byte	0x7d
 9118 1f5b 00       		.sleb128 0
 9119 1f5c 2D       		.uleb128 0x2d
 9120 1f5d 01       		.uleb128 0x1
 9121 1f5e 50       		.byte	0x50
 9122 1f5f 02       		.uleb128 0x2
 9123 1f60 74       		.byte	0x74
 9124 1f61 00       		.sleb128 0
 9125 1f62 00       		.byte	0
 9126 1f63 41       		.uleb128 0x41
 9127 1f64 52040000 		.4byte	.LVL69
 9128 1f68 61400000 		.4byte	0x4061
 9129 1f6c 41       		.uleb128 0x41
 9130 1f6d 56040000 		.4byte	.LVL70
 9131 1f71 16400000 		.4byte	0x4016
 9132 1f75 2E       		.uleb128 0x2e
 9133 1f76 60040000 		.4byte	.LVL71
 9134 1f7a 47400000 		.4byte	0x4047
 9135 1f7e 8F1F0000 		.4byte	0x1f8f
 9136 1f82 2D       		.uleb128 0x2d
 9137 1f83 01       		.uleb128 0x1
 9138 1f84 51       		.byte	0x51
 9139 1f85 02       		.uleb128 0x2
 9140 1f86 7D       		.byte	0x7d
 9141 1f87 00       		.sleb128 0
 9142 1f88 2D       		.uleb128 0x2d
 9143 1f89 01       		.uleb128 0x1
 9144 1f8a 50       		.byte	0x50
 9145 1f8b 02       		.uleb128 0x2
 9146 1f8c 74       		.byte	0x74
 9147 1f8d 00       		.sleb128 0
 9148 1f8e 00       		.byte	0
 9149 1f8f 41       		.uleb128 0x41
 9150 1f90 74040000 		.4byte	.LVL72
 9151 1f94 72400000 		.4byte	0x4072
 9152 1f98 41       		.uleb128 0x41
 9153 1f99 78040000 		.4byte	.LVL73
 9154 1f9d 16400000 		.4byte	0x4016
 9155 1fa1 2E       		.uleb128 0x2e
ARM GAS  /tmp/ccq8Pe5l.s 			page 162


 9156 1fa2 82040000 		.4byte	.LVL74
 9157 1fa6 47400000 		.4byte	0x4047
 9158 1faa BB1F0000 		.4byte	0x1fbb
 9159 1fae 2D       		.uleb128 0x2d
 9160 1faf 01       		.uleb128 0x1
 9161 1fb0 51       		.byte	0x51
 9162 1fb1 02       		.uleb128 0x2
 9163 1fb2 7D       		.byte	0x7d
 9164 1fb3 00       		.sleb128 0
 9165 1fb4 2D       		.uleb128 0x2d
 9166 1fb5 01       		.uleb128 0x1
 9167 1fb6 50       		.byte	0x50
 9168 1fb7 02       		.uleb128 0x2
 9169 1fb8 74       		.byte	0x74
 9170 1fb9 00       		.sleb128 0
 9171 1fba 00       		.byte	0
 9172 1fbb 41       		.uleb128 0x41
 9173 1fbc 96040000 		.4byte	.LVL75
 9174 1fc0 83400000 		.4byte	0x4083
 9175 1fc4 41       		.uleb128 0x41
 9176 1fc5 9A040000 		.4byte	.LVL76
 9177 1fc9 16400000 		.4byte	0x4016
 9178 1fcd 2E       		.uleb128 0x2e
 9179 1fce A4040000 		.4byte	.LVL77
 9180 1fd2 47400000 		.4byte	0x4047
 9181 1fd6 E71F0000 		.4byte	0x1fe7
 9182 1fda 2D       		.uleb128 0x2d
 9183 1fdb 01       		.uleb128 0x1
 9184 1fdc 51       		.byte	0x51
 9185 1fdd 02       		.uleb128 0x2
 9186 1fde 7D       		.byte	0x7d
 9187 1fdf 00       		.sleb128 0
 9188 1fe0 2D       		.uleb128 0x2d
 9189 1fe1 01       		.uleb128 0x1
 9190 1fe2 50       		.byte	0x50
 9191 1fe3 02       		.uleb128 0x2
 9192 1fe4 74       		.byte	0x74
 9193 1fe5 00       		.sleb128 0
 9194 1fe6 00       		.byte	0
 9195 1fe7 41       		.uleb128 0x41
 9196 1fe8 B8040000 		.4byte	.LVL78
 9197 1fec 94400000 		.4byte	0x4094
 9198 1ff0 41       		.uleb128 0x41
 9199 1ff1 BC040000 		.4byte	.LVL79
 9200 1ff5 16400000 		.4byte	0x4016
 9201 1ff9 41       		.uleb128 0x41
 9202 1ffa 02050000 		.4byte	.LVL82
 9203 1ffe A5400000 		.4byte	0x40a5
 9204 2002 2E       		.uleb128 0x2e
 9205 2003 1E050000 		.4byte	.LVL83
 9206 2007 BB400000 		.4byte	0x40bb
 9207 200b 28200000 		.4byte	0x2028
 9208 200f 2D       		.uleb128 0x2d
 9209 2010 01       		.uleb128 0x1
 9210 2011 51       		.byte	0x51
 9211 2012 02       		.uleb128 0x2
 9212 2013 75       		.byte	0x75
ARM GAS  /tmp/ccq8Pe5l.s 			page 163


 9213 2014 00       		.sleb128 0
 9214 2015 2D       		.uleb128 0x2d
 9215 2016 02       		.uleb128 0x2
 9216 2017 90       		.byte	0x90
 9217 2018 41       		.uleb128 0x41
 9218 2019 07       		.uleb128 0x7
 9219 201a F4       		.byte	0xf4
 9220 201b 25       		.uleb128 0x25
 9221 201c 04       		.byte	0x4
 9222 201d 00002041 		.4byte	0x41200000
 9223 2021 2D       		.uleb128 0x2d
 9224 2022 01       		.uleb128 0x1
 9225 2023 50       		.byte	0x50
 9226 2024 02       		.uleb128 0x2
 9227 2025 74       		.byte	0x74
 9228 2026 00       		.sleb128 0
 9229 2027 00       		.byte	0
 9230 2028 41       		.uleb128 0x41
 9231 2029 3A050000 		.4byte	.LVL84
 9232 202d A5400000 		.4byte	0x40a5
 9233 2031 2E       		.uleb128 0x2e
 9234 2032 56050000 		.4byte	.LVL85
 9235 2036 BB400000 		.4byte	0x40bb
 9236 203a 57200000 		.4byte	0x2057
 9237 203e 2D       		.uleb128 0x2d
 9238 203f 01       		.uleb128 0x1
 9239 2040 51       		.byte	0x51
 9240 2041 02       		.uleb128 0x2
 9241 2042 75       		.byte	0x75
 9242 2043 00       		.sleb128 0
 9243 2044 2D       		.uleb128 0x2d
 9244 2045 02       		.uleb128 0x2
 9245 2046 90       		.byte	0x90
 9246 2047 41       		.uleb128 0x41
 9247 2048 07       		.uleb128 0x7
 9248 2049 F4       		.byte	0xf4
 9249 204a 25       		.uleb128 0x25
 9250 204b 04       		.byte	0x4
 9251 204c 00002041 		.4byte	0x41200000
 9252 2050 2D       		.uleb128 0x2d
 9253 2051 01       		.uleb128 0x1
 9254 2052 50       		.byte	0x50
 9255 2053 02       		.uleb128 0x2
 9256 2054 74       		.byte	0x74
 9257 2055 00       		.sleb128 0
 9258 2056 00       		.byte	0
 9259 2057 41       		.uleb128 0x41
 9260 2058 72050000 		.4byte	.LVL86
 9261 205c A5400000 		.4byte	0x40a5
 9262 2060 2E       		.uleb128 0x2e
 9263 2061 8E050000 		.4byte	.LVL87
 9264 2065 BB400000 		.4byte	0x40bb
 9265 2069 86200000 		.4byte	0x2086
 9266 206d 2D       		.uleb128 0x2d
 9267 206e 01       		.uleb128 0x1
 9268 206f 51       		.byte	0x51
 9269 2070 02       		.uleb128 0x2
ARM GAS  /tmp/ccq8Pe5l.s 			page 164


 9270 2071 75       		.byte	0x75
 9271 2072 00       		.sleb128 0
 9272 2073 2D       		.uleb128 0x2d
 9273 2074 02       		.uleb128 0x2
 9274 2075 90       		.byte	0x90
 9275 2076 41       		.uleb128 0x41
 9276 2077 07       		.uleb128 0x7
 9277 2078 F4       		.byte	0xf4
 9278 2079 25       		.uleb128 0x25
 9279 207a 04       		.byte	0x4
 9280 207b 00002041 		.4byte	0x41200000
 9281 207f 2D       		.uleb128 0x2d
 9282 2080 01       		.uleb128 0x1
 9283 2081 50       		.byte	0x50
 9284 2082 02       		.uleb128 0x2
 9285 2083 74       		.byte	0x74
 9286 2084 00       		.sleb128 0
 9287 2085 00       		.byte	0
 9288 2086 41       		.uleb128 0x41
 9289 2087 AA050000 		.4byte	.LVL88
 9290 208b A5400000 		.4byte	0x40a5
 9291 208f 2E       		.uleb128 0x2e
 9292 2090 C6050000 		.4byte	.LVL89
 9293 2094 BB400000 		.4byte	0x40bb
 9294 2098 B5200000 		.4byte	0x20b5
 9295 209c 2D       		.uleb128 0x2d
 9296 209d 01       		.uleb128 0x1
 9297 209e 51       		.byte	0x51
 9298 209f 02       		.uleb128 0x2
 9299 20a0 75       		.byte	0x75
 9300 20a1 00       		.sleb128 0
 9301 20a2 2D       		.uleb128 0x2d
 9302 20a3 02       		.uleb128 0x2
 9303 20a4 90       		.byte	0x90
 9304 20a5 41       		.uleb128 0x41
 9305 20a6 07       		.uleb128 0x7
 9306 20a7 F4       		.byte	0xf4
 9307 20a8 25       		.uleb128 0x25
 9308 20a9 04       		.byte	0x4
 9309 20aa 00002041 		.4byte	0x41200000
 9310 20ae 2D       		.uleb128 0x2d
 9311 20af 01       		.uleb128 0x1
 9312 20b0 50       		.byte	0x50
 9313 20b1 02       		.uleb128 0x2
 9314 20b2 74       		.byte	0x74
 9315 20b3 00       		.sleb128 0
 9316 20b4 00       		.byte	0
 9317 20b5 41       		.uleb128 0x41
 9318 20b6 E2050000 		.4byte	.LVL90
 9319 20ba A5400000 		.4byte	0x40a5
 9320 20be 2E       		.uleb128 0x2e
 9321 20bf FE050000 		.4byte	.LVL91
 9322 20c3 BB400000 		.4byte	0x40bb
 9323 20c7 E4200000 		.4byte	0x20e4
 9324 20cb 2D       		.uleb128 0x2d
 9325 20cc 01       		.uleb128 0x1
 9326 20cd 51       		.byte	0x51
ARM GAS  /tmp/ccq8Pe5l.s 			page 165


 9327 20ce 02       		.uleb128 0x2
 9328 20cf 75       		.byte	0x75
 9329 20d0 00       		.sleb128 0
 9330 20d1 2D       		.uleb128 0x2d
 9331 20d2 02       		.uleb128 0x2
 9332 20d3 90       		.byte	0x90
 9333 20d4 41       		.uleb128 0x41
 9334 20d5 07       		.uleb128 0x7
 9335 20d6 F4       		.byte	0xf4
 9336 20d7 25       		.uleb128 0x25
 9337 20d8 04       		.byte	0x4
 9338 20d9 00002041 		.4byte	0x41200000
 9339 20dd 2D       		.uleb128 0x2d
 9340 20de 01       		.uleb128 0x1
 9341 20df 50       		.byte	0x50
 9342 20e0 02       		.uleb128 0x2
 9343 20e1 74       		.byte	0x74
 9344 20e2 00       		.sleb128 0
 9345 20e3 00       		.byte	0
 9346 20e4 41       		.uleb128 0x41
 9347 20e5 1A060000 		.4byte	.LVL92
 9348 20e9 A5400000 		.4byte	0x40a5
 9349 20ed 2E       		.uleb128 0x2e
 9350 20ee 36060000 		.4byte	.LVL93
 9351 20f2 BB400000 		.4byte	0x40bb
 9352 20f6 13210000 		.4byte	0x2113
 9353 20fa 2D       		.uleb128 0x2d
 9354 20fb 01       		.uleb128 0x1
 9355 20fc 51       		.byte	0x51
 9356 20fd 02       		.uleb128 0x2
 9357 20fe 75       		.byte	0x75
 9358 20ff 00       		.sleb128 0
 9359 2100 2D       		.uleb128 0x2d
 9360 2101 02       		.uleb128 0x2
 9361 2102 90       		.byte	0x90
 9362 2103 41       		.uleb128 0x41
 9363 2104 07       		.uleb128 0x7
 9364 2105 F4       		.byte	0xf4
 9365 2106 25       		.uleb128 0x25
 9366 2107 04       		.byte	0x4
 9367 2108 00002041 		.4byte	0x41200000
 9368 210c 2D       		.uleb128 0x2d
 9369 210d 01       		.uleb128 0x1
 9370 210e 50       		.byte	0x50
 9371 210f 02       		.uleb128 0x2
 9372 2110 74       		.byte	0x74
 9373 2111 00       		.sleb128 0
 9374 2112 00       		.byte	0
 9375 2113 41       		.uleb128 0x41
 9376 2114 52060000 		.4byte	.LVL94
 9377 2118 A5400000 		.4byte	0x40a5
 9378 211c 2E       		.uleb128 0x2e
 9379 211d 6E060000 		.4byte	.LVL95
 9380 2121 BB400000 		.4byte	0x40bb
 9381 2125 42210000 		.4byte	0x2142
 9382 2129 2D       		.uleb128 0x2d
 9383 212a 01       		.uleb128 0x1
ARM GAS  /tmp/ccq8Pe5l.s 			page 166


 9384 212b 51       		.byte	0x51
 9385 212c 02       		.uleb128 0x2
 9386 212d 75       		.byte	0x75
 9387 212e 00       		.sleb128 0
 9388 212f 2D       		.uleb128 0x2d
 9389 2130 02       		.uleb128 0x2
 9390 2131 90       		.byte	0x90
 9391 2132 41       		.uleb128 0x41
 9392 2133 07       		.uleb128 0x7
 9393 2134 F4       		.byte	0xf4
 9394 2135 25       		.uleb128 0x25
 9395 2136 04       		.byte	0x4
 9396 2137 00002041 		.4byte	0x41200000
 9397 213b 2D       		.uleb128 0x2d
 9398 213c 01       		.uleb128 0x1
 9399 213d 50       		.byte	0x50
 9400 213e 02       		.uleb128 0x2
 9401 213f 74       		.byte	0x74
 9402 2140 00       		.sleb128 0
 9403 2141 00       		.byte	0
 9404 2142 41       		.uleb128 0x41
 9405 2143 72060000 		.4byte	.LVL96
 9406 2147 DB400000 		.4byte	0x40db
 9407 214b 2E       		.uleb128 0x2e
 9408 214c 7E060000 		.4byte	.LVL97
 9409 2150 883F0000 		.4byte	0x3f88
 9410 2154 71210000 		.4byte	0x2171
 9411 2158 2D       		.uleb128 0x2d
 9412 2159 01       		.uleb128 0x1
 9413 215a 51       		.byte	0x51
 9414 215b 02       		.uleb128 0x2
 9415 215c 75       		.byte	0x75
 9416 215d 00       		.sleb128 0
 9417 215e 2D       		.uleb128 0x2d
 9418 215f 02       		.uleb128 0x2
 9419 2160 90       		.byte	0x90
 9420 2161 41       		.uleb128 0x41
 9421 2162 07       		.uleb128 0x7
 9422 2163 F4       		.byte	0xf4
 9423 2164 25       		.uleb128 0x25
 9424 2165 04       		.byte	0x4
 9425 2166 0000C842 		.4byte	0x42c80000
 9426 216a 2D       		.uleb128 0x2d
 9427 216b 01       		.uleb128 0x1
 9428 216c 50       		.byte	0x50
 9429 216d 02       		.uleb128 0x2
 9430 216e 74       		.byte	0x74
 9431 216f 00       		.sleb128 0
 9432 2170 00       		.byte	0
 9433 2171 41       		.uleb128 0x41
 9434 2172 82060000 		.4byte	.LVL98
 9435 2176 E6400000 		.4byte	0x40e6
 9436 217a 2E       		.uleb128 0x2e
 9437 217b 8E060000 		.4byte	.LVL99
 9438 217f 883F0000 		.4byte	0x3f88
 9439 2183 A0210000 		.4byte	0x21a0
 9440 2187 2D       		.uleb128 0x2d
ARM GAS  /tmp/ccq8Pe5l.s 			page 167


 9441 2188 01       		.uleb128 0x1
 9442 2189 51       		.byte	0x51
 9443 218a 02       		.uleb128 0x2
 9444 218b 75       		.byte	0x75
 9445 218c 00       		.sleb128 0
 9446 218d 2D       		.uleb128 0x2d
 9447 218e 02       		.uleb128 0x2
 9448 218f 90       		.byte	0x90
 9449 2190 41       		.uleb128 0x41
 9450 2191 07       		.uleb128 0x7
 9451 2192 F4       		.byte	0xf4
 9452 2193 25       		.uleb128 0x25
 9453 2194 04       		.byte	0x4
 9454 2195 0000C842 		.4byte	0x42c80000
 9455 2199 2D       		.uleb128 0x2d
 9456 219a 01       		.uleb128 0x1
 9457 219b 50       		.byte	0x50
 9458 219c 02       		.uleb128 0x2
 9459 219d 74       		.byte	0x74
 9460 219e 00       		.sleb128 0
 9461 219f 00       		.byte	0
 9462 21a0 41       		.uleb128 0x41
 9463 21a1 92060000 		.4byte	.LVL100
 9464 21a5 F1400000 		.4byte	0x40f1
 9465 21a9 2E       		.uleb128 0x2e
 9466 21aa 9E060000 		.4byte	.LVL101
 9467 21ae BB400000 		.4byte	0x40bb
 9468 21b2 CF210000 		.4byte	0x21cf
 9469 21b6 2D       		.uleb128 0x2d
 9470 21b7 01       		.uleb128 0x1
 9471 21b8 51       		.byte	0x51
 9472 21b9 02       		.uleb128 0x2
 9473 21ba 75       		.byte	0x75
 9474 21bb 00       		.sleb128 0
 9475 21bc 2D       		.uleb128 0x2d
 9476 21bd 02       		.uleb128 0x2
 9477 21be 90       		.byte	0x90
 9478 21bf 41       		.uleb128 0x41
 9479 21c0 07       		.uleb128 0x7
 9480 21c1 F4       		.byte	0xf4
 9481 21c2 25       		.uleb128 0x25
 9482 21c3 04       		.byte	0x4
 9483 21c4 00007A44 		.4byte	0x447a0000
 9484 21c8 2D       		.uleb128 0x2d
 9485 21c9 01       		.uleb128 0x1
 9486 21ca 50       		.byte	0x50
 9487 21cb 02       		.uleb128 0x2
 9488 21cc 74       		.byte	0x74
 9489 21cd 00       		.sleb128 0
 9490 21ce 00       		.byte	0
 9491 21cf 41       		.uleb128 0x41
 9492 21d0 A2060000 		.4byte	.LVL102
 9493 21d4 FC400000 		.4byte	0x40fc
 9494 21d8 2E       		.uleb128 0x2e
 9495 21d9 AE060000 		.4byte	.LVL103
 9496 21dd 883F0000 		.4byte	0x3f88
 9497 21e1 FA210000 		.4byte	0x21fa
ARM GAS  /tmp/ccq8Pe5l.s 			page 168


 9498 21e5 2D       		.uleb128 0x2d
 9499 21e6 01       		.uleb128 0x1
 9500 21e7 51       		.byte	0x51
 9501 21e8 02       		.uleb128 0x2
 9502 21e9 75       		.byte	0x75
 9503 21ea 00       		.sleb128 0
 9504 21eb 2D       		.uleb128 0x2d
 9505 21ec 02       		.uleb128 0x2
 9506 21ed 90       		.byte	0x90
 9507 21ee 41       		.uleb128 0x41
 9508 21ef 03       		.uleb128 0x3
 9509 21f0 F5       		.byte	0xf5
 9510 21f1 53       		.uleb128 0x53
 9511 21f2 25       		.uleb128 0x25
 9512 21f3 2D       		.uleb128 0x2d
 9513 21f4 01       		.uleb128 0x1
 9514 21f5 50       		.byte	0x50
 9515 21f6 02       		.uleb128 0x2
 9516 21f7 74       		.byte	0x74
 9517 21f8 00       		.sleb128 0
 9518 21f9 00       		.byte	0
 9519 21fa 2E       		.uleb128 0x2e
 9520 21fb D6060000 		.4byte	.LVL104
 9521 21ff BB400000 		.4byte	0x40bb
 9522 2203 20220000 		.4byte	0x2220
 9523 2207 2D       		.uleb128 0x2d
 9524 2208 01       		.uleb128 0x1
 9525 2209 51       		.byte	0x51
 9526 220a 02       		.uleb128 0x2
 9527 220b 75       		.byte	0x75
 9528 220c 00       		.sleb128 0
 9529 220d 2D       		.uleb128 0x2d
 9530 220e 02       		.uleb128 0x2
 9531 220f 90       		.byte	0x90
 9532 2210 41       		.uleb128 0x41
 9533 2211 07       		.uleb128 0x7
 9534 2212 F4       		.byte	0xf4
 9535 2213 25       		.uleb128 0x25
 9536 2214 04       		.byte	0x4
 9537 2215 00002041 		.4byte	0x41200000
 9538 2219 2D       		.uleb128 0x2d
 9539 221a 01       		.uleb128 0x1
 9540 221b 50       		.byte	0x50
 9541 221c 02       		.uleb128 0x2
 9542 221d 74       		.byte	0x74
 9543 221e 00       		.sleb128 0
 9544 221f 00       		.byte	0
 9545 2220 2E       		.uleb128 0x2e
 9546 2221 DC060000 		.4byte	.LVL105
 9547 2225 07410000 		.4byte	0x4107
 9548 2229 33220000 		.4byte	0x2233
 9549 222d 2D       		.uleb128 0x2d
 9550 222e 01       		.uleb128 0x1
 9551 222f 50       		.byte	0x50
 9552 2230 01       		.uleb128 0x1
 9553 2231 30       		.byte	0x30
 9554 2232 00       		.byte	0
ARM GAS  /tmp/ccq8Pe5l.s 			page 169


 9555 2233 2E       		.uleb128 0x2e
 9556 2234 E8060000 		.4byte	.LVL106
 9557 2238 883F0000 		.4byte	0x3f88
 9558 223c 55220000 		.4byte	0x2255
 9559 2240 2D       		.uleb128 0x2d
 9560 2241 01       		.uleb128 0x1
 9561 2242 51       		.byte	0x51
 9562 2243 02       		.uleb128 0x2
 9563 2244 75       		.byte	0x75
 9564 2245 00       		.sleb128 0
 9565 2246 2D       		.uleb128 0x2d
 9566 2247 02       		.uleb128 0x2
 9567 2248 90       		.byte	0x90
 9568 2249 41       		.uleb128 0x41
 9569 224a 03       		.uleb128 0x3
 9570 224b F5       		.byte	0xf5
 9571 224c 50       		.uleb128 0x50
 9572 224d 25       		.uleb128 0x25
 9573 224e 2D       		.uleb128 0x2d
 9574 224f 01       		.uleb128 0x1
 9575 2250 50       		.byte	0x50
 9576 2251 02       		.uleb128 0x2
 9577 2252 74       		.byte	0x74
 9578 2253 00       		.sleb128 0
 9579 2254 00       		.byte	0
 9580 2255 2E       		.uleb128 0x2e
 9581 2256 EE060000 		.4byte	.LVL107
 9582 225a 1C410000 		.4byte	0x411c
 9583 225e 68220000 		.4byte	0x2268
 9584 2262 2D       		.uleb128 0x2d
 9585 2263 01       		.uleb128 0x1
 9586 2264 50       		.byte	0x50
 9587 2265 01       		.uleb128 0x1
 9588 2266 30       		.byte	0x30
 9589 2267 00       		.byte	0
 9590 2268 2E       		.uleb128 0x2e
 9591 2269 FA060000 		.4byte	.LVL108
 9592 226d 883F0000 		.4byte	0x3f88
 9593 2271 8A220000 		.4byte	0x228a
 9594 2275 2D       		.uleb128 0x2d
 9595 2276 01       		.uleb128 0x1
 9596 2277 51       		.byte	0x51
 9597 2278 02       		.uleb128 0x2
 9598 2279 75       		.byte	0x75
 9599 227a 00       		.sleb128 0
 9600 227b 2D       		.uleb128 0x2d
 9601 227c 02       		.uleb128 0x2
 9602 227d 90       		.byte	0x90
 9603 227e 41       		.uleb128 0x41
 9604 227f 03       		.uleb128 0x3
 9605 2280 F5       		.byte	0xf5
 9606 2281 50       		.uleb128 0x50
 9607 2282 25       		.uleb128 0x25
 9608 2283 2D       		.uleb128 0x2d
 9609 2284 01       		.uleb128 0x1
 9610 2285 50       		.byte	0x50
 9611 2286 02       		.uleb128 0x2
ARM GAS  /tmp/ccq8Pe5l.s 			page 170


 9612 2287 74       		.byte	0x74
 9613 2288 00       		.sleb128 0
 9614 2289 00       		.byte	0
 9615 228a 2E       		.uleb128 0x2e
 9616 228b 00070000 		.4byte	.LVL109
 9617 228f 31410000 		.4byte	0x4131
 9618 2293 9D220000 		.4byte	0x229d
 9619 2297 2D       		.uleb128 0x2d
 9620 2298 01       		.uleb128 0x1
 9621 2299 50       		.byte	0x50
 9622 229a 01       		.uleb128 0x1
 9623 229b 30       		.byte	0x30
 9624 229c 00       		.byte	0
 9625 229d 2E       		.uleb128 0x2e
 9626 229e 0C070000 		.4byte	.LVL110
 9627 22a2 883F0000 		.4byte	0x3f88
 9628 22a6 BF220000 		.4byte	0x22bf
 9629 22aa 2D       		.uleb128 0x2d
 9630 22ab 01       		.uleb128 0x1
 9631 22ac 51       		.byte	0x51
 9632 22ad 02       		.uleb128 0x2
 9633 22ae 75       		.byte	0x75
 9634 22af 00       		.sleb128 0
 9635 22b0 2D       		.uleb128 0x2d
 9636 22b1 02       		.uleb128 0x2
 9637 22b2 90       		.byte	0x90
 9638 22b3 41       		.uleb128 0x41
 9639 22b4 03       		.uleb128 0x3
 9640 22b5 F5       		.byte	0xf5
 9641 22b6 50       		.uleb128 0x50
 9642 22b7 25       		.uleb128 0x25
 9643 22b8 2D       		.uleb128 0x2d
 9644 22b9 01       		.uleb128 0x1
 9645 22ba 50       		.byte	0x50
 9646 22bb 02       		.uleb128 0x2
 9647 22bc 74       		.byte	0x74
 9648 22bd 00       		.sleb128 0
 9649 22be 00       		.byte	0
 9650 22bf 2E       		.uleb128 0x2e
 9651 22c0 12070000 		.4byte	.LVL111
 9652 22c4 46410000 		.4byte	0x4146
 9653 22c8 D2220000 		.4byte	0x22d2
 9654 22cc 2D       		.uleb128 0x2d
 9655 22cd 01       		.uleb128 0x1
 9656 22ce 50       		.byte	0x50
 9657 22cf 01       		.uleb128 0x1
 9658 22d0 30       		.byte	0x30
 9659 22d1 00       		.byte	0
 9660 22d2 2E       		.uleb128 0x2e
 9661 22d3 1E070000 		.4byte	.LVL112
 9662 22d7 883F0000 		.4byte	0x3f88
 9663 22db F4220000 		.4byte	0x22f4
 9664 22df 2D       		.uleb128 0x2d
 9665 22e0 01       		.uleb128 0x1
 9666 22e1 51       		.byte	0x51
 9667 22e2 02       		.uleb128 0x2
 9668 22e3 75       		.byte	0x75
ARM GAS  /tmp/ccq8Pe5l.s 			page 171


 9669 22e4 00       		.sleb128 0
 9670 22e5 2D       		.uleb128 0x2d
 9671 22e6 02       		.uleb128 0x2
 9672 22e7 90       		.byte	0x90
 9673 22e8 41       		.uleb128 0x41
 9674 22e9 03       		.uleb128 0x3
 9675 22ea F5       		.byte	0xf5
 9676 22eb 50       		.uleb128 0x50
 9677 22ec 25       		.uleb128 0x25
 9678 22ed 2D       		.uleb128 0x2d
 9679 22ee 01       		.uleb128 0x1
 9680 22ef 50       		.byte	0x50
 9681 22f0 02       		.uleb128 0x2
 9682 22f1 74       		.byte	0x74
 9683 22f2 00       		.sleb128 0
 9684 22f3 00       		.byte	0
 9685 22f4 2E       		.uleb128 0x2e
 9686 22f5 24070000 		.4byte	.LVL113
 9687 22f9 5B410000 		.4byte	0x415b
 9688 22fd 07230000 		.4byte	0x2307
 9689 2301 2D       		.uleb128 0x2d
 9690 2302 01       		.uleb128 0x1
 9691 2303 50       		.byte	0x50
 9692 2304 01       		.uleb128 0x1
 9693 2305 30       		.byte	0x30
 9694 2306 00       		.byte	0
 9695 2307 2E       		.uleb128 0x2e
 9696 2308 2E070000 		.4byte	.LVL114
 9697 230c 863E0000 		.4byte	0x3e86
 9698 2310 21230000 		.4byte	0x2321
 9699 2314 2D       		.uleb128 0x2d
 9700 2315 01       		.uleb128 0x1
 9701 2316 52       		.byte	0x52
 9702 2317 02       		.uleb128 0x2
 9703 2318 75       		.byte	0x75
 9704 2319 00       		.sleb128 0
 9705 231a 2D       		.uleb128 0x2d
 9706 231b 01       		.uleb128 0x1
 9707 231c 50       		.byte	0x50
 9708 231d 02       		.uleb128 0x2
 9709 231e 74       		.byte	0x74
 9710 231f 00       		.sleb128 0
 9711 2320 00       		.byte	0
 9712 2321 2E       		.uleb128 0x2e
 9713 2322 34070000 		.4byte	.LVL115
 9714 2326 70410000 		.4byte	0x4170
 9715 232a 34230000 		.4byte	0x2334
 9716 232e 2D       		.uleb128 0x2d
 9717 232f 01       		.uleb128 0x1
 9718 2330 50       		.byte	0x50
 9719 2331 01       		.uleb128 0x1
 9720 2332 30       		.byte	0x30
 9721 2333 00       		.byte	0
 9722 2334 2E       		.uleb128 0x2e
 9723 2335 3E070000 		.4byte	.LVL116
 9724 2339 863E0000 		.4byte	0x3e86
 9725 233d 4E230000 		.4byte	0x234e
ARM GAS  /tmp/ccq8Pe5l.s 			page 172


 9726 2341 2D       		.uleb128 0x2d
 9727 2342 01       		.uleb128 0x1
 9728 2343 52       		.byte	0x52
 9729 2344 02       		.uleb128 0x2
 9730 2345 75       		.byte	0x75
 9731 2346 00       		.sleb128 0
 9732 2347 2D       		.uleb128 0x2d
 9733 2348 01       		.uleb128 0x1
 9734 2349 50       		.byte	0x50
 9735 234a 02       		.uleb128 0x2
 9736 234b 74       		.byte	0x74
 9737 234c 00       		.sleb128 0
 9738 234d 00       		.byte	0
 9739 234e 41       		.uleb128 0x41
 9740 234f 48070000 		.4byte	.LVL117
 9741 2353 85410000 		.4byte	0x4185
 9742 2357 2E       		.uleb128 0x2e
 9743 2358 98070000 		.4byte	.LVL120
 9744 235c 90410000 		.4byte	0x4190
 9745 2360 71230000 		.4byte	0x2371
 9746 2364 2D       		.uleb128 0x2d
 9747 2365 01       		.uleb128 0x1
 9748 2366 51       		.byte	0x51
 9749 2367 02       		.uleb128 0x2
 9750 2368 7D       		.byte	0x7d
 9751 2369 00       		.sleb128 0
 9752 236a 2D       		.uleb128 0x2d
 9753 236b 01       		.uleb128 0x1
 9754 236c 50       		.byte	0x50
 9755 236d 02       		.uleb128 0x2
 9756 236e 74       		.byte	0x74
 9757 236f 00       		.sleb128 0
 9758 2370 00       		.byte	0
 9759 2371 41       		.uleb128 0x41
 9760 2372 A2070000 		.4byte	.LVL121
 9761 2376 AA410000 		.4byte	0x41aa
 9762 237a 2E       		.uleb128 0x2e
 9763 237b D0070000 		.4byte	.LVL128
 9764 237f 90410000 		.4byte	0x4190
 9765 2383 94230000 		.4byte	0x2394
 9766 2387 2D       		.uleb128 0x2d
 9767 2388 01       		.uleb128 0x1
 9768 2389 51       		.byte	0x51
 9769 238a 02       		.uleb128 0x2
 9770 238b 7D       		.byte	0x7d
 9771 238c 00       		.sleb128 0
 9772 238d 2D       		.uleb128 0x2d
 9773 238e 01       		.uleb128 0x1
 9774 238f 50       		.byte	0x50
 9775 2390 02       		.uleb128 0x2
 9776 2391 74       		.byte	0x74
 9777 2392 00       		.sleb128 0
 9778 2393 00       		.byte	0
 9779 2394 41       		.uleb128 0x41
 9780 2395 D4070000 		.4byte	.LVL129
 9781 2399 C9410000 		.4byte	0x41c9
 9782 239d 41       		.uleb128 0x41
ARM GAS  /tmp/ccq8Pe5l.s 			page 173


 9783 239e F6070000 		.4byte	.LVL133
 9784 23a2 DE410000 		.4byte	0x41de
 9785 23a6 2E       		.uleb128 0x2e
 9786 23a7 54080000 		.4byte	.LVL142
 9787 23ab E5410000 		.4byte	0x41e5
 9788 23af C0230000 		.4byte	0x23c0
 9789 23b3 2D       		.uleb128 0x2d
 9790 23b4 01       		.uleb128 0x1
 9791 23b5 51       		.byte	0x51
 9792 23b6 02       		.uleb128 0x2
 9793 23b7 7D       		.byte	0x7d
 9794 23b8 00       		.sleb128 0
 9795 23b9 2D       		.uleb128 0x2d
 9796 23ba 01       		.uleb128 0x1
 9797 23bb 50       		.byte	0x50
 9798 23bc 02       		.uleb128 0x2
 9799 23bd 74       		.byte	0x74
 9800 23be 00       		.sleb128 0
 9801 23bf 00       		.byte	0
 9802 23c0 2E       		.uleb128 0x2e
 9803 23c1 5E080000 		.4byte	.LVL143
 9804 23c5 E5410000 		.4byte	0x41e5
 9805 23c9 DA230000 		.4byte	0x23da
 9806 23cd 2D       		.uleb128 0x2d
 9807 23ce 01       		.uleb128 0x1
 9808 23cf 51       		.byte	0x51
 9809 23d0 02       		.uleb128 0x2
 9810 23d1 7D       		.byte	0x7d
 9811 23d2 00       		.sleb128 0
 9812 23d3 2D       		.uleb128 0x2d
 9813 23d4 01       		.uleb128 0x1
 9814 23d5 50       		.byte	0x50
 9815 23d6 02       		.uleb128 0x2
 9816 23d7 74       		.byte	0x74
 9817 23d8 00       		.sleb128 0
 9818 23d9 00       		.byte	0
 9819 23da 2E       		.uleb128 0x2e
 9820 23db 68080000 		.4byte	.LVL144
 9821 23df E5410000 		.4byte	0x41e5
 9822 23e3 F4230000 		.4byte	0x23f4
 9823 23e7 2D       		.uleb128 0x2d
 9824 23e8 01       		.uleb128 0x1
 9825 23e9 51       		.byte	0x51
 9826 23ea 02       		.uleb128 0x2
 9827 23eb 7D       		.byte	0x7d
 9828 23ec 00       		.sleb128 0
 9829 23ed 2D       		.uleb128 0x2d
 9830 23ee 01       		.uleb128 0x1
 9831 23ef 50       		.byte	0x50
 9832 23f0 02       		.uleb128 0x2
 9833 23f1 74       		.byte	0x74
 9834 23f2 00       		.sleb128 0
 9835 23f3 00       		.byte	0
 9836 23f4 2E       		.uleb128 0x2e
 9837 23f5 70080000 		.4byte	.LVL145
 9838 23f9 FF410000 		.4byte	0x41ff
 9839 23fd 09240000 		.4byte	0x2409
ARM GAS  /tmp/ccq8Pe5l.s 			page 174


 9840 2401 2D       		.uleb128 0x2d
 9841 2402 01       		.uleb128 0x1
 9842 2403 50       		.byte	0x50
 9843 2404 03       		.uleb128 0x3
 9844 2405 91       		.byte	0x91
 9845 2406 A87E     		.sleb128 -216
 9846 2408 00       		.byte	0
 9847 2409 2E       		.uleb128 0x2e
 9848 240a 7E080000 		.4byte	.LVL147
 9849 240e 16420000 		.4byte	0x4216
 9850 2412 28240000 		.4byte	0x2428
 9851 2416 2D       		.uleb128 0x2d
 9852 2417 01       		.uleb128 0x1
 9853 2418 53       		.byte	0x53
 9854 2419 01       		.uleb128 0x1
 9855 241a 30       		.byte	0x30
 9856 241b 2D       		.uleb128 0x2d
 9857 241c 01       		.uleb128 0x1
 9858 241d 52       		.byte	0x52
 9859 241e 02       		.uleb128 0x2
 9860 241f 75       		.byte	0x75
 9861 2420 7F       		.sleb128 -1
 9862 2421 2D       		.uleb128 0x2d
 9863 2422 01       		.uleb128 0x1
 9864 2423 51       		.byte	0x51
 9865 2424 02       		.uleb128 0x2
 9866 2425 77       		.byte	0x77
 9867 2426 02       		.sleb128 2
 9868 2427 00       		.byte	0
 9869 2428 2E       		.uleb128 0x2e
 9870 2429 88080000 		.4byte	.LVL148
 9871 242d 47400000 		.4byte	0x4047
 9872 2431 42240000 		.4byte	0x2442
 9873 2435 2D       		.uleb128 0x2d
 9874 2436 01       		.uleb128 0x1
 9875 2437 51       		.byte	0x51
 9876 2438 02       		.uleb128 0x2
 9877 2439 7D       		.byte	0x7d
 9878 243a 00       		.sleb128 0
 9879 243b 2D       		.uleb128 0x2d
 9880 243c 01       		.uleb128 0x1
 9881 243d 50       		.byte	0x50
 9882 243e 02       		.uleb128 0x2
 9883 243f 74       		.byte	0x74
 9884 2440 00       		.sleb128 0
 9885 2441 00       		.byte	0
 9886 2442 41       		.uleb128 0x41
 9887 2443 9C080000 		.4byte	.LVL149
 9888 2447 36420000 		.4byte	0x4236
 9889 244b 41       		.uleb128 0x41
 9890 244c A0080000 		.4byte	.LVL150
 9891 2450 16400000 		.4byte	0x4016
 9892 2454 41       		.uleb128 0x41
 9893 2455 B4080000 		.4byte	.LVL153
 9894 2459 47420000 		.4byte	0x4247
 9895 245d 41       		.uleb128 0x41
 9896 245e D4080000 		.4byte	.LVL157
ARM GAS  /tmp/ccq8Pe5l.s 			page 175


 9897 2462 52420000 		.4byte	0x4252
 9898 2466 2E       		.uleb128 0x2e
 9899 2467 E8080000 		.4byte	.LVL158
 9900 246b 863E0000 		.4byte	0x3e86
 9901 246f 80240000 		.4byte	0x2480
 9902 2473 2D       		.uleb128 0x2d
 9903 2474 01       		.uleb128 0x1
 9904 2475 52       		.byte	0x52
 9905 2476 02       		.uleb128 0x2
 9906 2477 75       		.byte	0x75
 9907 2478 00       		.sleb128 0
 9908 2479 2D       		.uleb128 0x2d
 9909 247a 01       		.uleb128 0x1
 9910 247b 50       		.byte	0x50
 9911 247c 02       		.uleb128 0x2
 9912 247d 74       		.byte	0x74
 9913 247e 00       		.sleb128 0
 9914 247f 00       		.byte	0
 9915 2480 41       		.uleb128 0x41
 9916 2481 EC080000 		.4byte	.LVL159
 9917 2485 5D420000 		.4byte	0x425d
 9918 2489 2E       		.uleb128 0x2e
 9919 248a 00090000 		.4byte	.LVL160
 9920 248e 863E0000 		.4byte	0x3e86
 9921 2492 A3240000 		.4byte	0x24a3
 9922 2496 2D       		.uleb128 0x2d
 9923 2497 01       		.uleb128 0x1
 9924 2498 52       		.byte	0x52
 9925 2499 02       		.uleb128 0x2
 9926 249a 75       		.byte	0x75
 9927 249b 00       		.sleb128 0
 9928 249c 2D       		.uleb128 0x2d
 9929 249d 01       		.uleb128 0x1
 9930 249e 50       		.byte	0x50
 9931 249f 02       		.uleb128 0x2
 9932 24a0 74       		.byte	0x74
 9933 24a1 00       		.sleb128 0
 9934 24a2 00       		.byte	0
 9935 24a3 41       		.uleb128 0x41
 9936 24a4 04090000 		.4byte	.LVL161
 9937 24a8 68420000 		.4byte	0x4268
 9938 24ac 2E       		.uleb128 0x2e
 9939 24ad 18090000 		.4byte	.LVL162
 9940 24b1 863E0000 		.4byte	0x3e86
 9941 24b5 C6240000 		.4byte	0x24c6
 9942 24b9 2D       		.uleb128 0x2d
 9943 24ba 01       		.uleb128 0x1
 9944 24bb 52       		.byte	0x52
 9945 24bc 02       		.uleb128 0x2
 9946 24bd 75       		.byte	0x75
 9947 24be 00       		.sleb128 0
 9948 24bf 2D       		.uleb128 0x2d
 9949 24c0 01       		.uleb128 0x1
 9950 24c1 50       		.byte	0x50
 9951 24c2 02       		.uleb128 0x2
 9952 24c3 74       		.byte	0x74
 9953 24c4 00       		.sleb128 0
ARM GAS  /tmp/ccq8Pe5l.s 			page 176


 9954 24c5 00       		.byte	0
 9955 24c6 41       		.uleb128 0x41
 9956 24c7 1C090000 		.4byte	.LVL163
 9957 24cb 73420000 		.4byte	0x4273
 9958 24cf 2E       		.uleb128 0x2e
 9959 24d0 D6090000 		.4byte	.LVL183
 9960 24d4 883F0000 		.4byte	0x3f88
 9961 24d8 01250000 		.4byte	0x2501
 9962 24dc 2D       		.uleb128 0x2d
 9963 24dd 01       		.uleb128 0x1
 9964 24de 51       		.byte	0x51
 9965 24df 02       		.uleb128 0x2
 9966 24e0 75       		.byte	0x75
 9967 24e1 00       		.sleb128 0
 9968 24e2 2D       		.uleb128 0x2d
 9969 24e3 02       		.uleb128 0x2
 9970 24e4 90       		.byte	0x90
 9971 24e5 41       		.uleb128 0x41
 9972 24e6 07       		.uleb128 0x7
 9973 24e7 F4       		.byte	0xf4
 9974 24e8 25       		.uleb128 0x25
 9975 24e9 04       		.byte	0x4
 9976 24ea 00247449 		.4byte	0x49742400
 9977 24ee 2D       		.uleb128 0x2d
 9978 24ef 02       		.uleb128 0x2
 9979 24f0 90       		.byte	0x90
 9980 24f1 40       		.uleb128 0x40
 9981 24f2 07       		.uleb128 0x7
 9982 24f3 F4       		.byte	0xf4
 9983 24f4 25       		.uleb128 0x25
 9984 24f5 04       		.byte	0x4
 9985 24f6 00407A44 		.4byte	0x447a4000
 9986 24fa 2D       		.uleb128 0x2d
 9987 24fb 01       		.uleb128 0x1
 9988 24fc 50       		.byte	0x50
 9989 24fd 02       		.uleb128 0x2
 9990 24fe 74       		.byte	0x74
 9991 24ff 00       		.sleb128 0
 9992 2500 00       		.byte	0
 9993 2501 2E       		.uleb128 0x2e
 9994 2502 E6090000 		.4byte	.LVL184
 9995 2506 883F0000 		.4byte	0x3f88
 9996 250a 33250000 		.4byte	0x2533
 9997 250e 2D       		.uleb128 0x2d
 9998 250f 01       		.uleb128 0x1
 9999 2510 51       		.byte	0x51
 10000 2511 02       		.uleb128 0x2
 10001 2512 75       		.byte	0x75
 10002 2513 00       		.sleb128 0
 10003 2514 2D       		.uleb128 0x2d
 10004 2515 02       		.uleb128 0x2
 10005 2516 90       		.byte	0x90
 10006 2517 41       		.uleb128 0x41
 10007 2518 07       		.uleb128 0x7
 10008 2519 F4       		.byte	0xf4
 10009 251a 25       		.uleb128 0x25
 10010 251b 04       		.byte	0x4
ARM GAS  /tmp/ccq8Pe5l.s 			page 177


 10011 251c 00247449 		.4byte	0x49742400
 10012 2520 2D       		.uleb128 0x2d
 10013 2521 02       		.uleb128 0x2
 10014 2522 90       		.byte	0x90
 10015 2523 40       		.uleb128 0x40
 10016 2524 07       		.uleb128 0x7
 10017 2525 F4       		.byte	0xf4
 10018 2526 25       		.uleb128 0x25
 10019 2527 04       		.byte	0x4
 10020 2528 00000000 		.4byte	0
 10021 252c 2D       		.uleb128 0x2d
 10022 252d 01       		.uleb128 0x1
 10023 252e 50       		.byte	0x50
 10024 252f 02       		.uleb128 0x2
 10025 2530 74       		.byte	0x74
 10026 2531 00       		.sleb128 0
 10027 2532 00       		.byte	0
 10028 2533 2E       		.uleb128 0x2e
 10029 2534 400B0000 		.4byte	.LVL218
 10030 2538 7E420000 		.4byte	0x427e
 10031 253c 47250000 		.4byte	0x2547
 10032 2540 2D       		.uleb128 0x2d
 10033 2541 01       		.uleb128 0x1
 10034 2542 50       		.byte	0x50
 10035 2543 02       		.uleb128 0x2
 10036 2544 74       		.byte	0x74
 10037 2545 00       		.sleb128 0
 10038 2546 00       		.byte	0
 10039 2547 2E       		.uleb128 0x2e
 10040 2548 6A0B0000 		.4byte	.LVL219
 10041 254c 8F420000 		.4byte	0x428f
 10042 2550 5E250000 		.4byte	0x255e
 10043 2554 2D       		.uleb128 0x2d
 10044 2555 01       		.uleb128 0x1
 10045 2556 50       		.byte	0x50
 10046 2557 05       		.uleb128 0x5
 10047 2558 03       		.byte	0x3
 10048 2559 00000000 		.4byte	.LANCHOR11
 10049 255d 00       		.byte	0
 10050 255e 2E       		.uleb128 0x2e
 10051 255f AA0B0000 		.4byte	.LVL223
 10052 2563 863E0000 		.4byte	0x3e86
 10053 2567 78250000 		.4byte	0x2578
 10054 256b 2D       		.uleb128 0x2d
 10055 256c 01       		.uleb128 0x1
 10056 256d 52       		.byte	0x52
 10057 256e 02       		.uleb128 0x2
 10058 256f 76       		.byte	0x76
 10059 2570 00       		.sleb128 0
 10060 2571 2D       		.uleb128 0x2d
 10061 2572 01       		.uleb128 0x1
 10062 2573 50       		.byte	0x50
 10063 2574 02       		.uleb128 0x2
 10064 2575 74       		.byte	0x74
 10065 2576 00       		.sleb128 0
 10066 2577 00       		.byte	0
 10067 2578 2E       		.uleb128 0x2e
ARM GAS  /tmp/ccq8Pe5l.s 			page 178


 10068 2579 C60B0000 		.4byte	.LVL224
 10069 257d 863E0000 		.4byte	0x3e86
 10070 2581 92250000 		.4byte	0x2592
 10071 2585 2D       		.uleb128 0x2d
 10072 2586 01       		.uleb128 0x1
 10073 2587 52       		.byte	0x52
 10074 2588 02       		.uleb128 0x2
 10075 2589 76       		.byte	0x76
 10076 258a 00       		.sleb128 0
 10077 258b 2D       		.uleb128 0x2d
 10078 258c 01       		.uleb128 0x1
 10079 258d 50       		.byte	0x50
 10080 258e 02       		.uleb128 0x2
 10081 258f 74       		.byte	0x74
 10082 2590 00       		.sleb128 0
 10083 2591 00       		.byte	0
 10084 2592 2E       		.uleb128 0x2e
 10085 2593 DE0B0000 		.4byte	.LVL225
 10086 2597 863E0000 		.4byte	0x3e86
 10087 259b AC250000 		.4byte	0x25ac
 10088 259f 2D       		.uleb128 0x2d
 10089 25a0 01       		.uleb128 0x1
 10090 25a1 52       		.byte	0x52
 10091 25a2 02       		.uleb128 0x2
 10092 25a3 76       		.byte	0x76
 10093 25a4 00       		.sleb128 0
 10094 25a5 2D       		.uleb128 0x2d
 10095 25a6 01       		.uleb128 0x1
 10096 25a7 50       		.byte	0x50
 10097 25a8 02       		.uleb128 0x2
 10098 25a9 74       		.byte	0x74
 10099 25aa 00       		.sleb128 0
 10100 25ab 00       		.byte	0
 10101 25ac 2E       		.uleb128 0x2e
 10102 25ad F60B0000 		.4byte	.LVL226
 10103 25b1 863E0000 		.4byte	0x3e86
 10104 25b5 C6250000 		.4byte	0x25c6
 10105 25b9 2D       		.uleb128 0x2d
 10106 25ba 01       		.uleb128 0x1
 10107 25bb 52       		.byte	0x52
 10108 25bc 02       		.uleb128 0x2
 10109 25bd 76       		.byte	0x76
 10110 25be 00       		.sleb128 0
 10111 25bf 2D       		.uleb128 0x2d
 10112 25c0 01       		.uleb128 0x1
 10113 25c1 50       		.byte	0x50
 10114 25c2 02       		.uleb128 0x2
 10115 25c3 74       		.byte	0x74
 10116 25c4 00       		.sleb128 0
 10117 25c5 00       		.byte	0
 10118 25c6 2E       		.uleb128 0x2e
 10119 25c7 0E0C0000 		.4byte	.LVL227
 10120 25cb 863E0000 		.4byte	0x3e86
 10121 25cf E0250000 		.4byte	0x25e0
 10122 25d3 2D       		.uleb128 0x2d
 10123 25d4 01       		.uleb128 0x1
 10124 25d5 52       		.byte	0x52
ARM GAS  /tmp/ccq8Pe5l.s 			page 179


 10125 25d6 02       		.uleb128 0x2
 10126 25d7 76       		.byte	0x76
 10127 25d8 00       		.sleb128 0
 10128 25d9 2D       		.uleb128 0x2d
 10129 25da 01       		.uleb128 0x1
 10130 25db 50       		.byte	0x50
 10131 25dc 02       		.uleb128 0x2
 10132 25dd 74       		.byte	0x74
 10133 25de 00       		.sleb128 0
 10134 25df 00       		.byte	0
 10135 25e0 2E       		.uleb128 0x2e
 10136 25e1 260C0000 		.4byte	.LVL228
 10137 25e5 863E0000 		.4byte	0x3e86
 10138 25e9 FA250000 		.4byte	0x25fa
 10139 25ed 2D       		.uleb128 0x2d
 10140 25ee 01       		.uleb128 0x1
 10141 25ef 52       		.byte	0x52
 10142 25f0 02       		.uleb128 0x2
 10143 25f1 76       		.byte	0x76
 10144 25f2 00       		.sleb128 0
 10145 25f3 2D       		.uleb128 0x2d
 10146 25f4 01       		.uleb128 0x1
 10147 25f5 50       		.byte	0x50
 10148 25f6 02       		.uleb128 0x2
 10149 25f7 74       		.byte	0x74
 10150 25f8 00       		.sleb128 0
 10151 25f9 00       		.byte	0
 10152 25fa 2E       		.uleb128 0x2e
 10153 25fb 3E0C0000 		.4byte	.LVL229
 10154 25ff 863E0000 		.4byte	0x3e86
 10155 2603 14260000 		.4byte	0x2614
 10156 2607 2D       		.uleb128 0x2d
 10157 2608 01       		.uleb128 0x1
 10158 2609 52       		.byte	0x52
 10159 260a 02       		.uleb128 0x2
 10160 260b 76       		.byte	0x76
 10161 260c 00       		.sleb128 0
 10162 260d 2D       		.uleb128 0x2d
 10163 260e 01       		.uleb128 0x1
 10164 260f 50       		.byte	0x50
 10165 2610 02       		.uleb128 0x2
 10166 2611 74       		.byte	0x74
 10167 2612 00       		.sleb128 0
 10168 2613 00       		.byte	0
 10169 2614 2E       		.uleb128 0x2e
 10170 2615 560C0000 		.4byte	.LVL230
 10171 2619 863E0000 		.4byte	0x3e86
 10172 261d 2E260000 		.4byte	0x262e
 10173 2621 2D       		.uleb128 0x2d
 10174 2622 01       		.uleb128 0x1
 10175 2623 52       		.byte	0x52
 10176 2624 02       		.uleb128 0x2
 10177 2625 76       		.byte	0x76
 10178 2626 00       		.sleb128 0
 10179 2627 2D       		.uleb128 0x2d
 10180 2628 01       		.uleb128 0x1
 10181 2629 50       		.byte	0x50
ARM GAS  /tmp/ccq8Pe5l.s 			page 180


 10182 262a 02       		.uleb128 0x2
 10183 262b 74       		.byte	0x74
 10184 262c 00       		.sleb128 0
 10185 262d 00       		.byte	0
 10186 262e 2E       		.uleb128 0x2e
 10187 262f 6E0C0000 		.4byte	.LVL231
 10188 2633 863E0000 		.4byte	0x3e86
 10189 2637 48260000 		.4byte	0x2648
 10190 263b 2D       		.uleb128 0x2d
 10191 263c 01       		.uleb128 0x1
 10192 263d 52       		.byte	0x52
 10193 263e 02       		.uleb128 0x2
 10194 263f 76       		.byte	0x76
 10195 2640 00       		.sleb128 0
 10196 2641 2D       		.uleb128 0x2d
 10197 2642 01       		.uleb128 0x1
 10198 2643 50       		.byte	0x50
 10199 2644 02       		.uleb128 0x2
 10200 2645 74       		.byte	0x74
 10201 2646 00       		.sleb128 0
 10202 2647 00       		.byte	0
 10203 2648 2E       		.uleb128 0x2e
 10204 2649 860C0000 		.4byte	.LVL232
 10205 264d 863E0000 		.4byte	0x3e86
 10206 2651 62260000 		.4byte	0x2662
 10207 2655 2D       		.uleb128 0x2d
 10208 2656 01       		.uleb128 0x1
 10209 2657 52       		.byte	0x52
 10210 2658 02       		.uleb128 0x2
 10211 2659 76       		.byte	0x76
 10212 265a 00       		.sleb128 0
 10213 265b 2D       		.uleb128 0x2d
 10214 265c 01       		.uleb128 0x1
 10215 265d 50       		.byte	0x50
 10216 265e 02       		.uleb128 0x2
 10217 265f 74       		.byte	0x74
 10218 2660 00       		.sleb128 0
 10219 2661 00       		.byte	0
 10220 2662 2E       		.uleb128 0x2e
 10221 2663 9E0C0000 		.4byte	.LVL233
 10222 2667 863E0000 		.4byte	0x3e86
 10223 266b 7C260000 		.4byte	0x267c
 10224 266f 2D       		.uleb128 0x2d
 10225 2670 01       		.uleb128 0x1
 10226 2671 52       		.byte	0x52
 10227 2672 02       		.uleb128 0x2
 10228 2673 76       		.byte	0x76
 10229 2674 00       		.sleb128 0
 10230 2675 2D       		.uleb128 0x2d
 10231 2676 01       		.uleb128 0x1
 10232 2677 50       		.byte	0x50
 10233 2678 02       		.uleb128 0x2
 10234 2679 74       		.byte	0x74
 10235 267a 00       		.sleb128 0
 10236 267b 00       		.byte	0
 10237 267c 2E       		.uleb128 0x2e
 10238 267d AE0C0000 		.4byte	.LVL234
ARM GAS  /tmp/ccq8Pe5l.s 			page 181


 10239 2681 883F0000 		.4byte	0x3f88
 10240 2685 9E260000 		.4byte	0x269e
 10241 2689 2D       		.uleb128 0x2d
 10242 268a 01       		.uleb128 0x1
 10243 268b 51       		.byte	0x51
 10244 268c 02       		.uleb128 0x2
 10245 268d 76       		.byte	0x76
 10246 268e 00       		.sleb128 0
 10247 268f 2D       		.uleb128 0x2d
 10248 2690 02       		.uleb128 0x2
 10249 2691 90       		.byte	0x90
 10250 2692 41       		.uleb128 0x41
 10251 2693 03       		.uleb128 0x3
 10252 2694 F5       		.byte	0xf5
 10253 2695 50       		.uleb128 0x50
 10254 2696 25       		.uleb128 0x25
 10255 2697 2D       		.uleb128 0x2d
 10256 2698 01       		.uleb128 0x1
 10257 2699 50       		.byte	0x50
 10258 269a 02       		.uleb128 0x2
 10259 269b 74       		.byte	0x74
 10260 269c 00       		.sleb128 0
 10261 269d 00       		.byte	0
 10262 269e 2E       		.uleb128 0x2e
 10263 269f BE0C0000 		.4byte	.LVL235
 10264 26a3 883F0000 		.4byte	0x3f88
 10265 26a7 C0260000 		.4byte	0x26c0
 10266 26ab 2D       		.uleb128 0x2d
 10267 26ac 01       		.uleb128 0x1
 10268 26ad 51       		.byte	0x51
 10269 26ae 02       		.uleb128 0x2
 10270 26af 76       		.byte	0x76
 10271 26b0 00       		.sleb128 0
 10272 26b1 2D       		.uleb128 0x2d
 10273 26b2 02       		.uleb128 0x2
 10274 26b3 90       		.byte	0x90
 10275 26b4 41       		.uleb128 0x41
 10276 26b5 03       		.uleb128 0x3
 10277 26b6 F5       		.byte	0xf5
 10278 26b7 50       		.uleb128 0x50
 10279 26b8 25       		.uleb128 0x25
 10280 26b9 2D       		.uleb128 0x2d
 10281 26ba 01       		.uleb128 0x1
 10282 26bb 50       		.byte	0x50
 10283 26bc 02       		.uleb128 0x2
 10284 26bd 74       		.byte	0x74
 10285 26be 00       		.sleb128 0
 10286 26bf 00       		.byte	0
 10287 26c0 2E       		.uleb128 0x2e
 10288 26c1 EC0C0000 		.4byte	.LVL236
 10289 26c5 863E0000 		.4byte	0x3e86
 10290 26c9 DA260000 		.4byte	0x26da
 10291 26cd 2D       		.uleb128 0x2d
 10292 26ce 01       		.uleb128 0x1
 10293 26cf 52       		.byte	0x52
 10294 26d0 02       		.uleb128 0x2
 10295 26d1 76       		.byte	0x76
ARM GAS  /tmp/ccq8Pe5l.s 			page 182


 10296 26d2 00       		.sleb128 0
 10297 26d3 2D       		.uleb128 0x2d
 10298 26d4 01       		.uleb128 0x1
 10299 26d5 50       		.byte	0x50
 10300 26d6 02       		.uleb128 0x2
 10301 26d7 74       		.byte	0x74
 10302 26d8 00       		.sleb128 0
 10303 26d9 00       		.byte	0
 10304 26da 2E       		.uleb128 0x2e
 10305 26db 040D0000 		.4byte	.LVL237
 10306 26df 863E0000 		.4byte	0x3e86
 10307 26e3 F4260000 		.4byte	0x26f4
 10308 26e7 2D       		.uleb128 0x2d
 10309 26e8 01       		.uleb128 0x1
 10310 26e9 52       		.byte	0x52
 10311 26ea 02       		.uleb128 0x2
 10312 26eb 76       		.byte	0x76
 10313 26ec 00       		.sleb128 0
 10314 26ed 2D       		.uleb128 0x2d
 10315 26ee 01       		.uleb128 0x1
 10316 26ef 50       		.byte	0x50
 10317 26f0 02       		.uleb128 0x2
 10318 26f1 74       		.byte	0x74
 10319 26f2 00       		.sleb128 0
 10320 26f3 00       		.byte	0
 10321 26f4 2E       		.uleb128 0x2e
 10322 26f5 1C0D0000 		.4byte	.LVL238
 10323 26f9 863E0000 		.4byte	0x3e86
 10324 26fd 0E270000 		.4byte	0x270e
 10325 2701 2D       		.uleb128 0x2d
 10326 2702 01       		.uleb128 0x1
 10327 2703 52       		.byte	0x52
 10328 2704 02       		.uleb128 0x2
 10329 2705 76       		.byte	0x76
 10330 2706 00       		.sleb128 0
 10331 2707 2D       		.uleb128 0x2d
 10332 2708 01       		.uleb128 0x1
 10333 2709 50       		.byte	0x50
 10334 270a 02       		.uleb128 0x2
 10335 270b 74       		.byte	0x74
 10336 270c 00       		.sleb128 0
 10337 270d 00       		.byte	0
 10338 270e 2E       		.uleb128 0x2e
 10339 270f 340D0000 		.4byte	.LVL239
 10340 2713 863E0000 		.4byte	0x3e86
 10341 2717 28270000 		.4byte	0x2728
 10342 271b 2D       		.uleb128 0x2d
 10343 271c 01       		.uleb128 0x1
 10344 271d 52       		.byte	0x52
 10345 271e 02       		.uleb128 0x2
 10346 271f 76       		.byte	0x76
 10347 2720 00       		.sleb128 0
 10348 2721 2D       		.uleb128 0x2d
 10349 2722 01       		.uleb128 0x1
 10350 2723 50       		.byte	0x50
 10351 2724 02       		.uleb128 0x2
 10352 2725 74       		.byte	0x74
ARM GAS  /tmp/ccq8Pe5l.s 			page 183


 10353 2726 00       		.sleb128 0
 10354 2727 00       		.byte	0
 10355 2728 2E       		.uleb128 0x2e
 10356 2729 4C0D0000 		.4byte	.LVL240
 10357 272d 863E0000 		.4byte	0x3e86
 10358 2731 42270000 		.4byte	0x2742
 10359 2735 2D       		.uleb128 0x2d
 10360 2736 01       		.uleb128 0x1
 10361 2737 52       		.byte	0x52
 10362 2738 02       		.uleb128 0x2
 10363 2739 76       		.byte	0x76
 10364 273a 00       		.sleb128 0
 10365 273b 2D       		.uleb128 0x2d
 10366 273c 01       		.uleb128 0x1
 10367 273d 50       		.byte	0x50
 10368 273e 02       		.uleb128 0x2
 10369 273f 74       		.byte	0x74
 10370 2740 00       		.sleb128 0
 10371 2741 00       		.byte	0
 10372 2742 2E       		.uleb128 0x2e
 10373 2743 640D0000 		.4byte	.LVL241
 10374 2747 863E0000 		.4byte	0x3e86
 10375 274b 5C270000 		.4byte	0x275c
 10376 274f 2D       		.uleb128 0x2d
 10377 2750 01       		.uleb128 0x1
 10378 2751 52       		.byte	0x52
 10379 2752 02       		.uleb128 0x2
 10380 2753 76       		.byte	0x76
 10381 2754 00       		.sleb128 0
 10382 2755 2D       		.uleb128 0x2d
 10383 2756 01       		.uleb128 0x1
 10384 2757 50       		.byte	0x50
 10385 2758 02       		.uleb128 0x2
 10386 2759 74       		.byte	0x74
 10387 275a 00       		.sleb128 0
 10388 275b 00       		.byte	0
 10389 275c 2E       		.uleb128 0x2e
 10390 275d 7C0D0000 		.4byte	.LVL242
 10391 2761 863E0000 		.4byte	0x3e86
 10392 2765 76270000 		.4byte	0x2776
 10393 2769 2D       		.uleb128 0x2d
 10394 276a 01       		.uleb128 0x1
 10395 276b 52       		.byte	0x52
 10396 276c 02       		.uleb128 0x2
 10397 276d 76       		.byte	0x76
 10398 276e 00       		.sleb128 0
 10399 276f 2D       		.uleb128 0x2d
 10400 2770 01       		.uleb128 0x1
 10401 2771 50       		.byte	0x50
 10402 2772 02       		.uleb128 0x2
 10403 2773 74       		.byte	0x74
 10404 2774 00       		.sleb128 0
 10405 2775 00       		.byte	0
 10406 2776 2E       		.uleb128 0x2e
 10407 2777 940D0000 		.4byte	.LVL243
 10408 277b 863E0000 		.4byte	0x3e86
 10409 277f 90270000 		.4byte	0x2790
ARM GAS  /tmp/ccq8Pe5l.s 			page 184


 10410 2783 2D       		.uleb128 0x2d
 10411 2784 01       		.uleb128 0x1
 10412 2785 52       		.byte	0x52
 10413 2786 02       		.uleb128 0x2
 10414 2787 76       		.byte	0x76
 10415 2788 00       		.sleb128 0
 10416 2789 2D       		.uleb128 0x2d
 10417 278a 01       		.uleb128 0x1
 10418 278b 50       		.byte	0x50
 10419 278c 02       		.uleb128 0x2
 10420 278d 74       		.byte	0x74
 10421 278e 00       		.sleb128 0
 10422 278f 00       		.byte	0
 10423 2790 2E       		.uleb128 0x2e
 10424 2791 AC0D0000 		.4byte	.LVL244
 10425 2795 863E0000 		.4byte	0x3e86
 10426 2799 AA270000 		.4byte	0x27aa
 10427 279d 2D       		.uleb128 0x2d
 10428 279e 01       		.uleb128 0x1
 10429 279f 52       		.byte	0x52
 10430 27a0 02       		.uleb128 0x2
 10431 27a1 76       		.byte	0x76
 10432 27a2 00       		.sleb128 0
 10433 27a3 2D       		.uleb128 0x2d
 10434 27a4 01       		.uleb128 0x1
 10435 27a5 50       		.byte	0x50
 10436 27a6 02       		.uleb128 0x2
 10437 27a7 74       		.byte	0x74
 10438 27a8 00       		.sleb128 0
 10439 27a9 00       		.byte	0
 10440 27aa 2E       		.uleb128 0x2e
 10441 27ab C40D0000 		.4byte	.LVL245
 10442 27af 863E0000 		.4byte	0x3e86
 10443 27b3 C4270000 		.4byte	0x27c4
 10444 27b7 2D       		.uleb128 0x2d
 10445 27b8 01       		.uleb128 0x1
 10446 27b9 52       		.byte	0x52
 10447 27ba 02       		.uleb128 0x2
 10448 27bb 76       		.byte	0x76
 10449 27bc 00       		.sleb128 0
 10450 27bd 2D       		.uleb128 0x2d
 10451 27be 01       		.uleb128 0x1
 10452 27bf 50       		.byte	0x50
 10453 27c0 02       		.uleb128 0x2
 10454 27c1 74       		.byte	0x74
 10455 27c2 00       		.sleb128 0
 10456 27c3 00       		.byte	0
 10457 27c4 2E       		.uleb128 0x2e
 10458 27c5 DC0D0000 		.4byte	.LVL246
 10459 27c9 863E0000 		.4byte	0x3e86
 10460 27cd DE270000 		.4byte	0x27de
 10461 27d1 2D       		.uleb128 0x2d
 10462 27d2 01       		.uleb128 0x1
 10463 27d3 52       		.byte	0x52
 10464 27d4 02       		.uleb128 0x2
 10465 27d5 76       		.byte	0x76
 10466 27d6 00       		.sleb128 0
ARM GAS  /tmp/ccq8Pe5l.s 			page 185


 10467 27d7 2D       		.uleb128 0x2d
 10468 27d8 01       		.uleb128 0x1
 10469 27d9 50       		.byte	0x50
 10470 27da 02       		.uleb128 0x2
 10471 27db 74       		.byte	0x74
 10472 27dc 00       		.sleb128 0
 10473 27dd 00       		.byte	0
 10474 27de 2E       		.uleb128 0x2e
 10475 27df F40D0000 		.4byte	.LVL247
 10476 27e3 863E0000 		.4byte	0x3e86
 10477 27e7 F8270000 		.4byte	0x27f8
 10478 27eb 2D       		.uleb128 0x2d
 10479 27ec 01       		.uleb128 0x1
 10480 27ed 52       		.byte	0x52
 10481 27ee 02       		.uleb128 0x2
 10482 27ef 76       		.byte	0x76
 10483 27f0 00       		.sleb128 0
 10484 27f1 2D       		.uleb128 0x2d
 10485 27f2 01       		.uleb128 0x1
 10486 27f3 50       		.byte	0x50
 10487 27f4 02       		.uleb128 0x2
 10488 27f5 74       		.byte	0x74
 10489 27f6 00       		.sleb128 0
 10490 27f7 00       		.byte	0
 10491 27f8 2E       		.uleb128 0x2e
 10492 27f9 0C0E0000 		.4byte	.LVL248
 10493 27fd 863E0000 		.4byte	0x3e86
 10494 2801 12280000 		.4byte	0x2812
 10495 2805 2D       		.uleb128 0x2d
 10496 2806 01       		.uleb128 0x1
 10497 2807 52       		.byte	0x52
 10498 2808 02       		.uleb128 0x2
 10499 2809 76       		.byte	0x76
 10500 280a 00       		.sleb128 0
 10501 280b 2D       		.uleb128 0x2d
 10502 280c 01       		.uleb128 0x1
 10503 280d 50       		.byte	0x50
 10504 280e 02       		.uleb128 0x2
 10505 280f 74       		.byte	0x74
 10506 2810 00       		.sleb128 0
 10507 2811 00       		.byte	0
 10508 2812 2E       		.uleb128 0x2e
 10509 2813 360E0000 		.4byte	.LVL249
 10510 2817 863E0000 		.4byte	0x3e86
 10511 281b 2C280000 		.4byte	0x282c
 10512 281f 2D       		.uleb128 0x2d
 10513 2820 01       		.uleb128 0x1
 10514 2821 52       		.byte	0x52
 10515 2822 02       		.uleb128 0x2
 10516 2823 76       		.byte	0x76
 10517 2824 00       		.sleb128 0
 10518 2825 2D       		.uleb128 0x2d
 10519 2826 01       		.uleb128 0x1
 10520 2827 50       		.byte	0x50
 10521 2828 02       		.uleb128 0x2
 10522 2829 74       		.byte	0x74
 10523 282a 00       		.sleb128 0
ARM GAS  /tmp/ccq8Pe5l.s 			page 186


 10524 282b 00       		.byte	0
 10525 282c 2E       		.uleb128 0x2e
 10526 282d 460E0000 		.4byte	.LVL250
 10527 2831 883F0000 		.4byte	0x3f88
 10528 2835 52280000 		.4byte	0x2852
 10529 2839 2D       		.uleb128 0x2d
 10530 283a 01       		.uleb128 0x1
 10531 283b 51       		.byte	0x51
 10532 283c 02       		.uleb128 0x2
 10533 283d 76       		.byte	0x76
 10534 283e 00       		.sleb128 0
 10535 283f 2D       		.uleb128 0x2d
 10536 2840 02       		.uleb128 0x2
 10537 2841 90       		.byte	0x90
 10538 2842 41       		.uleb128 0x41
 10539 2843 07       		.uleb128 0x7
 10540 2844 F4       		.byte	0xf4
 10541 2845 25       		.uleb128 0x25
 10542 2846 04       		.byte	0x4
 10543 2847 0050C347 		.4byte	0x47c35000
 10544 284b 2D       		.uleb128 0x2d
 10545 284c 01       		.uleb128 0x1
 10546 284d 50       		.byte	0x50
 10547 284e 02       		.uleb128 0x2
 10548 284f 74       		.byte	0x74
 10549 2850 00       		.sleb128 0
 10550 2851 00       		.byte	0
 10551 2852 2E       		.uleb128 0x2e
 10552 2853 560E0000 		.4byte	.LVL251
 10553 2857 883F0000 		.4byte	0x3f88
 10554 285b 78280000 		.4byte	0x2878
 10555 285f 2D       		.uleb128 0x2d
 10556 2860 01       		.uleb128 0x1
 10557 2861 51       		.byte	0x51
 10558 2862 02       		.uleb128 0x2
 10559 2863 76       		.byte	0x76
 10560 2864 00       		.sleb128 0
 10561 2865 2D       		.uleb128 0x2d
 10562 2866 02       		.uleb128 0x2
 10563 2867 90       		.byte	0x90
 10564 2868 41       		.uleb128 0x41
 10565 2869 07       		.uleb128 0x7
 10566 286a F4       		.byte	0xf4
 10567 286b 25       		.uleb128 0x25
 10568 286c 04       		.byte	0x4
 10569 286d 0050C347 		.4byte	0x47c35000
 10570 2871 2D       		.uleb128 0x2d
 10571 2872 01       		.uleb128 0x1
 10572 2873 50       		.byte	0x50
 10573 2874 02       		.uleb128 0x2
 10574 2875 74       		.byte	0x74
 10575 2876 00       		.sleb128 0
 10576 2877 00       		.byte	0
 10577 2878 2E       		.uleb128 0x2e
 10578 2879 660E0000 		.4byte	.LVL252
 10579 287d 883F0000 		.4byte	0x3f88
 10580 2881 9A280000 		.4byte	0x289a
ARM GAS  /tmp/ccq8Pe5l.s 			page 187


 10581 2885 2D       		.uleb128 0x2d
 10582 2886 01       		.uleb128 0x1
 10583 2887 51       		.byte	0x51
 10584 2888 02       		.uleb128 0x2
 10585 2889 76       		.byte	0x76
 10586 288a 00       		.sleb128 0
 10587 288b 2D       		.uleb128 0x2d
 10588 288c 02       		.uleb128 0x2
 10589 288d 90       		.byte	0x90
 10590 288e 41       		.uleb128 0x41
 10591 288f 03       		.uleb128 0x3
 10592 2890 F5       		.byte	0xf5
 10593 2891 50       		.uleb128 0x50
 10594 2892 25       		.uleb128 0x25
 10595 2893 2D       		.uleb128 0x2d
 10596 2894 01       		.uleb128 0x1
 10597 2895 50       		.byte	0x50
 10598 2896 02       		.uleb128 0x2
 10599 2897 74       		.byte	0x74
 10600 2898 00       		.sleb128 0
 10601 2899 00       		.byte	0
 10602 289a 2E       		.uleb128 0x2e
 10603 289b 760E0000 		.4byte	.LVL253
 10604 289f 883F0000 		.4byte	0x3f88
 10605 28a3 BC280000 		.4byte	0x28bc
 10606 28a7 2D       		.uleb128 0x2d
 10607 28a8 01       		.uleb128 0x1
 10608 28a9 51       		.byte	0x51
 10609 28aa 02       		.uleb128 0x2
 10610 28ab 76       		.byte	0x76
 10611 28ac 00       		.sleb128 0
 10612 28ad 2D       		.uleb128 0x2d
 10613 28ae 02       		.uleb128 0x2
 10614 28af 90       		.byte	0x90
 10615 28b0 41       		.uleb128 0x41
 10616 28b1 03       		.uleb128 0x3
 10617 28b2 F5       		.byte	0xf5
 10618 28b3 51       		.uleb128 0x51
 10619 28b4 25       		.uleb128 0x25
 10620 28b5 2D       		.uleb128 0x2d
 10621 28b6 01       		.uleb128 0x1
 10622 28b7 50       		.byte	0x50
 10623 28b8 02       		.uleb128 0x2
 10624 28b9 74       		.byte	0x74
 10625 28ba 00       		.sleb128 0
 10626 28bb 00       		.byte	0
 10627 28bc 2E       		.uleb128 0x2e
 10628 28bd 920E0000 		.4byte	.LVL254
 10629 28c1 883F0000 		.4byte	0x3f88
 10630 28c5 DE280000 		.4byte	0x28de
 10631 28c9 2D       		.uleb128 0x2d
 10632 28ca 01       		.uleb128 0x1
 10633 28cb 51       		.byte	0x51
 10634 28cc 02       		.uleb128 0x2
 10635 28cd 76       		.byte	0x76
 10636 28ce 00       		.sleb128 0
 10637 28cf 2D       		.uleb128 0x2d
ARM GAS  /tmp/ccq8Pe5l.s 			page 188


 10638 28d0 02       		.uleb128 0x2
 10639 28d1 90       		.byte	0x90
 10640 28d2 41       		.uleb128 0x41
 10641 28d3 03       		.uleb128 0x3
 10642 28d4 F5       		.byte	0xf5
 10643 28d5 50       		.uleb128 0x50
 10644 28d6 25       		.uleb128 0x25
 10645 28d7 2D       		.uleb128 0x2d
 10646 28d8 01       		.uleb128 0x1
 10647 28d9 50       		.byte	0x50
 10648 28da 02       		.uleb128 0x2
 10649 28db 74       		.byte	0x74
 10650 28dc 00       		.sleb128 0
 10651 28dd 00       		.byte	0
 10652 28de 2E       		.uleb128 0x2e
 10653 28df A20E0000 		.4byte	.LVL255
 10654 28e3 883F0000 		.4byte	0x3f88
 10655 28e7 00290000 		.4byte	0x2900
 10656 28eb 2D       		.uleb128 0x2d
 10657 28ec 01       		.uleb128 0x1
 10658 28ed 51       		.byte	0x51
 10659 28ee 02       		.uleb128 0x2
 10660 28ef 76       		.byte	0x76
 10661 28f0 00       		.sleb128 0
 10662 28f1 2D       		.uleb128 0x2d
 10663 28f2 02       		.uleb128 0x2
 10664 28f3 90       		.byte	0x90
 10665 28f4 41       		.uleb128 0x41
 10666 28f5 03       		.uleb128 0x3
 10667 28f6 F5       		.byte	0xf5
 10668 28f7 50       		.uleb128 0x50
 10669 28f8 25       		.uleb128 0x25
 10670 28f9 2D       		.uleb128 0x2d
 10671 28fa 01       		.uleb128 0x1
 10672 28fb 50       		.byte	0x50
 10673 28fc 02       		.uleb128 0x2
 10674 28fd 74       		.byte	0x74
 10675 28fe 00       		.sleb128 0
 10676 28ff 00       		.byte	0
 10677 2900 2E       		.uleb128 0x2e
 10678 2901 BE0E0000 		.4byte	.LVL256
 10679 2905 883F0000 		.4byte	0x3f88
 10680 2909 22290000 		.4byte	0x2922
 10681 290d 2D       		.uleb128 0x2d
 10682 290e 01       		.uleb128 0x1
 10683 290f 51       		.byte	0x51
 10684 2910 02       		.uleb128 0x2
 10685 2911 76       		.byte	0x76
 10686 2912 00       		.sleb128 0
 10687 2913 2D       		.uleb128 0x2d
 10688 2914 02       		.uleb128 0x2
 10689 2915 90       		.byte	0x90
 10690 2916 41       		.uleb128 0x41
 10691 2917 03       		.uleb128 0x3
 10692 2918 F5       		.byte	0xf5
 10693 2919 50       		.uleb128 0x50
 10694 291a 25       		.uleb128 0x25
ARM GAS  /tmp/ccq8Pe5l.s 			page 189


 10695 291b 2D       		.uleb128 0x2d
 10696 291c 01       		.uleb128 0x1
 10697 291d 50       		.byte	0x50
 10698 291e 02       		.uleb128 0x2
 10699 291f 74       		.byte	0x74
 10700 2920 00       		.sleb128 0
 10701 2921 00       		.byte	0
 10702 2922 2E       		.uleb128 0x2e
 10703 2923 CE0E0000 		.4byte	.LVL257
 10704 2927 883F0000 		.4byte	0x3f88
 10705 292b 44290000 		.4byte	0x2944
 10706 292f 2D       		.uleb128 0x2d
 10707 2930 01       		.uleb128 0x1
 10708 2931 51       		.byte	0x51
 10709 2932 02       		.uleb128 0x2
 10710 2933 76       		.byte	0x76
 10711 2934 00       		.sleb128 0
 10712 2935 2D       		.uleb128 0x2d
 10713 2936 02       		.uleb128 0x2
 10714 2937 90       		.byte	0x90
 10715 2938 41       		.uleb128 0x41
 10716 2939 03       		.uleb128 0x3
 10717 293a F5       		.byte	0xf5
 10718 293b 50       		.uleb128 0x50
 10719 293c 25       		.uleb128 0x25
 10720 293d 2D       		.uleb128 0x2d
 10721 293e 01       		.uleb128 0x1
 10722 293f 50       		.byte	0x50
 10723 2940 02       		.uleb128 0x2
 10724 2941 74       		.byte	0x74
 10725 2942 00       		.sleb128 0
 10726 2943 00       		.byte	0
 10727 2944 2E       		.uleb128 0x2e
 10728 2945 DE0E0000 		.4byte	.LVL258
 10729 2949 883F0000 		.4byte	0x3f88
 10730 294d 6A290000 		.4byte	0x296a
 10731 2951 2D       		.uleb128 0x2d
 10732 2952 01       		.uleb128 0x1
 10733 2953 51       		.byte	0x51
 10734 2954 02       		.uleb128 0x2
 10735 2955 76       		.byte	0x76
 10736 2956 00       		.sleb128 0
 10737 2957 2D       		.uleb128 0x2d
 10738 2958 02       		.uleb128 0x2
 10739 2959 90       		.byte	0x90
 10740 295a 41       		.uleb128 0x41
 10741 295b 07       		.uleb128 0x7
 10742 295c F4       		.byte	0xf4
 10743 295d 25       		.uleb128 0x25
 10744 295e 04       		.byte	0x4
 10745 295f 20BCBE4C 		.4byte	0x4cbebc20
 10746 2963 2D       		.uleb128 0x2d
 10747 2964 01       		.uleb128 0x1
 10748 2965 50       		.byte	0x50
 10749 2966 02       		.uleb128 0x2
 10750 2967 74       		.byte	0x74
 10751 2968 00       		.sleb128 0
ARM GAS  /tmp/ccq8Pe5l.s 			page 190


 10752 2969 00       		.byte	0
 10753 296a 2E       		.uleb128 0x2e
 10754 296b EE0E0000 		.4byte	.LVL259
 10755 296f 883F0000 		.4byte	0x3f88
 10756 2973 90290000 		.4byte	0x2990
 10757 2977 2D       		.uleb128 0x2d
 10758 2978 01       		.uleb128 0x1
 10759 2979 51       		.byte	0x51
 10760 297a 02       		.uleb128 0x2
 10761 297b 76       		.byte	0x76
 10762 297c 00       		.sleb128 0
 10763 297d 2D       		.uleb128 0x2d
 10764 297e 02       		.uleb128 0x2
 10765 297f 90       		.byte	0x90
 10766 2980 41       		.uleb128 0x41
 10767 2981 07       		.uleb128 0x7
 10768 2982 F4       		.byte	0xf4
 10769 2983 25       		.uleb128 0x25
 10770 2984 04       		.byte	0x4
 10771 2985 0050C347 		.4byte	0x47c35000
 10772 2989 2D       		.uleb128 0x2d
 10773 298a 01       		.uleb128 0x1
 10774 298b 50       		.byte	0x50
 10775 298c 02       		.uleb128 0x2
 10776 298d 74       		.byte	0x74
 10777 298e 00       		.sleb128 0
 10778 298f 00       		.byte	0
 10779 2990 2E       		.uleb128 0x2e
 10780 2991 FE0E0000 		.4byte	.LVL260
 10781 2995 883F0000 		.4byte	0x3f88
 10782 2999 B6290000 		.4byte	0x29b6
 10783 299d 2D       		.uleb128 0x2d
 10784 299e 01       		.uleb128 0x1
 10785 299f 51       		.byte	0x51
 10786 29a0 02       		.uleb128 0x2
 10787 29a1 76       		.byte	0x76
 10788 29a2 00       		.sleb128 0
 10789 29a3 2D       		.uleb128 0x2d
 10790 29a4 02       		.uleb128 0x2
 10791 29a5 90       		.byte	0x90
 10792 29a6 41       		.uleb128 0x41
 10793 29a7 07       		.uleb128 0x7
 10794 29a8 F4       		.byte	0xf4
 10795 29a9 25       		.uleb128 0x25
 10796 29aa 04       		.byte	0x4
 10797 29ab 0050C347 		.4byte	0x47c35000
 10798 29af 2D       		.uleb128 0x2d
 10799 29b0 01       		.uleb128 0x1
 10800 29b1 50       		.byte	0x50
 10801 29b2 02       		.uleb128 0x2
 10802 29b3 74       		.byte	0x74
 10803 29b4 00       		.sleb128 0
 10804 29b5 00       		.byte	0
 10805 29b6 2E       		.uleb128 0x2e
 10806 29b7 0E0F0000 		.4byte	.LVL261
 10807 29bb 883F0000 		.4byte	0x3f88
 10808 29bf DC290000 		.4byte	0x29dc
ARM GAS  /tmp/ccq8Pe5l.s 			page 191


 10809 29c3 2D       		.uleb128 0x2d
 10810 29c4 01       		.uleb128 0x1
 10811 29c5 51       		.byte	0x51
 10812 29c6 02       		.uleb128 0x2
 10813 29c7 76       		.byte	0x76
 10814 29c8 00       		.sleb128 0
 10815 29c9 2D       		.uleb128 0x2d
 10816 29ca 02       		.uleb128 0x2
 10817 29cb 90       		.byte	0x90
 10818 29cc 41       		.uleb128 0x41
 10819 29cd 07       		.uleb128 0x7
 10820 29ce F4       		.byte	0xf4
 10821 29cf 25       		.uleb128 0x25
 10822 29d0 04       		.byte	0x4
 10823 29d1 0000803F 		.4byte	0x3f800000
 10824 29d5 2D       		.uleb128 0x2d
 10825 29d6 01       		.uleb128 0x1
 10826 29d7 50       		.byte	0x50
 10827 29d8 02       		.uleb128 0x2
 10828 29d9 74       		.byte	0x74
 10829 29da 00       		.sleb128 0
 10830 29db 00       		.byte	0
 10831 29dc 2E       		.uleb128 0x2e
 10832 29dd 1E0F0000 		.4byte	.LVL262
 10833 29e1 883F0000 		.4byte	0x3f88
 10834 29e5 FE290000 		.4byte	0x29fe
 10835 29e9 2D       		.uleb128 0x2d
 10836 29ea 01       		.uleb128 0x1
 10837 29eb 51       		.byte	0x51
 10838 29ec 02       		.uleb128 0x2
 10839 29ed 76       		.byte	0x76
 10840 29ee 00       		.sleb128 0
 10841 29ef 2D       		.uleb128 0x2d
 10842 29f0 02       		.uleb128 0x2
 10843 29f1 90       		.byte	0x90
 10844 29f2 41       		.uleb128 0x41
 10845 29f3 03       		.uleb128 0x3
 10846 29f4 F5       		.byte	0xf5
 10847 29f5 50       		.uleb128 0x50
 10848 29f6 25       		.uleb128 0x25
 10849 29f7 2D       		.uleb128 0x2d
 10850 29f8 01       		.uleb128 0x1
 10851 29f9 50       		.byte	0x50
 10852 29fa 02       		.uleb128 0x2
 10853 29fb 74       		.byte	0x74
 10854 29fc 00       		.sleb128 0
 10855 29fd 00       		.byte	0
 10856 29fe 2E       		.uleb128 0x2e
 10857 29ff 2E0F0000 		.4byte	.LVL263
 10858 2a03 883F0000 		.4byte	0x3f88
 10859 2a07 202A0000 		.4byte	0x2a20
 10860 2a0b 2D       		.uleb128 0x2d
 10861 2a0c 01       		.uleb128 0x1
 10862 2a0d 51       		.byte	0x51
 10863 2a0e 02       		.uleb128 0x2
 10864 2a0f 76       		.byte	0x76
 10865 2a10 00       		.sleb128 0
ARM GAS  /tmp/ccq8Pe5l.s 			page 192


 10866 2a11 2D       		.uleb128 0x2d
 10867 2a12 02       		.uleb128 0x2
 10868 2a13 90       		.byte	0x90
 10869 2a14 41       		.uleb128 0x41
 10870 2a15 03       		.uleb128 0x3
 10871 2a16 F5       		.byte	0xf5
 10872 2a17 50       		.uleb128 0x50
 10873 2a18 25       		.uleb128 0x25
 10874 2a19 2D       		.uleb128 0x2d
 10875 2a1a 01       		.uleb128 0x1
 10876 2a1b 50       		.byte	0x50
 10877 2a1c 02       		.uleb128 0x2
 10878 2a1d 74       		.byte	0x74
 10879 2a1e 00       		.sleb128 0
 10880 2a1f 00       		.byte	0
 10881 2a20 2E       		.uleb128 0x2e
 10882 2a21 580F0000 		.4byte	.LVL264
 10883 2a25 883F0000 		.4byte	0x3f88
 10884 2a29 422A0000 		.4byte	0x2a42
 10885 2a2d 2D       		.uleb128 0x2d
 10886 2a2e 01       		.uleb128 0x1
 10887 2a2f 51       		.byte	0x51
 10888 2a30 02       		.uleb128 0x2
 10889 2a31 76       		.byte	0x76
 10890 2a32 00       		.sleb128 0
 10891 2a33 2D       		.uleb128 0x2d
 10892 2a34 02       		.uleb128 0x2
 10893 2a35 90       		.byte	0x90
 10894 2a36 41       		.uleb128 0x41
 10895 2a37 03       		.uleb128 0x3
 10896 2a38 F5       		.byte	0xf5
 10897 2a39 50       		.uleb128 0x50
 10898 2a3a 25       		.uleb128 0x25
 10899 2a3b 2D       		.uleb128 0x2d
 10900 2a3c 01       		.uleb128 0x1
 10901 2a3d 50       		.byte	0x50
 10902 2a3e 02       		.uleb128 0x2
 10903 2a3f 74       		.byte	0x74
 10904 2a40 00       		.sleb128 0
 10905 2a41 00       		.byte	0
 10906 2a42 2E       		.uleb128 0x2e
 10907 2a43 680F0000 		.4byte	.LVL265
 10908 2a47 883F0000 		.4byte	0x3f88
 10909 2a4b 642A0000 		.4byte	0x2a64
 10910 2a4f 2D       		.uleb128 0x2d
 10911 2a50 01       		.uleb128 0x1
 10912 2a51 51       		.byte	0x51
 10913 2a52 02       		.uleb128 0x2
 10914 2a53 76       		.byte	0x76
 10915 2a54 00       		.sleb128 0
 10916 2a55 2D       		.uleb128 0x2d
 10917 2a56 02       		.uleb128 0x2
 10918 2a57 90       		.byte	0x90
 10919 2a58 41       		.uleb128 0x41
 10920 2a59 03       		.uleb128 0x3
 10921 2a5a F5       		.byte	0xf5
 10922 2a5b 50       		.uleb128 0x50
ARM GAS  /tmp/ccq8Pe5l.s 			page 193


 10923 2a5c 25       		.uleb128 0x25
 10924 2a5d 2D       		.uleb128 0x2d
 10925 2a5e 01       		.uleb128 0x1
 10926 2a5f 50       		.byte	0x50
 10927 2a60 02       		.uleb128 0x2
 10928 2a61 74       		.byte	0x74
 10929 2a62 00       		.sleb128 0
 10930 2a63 00       		.byte	0
 10931 2a64 2E       		.uleb128 0x2e
 10932 2a65 780F0000 		.4byte	.LVL266
 10933 2a69 883F0000 		.4byte	0x3f88
 10934 2a6d 862A0000 		.4byte	0x2a86
 10935 2a71 2D       		.uleb128 0x2d
 10936 2a72 01       		.uleb128 0x1
 10937 2a73 51       		.byte	0x51
 10938 2a74 02       		.uleb128 0x2
 10939 2a75 76       		.byte	0x76
 10940 2a76 00       		.sleb128 0
 10941 2a77 2D       		.uleb128 0x2d
 10942 2a78 02       		.uleb128 0x2
 10943 2a79 90       		.byte	0x90
 10944 2a7a 41       		.uleb128 0x41
 10945 2a7b 03       		.uleb128 0x3
 10946 2a7c F5       		.byte	0xf5
 10947 2a7d 50       		.uleb128 0x50
 10948 2a7e 25       		.uleb128 0x25
 10949 2a7f 2D       		.uleb128 0x2d
 10950 2a80 01       		.uleb128 0x1
 10951 2a81 50       		.byte	0x50
 10952 2a82 02       		.uleb128 0x2
 10953 2a83 74       		.byte	0x74
 10954 2a84 00       		.sleb128 0
 10955 2a85 00       		.byte	0
 10956 2a86 2E       		.uleb128 0x2e
 10957 2a87 880F0000 		.4byte	.LVL267
 10958 2a8b 883F0000 		.4byte	0x3f88
 10959 2a8f A82A0000 		.4byte	0x2aa8
 10960 2a93 2D       		.uleb128 0x2d
 10961 2a94 01       		.uleb128 0x1
 10962 2a95 51       		.byte	0x51
 10963 2a96 02       		.uleb128 0x2
 10964 2a97 76       		.byte	0x76
 10965 2a98 00       		.sleb128 0
 10966 2a99 2D       		.uleb128 0x2d
 10967 2a9a 02       		.uleb128 0x2
 10968 2a9b 90       		.byte	0x90
 10969 2a9c 41       		.uleb128 0x41
 10970 2a9d 03       		.uleb128 0x3
 10971 2a9e F5       		.byte	0xf5
 10972 2a9f 50       		.uleb128 0x50
 10973 2aa0 25       		.uleb128 0x25
 10974 2aa1 2D       		.uleb128 0x2d
 10975 2aa2 01       		.uleb128 0x1
 10976 2aa3 50       		.byte	0x50
 10977 2aa4 02       		.uleb128 0x2
 10978 2aa5 74       		.byte	0x74
 10979 2aa6 00       		.sleb128 0
ARM GAS  /tmp/ccq8Pe5l.s 			page 194


 10980 2aa7 00       		.byte	0
 10981 2aa8 2E       		.uleb128 0x2e
 10982 2aa9 980F0000 		.4byte	.LVL268
 10983 2aad 883F0000 		.4byte	0x3f88
 10984 2ab1 CA2A0000 		.4byte	0x2aca
 10985 2ab5 2D       		.uleb128 0x2d
 10986 2ab6 01       		.uleb128 0x1
 10987 2ab7 51       		.byte	0x51
 10988 2ab8 02       		.uleb128 0x2
 10989 2ab9 76       		.byte	0x76
 10990 2aba 00       		.sleb128 0
 10991 2abb 2D       		.uleb128 0x2d
 10992 2abc 02       		.uleb128 0x2
 10993 2abd 90       		.byte	0x90
 10994 2abe 41       		.uleb128 0x41
 10995 2abf 03       		.uleb128 0x3
 10996 2ac0 F5       		.byte	0xf5
 10997 2ac1 50       		.uleb128 0x50
 10998 2ac2 25       		.uleb128 0x25
 10999 2ac3 2D       		.uleb128 0x2d
 11000 2ac4 01       		.uleb128 0x1
 11001 2ac5 50       		.byte	0x50
 11002 2ac6 02       		.uleb128 0x2
 11003 2ac7 74       		.byte	0x74
 11004 2ac8 00       		.sleb128 0
 11005 2ac9 00       		.byte	0
 11006 2aca 2E       		.uleb128 0x2e
 11007 2acb C40F0000 		.4byte	.LVL269
 11008 2acf 863E0000 		.4byte	0x3e86
 11009 2ad3 E42A0000 		.4byte	0x2ae4
 11010 2ad7 2D       		.uleb128 0x2d
 11011 2ad8 01       		.uleb128 0x1
 11012 2ad9 52       		.byte	0x52
 11013 2ada 02       		.uleb128 0x2
 11014 2adb 76       		.byte	0x76
 11015 2adc 00       		.sleb128 0
 11016 2add 2D       		.uleb128 0x2d
 11017 2ade 01       		.uleb128 0x1
 11018 2adf 50       		.byte	0x50
 11019 2ae0 02       		.uleb128 0x2
 11020 2ae1 74       		.byte	0x74
 11021 2ae2 00       		.sleb128 0
 11022 2ae3 00       		.byte	0
 11023 2ae4 2E       		.uleb128 0x2e
 11024 2ae5 DC0F0000 		.4byte	.LVL270
 11025 2ae9 863E0000 		.4byte	0x3e86
 11026 2aed FE2A0000 		.4byte	0x2afe
 11027 2af1 2D       		.uleb128 0x2d
 11028 2af2 01       		.uleb128 0x1
 11029 2af3 52       		.byte	0x52
 11030 2af4 02       		.uleb128 0x2
 11031 2af5 76       		.byte	0x76
 11032 2af6 00       		.sleb128 0
 11033 2af7 2D       		.uleb128 0x2d
 11034 2af8 01       		.uleb128 0x1
 11035 2af9 50       		.byte	0x50
 11036 2afa 02       		.uleb128 0x2
ARM GAS  /tmp/ccq8Pe5l.s 			page 195


 11037 2afb 74       		.byte	0x74
 11038 2afc 00       		.sleb128 0
 11039 2afd 00       		.byte	0
 11040 2afe 2E       		.uleb128 0x2e
 11041 2aff F40F0000 		.4byte	.LVL271
 11042 2b03 863E0000 		.4byte	0x3e86
 11043 2b07 182B0000 		.4byte	0x2b18
 11044 2b0b 2D       		.uleb128 0x2d
 11045 2b0c 01       		.uleb128 0x1
 11046 2b0d 52       		.byte	0x52
 11047 2b0e 02       		.uleb128 0x2
 11048 2b0f 76       		.byte	0x76
 11049 2b10 00       		.sleb128 0
 11050 2b11 2D       		.uleb128 0x2d
 11051 2b12 01       		.uleb128 0x1
 11052 2b13 50       		.byte	0x50
 11053 2b14 02       		.uleb128 0x2
 11054 2b15 74       		.byte	0x74
 11055 2b16 00       		.sleb128 0
 11056 2b17 00       		.byte	0
 11057 2b18 2E       		.uleb128 0x2e
 11058 2b19 0C100000 		.4byte	.LVL272
 11059 2b1d 863E0000 		.4byte	0x3e86
 11060 2b21 322B0000 		.4byte	0x2b32
 11061 2b25 2D       		.uleb128 0x2d
 11062 2b26 01       		.uleb128 0x1
 11063 2b27 52       		.byte	0x52
 11064 2b28 02       		.uleb128 0x2
 11065 2b29 76       		.byte	0x76
 11066 2b2a 00       		.sleb128 0
 11067 2b2b 2D       		.uleb128 0x2d
 11068 2b2c 01       		.uleb128 0x1
 11069 2b2d 50       		.byte	0x50
 11070 2b2e 02       		.uleb128 0x2
 11071 2b2f 74       		.byte	0x74
 11072 2b30 00       		.sleb128 0
 11073 2b31 00       		.byte	0
 11074 2b32 2E       		.uleb128 0x2e
 11075 2b33 24100000 		.4byte	.LVL273
 11076 2b37 863E0000 		.4byte	0x3e86
 11077 2b3b 4C2B0000 		.4byte	0x2b4c
 11078 2b3f 2D       		.uleb128 0x2d
 11079 2b40 01       		.uleb128 0x1
 11080 2b41 52       		.byte	0x52
 11081 2b42 02       		.uleb128 0x2
 11082 2b43 76       		.byte	0x76
 11083 2b44 00       		.sleb128 0
 11084 2b45 2D       		.uleb128 0x2d
 11085 2b46 01       		.uleb128 0x1
 11086 2b47 50       		.byte	0x50
 11087 2b48 02       		.uleb128 0x2
 11088 2b49 74       		.byte	0x74
 11089 2b4a 00       		.sleb128 0
 11090 2b4b 00       		.byte	0
 11091 2b4c 2E       		.uleb128 0x2e
 11092 2b4d 3C100000 		.4byte	.LVL274
 11093 2b51 863E0000 		.4byte	0x3e86
ARM GAS  /tmp/ccq8Pe5l.s 			page 196


 11094 2b55 662B0000 		.4byte	0x2b66
 11095 2b59 2D       		.uleb128 0x2d
 11096 2b5a 01       		.uleb128 0x1
 11097 2b5b 52       		.byte	0x52
 11098 2b5c 02       		.uleb128 0x2
 11099 2b5d 76       		.byte	0x76
 11100 2b5e 00       		.sleb128 0
 11101 2b5f 2D       		.uleb128 0x2d
 11102 2b60 01       		.uleb128 0x1
 11103 2b61 50       		.byte	0x50
 11104 2b62 02       		.uleb128 0x2
 11105 2b63 74       		.byte	0x74
 11106 2b64 00       		.sleb128 0
 11107 2b65 00       		.byte	0
 11108 2b66 2E       		.uleb128 0x2e
 11109 2b67 54100000 		.4byte	.LVL275
 11110 2b6b 863E0000 		.4byte	0x3e86
 11111 2b6f 802B0000 		.4byte	0x2b80
 11112 2b73 2D       		.uleb128 0x2d
 11113 2b74 01       		.uleb128 0x1
 11114 2b75 52       		.byte	0x52
 11115 2b76 02       		.uleb128 0x2
 11116 2b77 76       		.byte	0x76
 11117 2b78 00       		.sleb128 0
 11118 2b79 2D       		.uleb128 0x2d
 11119 2b7a 01       		.uleb128 0x1
 11120 2b7b 50       		.byte	0x50
 11121 2b7c 02       		.uleb128 0x2
 11122 2b7d 74       		.byte	0x74
 11123 2b7e 00       		.sleb128 0
 11124 2b7f 00       		.byte	0
 11125 2b80 2E       		.uleb128 0x2e
 11126 2b81 6C100000 		.4byte	.LVL276
 11127 2b85 863E0000 		.4byte	0x3e86
 11128 2b89 9A2B0000 		.4byte	0x2b9a
 11129 2b8d 2D       		.uleb128 0x2d
 11130 2b8e 01       		.uleb128 0x1
 11131 2b8f 52       		.byte	0x52
 11132 2b90 02       		.uleb128 0x2
 11133 2b91 76       		.byte	0x76
 11134 2b92 00       		.sleb128 0
 11135 2b93 2D       		.uleb128 0x2d
 11136 2b94 01       		.uleb128 0x1
 11137 2b95 50       		.byte	0x50
 11138 2b96 02       		.uleb128 0x2
 11139 2b97 74       		.byte	0x74
 11140 2b98 00       		.sleb128 0
 11141 2b99 00       		.byte	0
 11142 2b9a 2E       		.uleb128 0x2e
 11143 2b9b 7C100000 		.4byte	.LVL277
 11144 2b9f 883F0000 		.4byte	0x3f88
 11145 2ba3 C02B0000 		.4byte	0x2bc0
 11146 2ba7 2D       		.uleb128 0x2d
 11147 2ba8 01       		.uleb128 0x1
 11148 2ba9 51       		.byte	0x51
 11149 2baa 02       		.uleb128 0x2
 11150 2bab 76       		.byte	0x76
ARM GAS  /tmp/ccq8Pe5l.s 			page 197


 11151 2bac 00       		.sleb128 0
 11152 2bad 2D       		.uleb128 0x2d
 11153 2bae 02       		.uleb128 0x2
 11154 2baf 90       		.byte	0x90
 11155 2bb0 41       		.uleb128 0x41
 11156 2bb1 07       		.uleb128 0x7
 11157 2bb2 F4       		.byte	0xf4
 11158 2bb3 25       		.uleb128 0x25
 11159 2bb4 04       		.byte	0x4
 11160 2bb5 0050C347 		.4byte	0x47c35000
 11161 2bb9 2D       		.uleb128 0x2d
 11162 2bba 01       		.uleb128 0x1
 11163 2bbb 50       		.byte	0x50
 11164 2bbc 02       		.uleb128 0x2
 11165 2bbd 74       		.byte	0x74
 11166 2bbe 00       		.sleb128 0
 11167 2bbf 00       		.byte	0
 11168 2bc0 2E       		.uleb128 0x2e
 11169 2bc1 94100000 		.4byte	.LVL278
 11170 2bc5 863E0000 		.4byte	0x3e86
 11171 2bc9 DA2B0000 		.4byte	0x2bda
 11172 2bcd 2D       		.uleb128 0x2d
 11173 2bce 01       		.uleb128 0x1
 11174 2bcf 52       		.byte	0x52
 11175 2bd0 02       		.uleb128 0x2
 11176 2bd1 76       		.byte	0x76
 11177 2bd2 00       		.sleb128 0
 11178 2bd3 2D       		.uleb128 0x2d
 11179 2bd4 01       		.uleb128 0x1
 11180 2bd5 50       		.byte	0x50
 11181 2bd6 02       		.uleb128 0x2
 11182 2bd7 74       		.byte	0x74
 11183 2bd8 00       		.sleb128 0
 11184 2bd9 00       		.byte	0
 11185 2bda 2E       		.uleb128 0x2e
 11186 2bdb AC100000 		.4byte	.LVL279
 11187 2bdf 863E0000 		.4byte	0x3e86
 11188 2be3 FF2B0000 		.4byte	0x2bff
 11189 2be7 2D       		.uleb128 0x2d
 11190 2be8 01       		.uleb128 0x1
 11191 2be9 52       		.byte	0x52
 11192 2bea 02       		.uleb128 0x2
 11193 2beb 76       		.byte	0x76
 11194 2bec 00       		.sleb128 0
 11195 2bed 2D       		.uleb128 0x2d
 11196 2bee 01       		.uleb128 0x1
 11197 2bef 51       		.byte	0x51
 11198 2bf0 07       		.uleb128 0x7
 11199 2bf1 F5       		.byte	0xf5
 11200 2bf2 50       		.uleb128 0x50
 11201 2bf3 25       		.uleb128 0x25
 11202 2bf4 F7       		.byte	0xf7
 11203 2bf5 2C       		.uleb128 0x2c
 11204 2bf6 F7       		.byte	0xf7
 11205 2bf7 00       		.uleb128 0
 11206 2bf8 2D       		.uleb128 0x2d
 11207 2bf9 01       		.uleb128 0x1
ARM GAS  /tmp/ccq8Pe5l.s 			page 198


 11208 2bfa 50       		.byte	0x50
 11209 2bfb 02       		.uleb128 0x2
 11210 2bfc 74       		.byte	0x74
 11211 2bfd 00       		.sleb128 0
 11212 2bfe 00       		.byte	0
 11213 2bff 2E       		.uleb128 0x2e
 11214 2c00 C4100000 		.4byte	.LVL280
 11215 2c04 863E0000 		.4byte	0x3e86
 11216 2c08 192C0000 		.4byte	0x2c19
 11217 2c0c 2D       		.uleb128 0x2d
 11218 2c0d 01       		.uleb128 0x1
 11219 2c0e 52       		.byte	0x52
 11220 2c0f 02       		.uleb128 0x2
 11221 2c10 76       		.byte	0x76
 11222 2c11 00       		.sleb128 0
 11223 2c12 2D       		.uleb128 0x2d
 11224 2c13 01       		.uleb128 0x1
 11225 2c14 50       		.byte	0x50
 11226 2c15 02       		.uleb128 0x2
 11227 2c16 74       		.byte	0x74
 11228 2c17 00       		.sleb128 0
 11229 2c18 00       		.byte	0
 11230 2c19 2E       		.uleb128 0x2e
 11231 2c1a DC100000 		.4byte	.LVL281
 11232 2c1e 863E0000 		.4byte	0x3e86
 11233 2c22 332C0000 		.4byte	0x2c33
 11234 2c26 2D       		.uleb128 0x2d
 11235 2c27 01       		.uleb128 0x1
 11236 2c28 52       		.byte	0x52
 11237 2c29 02       		.uleb128 0x2
 11238 2c2a 76       		.byte	0x76
 11239 2c2b 00       		.sleb128 0
 11240 2c2c 2D       		.uleb128 0x2d
 11241 2c2d 01       		.uleb128 0x1
 11242 2c2e 50       		.byte	0x50
 11243 2c2f 02       		.uleb128 0x2
 11244 2c30 74       		.byte	0x74
 11245 2c31 00       		.sleb128 0
 11246 2c32 00       		.byte	0
 11247 2c33 2E       		.uleb128 0x2e
 11248 2c34 E8100000 		.4byte	.LVL282
 11249 2c38 863E0000 		.4byte	0x3e86
 11250 2c3c 4D2C0000 		.4byte	0x2c4d
 11251 2c40 2D       		.uleb128 0x2d
 11252 2c41 01       		.uleb128 0x1
 11253 2c42 52       		.byte	0x52
 11254 2c43 02       		.uleb128 0x2
 11255 2c44 76       		.byte	0x76
 11256 2c45 00       		.sleb128 0
 11257 2c46 2D       		.uleb128 0x2d
 11258 2c47 01       		.uleb128 0x1
 11259 2c48 50       		.byte	0x50
 11260 2c49 02       		.uleb128 0x2
 11261 2c4a 74       		.byte	0x74
 11262 2c4b 00       		.sleb128 0
 11263 2c4c 00       		.byte	0
 11264 2c4d 2E       		.uleb128 0x2e
ARM GAS  /tmp/ccq8Pe5l.s 			page 199


 11265 2c4e F8100000 		.4byte	.LVL283
 11266 2c52 883F0000 		.4byte	0x3f88
 11267 2c56 6F2C0000 		.4byte	0x2c6f
 11268 2c5a 2D       		.uleb128 0x2d
 11269 2c5b 01       		.uleb128 0x1
 11270 2c5c 51       		.byte	0x51
 11271 2c5d 02       		.uleb128 0x2
 11272 2c5e 76       		.byte	0x76
 11273 2c5f 00       		.sleb128 0
 11274 2c60 2D       		.uleb128 0x2d
 11275 2c61 02       		.uleb128 0x2
 11276 2c62 90       		.byte	0x90
 11277 2c63 41       		.uleb128 0x41
 11278 2c64 03       		.uleb128 0x3
 11279 2c65 F5       		.byte	0xf5
 11280 2c66 51       		.uleb128 0x51
 11281 2c67 25       		.uleb128 0x25
 11282 2c68 2D       		.uleb128 0x2d
 11283 2c69 01       		.uleb128 0x1
 11284 2c6a 50       		.byte	0x50
 11285 2c6b 02       		.uleb128 0x2
 11286 2c6c 74       		.byte	0x74
 11287 2c6d 00       		.sleb128 0
 11288 2c6e 00       		.byte	0
 11289 2c6f 2E       		.uleb128 0x2e
 11290 2c70 08110000 		.4byte	.LVL284
 11291 2c74 883F0000 		.4byte	0x3f88
 11292 2c78 912C0000 		.4byte	0x2c91
 11293 2c7c 2D       		.uleb128 0x2d
 11294 2c7d 01       		.uleb128 0x1
 11295 2c7e 51       		.byte	0x51
 11296 2c7f 02       		.uleb128 0x2
 11297 2c80 76       		.byte	0x76
 11298 2c81 00       		.sleb128 0
 11299 2c82 2D       		.uleb128 0x2d
 11300 2c83 02       		.uleb128 0x2
 11301 2c84 90       		.byte	0x90
 11302 2c85 41       		.uleb128 0x41
 11303 2c86 03       		.uleb128 0x3
 11304 2c87 F5       		.byte	0xf5
 11305 2c88 51       		.uleb128 0x51
 11306 2c89 25       		.uleb128 0x25
 11307 2c8a 2D       		.uleb128 0x2d
 11308 2c8b 01       		.uleb128 0x1
 11309 2c8c 50       		.byte	0x50
 11310 2c8d 02       		.uleb128 0x2
 11311 2c8e 74       		.byte	0x74
 11312 2c8f 00       		.sleb128 0
 11313 2c90 00       		.byte	0
 11314 2c91 2E       		.uleb128 0x2e
 11315 2c92 18110000 		.4byte	.LVL285
 11316 2c96 883F0000 		.4byte	0x3f88
 11317 2c9a B32C0000 		.4byte	0x2cb3
 11318 2c9e 2D       		.uleb128 0x2d
 11319 2c9f 01       		.uleb128 0x1
 11320 2ca0 51       		.byte	0x51
 11321 2ca1 02       		.uleb128 0x2
ARM GAS  /tmp/ccq8Pe5l.s 			page 200


 11322 2ca2 76       		.byte	0x76
 11323 2ca3 00       		.sleb128 0
 11324 2ca4 2D       		.uleb128 0x2d
 11325 2ca5 02       		.uleb128 0x2
 11326 2ca6 90       		.byte	0x90
 11327 2ca7 41       		.uleb128 0x41
 11328 2ca8 03       		.uleb128 0x3
 11329 2ca9 F5       		.byte	0xf5
 11330 2caa 51       		.uleb128 0x51
 11331 2cab 25       		.uleb128 0x25
 11332 2cac 2D       		.uleb128 0x2d
 11333 2cad 01       		.uleb128 0x1
 11334 2cae 50       		.byte	0x50
 11335 2caf 02       		.uleb128 0x2
 11336 2cb0 74       		.byte	0x74
 11337 2cb1 00       		.sleb128 0
 11338 2cb2 00       		.byte	0
 11339 2cb3 2E       		.uleb128 0x2e
 11340 2cb4 24110000 		.4byte	.LVL286
 11341 2cb8 D93F0000 		.4byte	0x3fd9
 11342 2cbc CD2C0000 		.4byte	0x2ccd
 11343 2cc0 2D       		.uleb128 0x2d
 11344 2cc1 01       		.uleb128 0x1
 11345 2cc2 52       		.byte	0x52
 11346 2cc3 02       		.uleb128 0x2
 11347 2cc4 76       		.byte	0x76
 11348 2cc5 00       		.sleb128 0
 11349 2cc6 2D       		.uleb128 0x2d
 11350 2cc7 01       		.uleb128 0x1
 11351 2cc8 50       		.byte	0x50
 11352 2cc9 02       		.uleb128 0x2
 11353 2cca 74       		.byte	0x74
 11354 2ccb 00       		.sleb128 0
 11355 2ccc 00       		.byte	0
 11356 2ccd 41       		.uleb128 0x41
 11357 2cce 3C110000 		.4byte	.LVL289
 11358 2cd2 D03E0000 		.4byte	0x3ed0
 11359 2cd6 2E       		.uleb128 0x2e
 11360 2cd7 58110000 		.4byte	.LVL291
 11361 2cdb EB3E0000 		.4byte	0x3eeb
 11362 2cdf F12C0000 		.4byte	0x2cf1
 11363 2ce3 2D       		.uleb128 0x2d
 11364 2ce4 01       		.uleb128 0x1
 11365 2ce5 52       		.byte	0x52
 11366 2ce6 03       		.uleb128 0x3
 11367 2ce7 0A       		.byte	0xa
 11368 2ce8 3001     		.2byte	0x130
 11369 2cea 2D       		.uleb128 0x2d
 11370 2ceb 01       		.uleb128 0x1
 11371 2cec 50       		.byte	0x50
 11372 2ced 02       		.uleb128 0x2
 11373 2cee 75       		.byte	0x75
 11374 2cef 00       		.sleb128 0
 11375 2cf0 00       		.byte	0
 11376 2cf1 2E       		.uleb128 0x2e
 11377 2cf2 7E110000 		.4byte	.LVL292
 11378 2cf6 0F3F0000 		.4byte	0x3f0f
ARM GAS  /tmp/ccq8Pe5l.s 			page 201


 11379 2cfa 132D0000 		.4byte	0x2d13
 11380 2cfe 2D       		.uleb128 0x2d
 11381 2cff 01       		.uleb128 0x1
 11382 2d00 51       		.byte	0x51
 11383 2d01 02       		.uleb128 0x2
 11384 2d02 76       		.byte	0x76
 11385 2d03 00       		.sleb128 0
 11386 2d04 2D       		.uleb128 0x2d
 11387 2d05 02       		.uleb128 0x2
 11388 2d06 90       		.byte	0x90
 11389 2d07 40       		.uleb128 0x40
 11390 2d08 03       		.uleb128 0x3
 11391 2d09 F5       		.byte	0xf5
 11392 2d0a 50       		.uleb128 0x50
 11393 2d0b 25       		.uleb128 0x25
 11394 2d0c 2D       		.uleb128 0x2d
 11395 2d0d 01       		.uleb128 0x1
 11396 2d0e 50       		.byte	0x50
 11397 2d0f 02       		.uleb128 0x2
 11398 2d10 74       		.byte	0x74
 11399 2d11 00       		.sleb128 0
 11400 2d12 00       		.byte	0
 11401 2d13 2E       		.uleb128 0x2e
 11402 2d14 8E110000 		.4byte	.LVL293
 11403 2d18 0F3F0000 		.4byte	0x3f0f
 11404 2d1c 352D0000 		.4byte	0x2d35
 11405 2d20 2D       		.uleb128 0x2d
 11406 2d21 01       		.uleb128 0x1
 11407 2d22 51       		.byte	0x51
 11408 2d23 02       		.uleb128 0x2
 11409 2d24 76       		.byte	0x76
 11410 2d25 00       		.sleb128 0
 11411 2d26 2D       		.uleb128 0x2d
 11412 2d27 02       		.uleb128 0x2
 11413 2d28 90       		.byte	0x90
 11414 2d29 40       		.uleb128 0x40
 11415 2d2a 03       		.uleb128 0x3
 11416 2d2b F5       		.byte	0xf5
 11417 2d2c 50       		.uleb128 0x50
 11418 2d2d 25       		.uleb128 0x25
 11419 2d2e 2D       		.uleb128 0x2d
 11420 2d2f 01       		.uleb128 0x1
 11421 2d30 50       		.byte	0x50
 11422 2d31 02       		.uleb128 0x2
 11423 2d32 74       		.byte	0x74
 11424 2d33 00       		.sleb128 0
 11425 2d34 00       		.byte	0
 11426 2d35 2E       		.uleb128 0x2e
 11427 2d36 9E110000 		.4byte	.LVL294
 11428 2d3a 0F3F0000 		.4byte	0x3f0f
 11429 2d3e 572D0000 		.4byte	0x2d57
 11430 2d42 2D       		.uleb128 0x2d
 11431 2d43 01       		.uleb128 0x1
 11432 2d44 51       		.byte	0x51
 11433 2d45 02       		.uleb128 0x2
 11434 2d46 76       		.byte	0x76
 11435 2d47 00       		.sleb128 0
ARM GAS  /tmp/ccq8Pe5l.s 			page 202


 11436 2d48 2D       		.uleb128 0x2d
 11437 2d49 02       		.uleb128 0x2
 11438 2d4a 90       		.byte	0x90
 11439 2d4b 40       		.uleb128 0x40
 11440 2d4c 03       		.uleb128 0x3
 11441 2d4d F5       		.byte	0xf5
 11442 2d4e 50       		.uleb128 0x50
 11443 2d4f 25       		.uleb128 0x25
 11444 2d50 2D       		.uleb128 0x2d
 11445 2d51 01       		.uleb128 0x1
 11446 2d52 50       		.byte	0x50
 11447 2d53 02       		.uleb128 0x2
 11448 2d54 74       		.byte	0x74
 11449 2d55 00       		.sleb128 0
 11450 2d56 00       		.byte	0
 11451 2d57 2E       		.uleb128 0x2e
 11452 2d58 AE110000 		.4byte	.LVL295
 11453 2d5c 0F3F0000 		.4byte	0x3f0f
 11454 2d60 792D0000 		.4byte	0x2d79
 11455 2d64 2D       		.uleb128 0x2d
 11456 2d65 01       		.uleb128 0x1
 11457 2d66 51       		.byte	0x51
 11458 2d67 02       		.uleb128 0x2
 11459 2d68 76       		.byte	0x76
 11460 2d69 00       		.sleb128 0
 11461 2d6a 2D       		.uleb128 0x2d
 11462 2d6b 02       		.uleb128 0x2
 11463 2d6c 90       		.byte	0x90
 11464 2d6d 40       		.uleb128 0x40
 11465 2d6e 03       		.uleb128 0x3
 11466 2d6f F5       		.byte	0xf5
 11467 2d70 50       		.uleb128 0x50
 11468 2d71 25       		.uleb128 0x25
 11469 2d72 2D       		.uleb128 0x2d
 11470 2d73 01       		.uleb128 0x1
 11471 2d74 50       		.byte	0x50
 11472 2d75 02       		.uleb128 0x2
 11473 2d76 74       		.byte	0x74
 11474 2d77 00       		.sleb128 0
 11475 2d78 00       		.byte	0
 11476 2d79 2E       		.uleb128 0x2e
 11477 2d7a BE110000 		.4byte	.LVL296
 11478 2d7e 0F3F0000 		.4byte	0x3f0f
 11479 2d82 9B2D0000 		.4byte	0x2d9b
 11480 2d86 2D       		.uleb128 0x2d
 11481 2d87 01       		.uleb128 0x1
 11482 2d88 51       		.byte	0x51
 11483 2d89 02       		.uleb128 0x2
 11484 2d8a 76       		.byte	0x76
 11485 2d8b 00       		.sleb128 0
 11486 2d8c 2D       		.uleb128 0x2d
 11487 2d8d 02       		.uleb128 0x2
 11488 2d8e 90       		.byte	0x90
 11489 2d8f 40       		.uleb128 0x40
 11490 2d90 03       		.uleb128 0x3
 11491 2d91 F5       		.byte	0xf5
 11492 2d92 50       		.uleb128 0x50
ARM GAS  /tmp/ccq8Pe5l.s 			page 203


 11493 2d93 25       		.uleb128 0x25
 11494 2d94 2D       		.uleb128 0x2d
 11495 2d95 01       		.uleb128 0x1
 11496 2d96 50       		.byte	0x50
 11497 2d97 02       		.uleb128 0x2
 11498 2d98 74       		.byte	0x74
 11499 2d99 00       		.sleb128 0
 11500 2d9a 00       		.byte	0
 11501 2d9b 2E       		.uleb128 0x2e
 11502 2d9c CE110000 		.4byte	.LVL297
 11503 2da0 0F3F0000 		.4byte	0x3f0f
 11504 2da4 BD2D0000 		.4byte	0x2dbd
 11505 2da8 2D       		.uleb128 0x2d
 11506 2da9 01       		.uleb128 0x1
 11507 2daa 51       		.byte	0x51
 11508 2dab 02       		.uleb128 0x2
 11509 2dac 76       		.byte	0x76
 11510 2dad 00       		.sleb128 0
 11511 2dae 2D       		.uleb128 0x2d
 11512 2daf 02       		.uleb128 0x2
 11513 2db0 90       		.byte	0x90
 11514 2db1 40       		.uleb128 0x40
 11515 2db2 03       		.uleb128 0x3
 11516 2db3 F5       		.byte	0xf5
 11517 2db4 50       		.uleb128 0x50
 11518 2db5 25       		.uleb128 0x25
 11519 2db6 2D       		.uleb128 0x2d
 11520 2db7 01       		.uleb128 0x1
 11521 2db8 50       		.byte	0x50
 11522 2db9 02       		.uleb128 0x2
 11523 2dba 74       		.byte	0x74
 11524 2dbb 00       		.sleb128 0
 11525 2dbc 00       		.byte	0
 11526 2dbd 2E       		.uleb128 0x2e
 11527 2dbe DE110000 		.4byte	.LVL298
 11528 2dc2 0F3F0000 		.4byte	0x3f0f
 11529 2dc6 DF2D0000 		.4byte	0x2ddf
 11530 2dca 2D       		.uleb128 0x2d
 11531 2dcb 01       		.uleb128 0x1
 11532 2dcc 51       		.byte	0x51
 11533 2dcd 02       		.uleb128 0x2
 11534 2dce 76       		.byte	0x76
 11535 2dcf 00       		.sleb128 0
 11536 2dd0 2D       		.uleb128 0x2d
 11537 2dd1 02       		.uleb128 0x2
 11538 2dd2 90       		.byte	0x90
 11539 2dd3 40       		.uleb128 0x40
 11540 2dd4 03       		.uleb128 0x3
 11541 2dd5 F5       		.byte	0xf5
 11542 2dd6 50       		.uleb128 0x50
 11543 2dd7 25       		.uleb128 0x25
 11544 2dd8 2D       		.uleb128 0x2d
 11545 2dd9 01       		.uleb128 0x1
 11546 2dda 50       		.byte	0x50
 11547 2ddb 02       		.uleb128 0x2
 11548 2ddc 74       		.byte	0x74
 11549 2ddd 00       		.sleb128 0
ARM GAS  /tmp/ccq8Pe5l.s 			page 204


 11550 2dde 00       		.byte	0
 11551 2ddf 2E       		.uleb128 0x2e
 11552 2de0 EE110000 		.4byte	.LVL299
 11553 2de4 0F3F0000 		.4byte	0x3f0f
 11554 2de8 012E0000 		.4byte	0x2e01
 11555 2dec 2D       		.uleb128 0x2d
 11556 2ded 01       		.uleb128 0x1
 11557 2dee 51       		.byte	0x51
 11558 2def 02       		.uleb128 0x2
 11559 2df0 76       		.byte	0x76
 11560 2df1 00       		.sleb128 0
 11561 2df2 2D       		.uleb128 0x2d
 11562 2df3 02       		.uleb128 0x2
 11563 2df4 90       		.byte	0x90
 11564 2df5 40       		.uleb128 0x40
 11565 2df6 03       		.uleb128 0x3
 11566 2df7 F5       		.byte	0xf5
 11567 2df8 50       		.uleb128 0x50
 11568 2df9 25       		.uleb128 0x25
 11569 2dfa 2D       		.uleb128 0x2d
 11570 2dfb 01       		.uleb128 0x1
 11571 2dfc 50       		.byte	0x50
 11572 2dfd 02       		.uleb128 0x2
 11573 2dfe 74       		.byte	0x74
 11574 2dff 00       		.sleb128 0
 11575 2e00 00       		.byte	0
 11576 2e01 2E       		.uleb128 0x2e
 11577 2e02 FE110000 		.4byte	.LVL300
 11578 2e06 0F3F0000 		.4byte	0x3f0f
 11579 2e0a 232E0000 		.4byte	0x2e23
 11580 2e0e 2D       		.uleb128 0x2d
 11581 2e0f 01       		.uleb128 0x1
 11582 2e10 51       		.byte	0x51
 11583 2e11 02       		.uleb128 0x2
 11584 2e12 76       		.byte	0x76
 11585 2e13 00       		.sleb128 0
 11586 2e14 2D       		.uleb128 0x2d
 11587 2e15 02       		.uleb128 0x2
 11588 2e16 90       		.byte	0x90
 11589 2e17 40       		.uleb128 0x40
 11590 2e18 03       		.uleb128 0x3
 11591 2e19 F5       		.byte	0xf5
 11592 2e1a 50       		.uleb128 0x50
 11593 2e1b 25       		.uleb128 0x25
 11594 2e1c 2D       		.uleb128 0x2d
 11595 2e1d 01       		.uleb128 0x1
 11596 2e1e 50       		.byte	0x50
 11597 2e1f 02       		.uleb128 0x2
 11598 2e20 74       		.byte	0x74
 11599 2e21 00       		.sleb128 0
 11600 2e22 00       		.byte	0
 11601 2e23 2E       		.uleb128 0x2e
 11602 2e24 0E120000 		.4byte	.LVL301
 11603 2e28 0F3F0000 		.4byte	0x3f0f
 11604 2e2c 452E0000 		.4byte	0x2e45
 11605 2e30 2D       		.uleb128 0x2d
 11606 2e31 01       		.uleb128 0x1
ARM GAS  /tmp/ccq8Pe5l.s 			page 205


 11607 2e32 51       		.byte	0x51
 11608 2e33 02       		.uleb128 0x2
 11609 2e34 76       		.byte	0x76
 11610 2e35 00       		.sleb128 0
 11611 2e36 2D       		.uleb128 0x2d
 11612 2e37 02       		.uleb128 0x2
 11613 2e38 90       		.byte	0x90
 11614 2e39 40       		.uleb128 0x40
 11615 2e3a 03       		.uleb128 0x3
 11616 2e3b F5       		.byte	0xf5
 11617 2e3c 50       		.uleb128 0x50
 11618 2e3d 25       		.uleb128 0x25
 11619 2e3e 2D       		.uleb128 0x2d
 11620 2e3f 01       		.uleb128 0x1
 11621 2e40 50       		.byte	0x50
 11622 2e41 02       		.uleb128 0x2
 11623 2e42 74       		.byte	0x74
 11624 2e43 00       		.sleb128 0
 11625 2e44 00       		.byte	0
 11626 2e45 2E       		.uleb128 0x2e
 11627 2e46 1E120000 		.4byte	.LVL302
 11628 2e4a 0F3F0000 		.4byte	0x3f0f
 11629 2e4e 672E0000 		.4byte	0x2e67
 11630 2e52 2D       		.uleb128 0x2d
 11631 2e53 01       		.uleb128 0x1
 11632 2e54 51       		.byte	0x51
 11633 2e55 02       		.uleb128 0x2
 11634 2e56 76       		.byte	0x76
 11635 2e57 00       		.sleb128 0
 11636 2e58 2D       		.uleb128 0x2d
 11637 2e59 02       		.uleb128 0x2
 11638 2e5a 90       		.byte	0x90
 11639 2e5b 40       		.uleb128 0x40
 11640 2e5c 03       		.uleb128 0x3
 11641 2e5d F5       		.byte	0xf5
 11642 2e5e 50       		.uleb128 0x50
 11643 2e5f 25       		.uleb128 0x25
 11644 2e60 2D       		.uleb128 0x2d
 11645 2e61 01       		.uleb128 0x1
 11646 2e62 50       		.byte	0x50
 11647 2e63 02       		.uleb128 0x2
 11648 2e64 74       		.byte	0x74
 11649 2e65 00       		.sleb128 0
 11650 2e66 00       		.byte	0
 11651 2e67 2E       		.uleb128 0x2e
 11652 2e68 2E120000 		.4byte	.LVL303
 11653 2e6c 0F3F0000 		.4byte	0x3f0f
 11654 2e70 892E0000 		.4byte	0x2e89
 11655 2e74 2D       		.uleb128 0x2d
 11656 2e75 01       		.uleb128 0x1
 11657 2e76 51       		.byte	0x51
 11658 2e77 02       		.uleb128 0x2
 11659 2e78 76       		.byte	0x76
 11660 2e79 00       		.sleb128 0
 11661 2e7a 2D       		.uleb128 0x2d
 11662 2e7b 02       		.uleb128 0x2
 11663 2e7c 90       		.byte	0x90
ARM GAS  /tmp/ccq8Pe5l.s 			page 206


 11664 2e7d 40       		.uleb128 0x40
 11665 2e7e 03       		.uleb128 0x3
 11666 2e7f F5       		.byte	0xf5
 11667 2e80 50       		.uleb128 0x50
 11668 2e81 25       		.uleb128 0x25
 11669 2e82 2D       		.uleb128 0x2d
 11670 2e83 01       		.uleb128 0x1
 11671 2e84 50       		.byte	0x50
 11672 2e85 02       		.uleb128 0x2
 11673 2e86 74       		.byte	0x74
 11674 2e87 00       		.sleb128 0
 11675 2e88 00       		.byte	0
 11676 2e89 2E       		.uleb128 0x2e
 11677 2e8a 3E120000 		.4byte	.LVL304
 11678 2e8e 0F3F0000 		.4byte	0x3f0f
 11679 2e92 AB2E0000 		.4byte	0x2eab
 11680 2e96 2D       		.uleb128 0x2d
 11681 2e97 01       		.uleb128 0x1
 11682 2e98 51       		.byte	0x51
 11683 2e99 02       		.uleb128 0x2
 11684 2e9a 76       		.byte	0x76
 11685 2e9b 00       		.sleb128 0
 11686 2e9c 2D       		.uleb128 0x2d
 11687 2e9d 02       		.uleb128 0x2
 11688 2e9e 90       		.byte	0x90
 11689 2e9f 40       		.uleb128 0x40
 11690 2ea0 03       		.uleb128 0x3
 11691 2ea1 F5       		.byte	0xf5
 11692 2ea2 50       		.uleb128 0x50
 11693 2ea3 25       		.uleb128 0x25
 11694 2ea4 2D       		.uleb128 0x2d
 11695 2ea5 01       		.uleb128 0x1
 11696 2ea6 50       		.byte	0x50
 11697 2ea7 02       		.uleb128 0x2
 11698 2ea8 74       		.byte	0x74
 11699 2ea9 00       		.sleb128 0
 11700 2eaa 00       		.byte	0
 11701 2eab 2E       		.uleb128 0x2e
 11702 2eac 70120000 		.4byte	.LVL305
 11703 2eb0 0F3F0000 		.4byte	0x3f0f
 11704 2eb4 CD2E0000 		.4byte	0x2ecd
 11705 2eb8 2D       		.uleb128 0x2d
 11706 2eb9 01       		.uleb128 0x1
 11707 2eba 51       		.byte	0x51
 11708 2ebb 02       		.uleb128 0x2
 11709 2ebc 76       		.byte	0x76
 11710 2ebd 00       		.sleb128 0
 11711 2ebe 2D       		.uleb128 0x2d
 11712 2ebf 02       		.uleb128 0x2
 11713 2ec0 90       		.byte	0x90
 11714 2ec1 40       		.uleb128 0x40
 11715 2ec2 03       		.uleb128 0x3
 11716 2ec3 F5       		.byte	0xf5
 11717 2ec4 50       		.uleb128 0x50
 11718 2ec5 25       		.uleb128 0x25
 11719 2ec6 2D       		.uleb128 0x2d
 11720 2ec7 01       		.uleb128 0x1
ARM GAS  /tmp/ccq8Pe5l.s 			page 207


 11721 2ec8 50       		.byte	0x50
 11722 2ec9 02       		.uleb128 0x2
 11723 2eca 74       		.byte	0x74
 11724 2ecb 00       		.sleb128 0
 11725 2ecc 00       		.byte	0
 11726 2ecd 2E       		.uleb128 0x2e
 11727 2ece 80120000 		.4byte	.LVL306
 11728 2ed2 0F3F0000 		.4byte	0x3f0f
 11729 2ed6 EF2E0000 		.4byte	0x2eef
 11730 2eda 2D       		.uleb128 0x2d
 11731 2edb 01       		.uleb128 0x1
 11732 2edc 51       		.byte	0x51
 11733 2edd 02       		.uleb128 0x2
 11734 2ede 76       		.byte	0x76
 11735 2edf 00       		.sleb128 0
 11736 2ee0 2D       		.uleb128 0x2d
 11737 2ee1 02       		.uleb128 0x2
 11738 2ee2 90       		.byte	0x90
 11739 2ee3 40       		.uleb128 0x40
 11740 2ee4 03       		.uleb128 0x3
 11741 2ee5 F5       		.byte	0xf5
 11742 2ee6 50       		.uleb128 0x50
 11743 2ee7 25       		.uleb128 0x25
 11744 2ee8 2D       		.uleb128 0x2d
 11745 2ee9 01       		.uleb128 0x1
 11746 2eea 50       		.byte	0x50
 11747 2eeb 02       		.uleb128 0x2
 11748 2eec 74       		.byte	0x74
 11749 2eed 00       		.sleb128 0
 11750 2eee 00       		.byte	0
 11751 2eef 2E       		.uleb128 0x2e
 11752 2ef0 90120000 		.4byte	.LVL307
 11753 2ef4 0F3F0000 		.4byte	0x3f0f
 11754 2ef8 112F0000 		.4byte	0x2f11
 11755 2efc 2D       		.uleb128 0x2d
 11756 2efd 01       		.uleb128 0x1
 11757 2efe 51       		.byte	0x51
 11758 2eff 02       		.uleb128 0x2
 11759 2f00 76       		.byte	0x76
 11760 2f01 00       		.sleb128 0
 11761 2f02 2D       		.uleb128 0x2d
 11762 2f03 02       		.uleb128 0x2
 11763 2f04 90       		.byte	0x90
 11764 2f05 40       		.uleb128 0x40
 11765 2f06 03       		.uleb128 0x3
 11766 2f07 F5       		.byte	0xf5
 11767 2f08 50       		.uleb128 0x50
 11768 2f09 25       		.uleb128 0x25
 11769 2f0a 2D       		.uleb128 0x2d
 11770 2f0b 01       		.uleb128 0x1
 11771 2f0c 50       		.byte	0x50
 11772 2f0d 02       		.uleb128 0x2
 11773 2f0e 74       		.byte	0x74
 11774 2f0f 00       		.sleb128 0
 11775 2f10 00       		.byte	0
 11776 2f11 2E       		.uleb128 0x2e
 11777 2f12 A0120000 		.4byte	.LVL308
ARM GAS  /tmp/ccq8Pe5l.s 			page 208


 11778 2f16 0F3F0000 		.4byte	0x3f0f
 11779 2f1a 332F0000 		.4byte	0x2f33
 11780 2f1e 2D       		.uleb128 0x2d
 11781 2f1f 01       		.uleb128 0x1
 11782 2f20 51       		.byte	0x51
 11783 2f21 02       		.uleb128 0x2
 11784 2f22 76       		.byte	0x76
 11785 2f23 00       		.sleb128 0
 11786 2f24 2D       		.uleb128 0x2d
 11787 2f25 02       		.uleb128 0x2
 11788 2f26 90       		.byte	0x90
 11789 2f27 40       		.uleb128 0x40
 11790 2f28 03       		.uleb128 0x3
 11791 2f29 F5       		.byte	0xf5
 11792 2f2a 50       		.uleb128 0x50
 11793 2f2b 25       		.uleb128 0x25
 11794 2f2c 2D       		.uleb128 0x2d
 11795 2f2d 01       		.uleb128 0x1
 11796 2f2e 50       		.byte	0x50
 11797 2f2f 02       		.uleb128 0x2
 11798 2f30 74       		.byte	0x74
 11799 2f31 00       		.sleb128 0
 11800 2f32 00       		.byte	0
 11801 2f33 2E       		.uleb128 0x2e
 11802 2f34 B0120000 		.4byte	.LVL309
 11803 2f38 0F3F0000 		.4byte	0x3f0f
 11804 2f3c 552F0000 		.4byte	0x2f55
 11805 2f40 2D       		.uleb128 0x2d
 11806 2f41 01       		.uleb128 0x1
 11807 2f42 51       		.byte	0x51
 11808 2f43 02       		.uleb128 0x2
 11809 2f44 76       		.byte	0x76
 11810 2f45 00       		.sleb128 0
 11811 2f46 2D       		.uleb128 0x2d
 11812 2f47 02       		.uleb128 0x2
 11813 2f48 90       		.byte	0x90
 11814 2f49 40       		.uleb128 0x40
 11815 2f4a 03       		.uleb128 0x3
 11816 2f4b F5       		.byte	0xf5
 11817 2f4c 51       		.uleb128 0x51
 11818 2f4d 25       		.uleb128 0x25
 11819 2f4e 2D       		.uleb128 0x2d
 11820 2f4f 01       		.uleb128 0x1
 11821 2f50 50       		.byte	0x50
 11822 2f51 02       		.uleb128 0x2
 11823 2f52 74       		.byte	0x74
 11824 2f53 00       		.sleb128 0
 11825 2f54 00       		.byte	0
 11826 2f55 2E       		.uleb128 0x2e
 11827 2f56 C0120000 		.4byte	.LVL310
 11828 2f5a 0F3F0000 		.4byte	0x3f0f
 11829 2f5e 772F0000 		.4byte	0x2f77
 11830 2f62 2D       		.uleb128 0x2d
 11831 2f63 01       		.uleb128 0x1
 11832 2f64 51       		.byte	0x51
 11833 2f65 02       		.uleb128 0x2
 11834 2f66 76       		.byte	0x76
ARM GAS  /tmp/ccq8Pe5l.s 			page 209


 11835 2f67 00       		.sleb128 0
 11836 2f68 2D       		.uleb128 0x2d
 11837 2f69 02       		.uleb128 0x2
 11838 2f6a 90       		.byte	0x90
 11839 2f6b 40       		.uleb128 0x40
 11840 2f6c 03       		.uleb128 0x3
 11841 2f6d F5       		.byte	0xf5
 11842 2f6e 51       		.uleb128 0x51
 11843 2f6f 25       		.uleb128 0x25
 11844 2f70 2D       		.uleb128 0x2d
 11845 2f71 01       		.uleb128 0x1
 11846 2f72 50       		.byte	0x50
 11847 2f73 02       		.uleb128 0x2
 11848 2f74 74       		.byte	0x74
 11849 2f75 00       		.sleb128 0
 11850 2f76 00       		.byte	0
 11851 2f77 2E       		.uleb128 0x2e
 11852 2f78 E0120000 		.4byte	.LVL311
 11853 2f7c 47400000 		.4byte	0x4047
 11854 2f80 912F0000 		.4byte	0x2f91
 11855 2f84 2D       		.uleb128 0x2d
 11856 2f85 01       		.uleb128 0x1
 11857 2f86 51       		.byte	0x51
 11858 2f87 02       		.uleb128 0x2
 11859 2f88 76       		.byte	0x76
 11860 2f89 00       		.sleb128 0
 11861 2f8a 2D       		.uleb128 0x2d
 11862 2f8b 01       		.uleb128 0x1
 11863 2f8c 50       		.byte	0x50
 11864 2f8d 02       		.uleb128 0x2
 11865 2f8e 74       		.byte	0x74
 11866 2f8f 00       		.sleb128 0
 11867 2f90 00       		.byte	0
 11868 2f91 2E       		.uleb128 0x2e
 11869 2f92 F8120000 		.4byte	.LVL312
 11870 2f96 47400000 		.4byte	0x4047
 11871 2f9a AB2F0000 		.4byte	0x2fab
 11872 2f9e 2D       		.uleb128 0x2d
 11873 2f9f 01       		.uleb128 0x1
 11874 2fa0 51       		.byte	0x51
 11875 2fa1 02       		.uleb128 0x2
 11876 2fa2 76       		.byte	0x76
 11877 2fa3 00       		.sleb128 0
 11878 2fa4 2D       		.uleb128 0x2d
 11879 2fa5 01       		.uleb128 0x1
 11880 2fa6 50       		.byte	0x50
 11881 2fa7 02       		.uleb128 0x2
 11882 2fa8 74       		.byte	0x74
 11883 2fa9 00       		.sleb128 0
 11884 2faa 00       		.byte	0
 11885 2fab 2E       		.uleb128 0x2e
 11886 2fac 10130000 		.4byte	.LVL313
 11887 2fb0 47400000 		.4byte	0x4047
 11888 2fb4 C52F0000 		.4byte	0x2fc5
 11889 2fb8 2D       		.uleb128 0x2d
 11890 2fb9 01       		.uleb128 0x1
 11891 2fba 51       		.byte	0x51
ARM GAS  /tmp/ccq8Pe5l.s 			page 210


 11892 2fbb 02       		.uleb128 0x2
 11893 2fbc 76       		.byte	0x76
 11894 2fbd 00       		.sleb128 0
 11895 2fbe 2D       		.uleb128 0x2d
 11896 2fbf 01       		.uleb128 0x1
 11897 2fc0 50       		.byte	0x50
 11898 2fc1 02       		.uleb128 0x2
 11899 2fc2 74       		.byte	0x74
 11900 2fc3 00       		.sleb128 0
 11901 2fc4 00       		.byte	0
 11902 2fc5 2E       		.uleb128 0x2e
 11903 2fc6 28130000 		.4byte	.LVL314
 11904 2fca 47400000 		.4byte	0x4047
 11905 2fce DF2F0000 		.4byte	0x2fdf
 11906 2fd2 2D       		.uleb128 0x2d
 11907 2fd3 01       		.uleb128 0x1
 11908 2fd4 51       		.byte	0x51
 11909 2fd5 02       		.uleb128 0x2
 11910 2fd6 76       		.byte	0x76
 11911 2fd7 00       		.sleb128 0
 11912 2fd8 2D       		.uleb128 0x2d
 11913 2fd9 01       		.uleb128 0x1
 11914 2fda 50       		.byte	0x50
 11915 2fdb 02       		.uleb128 0x2
 11916 2fdc 74       		.byte	0x74
 11917 2fdd 00       		.sleb128 0
 11918 2fde 00       		.byte	0
 11919 2fdf 2E       		.uleb128 0x2e
 11920 2fe0 40130000 		.4byte	.LVL315
 11921 2fe4 47400000 		.4byte	0x4047
 11922 2fe8 F92F0000 		.4byte	0x2ff9
 11923 2fec 2D       		.uleb128 0x2d
 11924 2fed 01       		.uleb128 0x1
 11925 2fee 51       		.byte	0x51
 11926 2fef 02       		.uleb128 0x2
 11927 2ff0 76       		.byte	0x76
 11928 2ff1 00       		.sleb128 0
 11929 2ff2 2D       		.uleb128 0x2d
 11930 2ff3 01       		.uleb128 0x1
 11931 2ff4 50       		.byte	0x50
 11932 2ff5 02       		.uleb128 0x2
 11933 2ff6 74       		.byte	0x74
 11934 2ff7 00       		.sleb128 0
 11935 2ff8 00       		.byte	0
 11936 2ff9 2E       		.uleb128 0x2e
 11937 2ffa 58130000 		.4byte	.LVL316
 11938 2ffe 47400000 		.4byte	0x4047
 11939 3002 13300000 		.4byte	0x3013
 11940 3006 2D       		.uleb128 0x2d
 11941 3007 01       		.uleb128 0x1
 11942 3008 51       		.byte	0x51
 11943 3009 02       		.uleb128 0x2
 11944 300a 76       		.byte	0x76
 11945 300b 00       		.sleb128 0
 11946 300c 2D       		.uleb128 0x2d
 11947 300d 01       		.uleb128 0x1
 11948 300e 50       		.byte	0x50
ARM GAS  /tmp/ccq8Pe5l.s 			page 211


 11949 300f 02       		.uleb128 0x2
 11950 3010 74       		.byte	0x74
 11951 3011 00       		.sleb128 0
 11952 3012 00       		.byte	0
 11953 3013 2E       		.uleb128 0x2e
 11954 3014 70130000 		.4byte	.LVL317
 11955 3018 47400000 		.4byte	0x4047
 11956 301c 2D300000 		.4byte	0x302d
 11957 3020 2D       		.uleb128 0x2d
 11958 3021 01       		.uleb128 0x1
 11959 3022 51       		.byte	0x51
 11960 3023 02       		.uleb128 0x2
 11961 3024 76       		.byte	0x76
 11962 3025 00       		.sleb128 0
 11963 3026 2D       		.uleb128 0x2d
 11964 3027 01       		.uleb128 0x1
 11965 3028 50       		.byte	0x50
 11966 3029 02       		.uleb128 0x2
 11967 302a 74       		.byte	0x74
 11968 302b 00       		.sleb128 0
 11969 302c 00       		.byte	0
 11970 302d 2E       		.uleb128 0x2e
 11971 302e 9A130000 		.4byte	.LVL318
 11972 3032 47400000 		.4byte	0x4047
 11973 3036 47300000 		.4byte	0x3047
 11974 303a 2D       		.uleb128 0x2d
 11975 303b 01       		.uleb128 0x1
 11976 303c 51       		.byte	0x51
 11977 303d 02       		.uleb128 0x2
 11978 303e 76       		.byte	0x76
 11979 303f 00       		.sleb128 0
 11980 3040 2D       		.uleb128 0x2d
 11981 3041 01       		.uleb128 0x1
 11982 3042 50       		.byte	0x50
 11983 3043 02       		.uleb128 0x2
 11984 3044 74       		.byte	0x74
 11985 3045 00       		.sleb128 0
 11986 3046 00       		.byte	0
 11987 3047 2E       		.uleb128 0x2e
 11988 3048 B6130000 		.4byte	.LVL319
 11989 304c 0F3F0000 		.4byte	0x3f0f
 11990 3050 69300000 		.4byte	0x3069
 11991 3054 2D       		.uleb128 0x2d
 11992 3055 01       		.uleb128 0x1
 11993 3056 51       		.byte	0x51
 11994 3057 02       		.uleb128 0x2
 11995 3058 76       		.byte	0x76
 11996 3059 00       		.sleb128 0
 11997 305a 2D       		.uleb128 0x2d
 11998 305b 02       		.uleb128 0x2
 11999 305c 90       		.byte	0x90
 12000 305d 40       		.uleb128 0x40
 12001 305e 03       		.uleb128 0x3
 12002 305f F5       		.byte	0xf5
 12003 3060 52       		.uleb128 0x52
 12004 3061 25       		.uleb128 0x25
 12005 3062 2D       		.uleb128 0x2d
ARM GAS  /tmp/ccq8Pe5l.s 			page 212


 12006 3063 01       		.uleb128 0x1
 12007 3064 50       		.byte	0x50
 12008 3065 02       		.uleb128 0x2
 12009 3066 74       		.byte	0x74
 12010 3067 00       		.sleb128 0
 12011 3068 00       		.byte	0
 12012 3069 2E       		.uleb128 0x2e
 12013 306a C6130000 		.4byte	.LVL320
 12014 306e 0F3F0000 		.4byte	0x3f0f
 12015 3072 8B300000 		.4byte	0x308b
 12016 3076 2D       		.uleb128 0x2d
 12017 3077 01       		.uleb128 0x1
 12018 3078 51       		.byte	0x51
 12019 3079 02       		.uleb128 0x2
 12020 307a 76       		.byte	0x76
 12021 307b 00       		.sleb128 0
 12022 307c 2D       		.uleb128 0x2d
 12023 307d 02       		.uleb128 0x2
 12024 307e 90       		.byte	0x90
 12025 307f 40       		.uleb128 0x40
 12026 3080 03       		.uleb128 0x3
 12027 3081 F5       		.byte	0xf5
 12028 3082 52       		.uleb128 0x52
 12029 3083 25       		.uleb128 0x25
 12030 3084 2D       		.uleb128 0x2d
 12031 3085 01       		.uleb128 0x1
 12032 3086 50       		.byte	0x50
 12033 3087 02       		.uleb128 0x2
 12034 3088 74       		.byte	0x74
 12035 3089 00       		.sleb128 0
 12036 308a 00       		.byte	0
 12037 308b 2E       		.uleb128 0x2e
 12038 308c D6130000 		.4byte	.LVL321
 12039 3090 0F3F0000 		.4byte	0x3f0f
 12040 3094 AD300000 		.4byte	0x30ad
 12041 3098 2D       		.uleb128 0x2d
 12042 3099 01       		.uleb128 0x1
 12043 309a 51       		.byte	0x51
 12044 309b 02       		.uleb128 0x2
 12045 309c 76       		.byte	0x76
 12046 309d 00       		.sleb128 0
 12047 309e 2D       		.uleb128 0x2d
 12048 309f 02       		.uleb128 0x2
 12049 30a0 90       		.byte	0x90
 12050 30a1 40       		.uleb128 0x40
 12051 30a2 03       		.uleb128 0x3
 12052 30a3 F5       		.byte	0xf5
 12053 30a4 50       		.uleb128 0x50
 12054 30a5 25       		.uleb128 0x25
 12055 30a6 2D       		.uleb128 0x2d
 12056 30a7 01       		.uleb128 0x1
 12057 30a8 50       		.byte	0x50
 12058 30a9 02       		.uleb128 0x2
 12059 30aa 74       		.byte	0x74
 12060 30ab 00       		.sleb128 0
 12061 30ac 00       		.byte	0
 12062 30ad 2E       		.uleb128 0x2e
ARM GAS  /tmp/ccq8Pe5l.s 			page 213


 12063 30ae E6130000 		.4byte	.LVL322
 12064 30b2 0F3F0000 		.4byte	0x3f0f
 12065 30b6 CF300000 		.4byte	0x30cf
 12066 30ba 2D       		.uleb128 0x2d
 12067 30bb 01       		.uleb128 0x1
 12068 30bc 51       		.byte	0x51
 12069 30bd 02       		.uleb128 0x2
 12070 30be 76       		.byte	0x76
 12071 30bf 00       		.sleb128 0
 12072 30c0 2D       		.uleb128 0x2d
 12073 30c1 02       		.uleb128 0x2
 12074 30c2 90       		.byte	0x90
 12075 30c3 40       		.uleb128 0x40
 12076 30c4 03       		.uleb128 0x3
 12077 30c5 F5       		.byte	0xf5
 12078 30c6 51       		.uleb128 0x51
 12079 30c7 25       		.uleb128 0x25
 12080 30c8 2D       		.uleb128 0x2d
 12081 30c9 01       		.uleb128 0x1
 12082 30ca 50       		.byte	0x50
 12083 30cb 02       		.uleb128 0x2
 12084 30cc 74       		.byte	0x74
 12085 30cd 00       		.sleb128 0
 12086 30ce 00       		.byte	0
 12087 30cf 2E       		.uleb128 0x2e
 12088 30d0 08140000 		.4byte	.LVL323
 12089 30d4 0F3F0000 		.4byte	0x3f0f
 12090 30d8 F1300000 		.4byte	0x30f1
 12091 30dc 2D       		.uleb128 0x2d
 12092 30dd 01       		.uleb128 0x1
 12093 30de 51       		.byte	0x51
 12094 30df 02       		.uleb128 0x2
 12095 30e0 76       		.byte	0x76
 12096 30e1 00       		.sleb128 0
 12097 30e2 2D       		.uleb128 0x2d
 12098 30e3 02       		.uleb128 0x2
 12099 30e4 90       		.byte	0x90
 12100 30e5 40       		.uleb128 0x40
 12101 30e6 03       		.uleb128 0x3
 12102 30e7 F5       		.byte	0xf5
 12103 30e8 50       		.uleb128 0x50
 12104 30e9 25       		.uleb128 0x25
 12105 30ea 2D       		.uleb128 0x2d
 12106 30eb 01       		.uleb128 0x1
 12107 30ec 50       		.byte	0x50
 12108 30ed 02       		.uleb128 0x2
 12109 30ee 74       		.byte	0x74
 12110 30ef 00       		.sleb128 0
 12111 30f0 00       		.byte	0
 12112 30f1 2E       		.uleb128 0x2e
 12113 30f2 18140000 		.4byte	.LVL324
 12114 30f6 0F3F0000 		.4byte	0x3f0f
 12115 30fa 13310000 		.4byte	0x3113
 12116 30fe 2D       		.uleb128 0x2d
 12117 30ff 01       		.uleb128 0x1
 12118 3100 51       		.byte	0x51
 12119 3101 02       		.uleb128 0x2
ARM GAS  /tmp/ccq8Pe5l.s 			page 214


 12120 3102 76       		.byte	0x76
 12121 3103 00       		.sleb128 0
 12122 3104 2D       		.uleb128 0x2d
 12123 3105 02       		.uleb128 0x2
 12124 3106 90       		.byte	0x90
 12125 3107 40       		.uleb128 0x40
 12126 3108 03       		.uleb128 0x3
 12127 3109 F5       		.byte	0xf5
 12128 310a 50       		.uleb128 0x50
 12129 310b 25       		.uleb128 0x25
 12130 310c 2D       		.uleb128 0x2d
 12131 310d 01       		.uleb128 0x1
 12132 310e 50       		.byte	0x50
 12133 310f 02       		.uleb128 0x2
 12134 3110 74       		.byte	0x74
 12135 3111 00       		.sleb128 0
 12136 3112 00       		.byte	0
 12137 3113 2E       		.uleb128 0x2e
 12138 3114 34140000 		.4byte	.LVL325
 12139 3118 0F3F0000 		.4byte	0x3f0f
 12140 311c 35310000 		.4byte	0x3135
 12141 3120 2D       		.uleb128 0x2d
 12142 3121 01       		.uleb128 0x1
 12143 3122 51       		.byte	0x51
 12144 3123 02       		.uleb128 0x2
 12145 3124 76       		.byte	0x76
 12146 3125 00       		.sleb128 0
 12147 3126 2D       		.uleb128 0x2d
 12148 3127 02       		.uleb128 0x2
 12149 3128 90       		.byte	0x90
 12150 3129 40       		.uleb128 0x40
 12151 312a 03       		.uleb128 0x3
 12152 312b F5       		.byte	0xf5
 12153 312c 50       		.uleb128 0x50
 12154 312d 25       		.uleb128 0x25
 12155 312e 2D       		.uleb128 0x2d
 12156 312f 01       		.uleb128 0x1
 12157 3130 50       		.byte	0x50
 12158 3131 02       		.uleb128 0x2
 12159 3132 74       		.byte	0x74
 12160 3133 00       		.sleb128 0
 12161 3134 00       		.byte	0
 12162 3135 2E       		.uleb128 0x2e
 12163 3136 44140000 		.4byte	.LVL326
 12164 313a 0F3F0000 		.4byte	0x3f0f
 12165 313e 57310000 		.4byte	0x3157
 12166 3142 2D       		.uleb128 0x2d
 12167 3143 01       		.uleb128 0x1
 12168 3144 51       		.byte	0x51
 12169 3145 02       		.uleb128 0x2
 12170 3146 76       		.byte	0x76
 12171 3147 00       		.sleb128 0
 12172 3148 2D       		.uleb128 0x2d
 12173 3149 02       		.uleb128 0x2
 12174 314a 90       		.byte	0x90
 12175 314b 40       		.uleb128 0x40
 12176 314c 03       		.uleb128 0x3
ARM GAS  /tmp/ccq8Pe5l.s 			page 215


 12177 314d F5       		.byte	0xf5
 12178 314e 50       		.uleb128 0x50
 12179 314f 25       		.uleb128 0x25
 12180 3150 2D       		.uleb128 0x2d
 12181 3151 01       		.uleb128 0x1
 12182 3152 50       		.byte	0x50
 12183 3153 02       		.uleb128 0x2
 12184 3154 74       		.byte	0x74
 12185 3155 00       		.sleb128 0
 12186 3156 00       		.byte	0
 12187 3157 2E       		.uleb128 0x2e
 12188 3158 54140000 		.4byte	.LVL327
 12189 315c 0F3F0000 		.4byte	0x3f0f
 12190 3160 7D310000 		.4byte	0x317d
 12191 3164 2D       		.uleb128 0x2d
 12192 3165 01       		.uleb128 0x1
 12193 3166 51       		.byte	0x51
 12194 3167 02       		.uleb128 0x2
 12195 3168 76       		.byte	0x76
 12196 3169 00       		.sleb128 0
 12197 316a 2D       		.uleb128 0x2d
 12198 316b 02       		.uleb128 0x2
 12199 316c 90       		.byte	0x90
 12200 316d 40       		.uleb128 0x40
 12201 316e 07       		.uleb128 0x7
 12202 316f F4       		.byte	0xf4
 12203 3170 25       		.uleb128 0x25
 12204 3171 04       		.byte	0x4
 12205 3172 20BCBE4C 		.4byte	0x4cbebc20
 12206 3176 2D       		.uleb128 0x2d
 12207 3177 01       		.uleb128 0x1
 12208 3178 50       		.byte	0x50
 12209 3179 02       		.uleb128 0x2
 12210 317a 74       		.byte	0x74
 12211 317b 00       		.sleb128 0
 12212 317c 00       		.byte	0
 12213 317d 2E       		.uleb128 0x2e
 12214 317e 64140000 		.4byte	.LVL328
 12215 3182 0F3F0000 		.4byte	0x3f0f
 12216 3186 9F310000 		.4byte	0x319f
 12217 318a 2D       		.uleb128 0x2d
 12218 318b 01       		.uleb128 0x1
 12219 318c 51       		.byte	0x51
 12220 318d 02       		.uleb128 0x2
 12221 318e 76       		.byte	0x76
 12222 318f 00       		.sleb128 0
 12223 3190 2D       		.uleb128 0x2d
 12224 3191 02       		.uleb128 0x2
 12225 3192 90       		.byte	0x90
 12226 3193 40       		.uleb128 0x40
 12227 3194 03       		.uleb128 0x3
 12228 3195 F5       		.byte	0xf5
 12229 3196 52       		.uleb128 0x52
 12230 3197 25       		.uleb128 0x25
 12231 3198 2D       		.uleb128 0x2d
 12232 3199 01       		.uleb128 0x1
 12233 319a 50       		.byte	0x50
ARM GAS  /tmp/ccq8Pe5l.s 			page 216


 12234 319b 02       		.uleb128 0x2
 12235 319c 74       		.byte	0x74
 12236 319d 00       		.sleb128 0
 12237 319e 00       		.byte	0
 12238 319f 2E       		.uleb128 0x2e
 12239 31a0 74140000 		.4byte	.LVL329
 12240 31a4 0F3F0000 		.4byte	0x3f0f
 12241 31a8 C1310000 		.4byte	0x31c1
 12242 31ac 2D       		.uleb128 0x2d
 12243 31ad 01       		.uleb128 0x1
 12244 31ae 51       		.byte	0x51
 12245 31af 02       		.uleb128 0x2
 12246 31b0 76       		.byte	0x76
 12247 31b1 00       		.sleb128 0
 12248 31b2 2D       		.uleb128 0x2d
 12249 31b3 02       		.uleb128 0x2
 12250 31b4 90       		.byte	0x90
 12251 31b5 40       		.uleb128 0x40
 12252 31b6 03       		.uleb128 0x3
 12253 31b7 F5       		.byte	0xf5
 12254 31b8 52       		.uleb128 0x52
 12255 31b9 25       		.uleb128 0x25
 12256 31ba 2D       		.uleb128 0x2d
 12257 31bb 01       		.uleb128 0x1
 12258 31bc 50       		.byte	0x50
 12259 31bd 02       		.uleb128 0x2
 12260 31be 74       		.byte	0x74
 12261 31bf 00       		.sleb128 0
 12262 31c0 00       		.byte	0
 12263 31c1 2E       		.uleb128 0x2e
 12264 31c2 84140000 		.4byte	.LVL330
 12265 31c6 0F3F0000 		.4byte	0x3f0f
 12266 31ca E7310000 		.4byte	0x31e7
 12267 31ce 2D       		.uleb128 0x2d
 12268 31cf 01       		.uleb128 0x1
 12269 31d0 51       		.byte	0x51
 12270 31d1 02       		.uleb128 0x2
 12271 31d2 76       		.byte	0x76
 12272 31d3 00       		.sleb128 0
 12273 31d4 2D       		.uleb128 0x2d
 12274 31d5 02       		.uleb128 0x2
 12275 31d6 90       		.byte	0x90
 12276 31d7 40       		.uleb128 0x40
 12277 31d8 07       		.uleb128 0x7
 12278 31d9 F4       		.byte	0xf4
 12279 31da 25       		.uleb128 0x25
 12280 31db 04       		.byte	0x4
 12281 31dc 0000803F 		.4byte	0x3f800000
 12282 31e0 2D       		.uleb128 0x2d
 12283 31e1 01       		.uleb128 0x1
 12284 31e2 50       		.byte	0x50
 12285 31e3 02       		.uleb128 0x2
 12286 31e4 74       		.byte	0x74
 12287 31e5 00       		.sleb128 0
 12288 31e6 00       		.byte	0
 12289 31e7 2E       		.uleb128 0x2e
 12290 31e8 94140000 		.4byte	.LVL331
ARM GAS  /tmp/ccq8Pe5l.s 			page 217


 12291 31ec 0F3F0000 		.4byte	0x3f0f
 12292 31f0 09320000 		.4byte	0x3209
 12293 31f4 2D       		.uleb128 0x2d
 12294 31f5 01       		.uleb128 0x1
 12295 31f6 51       		.byte	0x51
 12296 31f7 02       		.uleb128 0x2
 12297 31f8 76       		.byte	0x76
 12298 31f9 00       		.sleb128 0
 12299 31fa 2D       		.uleb128 0x2d
 12300 31fb 02       		.uleb128 0x2
 12301 31fc 90       		.byte	0x90
 12302 31fd 40       		.uleb128 0x40
 12303 31fe 03       		.uleb128 0x3
 12304 31ff F5       		.byte	0xf5
 12305 3200 50       		.uleb128 0x50
 12306 3201 25       		.uleb128 0x25
 12307 3202 2D       		.uleb128 0x2d
 12308 3203 01       		.uleb128 0x1
 12309 3204 50       		.byte	0x50
 12310 3205 02       		.uleb128 0x2
 12311 3206 74       		.byte	0x74
 12312 3207 00       		.sleb128 0
 12313 3208 00       		.byte	0
 12314 3209 2E       		.uleb128 0x2e
 12315 320a A4140000 		.4byte	.LVL332
 12316 320e 0F3F0000 		.4byte	0x3f0f
 12317 3212 2B320000 		.4byte	0x322b
 12318 3216 2D       		.uleb128 0x2d
 12319 3217 01       		.uleb128 0x1
 12320 3218 51       		.byte	0x51
 12321 3219 02       		.uleb128 0x2
 12322 321a 76       		.byte	0x76
 12323 321b 00       		.sleb128 0
 12324 321c 2D       		.uleb128 0x2d
 12325 321d 02       		.uleb128 0x2
 12326 321e 90       		.byte	0x90
 12327 321f 40       		.uleb128 0x40
 12328 3220 03       		.uleb128 0x3
 12329 3221 F5       		.byte	0xf5
 12330 3222 50       		.uleb128 0x50
 12331 3223 25       		.uleb128 0x25
 12332 3224 2D       		.uleb128 0x2d
 12333 3225 01       		.uleb128 0x1
 12334 3226 50       		.byte	0x50
 12335 3227 02       		.uleb128 0x2
 12336 3228 74       		.byte	0x74
 12337 3229 00       		.sleb128 0
 12338 322a 00       		.byte	0
 12339 322b 2E       		.uleb128 0x2e
 12340 322c B4140000 		.4byte	.LVL333
 12341 3230 0F3F0000 		.4byte	0x3f0f
 12342 3234 4D320000 		.4byte	0x324d
 12343 3238 2D       		.uleb128 0x2d
 12344 3239 01       		.uleb128 0x1
 12345 323a 51       		.byte	0x51
 12346 323b 02       		.uleb128 0x2
 12347 323c 76       		.byte	0x76
ARM GAS  /tmp/ccq8Pe5l.s 			page 218


 12348 323d 00       		.sleb128 0
 12349 323e 2D       		.uleb128 0x2d
 12350 323f 02       		.uleb128 0x2
 12351 3240 90       		.byte	0x90
 12352 3241 40       		.uleb128 0x40
 12353 3242 03       		.uleb128 0x3
 12354 3243 F5       		.byte	0xf5
 12355 3244 50       		.uleb128 0x50
 12356 3245 25       		.uleb128 0x25
 12357 3246 2D       		.uleb128 0x2d
 12358 3247 01       		.uleb128 0x1
 12359 3248 50       		.byte	0x50
 12360 3249 02       		.uleb128 0x2
 12361 324a 74       		.byte	0x74
 12362 324b 00       		.sleb128 0
 12363 324c 00       		.byte	0
 12364 324d 2E       		.uleb128 0x2e
 12365 324e C4140000 		.4byte	.LVL334
 12366 3252 0F3F0000 		.4byte	0x3f0f
 12367 3256 6F320000 		.4byte	0x326f
 12368 325a 2D       		.uleb128 0x2d
 12369 325b 01       		.uleb128 0x1
 12370 325c 51       		.byte	0x51
 12371 325d 02       		.uleb128 0x2
 12372 325e 76       		.byte	0x76
 12373 325f 00       		.sleb128 0
 12374 3260 2D       		.uleb128 0x2d
 12375 3261 02       		.uleb128 0x2
 12376 3262 90       		.byte	0x90
 12377 3263 40       		.uleb128 0x40
 12378 3264 03       		.uleb128 0x3
 12379 3265 F5       		.byte	0xf5
 12380 3266 50       		.uleb128 0x50
 12381 3267 25       		.uleb128 0x25
 12382 3268 2D       		.uleb128 0x2d
 12383 3269 01       		.uleb128 0x1
 12384 326a 50       		.byte	0x50
 12385 326b 02       		.uleb128 0x2
 12386 326c 74       		.byte	0x74
 12387 326d 00       		.sleb128 0
 12388 326e 00       		.byte	0
 12389 326f 2E       		.uleb128 0x2e
 12390 3270 D4140000 		.4byte	.LVL335
 12391 3274 0F3F0000 		.4byte	0x3f0f
 12392 3278 91320000 		.4byte	0x3291
 12393 327c 2D       		.uleb128 0x2d
 12394 327d 01       		.uleb128 0x1
 12395 327e 51       		.byte	0x51
 12396 327f 02       		.uleb128 0x2
 12397 3280 76       		.byte	0x76
 12398 3281 00       		.sleb128 0
 12399 3282 2D       		.uleb128 0x2d
 12400 3283 02       		.uleb128 0x2
 12401 3284 90       		.byte	0x90
 12402 3285 40       		.uleb128 0x40
 12403 3286 03       		.uleb128 0x3
 12404 3287 F5       		.byte	0xf5
ARM GAS  /tmp/ccq8Pe5l.s 			page 219


 12405 3288 50       		.uleb128 0x50
 12406 3289 25       		.uleb128 0x25
 12407 328a 2D       		.uleb128 0x2d
 12408 328b 01       		.uleb128 0x1
 12409 328c 50       		.byte	0x50
 12410 328d 02       		.uleb128 0x2
 12411 328e 74       		.byte	0x74
 12412 328f 00       		.sleb128 0
 12413 3290 00       		.byte	0
 12414 3291 2E       		.uleb128 0x2e
 12415 3292 E4140000 		.4byte	.LVL336
 12416 3296 0F3F0000 		.4byte	0x3f0f
 12417 329a B3320000 		.4byte	0x32b3
 12418 329e 2D       		.uleb128 0x2d
 12419 329f 01       		.uleb128 0x1
 12420 32a0 51       		.byte	0x51
 12421 32a1 02       		.uleb128 0x2
 12422 32a2 76       		.byte	0x76
 12423 32a3 00       		.sleb128 0
 12424 32a4 2D       		.uleb128 0x2d
 12425 32a5 02       		.uleb128 0x2
 12426 32a6 90       		.byte	0x90
 12427 32a7 40       		.uleb128 0x40
 12428 32a8 03       		.uleb128 0x3
 12429 32a9 F5       		.byte	0xf5
 12430 32aa 50       		.uleb128 0x50
 12431 32ab 25       		.uleb128 0x25
 12432 32ac 2D       		.uleb128 0x2d
 12433 32ad 01       		.uleb128 0x1
 12434 32ae 50       		.byte	0x50
 12435 32af 02       		.uleb128 0x2
 12436 32b0 74       		.byte	0x74
 12437 32b1 00       		.sleb128 0
 12438 32b2 00       		.byte	0
 12439 32b3 2E       		.uleb128 0x2e
 12440 32b4 F4140000 		.4byte	.LVL337
 12441 32b8 0F3F0000 		.4byte	0x3f0f
 12442 32bc D5320000 		.4byte	0x32d5
 12443 32c0 2D       		.uleb128 0x2d
 12444 32c1 01       		.uleb128 0x1
 12445 32c2 51       		.byte	0x51
 12446 32c3 02       		.uleb128 0x2
 12447 32c4 76       		.byte	0x76
 12448 32c5 00       		.sleb128 0
 12449 32c6 2D       		.uleb128 0x2d
 12450 32c7 02       		.uleb128 0x2
 12451 32c8 90       		.byte	0x90
 12452 32c9 40       		.uleb128 0x40
 12453 32ca 03       		.uleb128 0x3
 12454 32cb F5       		.byte	0xf5
 12455 32cc 50       		.uleb128 0x50
 12456 32cd 25       		.uleb128 0x25
 12457 32ce 2D       		.uleb128 0x2d
 12458 32cf 01       		.uleb128 0x1
 12459 32d0 50       		.byte	0x50
 12460 32d1 02       		.uleb128 0x2
 12461 32d2 74       		.byte	0x74
ARM GAS  /tmp/ccq8Pe5l.s 			page 220


 12462 32d3 00       		.sleb128 0
 12463 32d4 00       		.byte	0
 12464 32d5 2E       		.uleb128 0x2e
 12465 32d6 2A150000 		.4byte	.LVL338
 12466 32da 47400000 		.4byte	0x4047
 12467 32de EF320000 		.4byte	0x32ef
 12468 32e2 2D       		.uleb128 0x2d
 12469 32e3 01       		.uleb128 0x1
 12470 32e4 51       		.byte	0x51
 12471 32e5 02       		.uleb128 0x2
 12472 32e6 76       		.byte	0x76
 12473 32e7 00       		.sleb128 0
 12474 32e8 2D       		.uleb128 0x2d
 12475 32e9 01       		.uleb128 0x1
 12476 32ea 50       		.byte	0x50
 12477 32eb 02       		.uleb128 0x2
 12478 32ec 74       		.byte	0x74
 12479 32ed 00       		.sleb128 0
 12480 32ee 00       		.byte	0
 12481 32ef 2E       		.uleb128 0x2e
 12482 32f0 42150000 		.4byte	.LVL339
 12483 32f4 47400000 		.4byte	0x4047
 12484 32f8 09330000 		.4byte	0x3309
 12485 32fc 2D       		.uleb128 0x2d
 12486 32fd 01       		.uleb128 0x1
 12487 32fe 51       		.byte	0x51
 12488 32ff 02       		.uleb128 0x2
 12489 3300 76       		.byte	0x76
 12490 3301 00       		.sleb128 0
 12491 3302 2D       		.uleb128 0x2d
 12492 3303 01       		.uleb128 0x1
 12493 3304 50       		.byte	0x50
 12494 3305 02       		.uleb128 0x2
 12495 3306 74       		.byte	0x74
 12496 3307 00       		.sleb128 0
 12497 3308 00       		.byte	0
 12498 3309 2E       		.uleb128 0x2e
 12499 330a 5A150000 		.4byte	.LVL340
 12500 330e 47400000 		.4byte	0x4047
 12501 3312 23330000 		.4byte	0x3323
 12502 3316 2D       		.uleb128 0x2d
 12503 3317 01       		.uleb128 0x1
 12504 3318 51       		.byte	0x51
 12505 3319 02       		.uleb128 0x2
 12506 331a 76       		.byte	0x76
 12507 331b 00       		.sleb128 0
 12508 331c 2D       		.uleb128 0x2d
 12509 331d 01       		.uleb128 0x1
 12510 331e 50       		.byte	0x50
 12511 331f 02       		.uleb128 0x2
 12512 3320 74       		.byte	0x74
 12513 3321 00       		.sleb128 0
 12514 3322 00       		.byte	0
 12515 3323 2E       		.uleb128 0x2e
 12516 3324 72150000 		.4byte	.LVL341
 12517 3328 47400000 		.4byte	0x4047
 12518 332c 3D330000 		.4byte	0x333d
ARM GAS  /tmp/ccq8Pe5l.s 			page 221


 12519 3330 2D       		.uleb128 0x2d
 12520 3331 01       		.uleb128 0x1
 12521 3332 51       		.byte	0x51
 12522 3333 02       		.uleb128 0x2
 12523 3334 76       		.byte	0x76
 12524 3335 00       		.sleb128 0
 12525 3336 2D       		.uleb128 0x2d
 12526 3337 01       		.uleb128 0x1
 12527 3338 50       		.byte	0x50
 12528 3339 02       		.uleb128 0x2
 12529 333a 74       		.byte	0x74
 12530 333b 00       		.sleb128 0
 12531 333c 00       		.byte	0
 12532 333d 2E       		.uleb128 0x2e
 12533 333e 8A150000 		.4byte	.LVL342
 12534 3342 47400000 		.4byte	0x4047
 12535 3346 57330000 		.4byte	0x3357
 12536 334a 2D       		.uleb128 0x2d
 12537 334b 01       		.uleb128 0x1
 12538 334c 51       		.byte	0x51
 12539 334d 02       		.uleb128 0x2
 12540 334e 76       		.byte	0x76
 12541 334f 00       		.sleb128 0
 12542 3350 2D       		.uleb128 0x2d
 12543 3351 01       		.uleb128 0x1
 12544 3352 50       		.byte	0x50
 12545 3353 02       		.uleb128 0x2
 12546 3354 74       		.byte	0x74
 12547 3355 00       		.sleb128 0
 12548 3356 00       		.byte	0
 12549 3357 2E       		.uleb128 0x2e
 12550 3358 A2150000 		.4byte	.LVL343
 12551 335c 47400000 		.4byte	0x4047
 12552 3360 71330000 		.4byte	0x3371
 12553 3364 2D       		.uleb128 0x2d
 12554 3365 01       		.uleb128 0x1
 12555 3366 51       		.byte	0x51
 12556 3367 02       		.uleb128 0x2
 12557 3368 76       		.byte	0x76
 12558 3369 00       		.sleb128 0
 12559 336a 2D       		.uleb128 0x2d
 12560 336b 01       		.uleb128 0x1
 12561 336c 50       		.byte	0x50
 12562 336d 02       		.uleb128 0x2
 12563 336e 74       		.byte	0x74
 12564 336f 00       		.sleb128 0
 12565 3370 00       		.byte	0
 12566 3371 2E       		.uleb128 0x2e
 12567 3372 BA150000 		.4byte	.LVL344
 12568 3376 47400000 		.4byte	0x4047
 12569 337a 8B330000 		.4byte	0x338b
 12570 337e 2D       		.uleb128 0x2d
 12571 337f 01       		.uleb128 0x1
 12572 3380 51       		.byte	0x51
 12573 3381 02       		.uleb128 0x2
 12574 3382 76       		.byte	0x76
 12575 3383 00       		.sleb128 0
ARM GAS  /tmp/ccq8Pe5l.s 			page 222


 12576 3384 2D       		.uleb128 0x2d
 12577 3385 01       		.uleb128 0x1
 12578 3386 50       		.byte	0x50
 12579 3387 02       		.uleb128 0x2
 12580 3388 74       		.byte	0x74
 12581 3389 00       		.sleb128 0
 12582 338a 00       		.byte	0
 12583 338b 2E       		.uleb128 0x2e
 12584 338c D2150000 		.4byte	.LVL345
 12585 3390 47400000 		.4byte	0x4047
 12586 3394 A5330000 		.4byte	0x33a5
 12587 3398 2D       		.uleb128 0x2d
 12588 3399 01       		.uleb128 0x1
 12589 339a 51       		.byte	0x51
 12590 339b 02       		.uleb128 0x2
 12591 339c 76       		.byte	0x76
 12592 339d 00       		.sleb128 0
 12593 339e 2D       		.uleb128 0x2d
 12594 339f 01       		.uleb128 0x1
 12595 33a0 50       		.byte	0x50
 12596 33a1 02       		.uleb128 0x2
 12597 33a2 74       		.byte	0x74
 12598 33a3 00       		.sleb128 0
 12599 33a4 00       		.byte	0
 12600 33a5 2E       		.uleb128 0x2e
 12601 33a6 EA150000 		.4byte	.LVL346
 12602 33aa 47400000 		.4byte	0x4047
 12603 33ae BF330000 		.4byte	0x33bf
 12604 33b2 2D       		.uleb128 0x2d
 12605 33b3 01       		.uleb128 0x1
 12606 33b4 51       		.byte	0x51
 12607 33b5 02       		.uleb128 0x2
 12608 33b6 76       		.byte	0x76
 12609 33b7 00       		.sleb128 0
 12610 33b8 2D       		.uleb128 0x2d
 12611 33b9 01       		.uleb128 0x1
 12612 33ba 50       		.byte	0x50
 12613 33bb 02       		.uleb128 0x2
 12614 33bc 74       		.byte	0x74
 12615 33bd 00       		.sleb128 0
 12616 33be 00       		.byte	0
 12617 33bf 2E       		.uleb128 0x2e
 12618 33c0 02160000 		.4byte	.LVL347
 12619 33c4 47400000 		.4byte	0x4047
 12620 33c8 D9330000 		.4byte	0x33d9
 12621 33cc 2D       		.uleb128 0x2d
 12622 33cd 01       		.uleb128 0x1
 12623 33ce 51       		.byte	0x51
 12624 33cf 02       		.uleb128 0x2
 12625 33d0 76       		.byte	0x76
 12626 33d1 00       		.sleb128 0
 12627 33d2 2D       		.uleb128 0x2d
 12628 33d3 01       		.uleb128 0x1
 12629 33d4 50       		.byte	0x50
 12630 33d5 02       		.uleb128 0x2
 12631 33d6 74       		.byte	0x74
 12632 33d7 00       		.sleb128 0
ARM GAS  /tmp/ccq8Pe5l.s 			page 223


 12633 33d8 00       		.byte	0
 12634 33d9 2E       		.uleb128 0x2e
 12635 33da 1A160000 		.4byte	.LVL348
 12636 33de 47400000 		.4byte	0x4047
 12637 33e2 F3330000 		.4byte	0x33f3
 12638 33e6 2D       		.uleb128 0x2d
 12639 33e7 01       		.uleb128 0x1
 12640 33e8 51       		.byte	0x51
 12641 33e9 02       		.uleb128 0x2
 12642 33ea 76       		.byte	0x76
 12643 33eb 00       		.sleb128 0
 12644 33ec 2D       		.uleb128 0x2d
 12645 33ed 01       		.uleb128 0x1
 12646 33ee 50       		.byte	0x50
 12647 33ef 02       		.uleb128 0x2
 12648 33f0 74       		.byte	0x74
 12649 33f1 00       		.sleb128 0
 12650 33f2 00       		.byte	0
 12651 33f3 2E       		.uleb128 0x2e
 12652 33f4 32160000 		.4byte	.LVL349
 12653 33f8 47400000 		.4byte	0x4047
 12654 33fc 0D340000 		.4byte	0x340d
 12655 3400 2D       		.uleb128 0x2d
 12656 3401 01       		.uleb128 0x1
 12657 3402 51       		.byte	0x51
 12658 3403 02       		.uleb128 0x2
 12659 3404 76       		.byte	0x76
 12660 3405 00       		.sleb128 0
 12661 3406 2D       		.uleb128 0x2d
 12662 3407 01       		.uleb128 0x1
 12663 3408 50       		.byte	0x50
 12664 3409 02       		.uleb128 0x2
 12665 340a 74       		.byte	0x74
 12666 340b 00       		.sleb128 0
 12667 340c 00       		.byte	0
 12668 340d 2E       		.uleb128 0x2e
 12669 340e 4E160000 		.4byte	.LVL350
 12670 3412 0F3F0000 		.4byte	0x3f0f
 12671 3416 2F340000 		.4byte	0x342f
 12672 341a 2D       		.uleb128 0x2d
 12673 341b 01       		.uleb128 0x1
 12674 341c 51       		.byte	0x51
 12675 341d 02       		.uleb128 0x2
 12676 341e 76       		.byte	0x76
 12677 341f 00       		.sleb128 0
 12678 3420 2D       		.uleb128 0x2d
 12679 3421 02       		.uleb128 0x2
 12680 3422 90       		.byte	0x90
 12681 3423 40       		.uleb128 0x40
 12682 3424 03       		.uleb128 0x3
 12683 3425 F5       		.byte	0xf5
 12684 3426 52       		.uleb128 0x52
 12685 3427 25       		.uleb128 0x25
 12686 3428 2D       		.uleb128 0x2d
 12687 3429 01       		.uleb128 0x1
 12688 342a 50       		.byte	0x50
 12689 342b 02       		.uleb128 0x2
ARM GAS  /tmp/ccq8Pe5l.s 			page 224


 12690 342c 74       		.byte	0x74
 12691 342d 00       		.sleb128 0
 12692 342e 00       		.byte	0
 12693 342f 2E       		.uleb128 0x2e
 12694 3430 5A160000 		.4byte	.LVL351
 12695 3434 47400000 		.4byte	0x4047
 12696 3438 49340000 		.4byte	0x3449
 12697 343c 2D       		.uleb128 0x2d
 12698 343d 01       		.uleb128 0x1
 12699 343e 51       		.byte	0x51
 12700 343f 02       		.uleb128 0x2
 12701 3440 76       		.byte	0x76
 12702 3441 00       		.sleb128 0
 12703 3442 2D       		.uleb128 0x2d
 12704 3443 01       		.uleb128 0x1
 12705 3444 50       		.byte	0x50
 12706 3445 02       		.uleb128 0x2
 12707 3446 74       		.byte	0x74
 12708 3447 00       		.sleb128 0
 12709 3448 00       		.byte	0
 12710 3449 2E       		.uleb128 0x2e
 12711 344a 6A160000 		.4byte	.LVL352
 12712 344e 0F3F0000 		.4byte	0x3f0f
 12713 3452 6B340000 		.4byte	0x346b
 12714 3456 2D       		.uleb128 0x2d
 12715 3457 01       		.uleb128 0x1
 12716 3458 51       		.byte	0x51
 12717 3459 02       		.uleb128 0x2
 12718 345a 76       		.byte	0x76
 12719 345b 00       		.sleb128 0
 12720 345c 2D       		.uleb128 0x2d
 12721 345d 02       		.uleb128 0x2
 12722 345e 90       		.byte	0x90
 12723 345f 40       		.uleb128 0x40
 12724 3460 03       		.uleb128 0x3
 12725 3461 F5       		.byte	0xf5
 12726 3462 51       		.uleb128 0x51
 12727 3463 25       		.uleb128 0x25
 12728 3464 2D       		.uleb128 0x2d
 12729 3465 01       		.uleb128 0x1
 12730 3466 50       		.byte	0x50
 12731 3467 02       		.uleb128 0x2
 12732 3468 74       		.byte	0x74
 12733 3469 00       		.sleb128 0
 12734 346a 00       		.byte	0
 12735 346b 2E       		.uleb128 0x2e
 12736 346c 7A160000 		.4byte	.LVL353
 12737 3470 0F3F0000 		.4byte	0x3f0f
 12738 3474 8D340000 		.4byte	0x348d
 12739 3478 2D       		.uleb128 0x2d
 12740 3479 01       		.uleb128 0x1
 12741 347a 51       		.byte	0x51
 12742 347b 02       		.uleb128 0x2
 12743 347c 76       		.byte	0x76
 12744 347d 00       		.sleb128 0
 12745 347e 2D       		.uleb128 0x2d
 12746 347f 02       		.uleb128 0x2
ARM GAS  /tmp/ccq8Pe5l.s 			page 225


 12747 3480 90       		.byte	0x90
 12748 3481 40       		.uleb128 0x40
 12749 3482 03       		.uleb128 0x3
 12750 3483 F5       		.byte	0xf5
 12751 3484 51       		.uleb128 0x51
 12752 3485 25       		.uleb128 0x25
 12753 3486 2D       		.uleb128 0x2d
 12754 3487 01       		.uleb128 0x1
 12755 3488 50       		.byte	0x50
 12756 3489 02       		.uleb128 0x2
 12757 348a 74       		.byte	0x74
 12758 348b 00       		.sleb128 0
 12759 348c 00       		.byte	0
 12760 348d 2E       		.uleb128 0x2e
 12761 348e 8A160000 		.4byte	.LVL354
 12762 3492 0F3F0000 		.4byte	0x3f0f
 12763 3496 AF340000 		.4byte	0x34af
 12764 349a 2D       		.uleb128 0x2d
 12765 349b 01       		.uleb128 0x1
 12766 349c 51       		.byte	0x51
 12767 349d 02       		.uleb128 0x2
 12768 349e 76       		.byte	0x76
 12769 349f 00       		.sleb128 0
 12770 34a0 2D       		.uleb128 0x2d
 12771 34a1 02       		.uleb128 0x2
 12772 34a2 90       		.byte	0x90
 12773 34a3 40       		.uleb128 0x40
 12774 34a4 03       		.uleb128 0x3
 12775 34a5 F5       		.byte	0xf5
 12776 34a6 51       		.uleb128 0x51
 12777 34a7 25       		.uleb128 0x25
 12778 34a8 2D       		.uleb128 0x2d
 12779 34a9 01       		.uleb128 0x1
 12780 34aa 50       		.byte	0x50
 12781 34ab 02       		.uleb128 0x2
 12782 34ac 74       		.byte	0x74
 12783 34ad 00       		.sleb128 0
 12784 34ae 00       		.byte	0
 12785 34af 2E       		.uleb128 0x2e
 12786 34b0 96160000 		.4byte	.LVL355
 12787 34b4 90410000 		.4byte	0x4190
 12788 34b8 C9340000 		.4byte	0x34c9
 12789 34bc 2D       		.uleb128 0x2d
 12790 34bd 01       		.uleb128 0x1
 12791 34be 51       		.byte	0x51
 12792 34bf 02       		.uleb128 0x2
 12793 34c0 76       		.byte	0x76
 12794 34c1 00       		.sleb128 0
 12795 34c2 2D       		.uleb128 0x2d
 12796 34c3 01       		.uleb128 0x1
 12797 34c4 50       		.byte	0x50
 12798 34c5 02       		.uleb128 0x2
 12799 34c6 74       		.byte	0x74
 12800 34c7 00       		.sleb128 0
 12801 34c8 00       		.byte	0
 12802 34c9 2E       		.uleb128 0x2e
 12803 34ca A0160000 		.4byte	.LVL356
ARM GAS  /tmp/ccq8Pe5l.s 			page 226


 12804 34ce A0420000 		.4byte	0x42a0
 12805 34d2 DD340000 		.4byte	0x34dd
 12806 34d6 2D       		.uleb128 0x2d
 12807 34d7 01       		.uleb128 0x1
 12808 34d8 50       		.byte	0x50
 12809 34d9 02       		.uleb128 0x2
 12810 34da 75       		.byte	0x75
 12811 34db 00       		.sleb128 0
 12812 34dc 00       		.byte	0
 12813 34dd 2E       		.uleb128 0x2e
 12814 34de A6160000 		.4byte	.LVL357
 12815 34e2 2E3F0000 		.4byte	0x3f2e
 12816 34e6 F1340000 		.4byte	0x34f1
 12817 34ea 2D       		.uleb128 0x2d
 12818 34eb 01       		.uleb128 0x1
 12819 34ec 50       		.byte	0x50
 12820 34ed 02       		.uleb128 0x2
 12821 34ee 75       		.byte	0x75
 12822 34ef 00       		.sleb128 0
 12823 34f0 00       		.byte	0
 12824 34f1 2E       		.uleb128 0x2e
 12825 34f2 CA160000 		.4byte	.LVL360
 12826 34f6 0F3F0000 		.4byte	0x3f0f
 12827 34fa 17350000 		.4byte	0x3517
 12828 34fe 2D       		.uleb128 0x2d
 12829 34ff 01       		.uleb128 0x1
 12830 3500 51       		.byte	0x51
 12831 3501 02       		.uleb128 0x2
 12832 3502 7D       		.byte	0x7d
 12833 3503 00       		.sleb128 0
 12834 3504 2D       		.uleb128 0x2d
 12835 3505 02       		.uleb128 0x2
 12836 3506 90       		.byte	0x90
 12837 3507 40       		.uleb128 0x40
 12838 3508 07       		.uleb128 0x7
 12839 3509 F4       		.byte	0xf4
 12840 350a 25       		.uleb128 0x25
 12841 350b 04       		.byte	0x4
 12842 350c 00007A44 		.4byte	0x447a0000
 12843 3510 2D       		.uleb128 0x2d
 12844 3511 01       		.uleb128 0x1
 12845 3512 50       		.byte	0x50
 12846 3513 02       		.uleb128 0x2
 12847 3514 74       		.byte	0x74
 12848 3515 00       		.sleb128 0
 12849 3516 00       		.byte	0
 12850 3517 2E       		.uleb128 0x2e
 12851 3518 DC160000 		.4byte	.LVL361
 12852 351c 0F3F0000 		.4byte	0x3f0f
 12853 3520 3D350000 		.4byte	0x353d
 12854 3524 2D       		.uleb128 0x2d
 12855 3525 01       		.uleb128 0x1
 12856 3526 51       		.byte	0x51
 12857 3527 02       		.uleb128 0x2
 12858 3528 7D       		.byte	0x7d
 12859 3529 00       		.sleb128 0
 12860 352a 2D       		.uleb128 0x2d
ARM GAS  /tmp/ccq8Pe5l.s 			page 227


 12861 352b 02       		.uleb128 0x2
 12862 352c 90       		.byte	0x90
 12863 352d 40       		.uleb128 0x40
 12864 352e 07       		.uleb128 0x7
 12865 352f F4       		.byte	0xf4
 12866 3530 25       		.uleb128 0x25
 12867 3531 04       		.byte	0x4
 12868 3532 00007A44 		.4byte	0x447a0000
 12869 3536 2D       		.uleb128 0x2d
 12870 3537 01       		.uleb128 0x1
 12871 3538 50       		.byte	0x50
 12872 3539 02       		.uleb128 0x2
 12873 353a 74       		.byte	0x74
 12874 353b 00       		.sleb128 0
 12875 353c 00       		.byte	0
 12876 353d 2E       		.uleb128 0x2e
 12877 353e EE160000 		.4byte	.LVL362
 12878 3542 0F3F0000 		.4byte	0x3f0f
 12879 3546 63350000 		.4byte	0x3563
 12880 354a 2D       		.uleb128 0x2d
 12881 354b 01       		.uleb128 0x1
 12882 354c 51       		.byte	0x51
 12883 354d 02       		.uleb128 0x2
 12884 354e 7D       		.byte	0x7d
 12885 354f 00       		.sleb128 0
 12886 3550 2D       		.uleb128 0x2d
 12887 3551 02       		.uleb128 0x2
 12888 3552 90       		.byte	0x90
 12889 3553 40       		.uleb128 0x40
 12890 3554 07       		.uleb128 0x7
 12891 3555 F4       		.byte	0xf4
 12892 3556 25       		.uleb128 0x25
 12893 3557 04       		.byte	0x4
 12894 3558 00007A44 		.4byte	0x447a0000
 12895 355c 2D       		.uleb128 0x2d
 12896 355d 01       		.uleb128 0x1
 12897 355e 50       		.byte	0x50
 12898 355f 02       		.uleb128 0x2
 12899 3560 74       		.byte	0x74
 12900 3561 00       		.sleb128 0
 12901 3562 00       		.byte	0
 12902 3563 2E       		.uleb128 0x2e
 12903 3564 FE160000 		.4byte	.LVL363
 12904 3568 B5420000 		.4byte	0x42b5
 12905 356c 76350000 		.4byte	0x3576
 12906 3570 2D       		.uleb128 0x2d
 12907 3571 01       		.uleb128 0x1
 12908 3572 51       		.byte	0x51
 12909 3573 01       		.uleb128 0x1
 12910 3574 31       		.byte	0x31
 12911 3575 00       		.byte	0
 12912 3576 2E       		.uleb128 0x2e
 12913 3577 18170000 		.4byte	.LVL366
 12914 357b CB420000 		.4byte	0x42cb
 12915 357f 91350000 		.4byte	0x3591
 12916 3583 2D       		.uleb128 0x2d
 12917 3584 01       		.uleb128 0x1
ARM GAS  /tmp/ccq8Pe5l.s 			page 228


 12918 3585 51       		.byte	0x51
 12919 3586 03       		.uleb128 0x3
 12920 3587 91       		.byte	0x91
 12921 3588 A07E     		.sleb128 -224
 12922 358a 2D       		.uleb128 0x2d
 12923 358b 01       		.uleb128 0x1
 12924 358c 50       		.byte	0x50
 12925 358d 02       		.uleb128 0x2
 12926 358e 74       		.byte	0x74
 12927 358f 00       		.sleb128 0
 12928 3590 00       		.byte	0
 12929 3591 2E       		.uleb128 0x2e
 12930 3592 28170000 		.4byte	.LVL369
 12931 3596 E5420000 		.4byte	0x42e5
 12932 359a A5350000 		.4byte	0x35a5
 12933 359e 2D       		.uleb128 0x2d
 12934 359f 01       		.uleb128 0x1
 12935 35a0 50       		.byte	0x50
 12936 35a1 02       		.uleb128 0x2
 12937 35a2 75       		.byte	0x75
 12938 35a3 00       		.sleb128 0
 12939 35a4 00       		.byte	0
 12940 35a5 41       		.uleb128 0x41
 12941 35a6 4C170000 		.4byte	.LVL371
 12942 35aa 00430000 		.4byte	0x4300
 12943 35ae 2E       		.uleb128 0x2e
 12944 35af 56170000 		.4byte	.LVL372
 12945 35b3 EB3E0000 		.4byte	0x3eeb
 12946 35b7 C9350000 		.4byte	0x35c9
 12947 35bb 2D       		.uleb128 0x2d
 12948 35bc 01       		.uleb128 0x1
 12949 35bd 52       		.byte	0x52
 12950 35be 02       		.uleb128 0x2
 12951 35bf 08       		.byte	0x8
 12952 35c0 A0       		.byte	0xa0
 12953 35c1 2D       		.uleb128 0x2d
 12954 35c2 01       		.uleb128 0x1
 12955 35c3 50       		.byte	0x50
 12956 35c4 03       		.uleb128 0x3
 12957 35c5 91       		.byte	0x91
 12958 35c6 A87E     		.sleb128 -216
 12959 35c8 00       		.byte	0
 12960 35c9 2E       		.uleb128 0x2e
 12961 35ca 68170000 		.4byte	.LVL374
 12962 35ce 90410000 		.4byte	0x4190
 12963 35d2 E3350000 		.4byte	0x35e3
 12964 35d6 2D       		.uleb128 0x2d
 12965 35d7 01       		.uleb128 0x1
 12966 35d8 51       		.byte	0x51
 12967 35d9 02       		.uleb128 0x2
 12968 35da 7D       		.byte	0x7d
 12969 35db 00       		.sleb128 0
 12970 35dc 2D       		.uleb128 0x2d
 12971 35dd 01       		.uleb128 0x1
 12972 35de 50       		.byte	0x50
 12973 35df 02       		.uleb128 0x2
 12974 35e0 74       		.byte	0x74
ARM GAS  /tmp/ccq8Pe5l.s 			page 229


 12975 35e1 00       		.sleb128 0
 12976 35e2 00       		.byte	0
 12977 35e3 2E       		.uleb128 0x2e
 12978 35e4 72170000 		.4byte	.LVL375
 12979 35e8 47400000 		.4byte	0x4047
 12980 35ec FD350000 		.4byte	0x35fd
 12981 35f0 2D       		.uleb128 0x2d
 12982 35f1 01       		.uleb128 0x1
 12983 35f2 51       		.byte	0x51
 12984 35f3 02       		.uleb128 0x2
 12985 35f4 7D       		.byte	0x7d
 12986 35f5 00       		.sleb128 0
 12987 35f6 2D       		.uleb128 0x2d
 12988 35f7 01       		.uleb128 0x1
 12989 35f8 50       		.byte	0x50
 12990 35f9 02       		.uleb128 0x2
 12991 35fa 74       		.byte	0x74
 12992 35fb 00       		.sleb128 0
 12993 35fc 00       		.byte	0
 12994 35fd 2E       		.uleb128 0x2e
 12995 35fe A0170000 		.4byte	.LVL376
 12996 3602 CB420000 		.4byte	0x42cb
 12997 3606 17360000 		.4byte	0x3617
 12998 360a 2D       		.uleb128 0x2d
 12999 360b 01       		.uleb128 0x1
 13000 360c 51       		.byte	0x51
 13001 360d 02       		.uleb128 0x2
 13002 360e 7D       		.byte	0x7d
 13003 360f 00       		.sleb128 0
 13004 3610 2D       		.uleb128 0x2d
 13005 3611 01       		.uleb128 0x1
 13006 3612 50       		.byte	0x50
 13007 3613 02       		.uleb128 0x2
 13008 3614 74       		.byte	0x74
 13009 3615 00       		.sleb128 0
 13010 3616 00       		.byte	0
 13011 3617 2E       		.uleb128 0x2e
 13012 3618 BE170000 		.4byte	.LVL377
 13013 361c 47400000 		.4byte	0x4047
 13014 3620 31360000 		.4byte	0x3631
 13015 3624 2D       		.uleb128 0x2d
 13016 3625 01       		.uleb128 0x1
 13017 3626 51       		.byte	0x51
 13018 3627 02       		.uleb128 0x2
 13019 3628 7D       		.byte	0x7d
 13020 3629 00       		.sleb128 0
 13021 362a 2D       		.uleb128 0x2d
 13022 362b 01       		.uleb128 0x1
 13023 362c 50       		.byte	0x50
 13024 362d 02       		.uleb128 0x2
 13025 362e 74       		.byte	0x74
 13026 362f 00       		.sleb128 0
 13027 3630 00       		.byte	0
 13028 3631 2E       		.uleb128 0x2e
 13029 3632 D6170000 		.4byte	.LVL378
 13030 3636 47400000 		.4byte	0x4047
 13031 363a 4B360000 		.4byte	0x364b
ARM GAS  /tmp/ccq8Pe5l.s 			page 230


 13032 363e 2D       		.uleb128 0x2d
 13033 363f 01       		.uleb128 0x1
 13034 3640 51       		.byte	0x51
 13035 3641 02       		.uleb128 0x2
 13036 3642 7D       		.byte	0x7d
 13037 3643 00       		.sleb128 0
 13038 3644 2D       		.uleb128 0x2d
 13039 3645 01       		.uleb128 0x1
 13040 3646 50       		.byte	0x50
 13041 3647 02       		.uleb128 0x2
 13042 3648 74       		.byte	0x74
 13043 3649 00       		.sleb128 0
 13044 364a 00       		.byte	0
 13045 364b 2E       		.uleb128 0x2e
 13046 364c EE170000 		.4byte	.LVL379
 13047 3650 47400000 		.4byte	0x4047
 13048 3654 65360000 		.4byte	0x3665
 13049 3658 2D       		.uleb128 0x2d
 13050 3659 01       		.uleb128 0x1
 13051 365a 51       		.byte	0x51
 13052 365b 02       		.uleb128 0x2
 13053 365c 7D       		.byte	0x7d
 13054 365d 00       		.sleb128 0
 13055 365e 2D       		.uleb128 0x2d
 13056 365f 01       		.uleb128 0x1
 13057 3660 50       		.byte	0x50
 13058 3661 02       		.uleb128 0x2
 13059 3662 74       		.byte	0x74
 13060 3663 00       		.sleb128 0
 13061 3664 00       		.byte	0
 13062 3665 2E       		.uleb128 0x2e
 13063 3666 06180000 		.4byte	.LVL380
 13064 366a 47400000 		.4byte	0x4047
 13065 366e 7F360000 		.4byte	0x367f
 13066 3672 2D       		.uleb128 0x2d
 13067 3673 01       		.uleb128 0x1
 13068 3674 51       		.byte	0x51
 13069 3675 02       		.uleb128 0x2
 13070 3676 7D       		.byte	0x7d
 13071 3677 00       		.sleb128 0
 13072 3678 2D       		.uleb128 0x2d
 13073 3679 01       		.uleb128 0x1
 13074 367a 50       		.byte	0x50
 13075 367b 02       		.uleb128 0x2
 13076 367c 74       		.byte	0x74
 13077 367d 00       		.sleb128 0
 13078 367e 00       		.byte	0
 13079 367f 2E       		.uleb128 0x2e
 13080 3680 3E180000 		.4byte	.LVL381
 13081 3684 47400000 		.4byte	0x4047
 13082 3688 99360000 		.4byte	0x3699
 13083 368c 2D       		.uleb128 0x2d
 13084 368d 01       		.uleb128 0x1
 13085 368e 51       		.byte	0x51
 13086 368f 02       		.uleb128 0x2
 13087 3690 7D       		.byte	0x7d
 13088 3691 00       		.sleb128 0
ARM GAS  /tmp/ccq8Pe5l.s 			page 231


 13089 3692 2D       		.uleb128 0x2d
 13090 3693 01       		.uleb128 0x1
 13091 3694 50       		.byte	0x50
 13092 3695 02       		.uleb128 0x2
 13093 3696 74       		.byte	0x74
 13094 3697 00       		.sleb128 0
 13095 3698 00       		.byte	0
 13096 3699 2E       		.uleb128 0x2e
 13097 369a 56180000 		.4byte	.LVL382
 13098 369e 47400000 		.4byte	0x4047
 13099 36a2 B3360000 		.4byte	0x36b3
 13100 36a6 2D       		.uleb128 0x2d
 13101 36a7 01       		.uleb128 0x1
 13102 36a8 51       		.byte	0x51
 13103 36a9 02       		.uleb128 0x2
 13104 36aa 7D       		.byte	0x7d
 13105 36ab 00       		.sleb128 0
 13106 36ac 2D       		.uleb128 0x2d
 13107 36ad 01       		.uleb128 0x1
 13108 36ae 50       		.byte	0x50
 13109 36af 02       		.uleb128 0x2
 13110 36b0 74       		.byte	0x74
 13111 36b1 00       		.sleb128 0
 13112 36b2 00       		.byte	0
 13113 36b3 2E       		.uleb128 0x2e
 13114 36b4 8E180000 		.4byte	.LVL383
 13115 36b8 47400000 		.4byte	0x4047
 13116 36bc CD360000 		.4byte	0x36cd
 13117 36c0 2D       		.uleb128 0x2d
 13118 36c1 01       		.uleb128 0x1
 13119 36c2 51       		.byte	0x51
 13120 36c3 02       		.uleb128 0x2
 13121 36c4 7D       		.byte	0x7d
 13122 36c5 00       		.sleb128 0
 13123 36c6 2D       		.uleb128 0x2d
 13124 36c7 01       		.uleb128 0x1
 13125 36c8 50       		.byte	0x50
 13126 36c9 02       		.uleb128 0x2
 13127 36ca 74       		.byte	0x74
 13128 36cb 00       		.sleb128 0
 13129 36cc 00       		.byte	0
 13130 36cd 2E       		.uleb128 0x2e
 13131 36ce B2180000 		.4byte	.LVL384
 13132 36d2 47400000 		.4byte	0x4047
 13133 36d6 E7360000 		.4byte	0x36e7
 13134 36da 2D       		.uleb128 0x2d
 13135 36db 01       		.uleb128 0x1
 13136 36dc 51       		.byte	0x51
 13137 36dd 02       		.uleb128 0x2
 13138 36de 7D       		.byte	0x7d
 13139 36df 00       		.sleb128 0
 13140 36e0 2D       		.uleb128 0x2d
 13141 36e1 01       		.uleb128 0x1
 13142 36e2 50       		.byte	0x50
 13143 36e3 02       		.uleb128 0x2
 13144 36e4 74       		.byte	0x74
 13145 36e5 00       		.sleb128 0
ARM GAS  /tmp/ccq8Pe5l.s 			page 232


 13146 36e6 00       		.byte	0
 13147 36e7 2E       		.uleb128 0x2e
 13148 36e8 CA180000 		.4byte	.LVL385
 13149 36ec 47400000 		.4byte	0x4047
 13150 36f0 01370000 		.4byte	0x3701
 13151 36f4 2D       		.uleb128 0x2d
 13152 36f5 01       		.uleb128 0x1
 13153 36f6 51       		.byte	0x51
 13154 36f7 02       		.uleb128 0x2
 13155 36f8 7D       		.byte	0x7d
 13156 36f9 00       		.sleb128 0
 13157 36fa 2D       		.uleb128 0x2d
 13158 36fb 01       		.uleb128 0x1
 13159 36fc 50       		.byte	0x50
 13160 36fd 02       		.uleb128 0x2
 13161 36fe 74       		.byte	0x74
 13162 36ff 00       		.sleb128 0
 13163 3700 00       		.byte	0
 13164 3701 2E       		.uleb128 0x2e
 13165 3702 E2180000 		.4byte	.LVL386
 13166 3706 47400000 		.4byte	0x4047
 13167 370a 1B370000 		.4byte	0x371b
 13168 370e 2D       		.uleb128 0x2d
 13169 370f 01       		.uleb128 0x1
 13170 3710 51       		.byte	0x51
 13171 3711 02       		.uleb128 0x2
 13172 3712 7D       		.byte	0x7d
 13173 3713 00       		.sleb128 0
 13174 3714 2D       		.uleb128 0x2d
 13175 3715 01       		.uleb128 0x1
 13176 3716 50       		.byte	0x50
 13177 3717 02       		.uleb128 0x2
 13178 3718 74       		.byte	0x74
 13179 3719 00       		.sleb128 0
 13180 371a 00       		.byte	0
 13181 371b 2E       		.uleb128 0x2e
 13182 371c 4A190000 		.4byte	.LVL387
 13183 3720 47400000 		.4byte	0x4047
 13184 3724 35370000 		.4byte	0x3735
 13185 3728 2D       		.uleb128 0x2d
 13186 3729 01       		.uleb128 0x1
 13187 372a 51       		.byte	0x51
 13188 372b 02       		.uleb128 0x2
 13189 372c 7D       		.byte	0x7d
 13190 372d 00       		.sleb128 0
 13191 372e 2D       		.uleb128 0x2d
 13192 372f 01       		.uleb128 0x1
 13193 3730 50       		.byte	0x50
 13194 3731 02       		.uleb128 0x2
 13195 3732 74       		.byte	0x74
 13196 3733 00       		.sleb128 0
 13197 3734 00       		.byte	0
 13198 3735 2E       		.uleb128 0x2e
 13199 3736 62190000 		.4byte	.LVL388
 13200 373a 47400000 		.4byte	0x4047
 13201 373e 4F370000 		.4byte	0x374f
 13202 3742 2D       		.uleb128 0x2d
ARM GAS  /tmp/ccq8Pe5l.s 			page 233


 13203 3743 01       		.uleb128 0x1
 13204 3744 51       		.byte	0x51
 13205 3745 02       		.uleb128 0x2
 13206 3746 7D       		.byte	0x7d
 13207 3747 00       		.sleb128 0
 13208 3748 2D       		.uleb128 0x2d
 13209 3749 01       		.uleb128 0x1
 13210 374a 50       		.byte	0x50
 13211 374b 02       		.uleb128 0x2
 13212 374c 74       		.byte	0x74
 13213 374d 00       		.sleb128 0
 13214 374e 00       		.byte	0
 13215 374f 2E       		.uleb128 0x2e
 13216 3750 9A190000 		.4byte	.LVL389
 13217 3754 47400000 		.4byte	0x4047
 13218 3758 69370000 		.4byte	0x3769
 13219 375c 2D       		.uleb128 0x2d
 13220 375d 01       		.uleb128 0x1
 13221 375e 51       		.byte	0x51
 13222 375f 02       		.uleb128 0x2
 13223 3760 7D       		.byte	0x7d
 13224 3761 00       		.sleb128 0
 13225 3762 2D       		.uleb128 0x2d
 13226 3763 01       		.uleb128 0x1
 13227 3764 50       		.byte	0x50
 13228 3765 02       		.uleb128 0x2
 13229 3766 74       		.byte	0x74
 13230 3767 00       		.sleb128 0
 13231 3768 00       		.byte	0
 13232 3769 2E       		.uleb128 0x2e
 13233 376a B2190000 		.4byte	.LVL390
 13234 376e CB420000 		.4byte	0x42cb
 13235 3772 83370000 		.4byte	0x3783
 13236 3776 2D       		.uleb128 0x2d
 13237 3777 01       		.uleb128 0x1
 13238 3778 51       		.byte	0x51
 13239 3779 02       		.uleb128 0x2
 13240 377a 7D       		.byte	0x7d
 13241 377b 00       		.sleb128 0
 13242 377c 2D       		.uleb128 0x2d
 13243 377d 01       		.uleb128 0x1
 13244 377e 50       		.byte	0x50
 13245 377f 02       		.uleb128 0x2
 13246 3780 74       		.byte	0x74
 13247 3781 00       		.sleb128 0
 13248 3782 00       		.byte	0
 13249 3783 2E       		.uleb128 0x2e
 13250 3784 BC190000 		.4byte	.LVL391
 13251 3788 90410000 		.4byte	0x4190
 13252 378c 9D370000 		.4byte	0x379d
 13253 3790 2D       		.uleb128 0x2d
 13254 3791 01       		.uleb128 0x1
 13255 3792 51       		.byte	0x51
 13256 3793 02       		.uleb128 0x2
 13257 3794 7D       		.byte	0x7d
 13258 3795 00       		.sleb128 0
 13259 3796 2D       		.uleb128 0x2d
ARM GAS  /tmp/ccq8Pe5l.s 			page 234


 13260 3797 01       		.uleb128 0x1
 13261 3798 50       		.byte	0x50
 13262 3799 02       		.uleb128 0x2
 13263 379a 74       		.byte	0x74
 13264 379b 00       		.sleb128 0
 13265 379c 00       		.byte	0
 13266 379d 2E       		.uleb128 0x2e
 13267 379e D6190000 		.4byte	.LVL392
 13268 37a2 0F3F0000 		.4byte	0x3f0f
 13269 37a6 BF370000 		.4byte	0x37bf
 13270 37aa 2D       		.uleb128 0x2d
 13271 37ab 01       		.uleb128 0x1
 13272 37ac 51       		.byte	0x51
 13273 37ad 02       		.uleb128 0x2
 13274 37ae 7D       		.byte	0x7d
 13275 37af 00       		.sleb128 0
 13276 37b0 2D       		.uleb128 0x2d
 13277 37b1 02       		.uleb128 0x2
 13278 37b2 90       		.byte	0x90
 13279 37b3 40       		.uleb128 0x40
 13280 37b4 03       		.uleb128 0x3
 13281 37b5 F5       		.byte	0xf5
 13282 37b6 50       		.uleb128 0x50
 13283 37b7 25       		.uleb128 0x25
 13284 37b8 2D       		.uleb128 0x2d
 13285 37b9 01       		.uleb128 0x1
 13286 37ba 50       		.byte	0x50
 13287 37bb 02       		.uleb128 0x2
 13288 37bc 74       		.byte	0x74
 13289 37bd 00       		.sleb128 0
 13290 37be 00       		.byte	0
 13291 37bf 2E       		.uleb128 0x2e
 13292 37c0 E6190000 		.4byte	.LVL393
 13293 37c4 0F3F0000 		.4byte	0x3f0f
 13294 37c8 E1370000 		.4byte	0x37e1
 13295 37cc 2D       		.uleb128 0x2d
 13296 37cd 01       		.uleb128 0x1
 13297 37ce 51       		.byte	0x51
 13298 37cf 02       		.uleb128 0x2
 13299 37d0 7D       		.byte	0x7d
 13300 37d1 00       		.sleb128 0
 13301 37d2 2D       		.uleb128 0x2d
 13302 37d3 02       		.uleb128 0x2
 13303 37d4 90       		.byte	0x90
 13304 37d5 40       		.uleb128 0x40
 13305 37d6 03       		.uleb128 0x3
 13306 37d7 F5       		.byte	0xf5
 13307 37d8 50       		.uleb128 0x50
 13308 37d9 25       		.uleb128 0x25
 13309 37da 2D       		.uleb128 0x2d
 13310 37db 01       		.uleb128 0x1
 13311 37dc 50       		.byte	0x50
 13312 37dd 02       		.uleb128 0x2
 13313 37de 74       		.byte	0x74
 13314 37df 00       		.sleb128 0
 13315 37e0 00       		.byte	0
 13316 37e1 2E       		.uleb128 0x2e
ARM GAS  /tmp/ccq8Pe5l.s 			page 235


 13317 37e2 F6190000 		.4byte	.LVL394
 13318 37e6 0F3F0000 		.4byte	0x3f0f
 13319 37ea 03380000 		.4byte	0x3803
 13320 37ee 2D       		.uleb128 0x2d
 13321 37ef 01       		.uleb128 0x1
 13322 37f0 51       		.byte	0x51
 13323 37f1 02       		.uleb128 0x2
 13324 37f2 7D       		.byte	0x7d
 13325 37f3 00       		.sleb128 0
 13326 37f4 2D       		.uleb128 0x2d
 13327 37f5 02       		.uleb128 0x2
 13328 37f6 90       		.byte	0x90
 13329 37f7 40       		.uleb128 0x40
 13330 37f8 03       		.uleb128 0x3
 13331 37f9 F5       		.byte	0xf5
 13332 37fa 50       		.uleb128 0x50
 13333 37fb 25       		.uleb128 0x25
 13334 37fc 2D       		.uleb128 0x2d
 13335 37fd 01       		.uleb128 0x1
 13336 37fe 50       		.byte	0x50
 13337 37ff 02       		.uleb128 0x2
 13338 3800 74       		.byte	0x74
 13339 3801 00       		.sleb128 0
 13340 3802 00       		.byte	0
 13341 3803 2E       		.uleb128 0x2e
 13342 3804 061A0000 		.4byte	.LVL395
 13343 3808 0F3F0000 		.4byte	0x3f0f
 13344 380c 25380000 		.4byte	0x3825
 13345 3810 2D       		.uleb128 0x2d
 13346 3811 01       		.uleb128 0x1
 13347 3812 51       		.byte	0x51
 13348 3813 02       		.uleb128 0x2
 13349 3814 7D       		.byte	0x7d
 13350 3815 00       		.sleb128 0
 13351 3816 2D       		.uleb128 0x2d
 13352 3817 02       		.uleb128 0x2
 13353 3818 90       		.byte	0x90
 13354 3819 40       		.uleb128 0x40
 13355 381a 03       		.uleb128 0x3
 13356 381b F5       		.byte	0xf5
 13357 381c 50       		.uleb128 0x50
 13358 381d 25       		.uleb128 0x25
 13359 381e 2D       		.uleb128 0x2d
 13360 381f 01       		.uleb128 0x1
 13361 3820 50       		.byte	0x50
 13362 3821 02       		.uleb128 0x2
 13363 3822 74       		.byte	0x74
 13364 3823 00       		.sleb128 0
 13365 3824 00       		.byte	0
 13366 3825 2E       		.uleb128 0x2e
 13367 3826 161A0000 		.4byte	.LVL396
 13368 382a 0F3F0000 		.4byte	0x3f0f
 13369 382e 47380000 		.4byte	0x3847
 13370 3832 2D       		.uleb128 0x2d
 13371 3833 01       		.uleb128 0x1
 13372 3834 51       		.byte	0x51
 13373 3835 02       		.uleb128 0x2
ARM GAS  /tmp/ccq8Pe5l.s 			page 236


 13374 3836 7D       		.byte	0x7d
 13375 3837 00       		.sleb128 0
 13376 3838 2D       		.uleb128 0x2d
 13377 3839 02       		.uleb128 0x2
 13378 383a 90       		.byte	0x90
 13379 383b 40       		.uleb128 0x40
 13380 383c 03       		.uleb128 0x3
 13381 383d F5       		.byte	0xf5
 13382 383e 50       		.uleb128 0x50
 13383 383f 25       		.uleb128 0x25
 13384 3840 2D       		.uleb128 0x2d
 13385 3841 01       		.uleb128 0x1
 13386 3842 50       		.byte	0x50
 13387 3843 02       		.uleb128 0x2
 13388 3844 74       		.byte	0x74
 13389 3845 00       		.sleb128 0
 13390 3846 00       		.byte	0
 13391 3847 2E       		.uleb128 0x2e
 13392 3848 261A0000 		.4byte	.LVL397
 13393 384c 0F3F0000 		.4byte	0x3f0f
 13394 3850 69380000 		.4byte	0x3869
 13395 3854 2D       		.uleb128 0x2d
 13396 3855 01       		.uleb128 0x1
 13397 3856 51       		.byte	0x51
 13398 3857 02       		.uleb128 0x2
 13399 3858 7D       		.byte	0x7d
 13400 3859 00       		.sleb128 0
 13401 385a 2D       		.uleb128 0x2d
 13402 385b 02       		.uleb128 0x2
 13403 385c 90       		.byte	0x90
 13404 385d 40       		.uleb128 0x40
 13405 385e 03       		.uleb128 0x3
 13406 385f F5       		.byte	0xf5
 13407 3860 50       		.uleb128 0x50
 13408 3861 25       		.uleb128 0x25
 13409 3862 2D       		.uleb128 0x2d
 13410 3863 01       		.uleb128 0x1
 13411 3864 50       		.byte	0x50
 13412 3865 02       		.uleb128 0x2
 13413 3866 74       		.byte	0x74
 13414 3867 00       		.sleb128 0
 13415 3868 00       		.byte	0
 13416 3869 2E       		.uleb128 0x2e
 13417 386a 561A0000 		.4byte	.LVL398
 13418 386e 0F3F0000 		.4byte	0x3f0f
 13419 3872 8B380000 		.4byte	0x388b
 13420 3876 2D       		.uleb128 0x2d
 13421 3877 01       		.uleb128 0x1
 13422 3878 51       		.byte	0x51
 13423 3879 02       		.uleb128 0x2
 13424 387a 7D       		.byte	0x7d
 13425 387b 00       		.sleb128 0
 13426 387c 2D       		.uleb128 0x2d
 13427 387d 02       		.uleb128 0x2
 13428 387e 90       		.byte	0x90
 13429 387f 40       		.uleb128 0x40
 13430 3880 03       		.uleb128 0x3
ARM GAS  /tmp/ccq8Pe5l.s 			page 237


 13431 3881 F5       		.byte	0xf5
 13432 3882 50       		.uleb128 0x50
 13433 3883 25       		.uleb128 0x25
 13434 3884 2D       		.uleb128 0x2d
 13435 3885 01       		.uleb128 0x1
 13436 3886 50       		.byte	0x50
 13437 3887 02       		.uleb128 0x2
 13438 3888 74       		.byte	0x74
 13439 3889 00       		.sleb128 0
 13440 388a 00       		.byte	0
 13441 388b 2E       		.uleb128 0x2e
 13442 388c B01A0000 		.4byte	.LVL401
 13443 3890 16430000 		.4byte	0x4316
 13444 3894 A0380000 		.4byte	0x38a0
 13445 3898 2D       		.uleb128 0x2d
 13446 3899 01       		.uleb128 0x1
 13447 389a 50       		.byte	0x50
 13448 389b 03       		.uleb128 0x3
 13449 389c 91       		.byte	0x91
 13450 389d A87E     		.sleb128 -216
 13451 389f 00       		.byte	0
 13452 38a0 2E       		.uleb128 0x2e
 13453 38a1 B61A0000 		.4byte	.LVL402
 13454 38a5 2B430000 		.4byte	0x432b
 13455 38a9 B5380000 		.4byte	0x38b5
 13456 38ad 2D       		.uleb128 0x2d
 13457 38ae 01       		.uleb128 0x1
 13458 38af 50       		.byte	0x50
 13459 38b0 03       		.uleb128 0x3
 13460 38b1 91       		.byte	0x91
 13461 38b2 A87E     		.sleb128 -216
 13462 38b4 00       		.byte	0
 13463 38b5 41       		.uleb128 0x41
 13464 38b6 C01A0000 		.4byte	.LVL403
 13465 38ba 3C430000 		.4byte	0x433c
 13466 38be 41       		.uleb128 0x41
 13467 38bf EC1A0000 		.4byte	.LVL408
 13468 38c3 00430000 		.4byte	0x4300
 13469 38c7 2E       		.uleb128 0x2e
 13470 38c8 F61A0000 		.4byte	.LVL409
 13471 38cc EB3E0000 		.4byte	0x3eeb
 13472 38d0 E2380000 		.4byte	0x38e2
 13473 38d4 2D       		.uleb128 0x2d
 13474 38d5 01       		.uleb128 0x1
 13475 38d6 52       		.byte	0x52
 13476 38d7 02       		.uleb128 0x2
 13477 38d8 08       		.byte	0x8
 13478 38d9 A0       		.byte	0xa0
 13479 38da 2D       		.uleb128 0x2d
 13480 38db 01       		.uleb128 0x1
 13481 38dc 50       		.byte	0x50
 13482 38dd 03       		.uleb128 0x3
 13483 38de 91       		.byte	0x91
 13484 38df A87E     		.sleb128 -216
 13485 38e1 00       		.byte	0
 13486 38e2 41       		.uleb128 0x41
 13487 38e3 FE1A0000 		.4byte	.LVL411
ARM GAS  /tmp/ccq8Pe5l.s 			page 238


 13488 38e7 52430000 		.4byte	0x4352
 13489 38eb 41       		.uleb128 0x41
 13490 38ec 061B0000 		.4byte	.LVL413
 13491 38f0 D03E0000 		.4byte	0x3ed0
 13492 38f4 2F       		.uleb128 0x2f
 13493 38f5 121B0000 		.4byte	.LVL414
 13494 38f9 EB3E0000 		.4byte	0x3eeb
 13495 38fd 2D       		.uleb128 0x2d
 13496 38fe 01       		.uleb128 0x1
 13497 38ff 52       		.byte	0x52
 13498 3900 03       		.uleb128 0x3
 13499 3901 0A       		.byte	0xa
 13500 3902 3001     		.2byte	0x130
 13501 3904 2D       		.uleb128 0x2d
 13502 3905 01       		.uleb128 0x1
 13503 3906 50       		.byte	0x50
 13504 3907 05       		.uleb128 0x5
 13505 3908 03       		.byte	0x3
 13506 3909 00000000 		.4byte	.LANCHOR11
 13507 390d 00       		.byte	0
 13508 390e 00       		.byte	0
 13509 390f 42       		.uleb128 0x42
 13510 3910 64000000 		.4byte	.LASF419
 13511 3914 01       		.byte	0x1
 13512 3915 1703     		.2byte	0x317
 13513 3917 00000000 		.4byte	.LFB260
 13514 391b 44000000 		.4byte	.LFE260-.LFB260
 13515 391f 01       		.uleb128 0x1
 13516 3920 9C       		.byte	0x9c
 13517 3921 C3390000 		.4byte	0x39c3
 13518 3925 43       		.uleb128 0x43
 13519 3926 B7120000 		.4byte	.LASF420
 13520 392a 01       		.byte	0x1
 13521 392b 1703     		.2byte	0x317
 13522 392d 7D130000 		.4byte	0x137d
 13523 3931 02       		.uleb128 0x2
 13524 3932 91       		.byte	0x91
 13525 3933 70       		.sleb128 -16
 13526 3934 44       		.uleb128 0x44
 13527 3935 2A       		.uleb128 0x2a
 13528 3936 61726700 		.ascii	"arg\000"
 13529 393a 01       		.byte	0x1
 13530 393b 1803     		.2byte	0x318
 13531 393d B3130000 		.4byte	0x13b3
 13532 3941 02       		.uleb128 0x2
 13533 3942 91       		.byte	0x91
 13534 3943 64       		.sleb128 -28
 13535 3944 40       		.uleb128 0x40
 13536 3945 6C656E00 		.ascii	"len\000"
 13537 3949 01       		.byte	0x1
 13538 394a 1A03     		.2byte	0x31a
 13539 394c 2C000000 		.4byte	0x2c
 13540 3950 B4080000 		.4byte	.LLST45
 13541 3954 3F       		.uleb128 0x3f
 13542 3955 FA040000 		.4byte	.LASF421
 13543 3959 01       		.byte	0x1
 13544 395a 1B03     		.2byte	0x31b
ARM GAS  /tmp/ccq8Pe5l.s 			page 239


 13545 395c C3390000 		.4byte	0x39c3
 13546 3960 05       		.uleb128 0x5
 13547 3961 03       		.byte	0x3
 13548 3962 00000000 		.4byte	print_buffer.11235
 13549 3966 27       		.uleb128 0x27
 13550 3967 E2130000 		.4byte	0x13e2
 13551 396b 20000000 		.4byte	.LBB147
 13552 396f E0010000 		.4byte	.Ldebug_ranges0+0x1e0
 13553 3973 01       		.byte	0x1
 13554 3974 2203     		.2byte	0x322
 13555 3976 9C390000 		.4byte	0x399c
 13556 397a 2B       		.uleb128 0x2b
 13557 397b F9130000 		.4byte	0x13f9
 13558 397f C7080000 		.4byte	.LLST46
 13559 3983 2B       		.uleb128 0x2b
 13560 3984 EE130000 		.4byte	0x13ee
 13561 3988 DA080000 		.4byte	.LLST47
 13562 398c 3A       		.uleb128 0x3a
 13563 398d 32000000 		.4byte	.LVL420
 13564 3991 2D       		.uleb128 0x2d
 13565 3992 01       		.uleb128 0x1
 13566 3993 50       		.byte	0x50
 13567 3994 05       		.uleb128 0x5
 13568 3995 03       		.byte	0x3
 13569 3996 00000000 		.4byte	.LANCHOR15
 13570 399a 00       		.byte	0
 13571 399b 00       		.byte	0
 13572 399c 2F       		.uleb128 0x2f
 13573 399d 1C000000 		.4byte	.LVL416
 13574 39a1 59430000 		.4byte	0x4359
 13575 39a5 2D       		.uleb128 0x2d
 13576 39a6 01       		.uleb128 0x1
 13577 39a7 53       		.byte	0x53
 13578 39a8 02       		.uleb128 0x2
 13579 39a9 91       		.byte	0x91
 13580 39aa 54       		.sleb128 -44
 13581 39ab 2D       		.uleb128 0x2d
 13582 39ac 01       		.uleb128 0x1
 13583 39ad 52       		.byte	0x52
 13584 39ae 03       		.uleb128 0x3
 13585 39af 91       		.byte	0x91
 13586 39b0 50       		.sleb128 -48
 13587 39b1 06       		.byte	0x6
 13588 39b2 2D       		.uleb128 0x2d
 13589 39b3 01       		.uleb128 0x1
 13590 39b4 51       		.byte	0x51
 13591 39b5 02       		.uleb128 0x2
 13592 39b6 08       		.byte	0x8
 13593 39b7 FE       		.byte	0xfe
 13594 39b8 2D       		.uleb128 0x2d
 13595 39b9 01       		.uleb128 0x1
 13596 39ba 50       		.byte	0x50
 13597 39bb 05       		.uleb128 0x5
 13598 39bc 03       		.byte	0x3
 13599 39bd 01000000 		.4byte	.LANCHOR15+1
 13600 39c1 00       		.byte	0
 13601 39c2 00       		.byte	0
ARM GAS  /tmp/ccq8Pe5l.s 			page 240


 13602 39c3 15       		.uleb128 0x15
 13603 39c4 25070000 		.4byte	0x725
 13604 39c8 D3390000 		.4byte	0x39d3
 13605 39cc 16       		.uleb128 0x16
 13606 39cd B8040000 		.4byte	0x4b8
 13607 39d1 FE       		.byte	0xfe
 13608 39d2 00       		.byte	0
 13609 39d3 42       		.uleb128 0x42
 13610 39d4 4D1C0000 		.4byte	.LASF422
 13611 39d8 01       		.byte	0x1
 13612 39d9 2603     		.2byte	0x326
 13613 39db 00000000 		.4byte	.LFB261
 13614 39df 4C000000 		.4byte	.LFE261-.LFB261
 13615 39e3 01       		.uleb128 0x1
 13616 39e4 9C       		.byte	0x9c
 13617 39e5 793A0000 		.4byte	0x3a79
 13618 39e9 45       		.uleb128 0x45
 13619 39ea 42190000 		.4byte	.LASF398
 13620 39ee 01       		.byte	0x1
 13621 39ef 2603     		.2byte	0x326
 13622 39f1 68070000 		.4byte	0x768
 13623 39f5 F2080000 		.4byte	.LLST48
 13624 39f9 26       		.uleb128 0x26
 13625 39fa 6C656E00 		.ascii	"len\000"
 13626 39fe 01       		.byte	0x1
 13627 39ff 2603     		.2byte	0x326
 13628 3a01 2C000000 		.4byte	0x2c
 13629 3a05 1E090000 		.4byte	.LLST49
 13630 3a09 46       		.uleb128 0x46
 13631 3a0a 8C3A0000 		.4byte	0x3a8c
 13632 3a0e 1E090000 		.4byte	.LLST49
 13633 3a12 3F       		.uleb128 0x3f
 13634 3a13 F0150000 		.4byte	.LASF423
 13635 3a17 01       		.byte	0x1
 13636 3a18 2703     		.2byte	0x327
 13637 3a1a 793A0000 		.4byte	0x3a79
 13638 3a1e 02       		.uleb128 0x2
 13639 3a1f 76       		.byte	0x76
 13640 3a20 00       		.sleb128 0
 13641 3a21 3E       		.uleb128 0x3e
 13642 3a22 75040000 		.4byte	.LASF424
 13643 3a26 01       		.byte	0x1
 13644 3a27 2803     		.2byte	0x328
 13645 3a29 2C000000 		.4byte	0x2c
 13646 3a2d 58090000 		.4byte	.LLST51
 13647 3a31 47       		.uleb128 0x47
 13648 3a32 F8010000 		.4byte	.Ldebug_ranges0+0x1f8
 13649 3a36 493A0000 		.4byte	0x3a49
 13650 3a3a 40       		.uleb128 0x40
 13651 3a3b 6900     		.ascii	"i\000"
 13652 3a3d 01       		.byte	0x1
 13653 3a3e 2C03     		.2byte	0x32c
 13654 3a40 2C000000 		.4byte	0x2c
 13655 3a44 9C090000 		.4byte	.LLST52
 13656 3a48 00       		.byte	0
 13657 3a49 48       		.uleb128 0x48
 13658 3a4a E2130000 		.4byte	0x13e2
ARM GAS  /tmp/ccq8Pe5l.s 			page 241


 13659 3a4e 34000000 		.4byte	.LBB153
 13660 3a52 0A000000 		.4byte	.LBE153-.LBB153
 13661 3a56 01       		.byte	0x1
 13662 3a57 3003     		.2byte	0x330
 13663 3a59 2B       		.uleb128 0x2b
 13664 3a5a F9130000 		.4byte	0x13f9
 13665 3a5e F0090000 		.4byte	.LLST53
 13666 3a62 2B       		.uleb128 0x2b
 13667 3a63 EE130000 		.4byte	0x13ee
 13668 3a67 030A0000 		.4byte	.LLST54
 13669 3a6b 3A       		.uleb128 0x3a
 13670 3a6c 3E000000 		.4byte	.LVL428
 13671 3a70 2D       		.uleb128 0x2d
 13672 3a71 01       		.uleb128 0x1
 13673 3a72 50       		.byte	0x50
 13674 3a73 02       		.uleb128 0x2
 13675 3a74 76       		.byte	0x76
 13676 3a75 00       		.sleb128 0
 13677 3a76 00       		.byte	0
 13678 3a77 00       		.byte	0
 13679 3a78 00       		.byte	0
 13680 3a79 15       		.uleb128 0x15
 13681 3a7a CA000000 		.4byte	0xca
 13682 3a7e 8C3A0000 		.4byte	0x3a8c
 13683 3a82 49       		.uleb128 0x49
 13684 3a83 B8040000 		.4byte	0x4b8
 13685 3a87 093A0000 		.4byte	0x3a09
 13686 3a8b 00       		.byte	0
 13687 3a8c 14       		.uleb128 0x14
 13688 3a8d B8040000 		.4byte	0x4b8
 13689 3a91 42       		.uleb128 0x42
 13690 3a92 2E170000 		.4byte	.LASF425
 13691 3a96 01       		.byte	0x1
 13692 3a97 3303     		.2byte	0x333
 13693 3a99 00000000 		.4byte	.LFB262
 13694 3a9d 40000000 		.4byte	.LFE262-.LFB262
 13695 3aa1 01       		.uleb128 0x1
 13696 3aa2 9C       		.byte	0x9c
 13697 3aa3 363B0000 		.4byte	0x3b36
 13698 3aa7 45       		.uleb128 0x45
 13699 3aa8 49150000 		.4byte	.LASF426
 13700 3aac 01       		.byte	0x1
 13701 3aad 3303     		.2byte	0x333
 13702 3aaf 25000000 		.4byte	0x25
 13703 3ab3 160A0000 		.4byte	.LLST55
 13704 3ab7 3F       		.uleb128 0x3f
 13705 3ab8 F0150000 		.4byte	.LASF423
 13706 3abc 01       		.byte	0x1
 13707 3abd 3403     		.2byte	0x334
 13708 3abf 363B0000 		.4byte	0x3b36
 13709 3ac3 02       		.uleb128 0x2
 13710 3ac4 91       		.byte	0x91
 13711 3ac5 70       		.sleb128 -16
 13712 3ac6 3F       		.uleb128 0x3f
 13713 3ac7 75040000 		.4byte	.LASF424
 13714 3acb 01       		.byte	0x1
 13715 3acc 3503     		.2byte	0x335
ARM GAS  /tmp/ccq8Pe5l.s 			page 242


 13716 3ace EB000000 		.4byte	0xeb
 13717 3ad2 02       		.uleb128 0x2
 13718 3ad3 91       		.byte	0x91
 13719 3ad4 6C       		.sleb128 -20
 13720 3ad5 27       		.uleb128 0x27
 13721 3ad6 E2130000 		.4byte	0x13e2
 13722 3ada 28000000 		.4byte	.LBB156
 13723 3ade 18020000 		.4byte	.Ldebug_ranges0+0x218
 13724 3ae2 01       		.byte	0x1
 13725 3ae3 3A03     		.2byte	0x33a
 13726 3ae5 083B0000 		.4byte	0x3b08
 13727 3ae9 2B       		.uleb128 0x2b
 13728 3aea F9130000 		.4byte	0x13f9
 13729 3aee 3A0A0000 		.4byte	.LLST56
 13730 3af2 2B       		.uleb128 0x2b
 13731 3af3 EE130000 		.4byte	0x13ee
 13732 3af7 4D0A0000 		.4byte	.LLST57
 13733 3afb 3A       		.uleb128 0x3a
 13734 3afc 34000000 		.4byte	.LVL435
 13735 3b00 2D       		.uleb128 0x2d
 13736 3b01 01       		.uleb128 0x1
 13737 3b02 50       		.byte	0x50
 13738 3b03 02       		.uleb128 0x2
 13739 3b04 74       		.byte	0x74
 13740 3b05 00       		.sleb128 0
 13741 3b06 00       		.byte	0
 13742 3b07 00       		.byte	0
 13743 3b08 2F       		.uleb128 0x2f
 13744 3b09 28000000 		.4byte	.LVL433
 13745 3b0d 863E0000 		.4byte	0x3e86
 13746 3b11 2D       		.uleb128 0x2d
 13747 3b12 01       		.uleb128 0x1
 13748 3b13 52       		.byte	0x52
 13749 3b14 02       		.uleb128 0x2
 13750 3b15 91       		.byte	0x91
 13751 3b16 6C       		.sleb128 -20
 13752 3b17 2D       		.uleb128 0x2d
 13753 3b18 01       		.uleb128 0x1
 13754 3b19 51       		.byte	0x51
 13755 3b1a 13       		.uleb128 0x13
 13756 3b1b F3       		.byte	0xf3
 13757 3b1c 03       		.uleb128 0x3
 13758 3b1d F5       		.byte	0xf5
 13759 3b1e 40       		.uleb128 0x40
 13760 3b1f 25       		.uleb128 0x25
 13761 3b20 F4       		.byte	0xf4
 13762 3b21 25       		.uleb128 0x25
 13763 3b22 04       		.byte	0x4
 13764 3b23 0050C347 		.4byte	0x47c35000
 13765 3b27 1E       		.byte	0x1e
 13766 3b28 F7       		.byte	0xf7
 13767 3b29 25       		.uleb128 0x25
 13768 3b2a F7       		.byte	0xf7
 13769 3b2b 2C       		.uleb128 0x2c
 13770 3b2c F7       		.byte	0xf7
 13771 3b2d 00       		.uleb128 0
 13772 3b2e 2D       		.uleb128 0x2d
ARM GAS  /tmp/ccq8Pe5l.s 			page 243


 13773 3b2f 01       		.uleb128 0x1
 13774 3b30 50       		.byte	0x50
 13775 3b31 02       		.uleb128 0x2
 13776 3b32 74       		.byte	0x74
 13777 3b33 00       		.sleb128 0
 13778 3b34 00       		.byte	0
 13779 3b35 00       		.byte	0
 13780 3b36 15       		.uleb128 0x15
 13781 3b37 CA000000 		.4byte	0xca
 13782 3b3b 463B0000 		.4byte	0x3b46
 13783 3b3f 16       		.uleb128 0x16
 13784 3b40 B8040000 		.4byte	0x4b8
 13785 3b44 04       		.byte	0x4
 13786 3b45 00       		.byte	0
 13787 3b46 42       		.uleb128 0x42
 13788 3b47 6B080000 		.4byte	.LASF427
 13789 3b4b 01       		.byte	0x1
 13790 3b4c 3D03     		.2byte	0x33d
 13791 3b4e 00000000 		.4byte	.LFB263
 13792 3b52 7C000000 		.4byte	.LFE263-.LFB263
 13793 3b56 01       		.uleb128 0x1
 13794 3b57 9C       		.byte	0x9c
 13795 3b58 023C0000 		.4byte	0x3c02
 13796 3b5c 45       		.uleb128 0x45
 13797 3b5d 8F010000 		.4byte	.LASF428
 13798 3b61 01       		.byte	0x1
 13799 3b62 3D03     		.2byte	0x33d
 13800 3b64 023C0000 		.4byte	0x3c02
 13801 3b68 6F0A0000 		.4byte	.LLST58
 13802 3b6c 26       		.uleb128 0x26
 13803 3b6d 6C656E00 		.ascii	"len\000"
 13804 3b71 01       		.byte	0x1
 13805 3b72 3D03     		.2byte	0x33d
 13806 3b74 2C000000 		.4byte	0x2c
 13807 3b78 9B0A0000 		.4byte	.LLST59
 13808 3b7c 46       		.uleb128 0x46
 13809 3b7d 1B3C0000 		.4byte	0x3c1b
 13810 3b81 C40A0000 		.4byte	.LLST60
 13811 3b85 3E       		.uleb128 0x3e
 13812 3b86 F0150000 		.4byte	.LASF423
 13813 3b8a 01       		.byte	0x1
 13814 3b8b 4203     		.2byte	0x342
 13815 3b8d 083C0000 		.4byte	0x3c08
 13816 3b91 020B0000 		.4byte	.LLST61
 13817 3b95 3F       		.uleb128 0x3f
 13818 3b96 75040000 		.4byte	.LASF424
 13819 3b9a 01       		.byte	0x1
 13820 3b9b 4303     		.2byte	0x343
 13821 3b9d EB000000 		.4byte	0xeb
 13822 3ba1 02       		.uleb128 0x2
 13823 3ba2 91       		.byte	0x91
 13824 3ba3 54       		.sleb128 -44
 13825 3ba4 47       		.uleb128 0x47
 13826 3ba5 30020000 		.4byte	.Ldebug_ranges0+0x230
 13827 3ba9 D23B0000 		.4byte	0x3bd2
 13828 3bad 40       		.uleb128 0x40
 13829 3bae 6900     		.ascii	"i\000"
ARM GAS  /tmp/ccq8Pe5l.s 			page 244


 13830 3bb0 01       		.byte	0x1
 13831 3bb1 4703     		.2byte	0x347
 13832 3bb3 2C000000 		.4byte	0x2c
 13833 3bb7 160B0000 		.4byte	.LLST62
 13834 3bbb 2F       		.uleb128 0x2f
 13835 3bbc 52000000 		.4byte	.LVL445
 13836 3bc0 863E0000 		.4byte	0x3e86
 13837 3bc4 2D       		.uleb128 0x2d
 13838 3bc5 01       		.uleb128 0x1
 13839 3bc6 52       		.byte	0x52
 13840 3bc7 02       		.uleb128 0x2
 13841 3bc8 77       		.byte	0x77
 13842 3bc9 24       		.sleb128 36
 13843 3bca 2D       		.uleb128 0x2d
 13844 3bcb 01       		.uleb128 0x1
 13845 3bcc 50       		.byte	0x50
 13846 3bcd 02       		.uleb128 0x2
 13847 3bce 78       		.byte	0x78
 13848 3bcf 00       		.sleb128 0
 13849 3bd0 00       		.byte	0
 13850 3bd1 00       		.byte	0
 13851 3bd2 48       		.uleb128 0x48
 13852 3bd3 E2130000 		.4byte	0x13e2
 13853 3bd7 58000000 		.4byte	.LBB162
 13854 3bdb 0A000000 		.4byte	.LBE162-.LBB162
 13855 3bdf 01       		.byte	0x1
 13856 3be0 4B03     		.2byte	0x34b
 13857 3be2 2B       		.uleb128 0x2b
 13858 3be3 F9130000 		.4byte	0x13f9
 13859 3be7 4D0B0000 		.4byte	.LLST63
 13860 3beb 2B       		.uleb128 0x2b
 13861 3bec EE130000 		.4byte	0x13ee
 13862 3bf0 600B0000 		.4byte	.LLST64
 13863 3bf4 3A       		.uleb128 0x3a
 13864 3bf5 62000000 		.4byte	.LVL447
 13865 3bf9 2D       		.uleb128 0x2d
 13866 3bfa 01       		.uleb128 0x1
 13867 3bfb 50       		.byte	0x50
 13868 3bfc 02       		.uleb128 0x2
 13869 3bfd 78       		.byte	0x78
 13870 3bfe 00       		.sleb128 0
 13871 3bff 00       		.byte	0
 13872 3c00 00       		.byte	0
 13873 3c01 00       		.byte	0
 13874 3c02 0A       		.uleb128 0xa
 13875 3c03 04       		.byte	0x4
 13876 3c04 25000000 		.4byte	0x25
 13877 3c08 15       		.uleb128 0x15
 13878 3c09 CA000000 		.4byte	0xca
 13879 3c0d 1B3C0000 		.4byte	0x3c1b
 13880 3c11 49       		.uleb128 0x49
 13881 3c12 B8040000 		.4byte	0x4b8
 13882 3c16 7C3B0000 		.4byte	0x3b7c
 13883 3c1a 00       		.byte	0
 13884 3c1b 14       		.uleb128 0x14
 13885 3c1c B8040000 		.4byte	0x4b8
 13886 3c20 4A       		.uleb128 0x4a
ARM GAS  /tmp/ccq8Pe5l.s 			page 245


 13887 3c21 0C080000 		.4byte	.LASF516
 13888 3c25 01       		.byte	0x1
 13889 3c26 4E03     		.2byte	0x34e
 13890 3c28 A2080000 		.4byte	0x8a2
 13891 3c2c 00000000 		.4byte	.LFB264
 13892 3c30 0C000000 		.4byte	.LFE264-.LFB264
 13893 3c34 01       		.uleb128 0x1
 13894 3c35 9C       		.byte	0x9c
 13895 3c36 42       		.uleb128 0x42
 13896 3c37 AD100000 		.4byte	.LASF429
 13897 3c3b 01       		.byte	0x1
 13898 3c3c 5203     		.2byte	0x352
 13899 3c3e 00000000 		.4byte	.LFB265
 13900 3c42 0C000000 		.4byte	.LFE265-.LFB265
 13901 3c46 01       		.uleb128 0x1
 13902 3c47 9C       		.byte	0x9c
 13903 3c48 5B3C0000 		.4byte	0x3c5b
 13904 3c4c 43       		.uleb128 0x43
 13905 3c4d 98110000 		.4byte	.LASF401
 13906 3c51 01       		.byte	0x1
 13907 3c52 5203     		.2byte	0x352
 13908 3c54 8C150000 		.4byte	0x158c
 13909 3c58 01       		.uleb128 0x1
 13910 3c59 50       		.byte	0x50
 13911 3c5a 00       		.byte	0
 13912 3c5b 42       		.uleb128 0x42
 13913 3c5c 71190000 		.4byte	.LASF430
 13914 3c60 01       		.byte	0x1
 13915 3c61 5603     		.2byte	0x356
 13916 3c63 00000000 		.4byte	.LFB266
 13917 3c67 34000000 		.4byte	.LFE266-.LFB266
 13918 3c6b 01       		.uleb128 0x1
 13919 3c6c 9C       		.byte	0x9c
 13920 3c6d 013D0000 		.4byte	0x3d01
 13921 3c71 45       		.uleb128 0x45
 13922 3c72 42190000 		.4byte	.LASF398
 13923 3c76 01       		.byte	0x1
 13924 3c77 5603     		.2byte	0x356
 13925 3c79 77130000 		.4byte	0x1377
 13926 3c7d 730B0000 		.4byte	.LLST65
 13927 3c81 26       		.uleb128 0x26
 13928 3c82 6C656E00 		.ascii	"len\000"
 13929 3c86 01       		.byte	0x1
 13930 3c87 5603     		.2byte	0x356
 13931 3c89 B8000000 		.4byte	0xb8
 13932 3c8d AA0B0000 		.4byte	.LLST66
 13933 3c91 3E       		.uleb128 0x3e
 13934 3c92 75040000 		.4byte	.LASF424
 13935 3c96 01       		.byte	0x1
 13936 3c97 5703     		.2byte	0x357
 13937 3c99 EB000000 		.4byte	0xeb
 13938 3c9d FB0B0000 		.4byte	.LLST67
 13939 3ca1 27       		.uleb128 0x27
 13940 3ca2 E2130000 		.4byte	0x13e2
 13941 3ca6 18000000 		.4byte	.LBB164
 13942 3caa 48020000 		.4byte	.Ldebug_ranges0+0x248
 13943 3cae 01       		.byte	0x1
ARM GAS  /tmp/ccq8Pe5l.s 			page 246


 13944 3caf 5D03     		.2byte	0x35d
 13945 3cb1 E33C0000 		.4byte	0x3ce3
 13946 3cb5 2B       		.uleb128 0x2b
 13947 3cb6 F9130000 		.4byte	0x13f9
 13948 3cba 350C0000 		.4byte	.LLST68
 13949 3cbe 28       		.uleb128 0x28
 13950 3cbf EE130000 		.4byte	0x13ee
 13951 3cc3 06       		.uleb128 0x6
 13952 3cc4 03       		.byte	0x3
 13953 3cc5 00000000 		.4byte	send_buffer
 13954 3cc9 9F       		.byte	0x9f
 13955 3cca 33       		.uleb128 0x33
 13956 3ccb 28000000 		.4byte	.LVL457
 13957 3ccf 2D       		.uleb128 0x2d
 13958 3cd0 01       		.uleb128 0x1
 13959 3cd1 51       		.byte	0x51
 13960 3cd2 05       		.uleb128 0x5
 13961 3cd3 F3       		.byte	0xf3
 13962 3cd4 01       		.uleb128 0x1
 13963 3cd5 51       		.byte	0x51
 13964 3cd6 23       		.byte	0x23
 13965 3cd7 01       		.uleb128 0x1
 13966 3cd8 2D       		.uleb128 0x2d
 13967 3cd9 01       		.uleb128 0x1
 13968 3cda 50       		.byte	0x50
 13969 3cdb 05       		.uleb128 0x5
 13970 3cdc 03       		.byte	0x3
 13971 3cdd 00000000 		.4byte	.LANCHOR8
 13972 3ce1 00       		.byte	0
 13973 3ce2 00       		.byte	0
 13974 3ce3 2F       		.uleb128 0x2f
 13975 3ce4 18000000 		.4byte	.LVL454
 13976 3ce8 EB3E0000 		.4byte	0x3eeb
 13977 3cec 2D       		.uleb128 0x2d
 13978 3ced 01       		.uleb128 0x1
 13979 3cee 52       		.byte	0x52
 13980 3cef 02       		.uleb128 0x2
 13981 3cf0 74       		.byte	0x74
 13982 3cf1 00       		.sleb128 0
 13983 3cf2 2D       		.uleb128 0x2d
 13984 3cf3 01       		.uleb128 0x1
 13985 3cf4 51       		.byte	0x51
 13986 3cf5 03       		.uleb128 0x3
 13987 3cf6 F3       		.byte	0xf3
 13988 3cf7 01       		.uleb128 0x1
 13989 3cf8 50       		.byte	0x50
 13990 3cf9 2D       		.uleb128 0x2d
 13991 3cfa 01       		.uleb128 0x1
 13992 3cfb 50       		.byte	0x50
 13993 3cfc 02       		.uleb128 0x2
 13994 3cfd 75       		.byte	0x75
 13995 3cfe 01       		.sleb128 1
 13996 3cff 00       		.byte	0
 13997 3d00 00       		.byte	0
 13998 3d01 15       		.uleb128 0x15
 13999 3d02 CA040000 		.4byte	0x4ca
 14000 3d06 123D0000 		.4byte	0x3d12
ARM GAS  /tmp/ccq8Pe5l.s 			page 247


 14001 3d0a 4B       		.uleb128 0x4b
 14002 3d0b B8040000 		.4byte	0x4b8
 14003 3d0f 3201     		.2byte	0x132
 14004 3d11 00       		.byte	0
 14005 3d12 39       		.uleb128 0x39
 14006 3d13 39040000 		.4byte	.LASF431
 14007 3d17 01       		.byte	0x1
 14008 3d18 36       		.byte	0x36
 14009 3d19 013D0000 		.4byte	0x3d01
 14010 3d1d 05       		.uleb128 0x5
 14011 3d1e 03       		.byte	0x3
 14012 3d1f 00000000 		.4byte	detect_thread_wa
 14013 3d23 39       		.uleb128 0x39
 14014 3d24 27070000 		.4byte	.LASF432
 14015 3d28 01       		.byte	0x1
 14016 3d29 37       		.byte	0x37
 14017 3d2a A5020000 		.4byte	0x2a5
 14018 3d2e 05       		.uleb128 0x5
 14019 3d2f 03       		.byte	0x3
 14020 3d30 00000000 		.4byte	detect_tp
 14021 3d34 15       		.uleb128 0x15
 14022 3d35 CA000000 		.4byte	0xca
 14023 3d39 453D0000 		.4byte	0x3d45
 14024 3d3d 4B       		.uleb128 0x4b
 14025 3d3e B8040000 		.4byte	0x4b8
 14026 3d42 FF03     		.2byte	0x3ff
 14027 3d44 00       		.byte	0
 14028 3d45 39       		.uleb128 0x39
 14029 3d46 EF1B0000 		.4byte	.LASF433
 14030 3d4a 01       		.byte	0x1
 14031 3d4b 3A       		.byte	0x3a
 14032 3d4c 343D0000 		.4byte	0x3d34
 14033 3d50 05       		.uleb128 0x5
 14034 3d51 03       		.byte	0x3
 14035 3d52 00000000 		.4byte	send_buffer
 14036 3d56 39       		.uleb128 0x39
 14037 3d57 700E0000 		.4byte	.LASF434
 14038 3d5b 01       		.byte	0x1
 14039 3d5c 3B       		.byte	0x3b
 14040 3d5d 25000000 		.4byte	0x25
 14041 3d61 05       		.uleb128 0x5
 14042 3d62 03       		.byte	0x3
 14043 3d63 00000000 		.4byte	detect_cycle_int_limit
 14044 3d67 39       		.uleb128 0x39
 14045 3d68 B40A0000 		.4byte	.LASF435
 14046 3d6c 01       		.byte	0x1
 14047 3d6d 3C       		.byte	0x3c
 14048 3d6e 25000000 		.4byte	0x25
 14049 3d72 05       		.uleb128 0x5
 14050 3d73 03       		.byte	0x3
 14051 3d74 00000000 		.4byte	detect_coupling_k
 14052 3d78 39       		.uleb128 0x39
 14053 3d79 68070000 		.4byte	.LASF436
 14054 3d7d 01       		.byte	0x1
 14055 3d7e 3D       		.byte	0x3d
 14056 3d7f 25000000 		.4byte	0x25
 14057 3d83 05       		.uleb128 0x5
ARM GAS  /tmp/ccq8Pe5l.s 			page 248


 14058 3d84 03       		.byte	0x3
 14059 3d85 00000000 		.4byte	detect_current
 14060 3d89 39       		.uleb128 0x39
 14061 3d8a CC030000 		.4byte	.LASF437
 14062 3d8e 01       		.byte	0x1
 14063 3d8f 3E       		.byte	0x3e
 14064 3d90 25000000 		.4byte	0x25
 14065 3d94 05       		.uleb128 0x5
 14066 3d95 03       		.byte	0x3
 14067 3d96 00000000 		.4byte	detect_min_rpm
 14068 3d9a 39       		.uleb128 0x39
 14069 3d9b 1A100000 		.4byte	.LASF438
 14070 3d9f 01       		.byte	0x1
 14071 3da0 3F       		.byte	0x3f
 14072 3da1 25000000 		.4byte	0x25
 14073 3da5 05       		.uleb128 0x5
 14074 3da6 03       		.byte	0x3
 14075 3da7 00000000 		.4byte	detect_low_duty
 14076 3dab 39       		.uleb128 0x39
 14077 3dac 2E020000 		.4byte	.LASF439
 14078 3db0 01       		.byte	0x1
 14079 3db1 40       		.byte	0x40
 14080 3db2 720C0000 		.4byte	0xc72
 14081 3db6 05       		.uleb128 0x5
 14082 3db7 03       		.byte	0x3
 14083 3db8 00000000 		.4byte	detect_hall_table
 14084 3dbc 39       		.uleb128 0x39
 14085 3dbd F1100000 		.4byte	.LASF440
 14086 3dc1 01       		.byte	0x1
 14087 3dc2 41       		.byte	0x41
 14088 3dc3 2C000000 		.4byte	0x2c
 14089 3dc7 05       		.uleb128 0x5
 14090 3dc8 03       		.byte	0x3
 14091 3dc9 00000000 		.4byte	detect_hall_res
 14092 3dcd 39       		.uleb128 0x39
 14093 3dce 6B010000 		.4byte	.LASF441
 14094 3dd2 01       		.byte	0x1
 14095 3dd3 42       		.byte	0x42
 14096 3dd4 8C150000 		.4byte	0x158c
 14097 3dd8 05       		.uleb128 0x5
 14098 3dd9 03       		.byte	0x3
 14099 3dda 00000000 		.4byte	send_func
 14100 3dde 39       		.uleb128 0x39
 14101 3ddf 10030000 		.4byte	.LASF442
 14102 3de3 01       		.byte	0x1
 14103 3de4 43       		.byte	0x43
 14104 3de5 8C150000 		.4byte	0x158c
 14105 3de9 05       		.uleb128 0x5
 14106 3dea 03       		.byte	0x3
 14107 3deb 00000000 		.4byte	appdata_func
 14108 3def 39       		.uleb128 0x39
 14109 3df0 AB170000 		.4byte	.LASF443
 14110 3df4 01       		.byte	0x1
 14111 3df5 44       		.byte	0x44
 14112 3df6 A2080000 		.4byte	0x8a2
 14113 3dfa 05       		.uleb128 0x5
 14114 3dfb 03       		.byte	0x3
ARM GAS  /tmp/ccq8Pe5l.s 			page 249


 14115 3dfc 00000000 		.4byte	display_position_mode
 14116 3e00 4C       		.uleb128 0x4c
 14117 3e01 A91A0000 		.4byte	.LASF444
 14118 3e05 14       		.byte	0x14
 14119 3e06 A706     		.2byte	0x6a7
 14120 3e08 17010000 		.4byte	0x117
 14121 3e0c 4D       		.uleb128 0x4d
 14122 3e0d 636800   		.ascii	"ch\000"
 14123 3e10 09       		.byte	0x9
 14124 3e11 0902     		.2byte	0x209
 14125 3e13 51040000 		.4byte	0x451
 14126 3e17 15       		.uleb128 0x15
 14127 3e18 E0000000 		.4byte	0xe0
 14128 3e1c 223E0000 		.4byte	0x3e22
 14129 3e20 4E       		.uleb128 0x4e
 14130 3e21 00       		.byte	0
 14131 3e22 4F       		.uleb128 0x4f
 14132 3e23 25120000 		.4byte	.LASF445
 14133 3e27 15       		.byte	0x15
 14134 3e28 52       		.byte	0x52
 14135 3e29 2D3E0000 		.4byte	0x3e2d
 14136 3e2d 05       		.uleb128 0x5
 14137 3e2e 173E0000 		.4byte	0x3e17
 14138 3e32 50       		.uleb128 0x50
 14139 3e33 F3200000 		.4byte	.LASF446
 14140 3e37 16       		.byte	0x16
 14141 3e38 8B       		.byte	0x8b
 14142 3e39 69010000 		.4byte	0x169
 14143 3e3d 473E0000 		.4byte	0x3e47
 14144 3e41 0D       		.uleb128 0xd
 14145 3e42 69010000 		.4byte	0x169
 14146 3e46 00       		.byte	0
 14147 3e47 50       		.uleb128 0x50
 14148 3e48 F30E0000 		.4byte	.LASF447
 14149 3e4c 17       		.byte	0x17
 14150 3e4d 88       		.byte	0x88
 14151 3e4e 6B0C0000 		.4byte	0xc6b
 14152 3e52 7A3E0000 		.4byte	0x3e7a
 14153 3e56 0D       		.uleb128 0xd
 14154 3e57 25000000 		.4byte	0x25
 14155 3e5b 0D       		.uleb128 0xd
 14156 3e5c 25000000 		.4byte	0x25
 14157 3e60 0D       		.uleb128 0xd
 14158 3e61 25000000 		.4byte	0x25
 14159 3e65 0D       		.uleb128 0xd
 14160 3e66 023C0000 		.4byte	0x3c02
 14161 3e6a 0D       		.uleb128 0xd
 14162 3e6b 023C0000 		.4byte	0x3c02
 14163 3e6f 0D       		.uleb128 0xd
 14164 3e70 7A3E0000 		.4byte	0x3e7a
 14165 3e74 0D       		.uleb128 0xd
 14166 3e75 803E0000 		.4byte	0x3e80
 14167 3e79 00       		.byte	0
 14168 3e7a 0A       		.uleb128 0xa
 14169 3e7b 04       		.byte	0x4
 14170 3e7c BF000000 		.4byte	0xbf
 14171 3e80 0A       		.uleb128 0xa
ARM GAS  /tmp/ccq8Pe5l.s 			page 250


 14172 3e81 04       		.byte	0x4
 14173 3e82 2C000000 		.4byte	0x2c
 14174 3e86 51       		.uleb128 0x51
 14175 3e87 CE150000 		.4byte	.LASF449
 14176 3e8b 18       		.byte	0x18
 14177 3e8c 20       		.byte	0x20
 14178 3e8d A13E0000 		.4byte	0x3ea1
 14179 3e91 0D       		.uleb128 0xd
 14180 3e92 68070000 		.4byte	0x768
 14181 3e96 0D       		.uleb128 0xd
 14182 3e97 EB000000 		.4byte	0xeb
 14183 3e9b 0D       		.uleb128 0xd
 14184 3e9c A13E0000 		.4byte	0x3ea1
 14185 3ea0 00       		.byte	0
 14186 3ea1 0A       		.uleb128 0xa
 14187 3ea2 04       		.byte	0x4
 14188 3ea3 EB000000 		.4byte	0xeb
 14189 3ea7 50       		.uleb128 0x50
 14190 3ea8 BA060000 		.4byte	.LASF450
 14191 3eac 0F       		.byte	0xf
 14192 3ead 89       		.byte	0x89
 14193 3eae A5020000 		.4byte	0x2a5
 14194 3eb2 D03E0000 		.4byte	0x3ed0
 14195 3eb6 0D       		.uleb128 0xd
 14196 3eb7 82030000 		.4byte	0x382
 14197 3ebb 0D       		.uleb128 0xd
 14198 3ebc 0C010000 		.4byte	0x10c
 14199 3ec0 0D       		.uleb128 0xd
 14200 3ec1 53010000 		.4byte	0x153
 14201 3ec5 0D       		.uleb128 0xd
 14202 3ec6 4C070000 		.4byte	0x74c
 14203 3eca 0D       		.uleb128 0xd
 14204 3ecb 82030000 		.4byte	0x382
 14205 3ecf 00       		.byte	0
 14206 3ed0 52       		.uleb128 0x52
 14207 3ed1 861B0000 		.4byte	.LASF472
 14208 3ed5 15       		.byte	0x15
 14209 3ed6 20       		.byte	0x20
 14210 3ed7 DB3E0000 		.4byte	0x3edb
 14211 3edb 0A       		.uleb128 0xa
 14212 3edc 04       		.byte	0x4
 14213 3edd E13E0000 		.4byte	0x3ee1
 14214 3ee1 14       		.uleb128 0x14
 14215 3ee2 E63E0000 		.4byte	0x3ee6
 14216 3ee6 05       		.uleb128 0x5
 14217 3ee7 920C0000 		.4byte	0xc92
 14218 3eeb 53       		.uleb128 0x53
 14219 3eec 18050000 		.4byte	.LASF451
 14220 3ef0 82030000 		.4byte	0x382
 14221 3ef4 083F0000 		.4byte	0x3f08
 14222 3ef8 0D       		.uleb128 0xd
 14223 3ef9 82030000 		.4byte	0x382
 14224 3efd 0D       		.uleb128 0xd
 14225 3efe 083F0000 		.4byte	0x3f08
 14226 3f02 0D       		.uleb128 0xd
 14227 3f03 B8040000 		.4byte	0x4b8
 14228 3f07 00       		.byte	0
ARM GAS  /tmp/ccq8Pe5l.s 			page 251


 14229 3f08 0A       		.uleb128 0xa
 14230 3f09 04       		.byte	0x4
 14231 3f0a 0E3F0000 		.4byte	0x3f0e
 14232 3f0e 54       		.uleb128 0x54
 14233 3f0f 50       		.uleb128 0x50
 14234 3f10 C11E0000 		.4byte	.LASF452
 14235 3f14 18       		.byte	0x18
 14236 3f15 29       		.byte	0x29
 14237 3f16 25000000 		.4byte	0x25
 14238 3f1a 2E3F0000 		.4byte	0x3f2e
 14239 3f1e 0D       		.uleb128 0xd
 14240 3f1f 6E070000 		.4byte	0x76e
 14241 3f23 0D       		.uleb128 0xd
 14242 3f24 25000000 		.4byte	0x25
 14243 3f28 0D       		.uleb128 0xd
 14244 3f29 A13E0000 		.4byte	0x3ea1
 14245 3f2d 00       		.byte	0
 14246 3f2e 51       		.uleb128 0x51
 14247 3f2f D71C0000 		.4byte	.LASF453
 14248 3f33 15       		.byte	0x15
 14249 3f34 21       		.byte	0x21
 14250 3f35 3F3F0000 		.4byte	0x3f3f
 14251 3f39 0D       		.uleb128 0xd
 14252 3f3a 3F3F0000 		.4byte	0x3f3f
 14253 3f3e 00       		.byte	0
 14254 3f3f 0A       		.uleb128 0xa
 14255 3f40 04       		.byte	0x4
 14256 3f41 920C0000 		.4byte	0xc92
 14257 3f45 50       		.uleb128 0x50
 14258 3f46 30080000 		.4byte	.LASF454
 14259 3f4a 19       		.byte	0x19
 14260 3f4b 46       		.byte	0x46
 14261 3f4c 6B0C0000 		.4byte	0xc6b
 14262 3f50 5F3F0000 		.4byte	0x3f5f
 14263 3f54 0D       		.uleb128 0xd
 14264 3f55 25000000 		.4byte	0x25
 14265 3f59 0D       		.uleb128 0xd
 14266 3f5a 68070000 		.4byte	0x768
 14267 3f5e 00       		.byte	0
 14268 3f5f 50       		.uleb128 0x50
 14269 3f60 9A000000 		.4byte	.LASF455
 14270 3f64 17       		.byte	0x17
 14271 3f65 8A       		.byte	0x8a
 14272 3f66 6B0C0000 		.4byte	0xc6b
 14273 3f6a 883F0000 		.4byte	0x3f88
 14274 3f6e 0D       		.uleb128 0xd
 14275 3f6f 25000000 		.4byte	0x25
 14276 3f73 0D       		.uleb128 0xd
 14277 3f74 25000000 		.4byte	0x25
 14278 3f78 0D       		.uleb128 0xd
 14279 3f79 25000000 		.4byte	0x25
 14280 3f7d 0D       		.uleb128 0xd
 14281 3f7e 25000000 		.4byte	0x25
 14282 3f82 0D       		.uleb128 0xd
 14283 3f83 023C0000 		.4byte	0x3c02
 14284 3f87 00       		.byte	0
 14285 3f88 51       		.uleb128 0x51
ARM GAS  /tmp/ccq8Pe5l.s 			page 252


 14286 3f89 F70C0000 		.4byte	.LASF456
 14287 3f8d 18       		.byte	0x18
 14288 3f8e 23       		.byte	0x23
 14289 3f8f A83F0000 		.4byte	0x3fa8
 14290 3f93 0D       		.uleb128 0xd
 14291 3f94 68070000 		.4byte	0x768
 14292 3f98 0D       		.uleb128 0xd
 14293 3f99 25000000 		.4byte	0x25
 14294 3f9d 0D       		.uleb128 0xd
 14295 3f9e 25000000 		.4byte	0x25
 14296 3fa2 0D       		.uleb128 0xd
 14297 3fa3 A13E0000 		.4byte	0x3ea1
 14298 3fa7 00       		.byte	0
 14299 3fa8 50       		.uleb128 0x50
 14300 3fa9 C1170000 		.4byte	.LASF457
 14301 3fad 19       		.byte	0x19
 14302 3fae 45       		.byte	0x45
 14303 3faf 6B0C0000 		.4byte	0xc6b
 14304 3fb3 C23F0000 		.4byte	0x3fc2
 14305 3fb7 0D       		.uleb128 0xd
 14306 3fb8 023C0000 		.4byte	0x3c02
 14307 3fbc 0D       		.uleb128 0xd
 14308 3fbd 023C0000 		.4byte	0x3c02
 14309 3fc1 00       		.byte	0
 14310 3fc2 51       		.uleb128 0x51
 14311 3fc3 3B050000 		.4byte	.LASF458
 14312 3fc7 17       		.byte	0x17
 14313 3fc8 82       		.byte	0x82
 14314 3fc9 D33F0000 		.4byte	0x3fd3
 14315 3fcd 0D       		.uleb128 0xd
 14316 3fce D33F0000 		.4byte	0x3fd3
 14317 3fd2 00       		.byte	0
 14318 3fd3 0A       		.uleb128 0xa
 14319 3fd4 04       		.byte	0x4
 14320 3fd5 CD110000 		.4byte	0x11cd
 14321 3fd9 51       		.uleb128 0x51
 14322 3fda A00C0000 		.4byte	.LASF459
 14323 3fde 18       		.byte	0x18
 14324 3fdf 21       		.byte	0x21
 14325 3fe0 F43F0000 		.4byte	0x3ff4
 14326 3fe4 0D       		.uleb128 0xd
 14327 3fe5 68070000 		.4byte	0x768
 14328 3fe9 0D       		.uleb128 0xd
 14329 3fea F6000000 		.4byte	0xf6
 14330 3fee 0D       		.uleb128 0xd
 14331 3fef A13E0000 		.4byte	0x3ea1
 14332 3ff3 00       		.byte	0
 14333 3ff4 51       		.uleb128 0x51
 14334 3ff5 2D0B0000 		.4byte	.LASF460
 14335 3ff9 18       		.byte	0x18
 14336 3ffa 1F       		.byte	0x1f
 14337 3ffb 0F400000 		.4byte	0x400f
 14338 3fff 0D       		.uleb128 0xd
 14339 4000 68070000 		.4byte	0x768
 14340 4004 0D       		.uleb128 0xd
 14341 4005 E0000000 		.4byte	0xe0
 14342 4009 0D       		.uleb128 0xd
ARM GAS  /tmp/ccq8Pe5l.s 			page 253


 14343 400a A13E0000 		.4byte	0x3ea1
 14344 400e 00       		.byte	0
 14345 400f 55       		.uleb128 0x55
 14346 4010 BE160000 		.4byte	.LASF461
 14347 4014 1A       		.byte	0x1a
 14348 4015 3C       		.byte	0x3c
 14349 4016 55       		.uleb128 0x55
 14350 4017 6D0D0000 		.4byte	.LASF462
 14351 401b 1B       		.byte	0x1b
 14352 401c 23       		.byte	0x23
 14353 401d 50       		.uleb128 0x50
 14354 401e 4E100000 		.4byte	.LASF463
 14355 4022 1C       		.byte	0x1c
 14356 4023 22       		.byte	0x22
 14357 4024 25000000 		.4byte	0x25
 14358 4028 32400000 		.4byte	0x4032
 14359 402c 0D       		.uleb128 0xd
 14360 402d 2C000000 		.4byte	0x2c
 14361 4031 00       		.byte	0
 14362 4032 50       		.uleb128 0x50
 14363 4033 1F050000 		.4byte	.LASF464
 14364 4037 1C       		.byte	0x1c
 14365 4038 24       		.byte	0x24
 14366 4039 25000000 		.4byte	0x25
 14367 403d 47400000 		.4byte	0x4047
 14368 4041 0D       		.uleb128 0xd
 14369 4042 2C000000 		.4byte	0x2c
 14370 4046 00       		.byte	0
 14371 4047 50       		.uleb128 0x50
 14372 4048 8F100000 		.4byte	.LASF465
 14373 404c 18       		.byte	0x18
 14374 404d 26       		.byte	0x26
 14375 404e EB000000 		.4byte	0xeb
 14376 4052 61400000 		.4byte	0x4061
 14377 4056 0D       		.uleb128 0xd
 14378 4057 6E070000 		.4byte	0x76e
 14379 405b 0D       		.uleb128 0xd
 14380 405c A13E0000 		.4byte	0x3ea1
 14381 4060 00       		.byte	0
 14382 4061 51       		.uleb128 0x51
 14383 4062 5C060000 		.4byte	.LASF466
 14384 4066 15       		.byte	0x15
 14385 4067 2B       		.byte	0x2b
 14386 4068 72400000 		.4byte	0x4072
 14387 406c 0D       		.uleb128 0xd
 14388 406d 25000000 		.4byte	0x25
 14389 4071 00       		.byte	0
 14390 4072 51       		.uleb128 0x51
 14391 4073 301B0000 		.4byte	.LASF467
 14392 4077 15       		.byte	0x15
 14393 4078 2E       		.byte	0x2e
 14394 4079 83400000 		.4byte	0x4083
 14395 407d 0D       		.uleb128 0xd
 14396 407e 25000000 		.4byte	0x25
 14397 4082 00       		.byte	0
 14398 4083 51       		.uleb128 0x51
 14399 4084 63120000 		.4byte	.LASF468
ARM GAS  /tmp/ccq8Pe5l.s 			page 254


 14400 4088 15       		.byte	0x15
 14401 4089 2D       		.byte	0x2d
 14402 408a 94400000 		.4byte	0x4094
 14403 408e 0D       		.uleb128 0xd
 14404 408f 25000000 		.4byte	0x25
 14405 4093 00       		.byte	0
 14406 4094 51       		.uleb128 0x51
 14407 4095 471E0000 		.4byte	.LASF469
 14408 4099 15       		.byte	0x15
 14409 409a 29       		.byte	0x29
 14410 409b A5400000 		.4byte	0x40a5
 14411 409f 0D       		.uleb128 0xd
 14412 40a0 25000000 		.4byte	0x25
 14413 40a4 00       		.byte	0
 14414 40a5 56       		.uleb128 0x56
 14415 40a6 59190000 		.4byte	.LASF470
 14416 40aa 1D       		.byte	0x1d
 14417 40ab 5101     		.2byte	0x151
 14418 40ad 25000000 		.4byte	0x25
 14419 40b1 BB400000 		.4byte	0x40bb
 14420 40b5 0D       		.uleb128 0xd
 14421 40b6 25000000 		.4byte	0x25
 14422 40ba 00       		.byte	0
 14423 40bb 51       		.uleb128 0x51
 14424 40bc 79100000 		.4byte	.LASF471
 14425 40c0 18       		.byte	0x18
 14426 40c1 22       		.byte	0x22
 14427 40c2 DB400000 		.4byte	0x40db
 14428 40c6 0D       		.uleb128 0xd
 14429 40c7 68070000 		.4byte	0x768
 14430 40cb 0D       		.uleb128 0xd
 14431 40cc 25000000 		.4byte	0x25
 14432 40d0 0D       		.uleb128 0xd
 14433 40d1 25000000 		.4byte	0x25
 14434 40d5 0D       		.uleb128 0xd
 14435 40d6 A13E0000 		.4byte	0x3ea1
 14436 40da 00       		.byte	0
 14437 40db 52       		.uleb128 0x52
 14438 40dc A3080000 		.4byte	.LASF473
 14439 40e0 15       		.byte	0x15
 14440 40e1 42       		.byte	0x42
 14441 40e2 25000000 		.4byte	0x25
 14442 40e6 52       		.uleb128 0x52
 14443 40e7 EE0A0000 		.4byte	.LASF474
 14444 40eb 15       		.byte	0x15
 14445 40ec 43       		.byte	0x43
 14446 40ed 25000000 		.4byte	0x25
 14447 40f1 52       		.uleb128 0x52
 14448 40f2 0B0C0000 		.4byte	.LASF475
 14449 40f6 15       		.byte	0x15
 14450 40f7 32       		.byte	0x32
 14451 40f8 25000000 		.4byte	0x25
 14452 40fc 52       		.uleb128 0x52
 14453 40fd 180B0000 		.4byte	.LASF476
 14454 4101 15       		.byte	0x15
 14455 4102 34       		.byte	0x34
 14456 4103 25000000 		.4byte	0x25
ARM GAS  /tmp/ccq8Pe5l.s 			page 255


 14457 4107 50       		.uleb128 0x50
 14458 4108 F61C0000 		.4byte	.LASF477
 14459 410c 15       		.byte	0x15
 14460 410d 35       		.byte	0x35
 14461 410e 25000000 		.4byte	0x25
 14462 4112 1C410000 		.4byte	0x411c
 14463 4116 0D       		.uleb128 0xd
 14464 4117 6B0C0000 		.4byte	0xc6b
 14465 411b 00       		.byte	0
 14466 411c 50       		.uleb128 0x50
 14467 411d AB150000 		.4byte	.LASF478
 14468 4121 15       		.byte	0x15
 14469 4122 36       		.byte	0x36
 14470 4123 25000000 		.4byte	0x25
 14471 4127 31410000 		.4byte	0x4131
 14472 412b 0D       		.uleb128 0xd
 14473 412c 6B0C0000 		.4byte	0xc6b
 14474 4130 00       		.byte	0
 14475 4131 50       		.uleb128 0x50
 14476 4132 5C140000 		.4byte	.LASF479
 14477 4136 15       		.byte	0x15
 14478 4137 37       		.byte	0x37
 14479 4138 25000000 		.4byte	0x25
 14480 413c 46410000 		.4byte	0x4146
 14481 4140 0D       		.uleb128 0xd
 14482 4141 6B0C0000 		.4byte	0xc6b
 14483 4145 00       		.byte	0
 14484 4146 50       		.uleb128 0x50
 14485 4147 501F0000 		.4byte	.LASF480
 14486 414b 15       		.byte	0x15
 14487 414c 38       		.byte	0x38
 14488 414d 25000000 		.4byte	0x25
 14489 4151 5B410000 		.4byte	0x415b
 14490 4155 0D       		.uleb128 0xd
 14491 4156 6B0C0000 		.4byte	0xc6b
 14492 415a 00       		.byte	0
 14493 415b 50       		.uleb128 0x50
 14494 415c A4140000 		.4byte	.LASF481
 14495 4160 15       		.byte	0x15
 14496 4161 3F       		.byte	0x3f
 14497 4162 2C000000 		.4byte	0x2c
 14498 4166 70410000 		.4byte	0x4170
 14499 416a 0D       		.uleb128 0xd
 14500 416b 6B0C0000 		.4byte	0xc6b
 14501 416f 00       		.byte	0
 14502 4170 50       		.uleb128 0x50
 14503 4171 08170000 		.4byte	.LASF482
 14504 4175 15       		.byte	0x15
 14505 4176 40       		.byte	0x40
 14506 4177 2C000000 		.4byte	0x2c
 14507 417b 85410000 		.4byte	0x4185
 14508 417f 0D       		.uleb128 0xd
 14509 4180 6B0C0000 		.4byte	0xc6b
 14510 4184 00       		.byte	0
 14511 4185 52       		.uleb128 0x52
 14512 4186 140D0000 		.4byte	.LASF483
 14513 418a 15       		.byte	0x15
ARM GAS  /tmp/ccq8Pe5l.s 			page 256


 14514 418b 26       		.byte	0x26
 14515 418c 64080000 		.4byte	0x864
 14516 4190 50       		.uleb128 0x50
 14517 4191 47190000 		.4byte	.LASF484
 14518 4195 18       		.byte	0x18
 14519 4196 27       		.byte	0x27
 14520 4197 F6000000 		.4byte	0xf6
 14521 419b AA410000 		.4byte	0x41aa
 14522 419f 0D       		.uleb128 0xd
 14523 41a0 6E070000 		.4byte	0x76e
 14524 41a4 0D       		.uleb128 0xd
 14525 41a5 A13E0000 		.4byte	0x3ea1
 14526 41a9 00       		.byte	0
 14527 41aa 50       		.uleb128 0x50
 14528 41ab 7B020000 		.4byte	.LASF485
 14529 41af 1E       		.byte	0x1e
 14530 41b0 20       		.byte	0x20
 14531 41b1 E0000000 		.4byte	0xe0
 14532 41b5 C9410000 		.4byte	0x41c9
 14533 41b9 0D       		.uleb128 0xd
 14534 41ba F6000000 		.4byte	0xf6
 14535 41be 0D       		.uleb128 0xd
 14536 41bf 68070000 		.4byte	0x768
 14537 41c3 0D       		.uleb128 0xd
 14538 41c4 F6000000 		.4byte	0xf6
 14539 41c8 00       		.byte	0
 14540 41c9 50       		.uleb128 0x50
 14541 41ca 90170000 		.4byte	.LASF486
 14542 41ce 1E       		.byte	0x1e
 14543 41cf 1F       		.byte	0x1f
 14544 41d0 E0000000 		.4byte	0xe0
 14545 41d4 DE410000 		.4byte	0x41de
 14546 41d8 0D       		.uleb128 0xd
 14547 41d9 F6000000 		.4byte	0xf6
 14548 41dd 00       		.byte	0
 14549 41de 55       		.uleb128 0x55
 14550 41df E8130000 		.4byte	.LASF487
 14551 41e3 1E       		.byte	0x1e
 14552 41e4 21       		.byte	0x21
 14553 41e5 50       		.uleb128 0x50
 14554 41e6 D00F0000 		.4byte	.LASF488
 14555 41ea 18       		.byte	0x18
 14556 41eb 24       		.byte	0x24
 14557 41ec D5000000 		.4byte	0xd5
 14558 41f0 FF410000 		.4byte	0x41ff
 14559 41f4 0D       		.uleb128 0xd
 14560 41f5 6E070000 		.4byte	0x76e
 14561 41f9 0D       		.uleb128 0xd
 14562 41fa A13E0000 		.4byte	0x3ea1
 14563 41fe 00       		.byte	0
 14564 41ff 51       		.uleb128 0x51
 14565 4200 FD080000 		.4byte	.LASF489
 14566 4204 1F       		.byte	0x1f
 14567 4205 31       		.byte	0x31
 14568 4206 10420000 		.4byte	0x4210
 14569 420a 0D       		.uleb128 0xd
 14570 420b 10420000 		.4byte	0x4210
ARM GAS  /tmp/ccq8Pe5l.s 			page 257


 14571 420f 00       		.byte	0
 14572 4210 0A       		.uleb128 0xa
 14573 4211 04       		.byte	0x4
 14574 4212 2C130000 		.4byte	0x132c
 14575 4216 51       		.uleb128 0x51
 14576 4217 4B020000 		.4byte	.LASF490
 14577 421b 20       		.byte	0x20
 14578 421c 25       		.byte	0x25
 14579 421d 36420000 		.4byte	0x4236
 14580 4221 0D       		.uleb128 0xd
 14581 4222 CA000000 		.4byte	0xca
 14582 4226 0D       		.uleb128 0xd
 14583 4227 68070000 		.4byte	0x768
 14584 422b 0D       		.uleb128 0xd
 14585 422c B8000000 		.4byte	0xb8
 14586 4230 0D       		.uleb128 0xd
 14587 4231 6B0C0000 		.4byte	0xc6b
 14588 4235 00       		.byte	0
 14589 4236 51       		.uleb128 0x51
 14590 4237 BC180000 		.4byte	.LASF491
 14591 423b 15       		.byte	0x15
 14592 423c 2C       		.byte	0x2c
 14593 423d 47420000 		.4byte	0x4247
 14594 4241 0D       		.uleb128 0xd
 14595 4242 25000000 		.4byte	0x25
 14596 4246 00       		.byte	0
 14597 4247 52       		.uleb128 0x52
 14598 4248 9D1C0000 		.4byte	.LASF492
 14599 424c 1F       		.byte	0x1f
 14600 424d 30       		.byte	0x30
 14601 424e 25000000 		.4byte	0x25
 14602 4252 52       		.uleb128 0x52
 14603 4253 1F040000 		.4byte	.LASF493
 14604 4257 1F       		.byte	0x1f
 14605 4258 28       		.byte	0x28
 14606 4259 25000000 		.4byte	0x25
 14607 425d 52       		.uleb128 0x52
 14608 425e BF200000 		.4byte	.LASF494
 14609 4262 1F       		.byte	0x1f
 14610 4263 29       		.byte	0x29
 14611 4264 25000000 		.4byte	0x25
 14612 4268 52       		.uleb128 0x52
 14613 4269 41060000 		.4byte	.LASF495
 14614 426d 1F       		.byte	0x1f
 14615 426e 2A       		.byte	0x2a
 14616 426f 25000000 		.4byte	0x25
 14617 4273 52       		.uleb128 0x52
 14618 4274 62110000 		.4byte	.LASF496
 14619 4278 1F       		.byte	0x1f
 14620 4279 2B       		.byte	0x2b
 14621 427a 25000000 		.4byte	0x25
 14622 427e 51       		.uleb128 0x51
 14623 427f 61100000 		.4byte	.LASF497
 14624 4283 21       		.byte	0x21
 14625 4284 1F       		.byte	0x1f
 14626 4285 8F420000 		.4byte	0x428f
 14627 4289 0D       		.uleb128 0xd
ARM GAS  /tmp/ccq8Pe5l.s 			page 258


 14628 428a 7D130000 		.4byte	0x137d
 14629 428e 00       		.byte	0
 14630 428f 51       		.uleb128 0x51
 14631 4290 38130000 		.4byte	.LASF498
 14632 4294 17       		.byte	0x17
 14633 4295 83       		.byte	0x83
 14634 4296 A0420000 		.4byte	0x42a0
 14635 429a 0D       		.uleb128 0xd
 14636 429b 3F3F0000 		.4byte	0x3f3f
 14637 429f 00       		.byte	0
 14638 42a0 50       		.uleb128 0x50
 14639 42a1 ED030000 		.4byte	.LASF499
 14640 42a5 17       		.byte	0x17
 14641 42a6 87       		.byte	0x87
 14642 42a7 6B0C0000 		.4byte	0xc6b
 14643 42ab B5420000 		.4byte	0x42b5
 14644 42af 0D       		.uleb128 0xd
 14645 42b0 3F3F0000 		.4byte	0x3f3f
 14646 42b4 00       		.byte	0
 14647 42b5 51       		.uleb128 0x51
 14648 42b6 71150000 		.4byte	.LASF500
 14649 42ba 16       		.byte	0x16
 14650 42bb 84       		.byte	0x84
 14651 42bc CB420000 		.4byte	0x42cb
 14652 42c0 0D       		.uleb128 0xd
 14653 42c1 A5020000 		.4byte	0x2a5
 14654 42c5 0D       		.uleb128 0xd
 14655 42c6 69010000 		.4byte	0x169
 14656 42ca 00       		.byte	0
 14657 42cb 50       		.uleb128 0x50
 14658 42cc 22180000 		.4byte	.LASF501
 14659 42d0 18       		.byte	0x18
 14660 42d1 25       		.byte	0x25
 14661 42d2 E0000000 		.4byte	0xe0
 14662 42d6 E5420000 		.4byte	0x42e5
 14663 42da 0D       		.uleb128 0xd
 14664 42db 6E070000 		.4byte	0x76e
 14665 42df 0D       		.uleb128 0xd
 14666 42e0 A13E0000 		.4byte	0x3ea1
 14667 42e4 00       		.byte	0
 14668 42e5 51       		.uleb128 0x51
 14669 42e6 0A130000 		.4byte	.LASF502
 14670 42ea 15       		.byte	0x15
 14671 42eb 47       		.byte	0x47
 14672 42ec 00430000 		.4byte	0x4300
 14673 42f0 0D       		.uleb128 0xd
 14674 42f1 6B0C0000 		.4byte	0xc6b
 14675 42f5 0D       		.uleb128 0xd
 14676 42f6 E0000000 		.4byte	0xe0
 14677 42fa 0D       		.uleb128 0xd
 14678 42fb CA000000 		.4byte	0xca
 14679 42ff 00       		.byte	0
 14680 4300 52       		.uleb128 0x52
 14681 4301 631C0000 		.4byte	.LASF503
 14682 4305 1F       		.byte	0x1f
 14683 4306 20       		.byte	0x20
 14684 4307 0B430000 		.4byte	0x430b
ARM GAS  /tmp/ccq8Pe5l.s 			page 259


 14685 430b 0A       		.uleb128 0xa
 14686 430c 04       		.byte	0x4
 14687 430d 11430000 		.4byte	0x4311
 14688 4311 14       		.uleb128 0x14
 14689 4312 CD110000 		.4byte	0x11cd
 14690 4316 50       		.uleb128 0x50
 14691 4317 621A0000 		.4byte	.LASF504
 14692 431b 17       		.byte	0x17
 14693 431c 85       		.byte	0x85
 14694 431d 6B0C0000 		.4byte	0xc6b
 14695 4321 2B430000 		.4byte	0x432b
 14696 4325 0D       		.uleb128 0xd
 14697 4326 D33F0000 		.4byte	0x3fd3
 14698 432a 00       		.byte	0
 14699 432b 51       		.uleb128 0x51
 14700 432c 230A0000 		.4byte	.LASF505
 14701 4330 1F       		.byte	0x1f
 14702 4331 21       		.byte	0x21
 14703 4332 3C430000 		.4byte	0x433c
 14704 4336 0D       		.uleb128 0xd
 14705 4337 D33F0000 		.4byte	0x3fd3
 14706 433b 00       		.byte	0
 14707 433c 51       		.uleb128 0x51
 14708 433d 681E0000 		.4byte	.LASF506
 14709 4341 1B       		.byte	0x1b
 14710 4342 22       		.byte	0x22
 14711 4343 52430000 		.4byte	0x4352
 14712 4347 0D       		.uleb128 0xd
 14713 4348 7F010000 		.4byte	0x17f
 14714 434c 0D       		.uleb128 0xd
 14715 434d 25000000 		.4byte	0x25
 14716 4351 00       		.byte	0
 14717 4352 55       		.uleb128 0x55
 14718 4353 DB170000 		.4byte	.LASF507
 14719 4357 15       		.byte	0x15
 14720 4358 30       		.byte	0x30
 14721 4359 57       		.uleb128 0x57
 14722 435a EA050000 		.4byte	.LASF508
 14723 435e 22       		.byte	0x22
 14724 435f 2F01     		.2byte	0x12f
 14725 4361 2C000000 		.4byte	0x2c
 14726 4365 0D       		.uleb128 0xd
 14727 4366 7D130000 		.4byte	0x137d
 14728 436a 0D       		.uleb128 0xd
 14729 436b 0C010000 		.4byte	0x10c
 14730 436f 0D       		.uleb128 0xd
 14731 4370 1A070000 		.4byte	0x71a
 14732 4374 0D       		.uleb128 0xd
 14733 4375 91130000 		.4byte	0x1391
 14734 4379 00       		.byte	0
 14735 437a 00       		.byte	0
 14736              		.section	.debug_abbrev,"",%progbits
 14737              	.Ldebug_abbrev0:
 14738 0000 01       		.uleb128 0x1
 14739 0001 11       		.uleb128 0x11
 14740 0002 01       		.byte	0x1
 14741 0003 25       		.uleb128 0x25
ARM GAS  /tmp/ccq8Pe5l.s 			page 260


 14742 0004 0E       		.uleb128 0xe
 14743 0005 13       		.uleb128 0x13
 14744 0006 0B       		.uleb128 0xb
 14745 0007 03       		.uleb128 0x3
 14746 0008 0E       		.uleb128 0xe
 14747 0009 1B       		.uleb128 0x1b
 14748 000a 0E       		.uleb128 0xe
 14749 000b 55       		.uleb128 0x55
 14750 000c 17       		.uleb128 0x17
 14751 000d 11       		.uleb128 0x11
 14752 000e 01       		.uleb128 0x1
 14753 000f 10       		.uleb128 0x10
 14754 0010 17       		.uleb128 0x17
 14755 0011 00       		.byte	0
 14756 0012 00       		.byte	0
 14757 0013 02       		.uleb128 0x2
 14758 0014 24       		.uleb128 0x24
 14759 0015 00       		.byte	0
 14760 0016 0B       		.uleb128 0xb
 14761 0017 0B       		.uleb128 0xb
 14762 0018 3E       		.uleb128 0x3e
 14763 0019 0B       		.uleb128 0xb
 14764 001a 03       		.uleb128 0x3
 14765 001b 0E       		.uleb128 0xe
 14766 001c 00       		.byte	0
 14767 001d 00       		.byte	0
 14768 001e 03       		.uleb128 0x3
 14769 001f 24       		.uleb128 0x24
 14770 0020 00       		.byte	0
 14771 0021 0B       		.uleb128 0xb
 14772 0022 0B       		.uleb128 0xb
 14773 0023 3E       		.uleb128 0x3e
 14774 0024 0B       		.uleb128 0xb
 14775 0025 03       		.uleb128 0x3
 14776 0026 08       		.uleb128 0x8
 14777 0027 00       		.byte	0
 14778 0028 00       		.byte	0
 14779 0029 04       		.uleb128 0x4
 14780 002a 16       		.uleb128 0x16
 14781 002b 00       		.byte	0
 14782 002c 03       		.uleb128 0x3
 14783 002d 0E       		.uleb128 0xe
 14784 002e 3A       		.uleb128 0x3a
 14785 002f 0B       		.uleb128 0xb
 14786 0030 3B       		.uleb128 0x3b
 14787 0031 0B       		.uleb128 0xb
 14788 0032 49       		.uleb128 0x49
 14789 0033 13       		.uleb128 0x13
 14790 0034 00       		.byte	0
 14791 0035 00       		.byte	0
 14792 0036 05       		.uleb128 0x5
 14793 0037 35       		.uleb128 0x35
 14794 0038 00       		.byte	0
 14795 0039 49       		.uleb128 0x49
 14796 003a 13       		.uleb128 0x13
 14797 003b 00       		.byte	0
 14798 003c 00       		.byte	0
ARM GAS  /tmp/ccq8Pe5l.s 			page 261


 14799 003d 06       		.uleb128 0x6
 14800 003e 13       		.uleb128 0x13
 14801 003f 01       		.byte	0x1
 14802 0040 03       		.uleb128 0x3
 14803 0041 0E       		.uleb128 0xe
 14804 0042 0B       		.uleb128 0xb
 14805 0043 0B       		.uleb128 0xb
 14806 0044 3A       		.uleb128 0x3a
 14807 0045 0B       		.uleb128 0xb
 14808 0046 3B       		.uleb128 0x3b
 14809 0047 0B       		.uleb128 0xb
 14810 0048 01       		.uleb128 0x1
 14811 0049 13       		.uleb128 0x13
 14812 004a 00       		.byte	0
 14813 004b 00       		.byte	0
 14814 004c 07       		.uleb128 0x7
 14815 004d 0D       		.uleb128 0xd
 14816 004e 00       		.byte	0
 14817 004f 03       		.uleb128 0x3
 14818 0050 0E       		.uleb128 0xe
 14819 0051 3A       		.uleb128 0x3a
 14820 0052 0B       		.uleb128 0xb
 14821 0053 3B       		.uleb128 0x3b
 14822 0054 0B       		.uleb128 0xb
 14823 0055 49       		.uleb128 0x49
 14824 0056 13       		.uleb128 0x13
 14825 0057 38       		.uleb128 0x38
 14826 0058 0B       		.uleb128 0xb
 14827 0059 00       		.byte	0
 14828 005a 00       		.byte	0
 14829 005b 08       		.uleb128 0x8
 14830 005c 0D       		.uleb128 0xd
 14831 005d 00       		.byte	0
 14832 005e 03       		.uleb128 0x3
 14833 005f 08       		.uleb128 0x8
 14834 0060 3A       		.uleb128 0x3a
 14835 0061 0B       		.uleb128 0xb
 14836 0062 3B       		.uleb128 0x3b
 14837 0063 05       		.uleb128 0x5
 14838 0064 49       		.uleb128 0x49
 14839 0065 13       		.uleb128 0x13
 14840 0066 38       		.uleb128 0x38
 14841 0067 0B       		.uleb128 0xb
 14842 0068 00       		.byte	0
 14843 0069 00       		.byte	0
 14844 006a 09       		.uleb128 0x9
 14845 006b 0D       		.uleb128 0xd
 14846 006c 00       		.byte	0
 14847 006d 03       		.uleb128 0x3
 14848 006e 0E       		.uleb128 0xe
 14849 006f 3A       		.uleb128 0x3a
 14850 0070 0B       		.uleb128 0xb
 14851 0071 3B       		.uleb128 0x3b
 14852 0072 05       		.uleb128 0x5
 14853 0073 49       		.uleb128 0x49
 14854 0074 13       		.uleb128 0x13
 14855 0075 38       		.uleb128 0x38
ARM GAS  /tmp/ccq8Pe5l.s 			page 262


 14856 0076 0B       		.uleb128 0xb
 14857 0077 00       		.byte	0
 14858 0078 00       		.byte	0
 14859 0079 0A       		.uleb128 0xa
 14860 007a 0F       		.uleb128 0xf
 14861 007b 00       		.byte	0
 14862 007c 0B       		.uleb128 0xb
 14863 007d 0B       		.uleb128 0xb
 14864 007e 49       		.uleb128 0x49
 14865 007f 13       		.uleb128 0x13
 14866 0080 00       		.byte	0
 14867 0081 00       		.byte	0
 14868 0082 0B       		.uleb128 0xb
 14869 0083 13       		.uleb128 0x13
 14870 0084 01       		.byte	0x1
 14871 0085 03       		.uleb128 0x3
 14872 0086 0E       		.uleb128 0xe
 14873 0087 0B       		.uleb128 0xb
 14874 0088 0B       		.uleb128 0xb
 14875 0089 3A       		.uleb128 0x3a
 14876 008a 0B       		.uleb128 0xb
 14877 008b 3B       		.uleb128 0x3b
 14878 008c 05       		.uleb128 0x5
 14879 008d 01       		.uleb128 0x1
 14880 008e 13       		.uleb128 0x13
 14881 008f 00       		.byte	0
 14882 0090 00       		.byte	0
 14883 0091 0C       		.uleb128 0xc
 14884 0092 15       		.uleb128 0x15
 14885 0093 01       		.byte	0x1
 14886 0094 27       		.uleb128 0x27
 14887 0095 19       		.uleb128 0x19
 14888 0096 01       		.uleb128 0x1
 14889 0097 13       		.uleb128 0x13
 14890 0098 00       		.byte	0
 14891 0099 00       		.byte	0
 14892 009a 0D       		.uleb128 0xd
 14893 009b 05       		.uleb128 0x5
 14894 009c 00       		.byte	0
 14895 009d 49       		.uleb128 0x49
 14896 009e 13       		.uleb128 0x13
 14897 009f 00       		.byte	0
 14898 00a0 00       		.byte	0
 14899 00a1 0E       		.uleb128 0xe
 14900 00a2 0F       		.uleb128 0xf
 14901 00a3 00       		.byte	0
 14902 00a4 0B       		.uleb128 0xb
 14903 00a5 0B       		.uleb128 0xb
 14904 00a6 00       		.byte	0
 14905 00a7 00       		.byte	0
 14906 00a8 0F       		.uleb128 0xf
 14907 00a9 13       		.uleb128 0x13
 14908 00aa 01       		.byte	0x1
 14909 00ab 03       		.uleb128 0x3
 14910 00ac 0E       		.uleb128 0xe
 14911 00ad 0B       		.uleb128 0xb
 14912 00ae 05       		.uleb128 0x5
ARM GAS  /tmp/ccq8Pe5l.s 			page 263


 14913 00af 3A       		.uleb128 0x3a
 14914 00b0 0B       		.uleb128 0xb
 14915 00b1 3B       		.uleb128 0x3b
 14916 00b2 05       		.uleb128 0x5
 14917 00b3 01       		.uleb128 0x1
 14918 00b4 13       		.uleb128 0x13
 14919 00b5 00       		.byte	0
 14920 00b6 00       		.byte	0
 14921 00b7 10       		.uleb128 0x10
 14922 00b8 0D       		.uleb128 0xd
 14923 00b9 00       		.byte	0
 14924 00ba 03       		.uleb128 0x3
 14925 00bb 08       		.uleb128 0x8
 14926 00bc 3A       		.uleb128 0x3a
 14927 00bd 0B       		.uleb128 0xb
 14928 00be 3B       		.uleb128 0x3b
 14929 00bf 0B       		.uleb128 0xb
 14930 00c0 49       		.uleb128 0x49
 14931 00c1 13       		.uleb128 0x13
 14932 00c2 38       		.uleb128 0x38
 14933 00c3 0B       		.uleb128 0xb
 14934 00c4 00       		.byte	0
 14935 00c5 00       		.byte	0
 14936 00c6 11       		.uleb128 0x11
 14937 00c7 13       		.uleb128 0x13
 14938 00c8 01       		.byte	0x1
 14939 00c9 0B       		.uleb128 0xb
 14940 00ca 0B       		.uleb128 0xb
 14941 00cb 3A       		.uleb128 0x3a
 14942 00cc 0B       		.uleb128 0xb
 14943 00cd 3B       		.uleb128 0x3b
 14944 00ce 0B       		.uleb128 0xb
 14945 00cf 01       		.uleb128 0x1
 14946 00d0 13       		.uleb128 0x13
 14947 00d1 00       		.byte	0
 14948 00d2 00       		.byte	0
 14949 00d3 12       		.uleb128 0x12
 14950 00d4 17       		.uleb128 0x17
 14951 00d5 01       		.byte	0x1
 14952 00d6 0B       		.uleb128 0xb
 14953 00d7 0B       		.uleb128 0xb
 14954 00d8 3A       		.uleb128 0x3a
 14955 00d9 0B       		.uleb128 0xb
 14956 00da 3B       		.uleb128 0x3b
 14957 00db 0B       		.uleb128 0xb
 14958 00dc 01       		.uleb128 0x1
 14959 00dd 13       		.uleb128 0x13
 14960 00de 00       		.byte	0
 14961 00df 00       		.byte	0
 14962 00e0 13       		.uleb128 0x13
 14963 00e1 0D       		.uleb128 0xd
 14964 00e2 00       		.byte	0
 14965 00e3 03       		.uleb128 0x3
 14966 00e4 0E       		.uleb128 0xe
 14967 00e5 3A       		.uleb128 0x3a
 14968 00e6 0B       		.uleb128 0xb
 14969 00e7 3B       		.uleb128 0x3b
ARM GAS  /tmp/ccq8Pe5l.s 			page 264


 14970 00e8 05       		.uleb128 0x5
 14971 00e9 49       		.uleb128 0x49
 14972 00ea 13       		.uleb128 0x13
 14973 00eb 00       		.byte	0
 14974 00ec 00       		.byte	0
 14975 00ed 14       		.uleb128 0x14
 14976 00ee 26       		.uleb128 0x26
 14977 00ef 00       		.byte	0
 14978 00f0 49       		.uleb128 0x49
 14979 00f1 13       		.uleb128 0x13
 14980 00f2 00       		.byte	0
 14981 00f3 00       		.byte	0
 14982 00f4 15       		.uleb128 0x15
 14983 00f5 01       		.uleb128 0x1
 14984 00f6 01       		.byte	0x1
 14985 00f7 49       		.uleb128 0x49
 14986 00f8 13       		.uleb128 0x13
 14987 00f9 01       		.uleb128 0x1
 14988 00fa 13       		.uleb128 0x13
 14989 00fb 00       		.byte	0
 14990 00fc 00       		.byte	0
 14991 00fd 16       		.uleb128 0x16
 14992 00fe 21       		.uleb128 0x21
 14993 00ff 00       		.byte	0
 14994 0100 49       		.uleb128 0x49
 14995 0101 13       		.uleb128 0x13
 14996 0102 2F       		.uleb128 0x2f
 14997 0103 0B       		.uleb128 0xb
 14998 0104 00       		.byte	0
 14999 0105 00       		.byte	0
 15000 0106 17       		.uleb128 0x17
 15001 0107 04       		.uleb128 0x4
 15002 0108 01       		.byte	0x1
 15003 0109 0B       		.uleb128 0xb
 15004 010a 0B       		.uleb128 0xb
 15005 010b 3A       		.uleb128 0x3a
 15006 010c 0B       		.uleb128 0xb
 15007 010d 3B       		.uleb128 0x3b
 15008 010e 0B       		.uleb128 0xb
 15009 010f 01       		.uleb128 0x1
 15010 0110 13       		.uleb128 0x13
 15011 0111 00       		.byte	0
 15012 0112 00       		.byte	0
 15013 0113 18       		.uleb128 0x18
 15014 0114 28       		.uleb128 0x28
 15015 0115 00       		.byte	0
 15016 0116 03       		.uleb128 0x3
 15017 0117 0E       		.uleb128 0xe
 15018 0118 1C       		.uleb128 0x1c
 15019 0119 0D       		.uleb128 0xd
 15020 011a 00       		.byte	0
 15021 011b 00       		.byte	0
 15022 011c 19       		.uleb128 0x19
 15023 011d 13       		.uleb128 0x13
 15024 011e 01       		.byte	0x1
 15025 011f 0B       		.uleb128 0xb
 15026 0120 05       		.uleb128 0x5
ARM GAS  /tmp/ccq8Pe5l.s 			page 265


 15027 0121 3A       		.uleb128 0x3a
 15028 0122 0B       		.uleb128 0xb
 15029 0123 3B       		.uleb128 0x3b
 15030 0124 0B       		.uleb128 0xb
 15031 0125 01       		.uleb128 0x1
 15032 0126 13       		.uleb128 0x13
 15033 0127 00       		.byte	0
 15034 0128 00       		.byte	0
 15035 0129 1A       		.uleb128 0x1a
 15036 012a 0D       		.uleb128 0xd
 15037 012b 00       		.byte	0
 15038 012c 03       		.uleb128 0x3
 15039 012d 0E       		.uleb128 0xe
 15040 012e 3A       		.uleb128 0x3a
 15041 012f 0B       		.uleb128 0xb
 15042 0130 3B       		.uleb128 0x3b
 15043 0131 0B       		.uleb128 0xb
 15044 0132 49       		.uleb128 0x49
 15045 0133 13       		.uleb128 0x13
 15046 0134 38       		.uleb128 0x38
 15047 0135 05       		.uleb128 0x5
 15048 0136 00       		.byte	0
 15049 0137 00       		.byte	0
 15050 0138 1B       		.uleb128 0x1b
 15051 0139 16       		.uleb128 0x16
 15052 013a 00       		.byte	0
 15053 013b 03       		.uleb128 0x3
 15054 013c 0E       		.uleb128 0xe
 15055 013d 3A       		.uleb128 0x3a
 15056 013e 0B       		.uleb128 0xb
 15057 013f 3B       		.uleb128 0x3b
 15058 0140 05       		.uleb128 0x5
 15059 0141 49       		.uleb128 0x49
 15060 0142 13       		.uleb128 0x13
 15061 0143 00       		.byte	0
 15062 0144 00       		.byte	0
 15063 0145 1C       		.uleb128 0x1c
 15064 0146 04       		.uleb128 0x4
 15065 0147 01       		.byte	0x1
 15066 0148 0B       		.uleb128 0xb
 15067 0149 0B       		.uleb128 0xb
 15068 014a 3A       		.uleb128 0x3a
 15069 014b 0B       		.uleb128 0xb
 15070 014c 3B       		.uleb128 0x3b
 15071 014d 05       		.uleb128 0x5
 15072 014e 01       		.uleb128 0x1
 15073 014f 13       		.uleb128 0x13
 15074 0150 00       		.byte	0
 15075 0151 00       		.byte	0
 15076 0152 1D       		.uleb128 0x1d
 15077 0153 13       		.uleb128 0x13
 15078 0154 01       		.byte	0x1
 15079 0155 0B       		.uleb128 0xb
 15080 0156 0B       		.uleb128 0xb
 15081 0157 3A       		.uleb128 0x3a
 15082 0158 0B       		.uleb128 0xb
 15083 0159 3B       		.uleb128 0x3b
ARM GAS  /tmp/ccq8Pe5l.s 			page 266


 15084 015a 05       		.uleb128 0x5
 15085 015b 01       		.uleb128 0x1
 15086 015c 13       		.uleb128 0x13
 15087 015d 00       		.byte	0
 15088 015e 00       		.byte	0
 15089 015f 1E       		.uleb128 0x1e
 15090 0160 0D       		.uleb128 0xd
 15091 0161 00       		.byte	0
 15092 0162 03       		.uleb128 0x3
 15093 0163 0E       		.uleb128 0xe
 15094 0164 49       		.uleb128 0x49
 15095 0165 13       		.uleb128 0x13
 15096 0166 38       		.uleb128 0x38
 15097 0167 0B       		.uleb128 0xb
 15098 0168 34       		.uleb128 0x34
 15099 0169 19       		.uleb128 0x19
 15100 016a 00       		.byte	0
 15101 016b 00       		.byte	0
 15102 016c 1F       		.uleb128 0x1f
 15103 016d 2E       		.uleb128 0x2e
 15104 016e 01       		.byte	0x1
 15105 016f 03       		.uleb128 0x3
 15106 0170 0E       		.uleb128 0xe
 15107 0171 3A       		.uleb128 0x3a
 15108 0172 0B       		.uleb128 0xb
 15109 0173 3B       		.uleb128 0x3b
 15110 0174 0B       		.uleb128 0xb
 15111 0175 27       		.uleb128 0x27
 15112 0176 19       		.uleb128 0x19
 15113 0177 20       		.uleb128 0x20
 15114 0178 0B       		.uleb128 0xb
 15115 0179 01       		.uleb128 0x1
 15116 017a 13       		.uleb128 0x13
 15117 017b 00       		.byte	0
 15118 017c 00       		.byte	0
 15119 017d 20       		.uleb128 0x20
 15120 017e 05       		.uleb128 0x5
 15121 017f 00       		.byte	0
 15122 0180 03       		.uleb128 0x3
 15123 0181 0E       		.uleb128 0xe
 15124 0182 3A       		.uleb128 0x3a
 15125 0183 0B       		.uleb128 0xb
 15126 0184 3B       		.uleb128 0x3b
 15127 0185 0B       		.uleb128 0xb
 15128 0186 49       		.uleb128 0x49
 15129 0187 13       		.uleb128 0x13
 15130 0188 00       		.byte	0
 15131 0189 00       		.byte	0
 15132 018a 21       		.uleb128 0x21
 15133 018b 2E       		.uleb128 0x2e
 15134 018c 00       		.byte	0
 15135 018d 03       		.uleb128 0x3
 15136 018e 0E       		.uleb128 0xe
 15137 018f 3A       		.uleb128 0x3a
 15138 0190 0B       		.uleb128 0xb
 15139 0191 3B       		.uleb128 0x3b
 15140 0192 0B       		.uleb128 0xb
ARM GAS  /tmp/ccq8Pe5l.s 			page 267


 15141 0193 27       		.uleb128 0x27
 15142 0194 19       		.uleb128 0x19
 15143 0195 49       		.uleb128 0x49
 15144 0196 13       		.uleb128 0x13
 15145 0197 20       		.uleb128 0x20
 15146 0198 0B       		.uleb128 0xb
 15147 0199 00       		.byte	0
 15148 019a 00       		.byte	0
 15149 019b 22       		.uleb128 0x22
 15150 019c 2E       		.uleb128 0x2e
 15151 019d 01       		.byte	0x1
 15152 019e 3F       		.uleb128 0x3f
 15153 019f 19       		.uleb128 0x19
 15154 01a0 03       		.uleb128 0x3
 15155 01a1 0E       		.uleb128 0xe
 15156 01a2 3A       		.uleb128 0x3a
 15157 01a3 0B       		.uleb128 0xb
 15158 01a4 3B       		.uleb128 0x3b
 15159 01a5 0B       		.uleb128 0xb
 15160 01a6 27       		.uleb128 0x27
 15161 01a7 19       		.uleb128 0x19
 15162 01a8 20       		.uleb128 0x20
 15163 01a9 0B       		.uleb128 0xb
 15164 01aa 01       		.uleb128 0x1
 15165 01ab 13       		.uleb128 0x13
 15166 01ac 00       		.byte	0
 15167 01ad 00       		.byte	0
 15168 01ae 23       		.uleb128 0x23
 15169 01af 05       		.uleb128 0x5
 15170 01b0 00       		.byte	0
 15171 01b1 03       		.uleb128 0x3
 15172 01b2 08       		.uleb128 0x8
 15173 01b3 3A       		.uleb128 0x3a
 15174 01b4 0B       		.uleb128 0xb
 15175 01b5 3B       		.uleb128 0x3b
 15176 01b6 0B       		.uleb128 0xb
 15177 01b7 49       		.uleb128 0x49
 15178 01b8 13       		.uleb128 0x13
 15179 01b9 00       		.byte	0
 15180 01ba 00       		.byte	0
 15181 01bb 24       		.uleb128 0x24
 15182 01bc 2E       		.uleb128 0x2e
 15183 01bd 00       		.byte	0
 15184 01be 03       		.uleb128 0x3
 15185 01bf 0E       		.uleb128 0xe
 15186 01c0 3A       		.uleb128 0x3a
 15187 01c1 0B       		.uleb128 0xb
 15188 01c2 3B       		.uleb128 0x3b
 15189 01c3 05       		.uleb128 0x5
 15190 01c4 27       		.uleb128 0x27
 15191 01c5 19       		.uleb128 0x19
 15192 01c6 20       		.uleb128 0x20
 15193 01c7 0B       		.uleb128 0xb
 15194 01c8 00       		.byte	0
 15195 01c9 00       		.byte	0
 15196 01ca 25       		.uleb128 0x25
 15197 01cb 2E       		.uleb128 0x2e
ARM GAS  /tmp/ccq8Pe5l.s 			page 268


 15198 01cc 01       		.byte	0x1
 15199 01cd 03       		.uleb128 0x3
 15200 01ce 0E       		.uleb128 0xe
 15201 01cf 3A       		.uleb128 0x3a
 15202 01d0 0B       		.uleb128 0xb
 15203 01d1 3B       		.uleb128 0x3b
 15204 01d2 05       		.uleb128 0x5
 15205 01d3 27       		.uleb128 0x27
 15206 01d4 19       		.uleb128 0x19
 15207 01d5 11       		.uleb128 0x11
 15208 01d6 01       		.uleb128 0x1
 15209 01d7 12       		.uleb128 0x12
 15210 01d8 06       		.uleb128 0x6
 15211 01d9 40       		.uleb128 0x40
 15212 01da 18       		.uleb128 0x18
 15213 01db 9742     		.uleb128 0x2117
 15214 01dd 19       		.uleb128 0x19
 15215 01de 01       		.uleb128 0x1
 15216 01df 13       		.uleb128 0x13
 15217 01e0 00       		.byte	0
 15218 01e1 00       		.byte	0
 15219 01e2 26       		.uleb128 0x26
 15220 01e3 05       		.uleb128 0x5
 15221 01e4 00       		.byte	0
 15222 01e5 03       		.uleb128 0x3
 15223 01e6 08       		.uleb128 0x8
 15224 01e7 3A       		.uleb128 0x3a
 15225 01e8 0B       		.uleb128 0xb
 15226 01e9 3B       		.uleb128 0x3b
 15227 01ea 05       		.uleb128 0x5
 15228 01eb 49       		.uleb128 0x49
 15229 01ec 13       		.uleb128 0x13
 15230 01ed 02       		.uleb128 0x2
 15231 01ee 17       		.uleb128 0x17
 15232 01ef 00       		.byte	0
 15233 01f0 00       		.byte	0
 15234 01f1 27       		.uleb128 0x27
 15235 01f2 1D       		.uleb128 0x1d
 15236 01f3 01       		.byte	0x1
 15237 01f4 31       		.uleb128 0x31
 15238 01f5 13       		.uleb128 0x13
 15239 01f6 52       		.uleb128 0x52
 15240 01f7 01       		.uleb128 0x1
 15241 01f8 55       		.uleb128 0x55
 15242 01f9 17       		.uleb128 0x17
 15243 01fa 58       		.uleb128 0x58
 15244 01fb 0B       		.uleb128 0xb
 15245 01fc 59       		.uleb128 0x59
 15246 01fd 05       		.uleb128 0x5
 15247 01fe 01       		.uleb128 0x1
 15248 01ff 13       		.uleb128 0x13
 15249 0200 00       		.byte	0
 15250 0201 00       		.byte	0
 15251 0202 28       		.uleb128 0x28
 15252 0203 05       		.uleb128 0x5
 15253 0204 00       		.byte	0
 15254 0205 31       		.uleb128 0x31
ARM GAS  /tmp/ccq8Pe5l.s 			page 269


 15255 0206 13       		.uleb128 0x13
 15256 0207 02       		.uleb128 0x2
 15257 0208 18       		.uleb128 0x18
 15258 0209 00       		.byte	0
 15259 020a 00       		.byte	0
 15260 020b 29       		.uleb128 0x29
 15261 020c 0B       		.uleb128 0xb
 15262 020d 01       		.byte	0x1
 15263 020e 55       		.uleb128 0x55
 15264 020f 17       		.uleb128 0x17
 15265 0210 00       		.byte	0
 15266 0211 00       		.byte	0
 15267 0212 2A       		.uleb128 0x2a
 15268 0213 34       		.uleb128 0x34
 15269 0214 00       		.byte	0
 15270 0215 03       		.uleb128 0x3
 15271 0216 08       		.uleb128 0x8
 15272 0217 3A       		.uleb128 0x3a
 15273 0218 0B       		.uleb128 0xb
 15274 0219 3B       		.uleb128 0x3b
 15275 021a 05       		.uleb128 0x5
 15276 021b 49       		.uleb128 0x49
 15277 021c 13       		.uleb128 0x13
 15278 021d 02       		.uleb128 0x2
 15279 021e 18       		.uleb128 0x18
 15280 021f 00       		.byte	0
 15281 0220 00       		.byte	0
 15282 0221 2B       		.uleb128 0x2b
 15283 0222 05       		.uleb128 0x5
 15284 0223 00       		.byte	0
 15285 0224 31       		.uleb128 0x31
 15286 0225 13       		.uleb128 0x13
 15287 0226 02       		.uleb128 0x2
 15288 0227 17       		.uleb128 0x17
 15289 0228 00       		.byte	0
 15290 0229 00       		.byte	0
 15291 022a 2C       		.uleb128 0x2c
 15292 022b 898201   		.uleb128 0x4109
 15293 022e 01       		.byte	0x1
 15294 022f 11       		.uleb128 0x11
 15295 0230 01       		.uleb128 0x1
 15296 0231 9342     		.uleb128 0x2113
 15297 0233 18       		.uleb128 0x18
 15298 0234 00       		.byte	0
 15299 0235 00       		.byte	0
 15300 0236 2D       		.uleb128 0x2d
 15301 0237 8A8201   		.uleb128 0x410a
 15302 023a 00       		.byte	0
 15303 023b 02       		.uleb128 0x2
 15304 023c 18       		.uleb128 0x18
 15305 023d 9142     		.uleb128 0x2111
 15306 023f 18       		.uleb128 0x18
 15307 0240 00       		.byte	0
 15308 0241 00       		.byte	0
 15309 0242 2E       		.uleb128 0x2e
 15310 0243 898201   		.uleb128 0x4109
 15311 0246 01       		.byte	0x1
ARM GAS  /tmp/ccq8Pe5l.s 			page 270


 15312 0247 11       		.uleb128 0x11
 15313 0248 01       		.uleb128 0x1
 15314 0249 31       		.uleb128 0x31
 15315 024a 13       		.uleb128 0x13
 15316 024b 01       		.uleb128 0x1
 15317 024c 13       		.uleb128 0x13
 15318 024d 00       		.byte	0
 15319 024e 00       		.byte	0
 15320 024f 2F       		.uleb128 0x2f
 15321 0250 898201   		.uleb128 0x4109
 15322 0253 01       		.byte	0x1
 15323 0254 11       		.uleb128 0x11
 15324 0255 01       		.uleb128 0x1
 15325 0256 31       		.uleb128 0x31
 15326 0257 13       		.uleb128 0x13
 15327 0258 00       		.byte	0
 15328 0259 00       		.byte	0
 15329 025a 30       		.uleb128 0x30
 15330 025b 2E       		.uleb128 0x2e
 15331 025c 01       		.byte	0x1
 15332 025d 3F       		.uleb128 0x3f
 15333 025e 19       		.uleb128 0x19
 15334 025f 03       		.uleb128 0x3
 15335 0260 0E       		.uleb128 0xe
 15336 0261 3A       		.uleb128 0x3a
 15337 0262 0B       		.uleb128 0xb
 15338 0263 3B       		.uleb128 0x3b
 15339 0264 0B       		.uleb128 0xb
 15340 0265 27       		.uleb128 0x27
 15341 0266 19       		.uleb128 0x19
 15342 0267 11       		.uleb128 0x11
 15343 0268 01       		.uleb128 0x1
 15344 0269 12       		.uleb128 0x12
 15345 026a 06       		.uleb128 0x6
 15346 026b 40       		.uleb128 0x40
 15347 026c 18       		.uleb128 0x18
 15348 026d 9742     		.uleb128 0x2117
 15349 026f 19       		.uleb128 0x19
 15350 0270 01       		.uleb128 0x1
 15351 0271 13       		.uleb128 0x13
 15352 0272 00       		.byte	0
 15353 0273 00       		.byte	0
 15354 0274 31       		.uleb128 0x31
 15355 0275 05       		.uleb128 0x5
 15356 0276 00       		.byte	0
 15357 0277 03       		.uleb128 0x3
 15358 0278 0E       		.uleb128 0xe
 15359 0279 3A       		.uleb128 0x3a
 15360 027a 0B       		.uleb128 0xb
 15361 027b 3B       		.uleb128 0x3b
 15362 027c 0B       		.uleb128 0xb
 15363 027d 49       		.uleb128 0x49
 15364 027e 13       		.uleb128 0x13
 15365 027f 02       		.uleb128 0x2
 15366 0280 18       		.uleb128 0x18
 15367 0281 00       		.byte	0
 15368 0282 00       		.byte	0
ARM GAS  /tmp/ccq8Pe5l.s 			page 271


 15369 0283 32       		.uleb128 0x32
 15370 0284 2E       		.uleb128 0x2e
 15371 0285 01       		.byte	0x1
 15372 0286 31       		.uleb128 0x31
 15373 0287 13       		.uleb128 0x13
 15374 0288 11       		.uleb128 0x11
 15375 0289 01       		.uleb128 0x1
 15376 028a 12       		.uleb128 0x12
 15377 028b 06       		.uleb128 0x6
 15378 028c 40       		.uleb128 0x40
 15379 028d 18       		.uleb128 0x18
 15380 028e 9742     		.uleb128 0x2117
 15381 0290 19       		.uleb128 0x19
 15382 0291 01       		.uleb128 0x1
 15383 0292 13       		.uleb128 0x13
 15384 0293 00       		.byte	0
 15385 0294 00       		.byte	0
 15386 0295 33       		.uleb128 0x33
 15387 0296 898201   		.uleb128 0x4109
 15388 0299 01       		.byte	0x1
 15389 029a 11       		.uleb128 0x11
 15390 029b 01       		.uleb128 0x1
 15391 029c 9542     		.uleb128 0x2115
 15392 029e 19       		.uleb128 0x19
 15393 029f 00       		.byte	0
 15394 02a0 00       		.byte	0
 15395 02a1 34       		.uleb128 0x34
 15396 02a2 2E       		.uleb128 0x2e
 15397 02a3 01       		.byte	0x1
 15398 02a4 3F       		.uleb128 0x3f
 15399 02a5 19       		.uleb128 0x19
 15400 02a6 03       		.uleb128 0x3
 15401 02a7 0E       		.uleb128 0xe
 15402 02a8 3A       		.uleb128 0x3a
 15403 02a9 0B       		.uleb128 0xb
 15404 02aa 3B       		.uleb128 0x3b
 15405 02ab 0B       		.uleb128 0xb
 15406 02ac 27       		.uleb128 0x27
 15407 02ad 19       		.uleb128 0x19
 15408 02ae 11       		.uleb128 0x11
 15409 02af 01       		.uleb128 0x1
 15410 02b0 12       		.uleb128 0x12
 15411 02b1 06       		.uleb128 0x6
 15412 02b2 40       		.uleb128 0x40
 15413 02b3 18       		.uleb128 0x18
 15414 02b4 9642     		.uleb128 0x2116
 15415 02b6 19       		.uleb128 0x19
 15416 02b7 01       		.uleb128 0x1
 15417 02b8 13       		.uleb128 0x13
 15418 02b9 00       		.byte	0
 15419 02ba 00       		.byte	0
 15420 02bb 35       		.uleb128 0x35
 15421 02bc 05       		.uleb128 0x5
 15422 02bd 00       		.byte	0
 15423 02be 03       		.uleb128 0x3
 15424 02bf 0E       		.uleb128 0xe
 15425 02c0 3A       		.uleb128 0x3a
ARM GAS  /tmp/ccq8Pe5l.s 			page 272


 15426 02c1 0B       		.uleb128 0xb
 15427 02c2 3B       		.uleb128 0x3b
 15428 02c3 0B       		.uleb128 0xb
 15429 02c4 49       		.uleb128 0x49
 15430 02c5 13       		.uleb128 0x13
 15431 02c6 02       		.uleb128 0x2
 15432 02c7 17       		.uleb128 0x17
 15433 02c8 00       		.byte	0
 15434 02c9 00       		.byte	0
 15435 02ca 36       		.uleb128 0x36
 15436 02cb 05       		.uleb128 0x5
 15437 02cc 00       		.byte	0
 15438 02cd 03       		.uleb128 0x3
 15439 02ce 08       		.uleb128 0x8
 15440 02cf 3A       		.uleb128 0x3a
 15441 02d0 0B       		.uleb128 0xb
 15442 02d1 3B       		.uleb128 0x3b
 15443 02d2 0B       		.uleb128 0xb
 15444 02d3 49       		.uleb128 0x49
 15445 02d4 13       		.uleb128 0x13
 15446 02d5 02       		.uleb128 0x2
 15447 02d6 17       		.uleb128 0x17
 15448 02d7 00       		.byte	0
 15449 02d8 00       		.byte	0
 15450 02d9 37       		.uleb128 0x37
 15451 02da 34       		.uleb128 0x34
 15452 02db 00       		.byte	0
 15453 02dc 03       		.uleb128 0x3
 15454 02dd 0E       		.uleb128 0xe
 15455 02de 3A       		.uleb128 0x3a
 15456 02df 0B       		.uleb128 0xb
 15457 02e0 3B       		.uleb128 0x3b
 15458 02e1 0B       		.uleb128 0xb
 15459 02e2 49       		.uleb128 0x49
 15460 02e3 13       		.uleb128 0x13
 15461 02e4 02       		.uleb128 0x2
 15462 02e5 17       		.uleb128 0x17
 15463 02e6 00       		.byte	0
 15464 02e7 00       		.byte	0
 15465 02e8 38       		.uleb128 0x38
 15466 02e9 34       		.uleb128 0x34
 15467 02ea 00       		.byte	0
 15468 02eb 03       		.uleb128 0x3
 15469 02ec 08       		.uleb128 0x8
 15470 02ed 3A       		.uleb128 0x3a
 15471 02ee 0B       		.uleb128 0xb
 15472 02ef 3B       		.uleb128 0x3b
 15473 02f0 0B       		.uleb128 0xb
 15474 02f1 49       		.uleb128 0x49
 15475 02f2 13       		.uleb128 0x13
 15476 02f3 02       		.uleb128 0x2
 15477 02f4 18       		.uleb128 0x18
 15478 02f5 00       		.byte	0
 15479 02f6 00       		.byte	0
 15480 02f7 39       		.uleb128 0x39
 15481 02f8 34       		.uleb128 0x34
 15482 02f9 00       		.byte	0
ARM GAS  /tmp/ccq8Pe5l.s 			page 273


 15483 02fa 03       		.uleb128 0x3
 15484 02fb 0E       		.uleb128 0xe
 15485 02fc 3A       		.uleb128 0x3a
 15486 02fd 0B       		.uleb128 0xb
 15487 02fe 3B       		.uleb128 0x3b
 15488 02ff 0B       		.uleb128 0xb
 15489 0300 49       		.uleb128 0x49
 15490 0301 13       		.uleb128 0x13
 15491 0302 02       		.uleb128 0x2
 15492 0303 18       		.uleb128 0x18
 15493 0304 00       		.byte	0
 15494 0305 00       		.byte	0
 15495 0306 3A       		.uleb128 0x3a
 15496 0307 898201   		.uleb128 0x4109
 15497 030a 01       		.byte	0x1
 15498 030b 11       		.uleb128 0x11
 15499 030c 01       		.uleb128 0x1
 15500 030d 00       		.byte	0
 15501 030e 00       		.byte	0
 15502 030f 3B       		.uleb128 0x3b
 15503 0310 1D       		.uleb128 0x1d
 15504 0311 01       		.byte	0x1
 15505 0312 31       		.uleb128 0x31
 15506 0313 13       		.uleb128 0x13
 15507 0314 52       		.uleb128 0x52
 15508 0315 01       		.uleb128 0x1
 15509 0316 55       		.uleb128 0x55
 15510 0317 17       		.uleb128 0x17
 15511 0318 58       		.uleb128 0x58
 15512 0319 0B       		.uleb128 0xb
 15513 031a 59       		.uleb128 0x59
 15514 031b 0B       		.uleb128 0xb
 15515 031c 01       		.uleb128 0x1
 15516 031d 13       		.uleb128 0x13
 15517 031e 00       		.byte	0
 15518 031f 00       		.byte	0
 15519 0320 3C       		.uleb128 0x3c
 15520 0321 1D       		.uleb128 0x1d
 15521 0322 00       		.byte	0
 15522 0323 31       		.uleb128 0x31
 15523 0324 13       		.uleb128 0x13
 15524 0325 11       		.uleb128 0x11
 15525 0326 01       		.uleb128 0x1
 15526 0327 12       		.uleb128 0x12
 15527 0328 06       		.uleb128 0x6
 15528 0329 58       		.uleb128 0x58
 15529 032a 0B       		.uleb128 0xb
 15530 032b 59       		.uleb128 0x59
 15531 032c 05       		.uleb128 0x5
 15532 032d 00       		.byte	0
 15533 032e 00       		.byte	0
 15534 032f 3D       		.uleb128 0x3d
 15535 0330 0B       		.uleb128 0xb
 15536 0331 01       		.byte	0x1
 15537 0332 11       		.uleb128 0x11
 15538 0333 01       		.uleb128 0x1
 15539 0334 12       		.uleb128 0x12
ARM GAS  /tmp/ccq8Pe5l.s 			page 274


 15540 0335 06       		.uleb128 0x6
 15541 0336 01       		.uleb128 0x1
 15542 0337 13       		.uleb128 0x13
 15543 0338 00       		.byte	0
 15544 0339 00       		.byte	0
 15545 033a 3E       		.uleb128 0x3e
 15546 033b 34       		.uleb128 0x34
 15547 033c 00       		.byte	0
 15548 033d 03       		.uleb128 0x3
 15549 033e 0E       		.uleb128 0xe
 15550 033f 3A       		.uleb128 0x3a
 15551 0340 0B       		.uleb128 0xb
 15552 0341 3B       		.uleb128 0x3b
 15553 0342 05       		.uleb128 0x5
 15554 0343 49       		.uleb128 0x49
 15555 0344 13       		.uleb128 0x13
 15556 0345 02       		.uleb128 0x2
 15557 0346 17       		.uleb128 0x17
 15558 0347 00       		.byte	0
 15559 0348 00       		.byte	0
 15560 0349 3F       		.uleb128 0x3f
 15561 034a 34       		.uleb128 0x34
 15562 034b 00       		.byte	0
 15563 034c 03       		.uleb128 0x3
 15564 034d 0E       		.uleb128 0xe
 15565 034e 3A       		.uleb128 0x3a
 15566 034f 0B       		.uleb128 0xb
 15567 0350 3B       		.uleb128 0x3b
 15568 0351 05       		.uleb128 0x5
 15569 0352 49       		.uleb128 0x49
 15570 0353 13       		.uleb128 0x13
 15571 0354 02       		.uleb128 0x2
 15572 0355 18       		.uleb128 0x18
 15573 0356 00       		.byte	0
 15574 0357 00       		.byte	0
 15575 0358 40       		.uleb128 0x40
 15576 0359 34       		.uleb128 0x34
 15577 035a 00       		.byte	0
 15578 035b 03       		.uleb128 0x3
 15579 035c 08       		.uleb128 0x8
 15580 035d 3A       		.uleb128 0x3a
 15581 035e 0B       		.uleb128 0xb
 15582 035f 3B       		.uleb128 0x3b
 15583 0360 05       		.uleb128 0x5
 15584 0361 49       		.uleb128 0x49
 15585 0362 13       		.uleb128 0x13
 15586 0363 02       		.uleb128 0x2
 15587 0364 17       		.uleb128 0x17
 15588 0365 00       		.byte	0
 15589 0366 00       		.byte	0
 15590 0367 41       		.uleb128 0x41
 15591 0368 898201   		.uleb128 0x4109
 15592 036b 00       		.byte	0
 15593 036c 11       		.uleb128 0x11
 15594 036d 01       		.uleb128 0x1
 15595 036e 31       		.uleb128 0x31
 15596 036f 13       		.uleb128 0x13
ARM GAS  /tmp/ccq8Pe5l.s 			page 275


 15597 0370 00       		.byte	0
 15598 0371 00       		.byte	0
 15599 0372 42       		.uleb128 0x42
 15600 0373 2E       		.uleb128 0x2e
 15601 0374 01       		.byte	0x1
 15602 0375 3F       		.uleb128 0x3f
 15603 0376 19       		.uleb128 0x19
 15604 0377 03       		.uleb128 0x3
 15605 0378 0E       		.uleb128 0xe
 15606 0379 3A       		.uleb128 0x3a
 15607 037a 0B       		.uleb128 0xb
 15608 037b 3B       		.uleb128 0x3b
 15609 037c 05       		.uleb128 0x5
 15610 037d 27       		.uleb128 0x27
 15611 037e 19       		.uleb128 0x19
 15612 037f 11       		.uleb128 0x11
 15613 0380 01       		.uleb128 0x1
 15614 0381 12       		.uleb128 0x12
 15615 0382 06       		.uleb128 0x6
 15616 0383 40       		.uleb128 0x40
 15617 0384 18       		.uleb128 0x18
 15618 0385 9742     		.uleb128 0x2117
 15619 0387 19       		.uleb128 0x19
 15620 0388 01       		.uleb128 0x1
 15621 0389 13       		.uleb128 0x13
 15622 038a 00       		.byte	0
 15623 038b 00       		.byte	0
 15624 038c 43       		.uleb128 0x43
 15625 038d 05       		.uleb128 0x5
 15626 038e 00       		.byte	0
 15627 038f 03       		.uleb128 0x3
 15628 0390 0E       		.uleb128 0xe
 15629 0391 3A       		.uleb128 0x3a
 15630 0392 0B       		.uleb128 0xb
 15631 0393 3B       		.uleb128 0x3b
 15632 0394 05       		.uleb128 0x5
 15633 0395 49       		.uleb128 0x49
 15634 0396 13       		.uleb128 0x13
 15635 0397 02       		.uleb128 0x2
 15636 0398 18       		.uleb128 0x18
 15637 0399 00       		.byte	0
 15638 039a 00       		.byte	0
 15639 039b 44       		.uleb128 0x44
 15640 039c 18       		.uleb128 0x18
 15641 039d 00       		.byte	0
 15642 039e 00       		.byte	0
 15643 039f 00       		.byte	0
 15644 03a0 45       		.uleb128 0x45
 15645 03a1 05       		.uleb128 0x5
 15646 03a2 00       		.byte	0
 15647 03a3 03       		.uleb128 0x3
 15648 03a4 0E       		.uleb128 0xe
 15649 03a5 3A       		.uleb128 0x3a
 15650 03a6 0B       		.uleb128 0xb
 15651 03a7 3B       		.uleb128 0x3b
 15652 03a8 05       		.uleb128 0x5
 15653 03a9 49       		.uleb128 0x49
ARM GAS  /tmp/ccq8Pe5l.s 			page 276


 15654 03aa 13       		.uleb128 0x13
 15655 03ab 02       		.uleb128 0x2
 15656 03ac 17       		.uleb128 0x17
 15657 03ad 00       		.byte	0
 15658 03ae 00       		.byte	0
 15659 03af 46       		.uleb128 0x46
 15660 03b0 34       		.uleb128 0x34
 15661 03b1 00       		.byte	0
 15662 03b2 34       		.uleb128 0x34
 15663 03b3 19       		.uleb128 0x19
 15664 03b4 49       		.uleb128 0x49
 15665 03b5 13       		.uleb128 0x13
 15666 03b6 02       		.uleb128 0x2
 15667 03b7 17       		.uleb128 0x17
 15668 03b8 00       		.byte	0
 15669 03b9 00       		.byte	0
 15670 03ba 47       		.uleb128 0x47
 15671 03bb 0B       		.uleb128 0xb
 15672 03bc 01       		.byte	0x1
 15673 03bd 55       		.uleb128 0x55
 15674 03be 17       		.uleb128 0x17
 15675 03bf 01       		.uleb128 0x1
 15676 03c0 13       		.uleb128 0x13
 15677 03c1 00       		.byte	0
 15678 03c2 00       		.byte	0
 15679 03c3 48       		.uleb128 0x48
 15680 03c4 1D       		.uleb128 0x1d
 15681 03c5 01       		.byte	0x1
 15682 03c6 31       		.uleb128 0x31
 15683 03c7 13       		.uleb128 0x13
 15684 03c8 11       		.uleb128 0x11
 15685 03c9 01       		.uleb128 0x1
 15686 03ca 12       		.uleb128 0x12
 15687 03cb 06       		.uleb128 0x6
 15688 03cc 58       		.uleb128 0x58
 15689 03cd 0B       		.uleb128 0xb
 15690 03ce 59       		.uleb128 0x59
 15691 03cf 05       		.uleb128 0x5
 15692 03d0 00       		.byte	0
 15693 03d1 00       		.byte	0
 15694 03d2 49       		.uleb128 0x49
 15695 03d3 21       		.uleb128 0x21
 15696 03d4 00       		.byte	0
 15697 03d5 49       		.uleb128 0x49
 15698 03d6 13       		.uleb128 0x13
 15699 03d7 2F       		.uleb128 0x2f
 15700 03d8 13       		.uleb128 0x13
 15701 03d9 00       		.byte	0
 15702 03da 00       		.byte	0
 15703 03db 4A       		.uleb128 0x4a
 15704 03dc 2E       		.uleb128 0x2e
 15705 03dd 00       		.byte	0
 15706 03de 3F       		.uleb128 0x3f
 15707 03df 19       		.uleb128 0x19
 15708 03e0 03       		.uleb128 0x3
 15709 03e1 0E       		.uleb128 0xe
 15710 03e2 3A       		.uleb128 0x3a
ARM GAS  /tmp/ccq8Pe5l.s 			page 277


 15711 03e3 0B       		.uleb128 0xb
 15712 03e4 3B       		.uleb128 0x3b
 15713 03e5 05       		.uleb128 0x5
 15714 03e6 27       		.uleb128 0x27
 15715 03e7 19       		.uleb128 0x19
 15716 03e8 49       		.uleb128 0x49
 15717 03e9 13       		.uleb128 0x13
 15718 03ea 11       		.uleb128 0x11
 15719 03eb 01       		.uleb128 0x1
 15720 03ec 12       		.uleb128 0x12
 15721 03ed 06       		.uleb128 0x6
 15722 03ee 40       		.uleb128 0x40
 15723 03ef 18       		.uleb128 0x18
 15724 03f0 9742     		.uleb128 0x2117
 15725 03f2 19       		.uleb128 0x19
 15726 03f3 00       		.byte	0
 15727 03f4 00       		.byte	0
 15728 03f5 4B       		.uleb128 0x4b
 15729 03f6 21       		.uleb128 0x21
 15730 03f7 00       		.byte	0
 15731 03f8 49       		.uleb128 0x49
 15732 03f9 13       		.uleb128 0x13
 15733 03fa 2F       		.uleb128 0x2f
 15734 03fb 05       		.uleb128 0x5
 15735 03fc 00       		.byte	0
 15736 03fd 00       		.byte	0
 15737 03fe 4C       		.uleb128 0x4c
 15738 03ff 34       		.uleb128 0x34
 15739 0400 00       		.byte	0
 15740 0401 03       		.uleb128 0x3
 15741 0402 0E       		.uleb128 0xe
 15742 0403 3A       		.uleb128 0x3a
 15743 0404 0B       		.uleb128 0xb
 15744 0405 3B       		.uleb128 0x3b
 15745 0406 05       		.uleb128 0x5
 15746 0407 49       		.uleb128 0x49
 15747 0408 13       		.uleb128 0x13
 15748 0409 3F       		.uleb128 0x3f
 15749 040a 19       		.uleb128 0x19
 15750 040b 3C       		.uleb128 0x3c
 15751 040c 19       		.uleb128 0x19
 15752 040d 00       		.byte	0
 15753 040e 00       		.byte	0
 15754 040f 4D       		.uleb128 0x4d
 15755 0410 34       		.uleb128 0x34
 15756 0411 00       		.byte	0
 15757 0412 03       		.uleb128 0x3
 15758 0413 08       		.uleb128 0x8
 15759 0414 3A       		.uleb128 0x3a
 15760 0415 0B       		.uleb128 0xb
 15761 0416 3B       		.uleb128 0x3b
 15762 0417 05       		.uleb128 0x5
 15763 0418 49       		.uleb128 0x49
 15764 0419 13       		.uleb128 0x13
 15765 041a 3F       		.uleb128 0x3f
 15766 041b 19       		.uleb128 0x19
 15767 041c 3C       		.uleb128 0x3c
ARM GAS  /tmp/ccq8Pe5l.s 			page 278


 15768 041d 19       		.uleb128 0x19
 15769 041e 00       		.byte	0
 15770 041f 00       		.byte	0
 15771 0420 4E       		.uleb128 0x4e
 15772 0421 21       		.uleb128 0x21
 15773 0422 00       		.byte	0
 15774 0423 00       		.byte	0
 15775 0424 00       		.byte	0
 15776 0425 4F       		.uleb128 0x4f
 15777 0426 34       		.uleb128 0x34
 15778 0427 00       		.byte	0
 15779 0428 03       		.uleb128 0x3
 15780 0429 0E       		.uleb128 0xe
 15781 042a 3A       		.uleb128 0x3a
 15782 042b 0B       		.uleb128 0xb
 15783 042c 3B       		.uleb128 0x3b
 15784 042d 0B       		.uleb128 0xb
 15785 042e 49       		.uleb128 0x49
 15786 042f 13       		.uleb128 0x13
 15787 0430 3F       		.uleb128 0x3f
 15788 0431 19       		.uleb128 0x19
 15789 0432 3C       		.uleb128 0x3c
 15790 0433 19       		.uleb128 0x19
 15791 0434 00       		.byte	0
 15792 0435 00       		.byte	0
 15793 0436 50       		.uleb128 0x50
 15794 0437 2E       		.uleb128 0x2e
 15795 0438 01       		.byte	0x1
 15796 0439 3F       		.uleb128 0x3f
 15797 043a 19       		.uleb128 0x19
 15798 043b 03       		.uleb128 0x3
 15799 043c 0E       		.uleb128 0xe
 15800 043d 3A       		.uleb128 0x3a
 15801 043e 0B       		.uleb128 0xb
 15802 043f 3B       		.uleb128 0x3b
 15803 0440 0B       		.uleb128 0xb
 15804 0441 27       		.uleb128 0x27
 15805 0442 19       		.uleb128 0x19
 15806 0443 49       		.uleb128 0x49
 15807 0444 13       		.uleb128 0x13
 15808 0445 3C       		.uleb128 0x3c
 15809 0446 19       		.uleb128 0x19
 15810 0447 01       		.uleb128 0x1
 15811 0448 13       		.uleb128 0x13
 15812 0449 00       		.byte	0
 15813 044a 00       		.byte	0
 15814 044b 51       		.uleb128 0x51
 15815 044c 2E       		.uleb128 0x2e
 15816 044d 01       		.byte	0x1
 15817 044e 3F       		.uleb128 0x3f
 15818 044f 19       		.uleb128 0x19
 15819 0450 03       		.uleb128 0x3
 15820 0451 0E       		.uleb128 0xe
 15821 0452 3A       		.uleb128 0x3a
 15822 0453 0B       		.uleb128 0xb
 15823 0454 3B       		.uleb128 0x3b
 15824 0455 0B       		.uleb128 0xb
ARM GAS  /tmp/ccq8Pe5l.s 			page 279


 15825 0456 27       		.uleb128 0x27
 15826 0457 19       		.uleb128 0x19
 15827 0458 3C       		.uleb128 0x3c
 15828 0459 19       		.uleb128 0x19
 15829 045a 01       		.uleb128 0x1
 15830 045b 13       		.uleb128 0x13
 15831 045c 00       		.byte	0
 15832 045d 00       		.byte	0
 15833 045e 52       		.uleb128 0x52
 15834 045f 2E       		.uleb128 0x2e
 15835 0460 00       		.byte	0
 15836 0461 3F       		.uleb128 0x3f
 15837 0462 19       		.uleb128 0x19
 15838 0463 03       		.uleb128 0x3
 15839 0464 0E       		.uleb128 0xe
 15840 0465 3A       		.uleb128 0x3a
 15841 0466 0B       		.uleb128 0xb
 15842 0467 3B       		.uleb128 0x3b
 15843 0468 0B       		.uleb128 0xb
 15844 0469 27       		.uleb128 0x27
 15845 046a 19       		.uleb128 0x19
 15846 046b 49       		.uleb128 0x49
 15847 046c 13       		.uleb128 0x13
 15848 046d 3C       		.uleb128 0x3c
 15849 046e 19       		.uleb128 0x19
 15850 046f 00       		.byte	0
 15851 0470 00       		.byte	0
 15852 0471 53       		.uleb128 0x53
 15853 0472 2E       		.uleb128 0x2e
 15854 0473 01       		.byte	0x1
 15855 0474 3F       		.uleb128 0x3f
 15856 0475 19       		.uleb128 0x19
 15857 0476 03       		.uleb128 0x3
 15858 0477 0E       		.uleb128 0xe
 15859 0478 27       		.uleb128 0x27
 15860 0479 19       		.uleb128 0x19
 15861 047a 49       		.uleb128 0x49
 15862 047b 13       		.uleb128 0x13
 15863 047c 34       		.uleb128 0x34
 15864 047d 19       		.uleb128 0x19
 15865 047e 3C       		.uleb128 0x3c
 15866 047f 19       		.uleb128 0x19
 15867 0480 01       		.uleb128 0x1
 15868 0481 13       		.uleb128 0x13
 15869 0482 00       		.byte	0
 15870 0483 00       		.byte	0
 15871 0484 54       		.uleb128 0x54
 15872 0485 26       		.uleb128 0x26
 15873 0486 00       		.byte	0
 15874 0487 00       		.byte	0
 15875 0488 00       		.byte	0
 15876 0489 55       		.uleb128 0x55
 15877 048a 2E       		.uleb128 0x2e
 15878 048b 00       		.byte	0
 15879 048c 3F       		.uleb128 0x3f
 15880 048d 19       		.uleb128 0x19
 15881 048e 03       		.uleb128 0x3
ARM GAS  /tmp/ccq8Pe5l.s 			page 280


 15882 048f 0E       		.uleb128 0xe
 15883 0490 3A       		.uleb128 0x3a
 15884 0491 0B       		.uleb128 0xb
 15885 0492 3B       		.uleb128 0x3b
 15886 0493 0B       		.uleb128 0xb
 15887 0494 27       		.uleb128 0x27
 15888 0495 19       		.uleb128 0x19
 15889 0496 3C       		.uleb128 0x3c
 15890 0497 19       		.uleb128 0x19
 15891 0498 00       		.byte	0
 15892 0499 00       		.byte	0
 15893 049a 56       		.uleb128 0x56
 15894 049b 2E       		.uleb128 0x2e
 15895 049c 01       		.byte	0x1
 15896 049d 3F       		.uleb128 0x3f
 15897 049e 19       		.uleb128 0x19
 15898 049f 03       		.uleb128 0x3
 15899 04a0 0E       		.uleb128 0xe
 15900 04a1 3A       		.uleb128 0x3a
 15901 04a2 0B       		.uleb128 0xb
 15902 04a3 3B       		.uleb128 0x3b
 15903 04a4 05       		.uleb128 0x5
 15904 04a5 27       		.uleb128 0x27
 15905 04a6 19       		.uleb128 0x19
 15906 04a7 49       		.uleb128 0x49
 15907 04a8 13       		.uleb128 0x13
 15908 04a9 3C       		.uleb128 0x3c
 15909 04aa 19       		.uleb128 0x19
 15910 04ab 01       		.uleb128 0x1
 15911 04ac 13       		.uleb128 0x13
 15912 04ad 00       		.byte	0
 15913 04ae 00       		.byte	0
 15914 04af 57       		.uleb128 0x57
 15915 04b0 2E       		.uleb128 0x2e
 15916 04b1 01       		.byte	0x1
 15917 04b2 3F       		.uleb128 0x3f
 15918 04b3 19       		.uleb128 0x19
 15919 04b4 03       		.uleb128 0x3
 15920 04b5 0E       		.uleb128 0xe
 15921 04b6 3A       		.uleb128 0x3a
 15922 04b7 0B       		.uleb128 0xb
 15923 04b8 3B       		.uleb128 0x3b
 15924 04b9 05       		.uleb128 0x5
 15925 04ba 27       		.uleb128 0x27
 15926 04bb 19       		.uleb128 0x19
 15927 04bc 49       		.uleb128 0x49
 15928 04bd 13       		.uleb128 0x13
 15929 04be 3C       		.uleb128 0x3c
 15930 04bf 19       		.uleb128 0x19
 15931 04c0 00       		.byte	0
 15932 04c1 00       		.byte	0
 15933 04c2 00       		.byte	0
 15934              		.section	.debug_loc,"",%progbits
 15935              	.Ldebug_loc0:
 15936              	.LLST0:
 15937 0000 00000000 		.4byte	.LVL0
 15938 0004 34000000 		.4byte	.LVL1
ARM GAS  /tmp/ccq8Pe5l.s 			page 281


 15939 0008 0100     		.2byte	0x1
 15940 000a 50       		.byte	0x50
 15941 000b 34000000 		.4byte	.LVL1
 15942 000f 00010000 		.4byte	.LFE267
 15943 0013 0400     		.2byte	0x4
 15944 0015 F3       		.byte	0xf3
 15945 0016 01       		.uleb128 0x1
 15946 0017 50       		.byte	0x50
 15947 0018 9F       		.byte	0x9f
 15948 0019 00000000 		.4byte	0
 15949 001d 00000000 		.4byte	0
 15950              	.LLST1:
 15951 0021 B4000000 		.4byte	.LVL6
 15952 0025 B9000000 		.4byte	.LVL7-1
 15953 0029 0100     		.2byte	0x1
 15954 002b 51       		.byte	0x51
 15955 002c 00000000 		.4byte	0
 15956 0030 00000000 		.4byte	0
 15957              	.LLST2:
 15958 0034 B4000000 		.4byte	.LVL6
 15959 0038 BC000000 		.4byte	.LVL8
 15960 003c 0600     		.2byte	0x6
 15961 003e 03       		.byte	0x3
 15962 003f 00000000 		.4byte	send_buffer
 15963 0043 9F       		.byte	0x9f
 15964 0044 00000000 		.4byte	0
 15965 0048 00000000 		.4byte	0
 15966              	.LLST3:
 15967 004c 00000000 		.4byte	.LVL11
 15968 0050 07000000 		.4byte	.LVL12-1
 15969 0054 0100     		.2byte	0x1
 15970 0056 50       		.byte	0x50
 15971 0057 07000000 		.4byte	.LVL12-1
 15972 005b 08000000 		.4byte	.LVL12
 15973 005f 0400     		.2byte	0x4
 15974 0061 F3       		.byte	0xf3
 15975 0062 01       		.uleb128 0x1
 15976 0063 50       		.byte	0x50
 15977 0064 9F       		.byte	0x9f
 15978 0065 08000000 		.4byte	.LVL12
 15979 0069 10000000 		.4byte	.LFE258
 15980 006d 0100     		.2byte	0x1
 15981 006f 50       		.byte	0x50
 15982 0070 00000000 		.4byte	0
 15983 0074 00000000 		.4byte	0
 15984              	.LLST4:
 15985 0078 00000000 		.4byte	.LVL11
 15986 007c 07000000 		.4byte	.LVL12-1
 15987 0080 0100     		.2byte	0x1
 15988 0082 51       		.byte	0x51
 15989 0083 07000000 		.4byte	.LVL12-1
 15990 0087 08000000 		.4byte	.LVL12
 15991 008b 0400     		.2byte	0x4
 15992 008d F3       		.byte	0xf3
 15993 008e 01       		.uleb128 0x1
 15994 008f 51       		.byte	0x51
 15995 0090 9F       		.byte	0x9f
ARM GAS  /tmp/ccq8Pe5l.s 			page 282


 15996 0091 08000000 		.4byte	.LVL12
 15997 0095 10000000 		.4byte	.LFE258
 15998 0099 0100     		.2byte	0x1
 15999 009b 51       		.byte	0x51
 16000 009c 00000000 		.4byte	0
 16001 00a0 00000000 		.4byte	0
 16002              	.LLST5:
 16003 00a4 00000000 		.4byte	.LVL13
 16004 00a8 12000000 		.4byte	.LVL14
 16005 00ac 0100     		.2byte	0x1
 16006 00ae 50       		.byte	0x50
 16007 00af 12000000 		.4byte	.LVL14
 16008 00b3 6E000000 		.4byte	.LVL16
 16009 00b7 0100     		.2byte	0x1
 16010 00b9 54       		.byte	0x54
 16011 00ba 6E000000 		.4byte	.LVL16
 16012 00be 70000000 		.4byte	.LVL17
 16013 00c2 0100     		.2byte	0x1
 16014 00c4 50       		.byte	0x50
 16015 00c5 70000000 		.4byte	.LVL17
 16016 00c9 80000000 		.4byte	.LVL19
 16017 00cd 0100     		.2byte	0x1
 16018 00cf 54       		.byte	0x54
 16019 00d0 80000000 		.4byte	.LVL19
 16020 00d4 28020000 		.4byte	.LVL34
 16021 00d8 0300     		.2byte	0x3
 16022 00da 77       		.byte	0x77
 16023 00db 01       		.sleb128 1
 16024 00dc 9F       		.byte	0x9f
 16025 00dd 28020000 		.4byte	.LVL34
 16026 00e1 98030000 		.4byte	.LVL50
 16027 00e5 0600     		.2byte	0x6
 16028 00e7 F3       		.byte	0xf3
 16029 00e8 01       		.uleb128 0x1
 16030 00e9 50       		.byte	0x50
 16031 00ea 23       		.byte	0x23
 16032 00eb 01       		.uleb128 0x1
 16033 00ec 9F       		.byte	0x9f
 16034 00ed 98030000 		.4byte	.LVL50
 16035 00f1 9E030000 		.4byte	.LVL52
 16036 00f5 0100     		.2byte	0x1
 16037 00f7 54       		.byte	0x54
 16038 00f8 9E030000 		.4byte	.LVL52
 16039 00fc E0030000 		.4byte	.LVL56
 16040 0100 0300     		.2byte	0x3
 16041 0102 77       		.byte	0x77
 16042 0103 01       		.sleb128 1
 16043 0104 9F       		.byte	0x9f
 16044 0105 E0030000 		.4byte	.LVL56
 16045 0109 E4030000 		.4byte	.LVL58
 16046 010d 0100     		.2byte	0x1
 16047 010f 54       		.byte	0x54
 16048 0110 E4030000 		.4byte	.LVL58
 16049 0114 EE030000 		.4byte	.LVL59
 16050 0118 0300     		.2byte	0x3
 16051 011a 70       		.byte	0x70
 16052 011b 01       		.sleb128 1
ARM GAS  /tmp/ccq8Pe5l.s 			page 283


 16053 011c 9F       		.byte	0x9f
 16054 011d EE030000 		.4byte	.LVL59
 16055 0121 30040000 		.4byte	.LVL65
 16056 0125 0300     		.2byte	0x3
 16057 0127 77       		.byte	0x77
 16058 0128 01       		.sleb128 1
 16059 0129 9F       		.byte	0x9f
 16060 012a 30040000 		.4byte	.LVL65
 16061 012e 3E040000 		.4byte	.LVL67
 16062 0132 0600     		.2byte	0x6
 16063 0134 F3       		.byte	0xf3
 16064 0135 01       		.uleb128 0x1
 16065 0136 50       		.byte	0x50
 16066 0137 23       		.byte	0x23
 16067 0138 01       		.uleb128 0x1
 16068 0139 9F       		.byte	0x9f
 16069 013a 3E040000 		.4byte	.LVL67
 16070 013e CC040000 		.4byte	.LVL80
 16071 0142 0100     		.2byte	0x1
 16072 0144 54       		.byte	0x54
 16073 0145 CC040000 		.4byte	.LVL80
 16074 0149 01050000 		.4byte	.LVL82-1
 16075 014d 0300     		.2byte	0x3
 16076 014f 70       		.byte	0x70
 16077 0150 01       		.sleb128 1
 16078 0151 9F       		.byte	0x9f
 16079 0152 01050000 		.4byte	.LVL82-1
 16080 0156 90070000 		.4byte	.LVL119
 16081 015a 0300     		.2byte	0x3
 16082 015c 77       		.byte	0x77
 16083 015d 01       		.sleb128 1
 16084 015e 9F       		.byte	0x9f
 16085 015f 90070000 		.4byte	.LVL119
 16086 0163 AE070000 		.4byte	.LVL123
 16087 0167 0100     		.2byte	0x1
 16088 0169 54       		.byte	0x54
 16089 016a AE070000 		.4byte	.LVL123
 16090 016e C8070000 		.4byte	.LVL127
 16091 0172 0300     		.2byte	0x3
 16092 0174 77       		.byte	0x77
 16093 0175 01       		.sleb128 1
 16094 0176 9F       		.byte	0x9f
 16095 0177 C8070000 		.4byte	.LVL127
 16096 017b 02080000 		.4byte	.LVL135
 16097 017f 0100     		.2byte	0x1
 16098 0181 54       		.byte	0x54
 16099 0182 02080000 		.4byte	.LVL135
 16100 0186 14080000 		.4byte	.LVL138
 16101 018a 0300     		.2byte	0x3
 16102 018c 77       		.byte	0x77
 16103 018d 01       		.sleb128 1
 16104 018e 9F       		.byte	0x9f
 16105 018f 14080000 		.4byte	.LVL138
 16106 0193 18080000 		.4byte	.LVL140
 16107 0197 0600     		.2byte	0x6
 16108 0199 F3       		.byte	0xf3
 16109 019a 01       		.uleb128 0x1
ARM GAS  /tmp/ccq8Pe5l.s 			page 284


 16110 019b 50       		.byte	0x50
 16111 019c 23       		.byte	0x23
 16112 019d 01       		.uleb128 0x1
 16113 019e 9F       		.byte	0x9f
 16114 019f 18080000 		.4byte	.LVL140
 16115 01a3 A6080000 		.4byte	.LVL152
 16116 01a7 0100     		.2byte	0x1
 16117 01a9 54       		.byte	0x54
 16118 01aa A6080000 		.4byte	.LVL152
 16119 01ae B3080000 		.4byte	.LVL153-1
 16120 01b2 0300     		.2byte	0x3
 16121 01b4 70       		.byte	0x70
 16122 01b5 01       		.sleb128 1
 16123 01b6 9F       		.byte	0x9f
 16124 01b7 B3080000 		.4byte	.LVL153-1
 16125 01bb BE080000 		.4byte	.LVL154
 16126 01bf 0300     		.2byte	0x3
 16127 01c1 77       		.byte	0x77
 16128 01c2 01       		.sleb128 1
 16129 01c3 9F       		.byte	0x9f
 16130 01c4 BE080000 		.4byte	.LVL154
 16131 01c8 C2080000 		.4byte	.LVL156
 16132 01cc 0100     		.2byte	0x1
 16133 01ce 54       		.byte	0x54
 16134 01cf C2080000 		.4byte	.LVL156
 16135 01d3 D3080000 		.4byte	.LVL157-1
 16136 01d7 0300     		.2byte	0x3
 16137 01d9 70       		.byte	0x70
 16138 01da 01       		.sleb128 1
 16139 01db 9F       		.byte	0x9f
 16140 01dc D3080000 		.4byte	.LVL157-1
 16141 01e0 22090000 		.4byte	.LVL164
 16142 01e4 0300     		.2byte	0x3
 16143 01e6 77       		.byte	0x77
 16144 01e7 01       		.sleb128 1
 16145 01e8 9F       		.byte	0x9f
 16146 01e9 22090000 		.4byte	.LVL164
 16147 01ed 84090000 		.4byte	.LVL173
 16148 01f1 0100     		.2byte	0x1
 16149 01f3 54       		.byte	0x54
 16150 01f4 84090000 		.4byte	.LVL173
 16151 01f8 B8090000 		.4byte	.LVL178
 16152 01fc 0300     		.2byte	0x3
 16153 01fe 77       		.byte	0x77
 16154 01ff 01       		.sleb128 1
 16155 0200 9F       		.byte	0x9f
 16156 0201 B8090000 		.4byte	.LVL178
 16157 0205 C2090000 		.4byte	.LVL180
 16158 0209 0100     		.2byte	0x1
 16159 020b 54       		.byte	0x54
 16160 020c C2090000 		.4byte	.LVL180
 16161 0210 D0090000 		.4byte	.LVL182
 16162 0214 0300     		.2byte	0x3
 16163 0216 70       		.byte	0x70
 16164 0217 01       		.sleb128 1
 16165 0218 9F       		.byte	0x9f
 16166 0219 D0090000 		.4byte	.LVL182
ARM GAS  /tmp/ccq8Pe5l.s 			page 285


 16167 021d FC090000 		.4byte	.LVL186
 16168 0221 0300     		.2byte	0x3
 16169 0223 77       		.byte	0x77
 16170 0224 01       		.sleb128 1
 16171 0225 9F       		.byte	0x9f
 16172 0226 FC090000 		.4byte	.LVL186
 16173 022a 620A0000 		.4byte	.LVL200
 16174 022e 0100     		.2byte	0x1
 16175 0230 54       		.byte	0x54
 16176 0231 620A0000 		.4byte	.LVL200
 16177 0235 B80A0000 		.4byte	.LVL205
 16178 0239 0300     		.2byte	0x3
 16179 023b 77       		.byte	0x77
 16180 023c 01       		.sleb128 1
 16181 023d 9F       		.byte	0x9f
 16182 023e B80A0000 		.4byte	.LVL205
 16183 0242 BE0A0000 		.4byte	.LVL207
 16184 0246 0100     		.2byte	0x1
 16185 0248 54       		.byte	0x54
 16186 0249 BE0A0000 		.4byte	.LVL207
 16187 024d 360B0000 		.4byte	.LVL217
 16188 0251 0300     		.2byte	0x3
 16189 0253 77       		.byte	0x77
 16190 0254 01       		.sleb128 1
 16191 0255 9F       		.byte	0x9f
 16192 0256 360B0000 		.4byte	.LVL217
 16193 025a 760B0000 		.4byte	.LVL221
 16194 025e 0100     		.2byte	0x1
 16195 0260 54       		.byte	0x54
 16196 0261 760B0000 		.4byte	.LVL221
 16197 0265 920B0000 		.4byte	.LVL222
 16198 0269 0300     		.2byte	0x3
 16199 026b 77       		.byte	0x77
 16200 026c 01       		.sleb128 1
 16201 026d 9F       		.byte	0x9f
 16202 026e 920B0000 		.4byte	.LVL222
 16203 0272 38110000 		.4byte	.LVL288
 16204 0276 0600     		.2byte	0x6
 16205 0278 F3       		.byte	0xf3
 16206 0279 01       		.uleb128 0x1
 16207 027a 50       		.byte	0x50
 16208 027b 23       		.byte	0x23
 16209 027c 01       		.uleb128 0x1
 16210 027d 9F       		.byte	0x9f
 16211 027e 38110000 		.4byte	.LVL288
 16212 0282 7A1A0000 		.4byte	.LVL400
 16213 0286 0100     		.2byte	0x1
 16214 0288 54       		.byte	0x54
 16215 0289 7A1A0000 		.4byte	.LVL400
 16216 028d D81A0000 		.4byte	.LVL405
 16217 0291 0600     		.2byte	0x6
 16218 0293 F3       		.byte	0xf3
 16219 0294 01       		.uleb128 0x1
 16220 0295 50       		.byte	0x50
 16221 0296 23       		.byte	0x23
 16222 0297 01       		.uleb128 0x1
 16223 0298 9F       		.byte	0x9f
ARM GAS  /tmp/ccq8Pe5l.s 			page 286


 16224 0299 D81A0000 		.4byte	.LVL405
 16225 029d E01A0000 		.4byte	.LVL406
 16226 02a1 0300     		.2byte	0x3
 16227 02a3 77       		.byte	0x77
 16228 02a4 01       		.sleb128 1
 16229 02a5 9F       		.byte	0x9f
 16230 02a6 E01A0000 		.4byte	.LVL406
 16231 02aa FA1A0000 		.4byte	.LVL410
 16232 02ae 0100     		.2byte	0x1
 16233 02b0 54       		.byte	0x54
 16234 02b1 FA1A0000 		.4byte	.LVL410
 16235 02b5 021B0000 		.4byte	.LVL412
 16236 02b9 0300     		.2byte	0x3
 16237 02bb 77       		.byte	0x77
 16238 02bc 01       		.sleb128 1
 16239 02bd 9F       		.byte	0x9f
 16240 02be 021B0000 		.4byte	.LVL412
 16241 02c2 241B0000 		.4byte	.LFE259
 16242 02c6 0100     		.2byte	0x1
 16243 02c8 54       		.byte	0x54
 16244 02c9 00000000 		.4byte	0
 16245 02cd 00000000 		.4byte	0
 16246              	.LLST6:
 16247 02d1 00000000 		.4byte	.LVL13
 16248 02d5 1A000000 		.4byte	.LVL15
 16249 02d9 0100     		.2byte	0x1
 16250 02db 51       		.byte	0x51
 16251 02dc 1A000000 		.4byte	.LVL15
 16252 02e0 6E000000 		.4byte	.LVL16
 16253 02e4 0100     		.2byte	0x1
 16254 02e6 55       		.byte	0x55
 16255 02e7 6E000000 		.4byte	.LVL16
 16256 02eb 70000000 		.4byte	.LVL17
 16257 02ef 0100     		.2byte	0x1
 16258 02f1 51       		.byte	0x51
 16259 02f2 70000000 		.4byte	.LVL17
 16260 02f6 84000000 		.4byte	.LVL20
 16261 02fa 0100     		.2byte	0x1
 16262 02fc 55       		.byte	0x55
 16263 02fd 84000000 		.4byte	.LVL20
 16264 0301 98030000 		.4byte	.LVL50
 16265 0305 0600     		.2byte	0x6
 16266 0307 F3       		.byte	0xf3
 16267 0308 01       		.uleb128 0x1
 16268 0309 51       		.byte	0x51
 16269 030a 31       		.byte	0x31
 16270 030b 1C       		.byte	0x1c
 16271 030c 9F       		.byte	0x9f
 16272 030d 98030000 		.4byte	.LVL50
 16273 0311 E2030000 		.4byte	.LVL57
 16274 0315 0100     		.2byte	0x1
 16275 0317 55       		.byte	0x55
 16276 0318 E2030000 		.4byte	.LVL57
 16277 031c F7030000 		.4byte	.LVL60-1
 16278 0320 0300     		.2byte	0x3
 16279 0322 71       		.byte	0x71
 16280 0323 7F       		.sleb128 -1
ARM GAS  /tmp/ccq8Pe5l.s 			page 287


 16281 0324 9F       		.byte	0x9f
 16282 0325 F7030000 		.4byte	.LVL60-1
 16283 0329 3E040000 		.4byte	.LVL67
 16284 032d 0600     		.2byte	0x6
 16285 032f F3       		.byte	0xf3
 16286 0330 01       		.uleb128 0x1
 16287 0331 51       		.byte	0x51
 16288 0332 31       		.byte	0x31
 16289 0333 1C       		.byte	0x1c
 16290 0334 9F       		.byte	0x9f
 16291 0335 3E040000 		.4byte	.LVL67
 16292 0339 E4040000 		.4byte	.LVL81
 16293 033d 0100     		.2byte	0x1
 16294 033f 55       		.byte	0x55
 16295 0340 E4040000 		.4byte	.LVL81
 16296 0344 01050000 		.4byte	.LVL82-1
 16297 0348 0300     		.2byte	0x3
 16298 034a 71       		.byte	0x71
 16299 034b 7F       		.sleb128 -1
 16300 034c 9F       		.byte	0x9f
 16301 034d 01050000 		.4byte	.LVL82-1
 16302 0351 90070000 		.4byte	.LVL119
 16303 0355 0600     		.2byte	0x6
 16304 0357 F3       		.byte	0xf3
 16305 0358 01       		.uleb128 0x1
 16306 0359 51       		.byte	0x51
 16307 035a 31       		.byte	0x31
 16308 035b 1C       		.byte	0x1c
 16309 035c 9F       		.byte	0x9f
 16310 035d 90070000 		.4byte	.LVL119
 16311 0361 00080000 		.4byte	.LVL134
 16312 0365 0100     		.2byte	0x1
 16313 0367 55       		.byte	0x55
 16314 0368 00080000 		.4byte	.LVL134
 16315 036c 06080000 		.4byte	.LVL136
 16316 0370 0300     		.2byte	0x3
 16317 0372 71       		.byte	0x71
 16318 0373 7F       		.sleb128 -1
 16319 0374 9F       		.byte	0x9f
 16320 0375 06080000 		.4byte	.LVL136
 16321 0379 18080000 		.4byte	.LVL140
 16322 037d 0600     		.2byte	0x6
 16323 037f F3       		.byte	0xf3
 16324 0380 01       		.uleb128 0x1
 16325 0381 51       		.byte	0x51
 16326 0382 31       		.byte	0x31
 16327 0383 1C       		.byte	0x1c
 16328 0384 9F       		.byte	0x9f
 16329 0385 18080000 		.4byte	.LVL140
 16330 0389 42080000 		.4byte	.LVL141
 16331 038d 0100     		.2byte	0x1
 16332 038f 55       		.byte	0x55
 16333 0390 42080000 		.4byte	.LVL141
 16334 0394 72080000 		.4byte	.LVL146
 16335 0398 0600     		.2byte	0x6
 16336 039a F3       		.byte	0xf3
 16337 039b 01       		.uleb128 0x1
ARM GAS  /tmp/ccq8Pe5l.s 			page 288


 16338 039c 51       		.byte	0x51
 16339 039d 31       		.byte	0x31
 16340 039e 1C       		.byte	0x1c
 16341 039f 9F       		.byte	0x9f
 16342 03a0 72080000 		.4byte	.LVL146
 16343 03a4 A4080000 		.4byte	.LVL151
 16344 03a8 0100     		.2byte	0x1
 16345 03aa 55       		.byte	0x55
 16346 03ab A4080000 		.4byte	.LVL151
 16347 03af B3080000 		.4byte	.LVL153-1
 16348 03b3 0300     		.2byte	0x3
 16349 03b5 71       		.byte	0x71
 16350 03b6 7F       		.sleb128 -1
 16351 03b7 9F       		.byte	0x9f
 16352 03b8 B3080000 		.4byte	.LVL153-1
 16353 03bc BE080000 		.4byte	.LVL154
 16354 03c0 0600     		.2byte	0x6
 16355 03c2 F3       		.byte	0xf3
 16356 03c3 01       		.uleb128 0x1
 16357 03c4 51       		.byte	0x51
 16358 03c5 31       		.byte	0x31
 16359 03c6 1C       		.byte	0x1c
 16360 03c7 9F       		.byte	0x9f
 16361 03c8 BE080000 		.4byte	.LVL154
 16362 03cc C0080000 		.4byte	.LVL155
 16363 03d0 0100     		.2byte	0x1
 16364 03d2 55       		.byte	0x55
 16365 03d3 C0080000 		.4byte	.LVL155
 16366 03d7 D3080000 		.4byte	.LVL157-1
 16367 03db 0300     		.2byte	0x3
 16368 03dd 71       		.byte	0x71
 16369 03de 7F       		.sleb128 -1
 16370 03df 9F       		.byte	0x9f
 16371 03e0 D3080000 		.4byte	.LVL157-1
 16372 03e4 22090000 		.4byte	.LVL164
 16373 03e8 0600     		.2byte	0x6
 16374 03ea F3       		.byte	0xf3
 16375 03eb 01       		.uleb128 0x1
 16376 03ec 51       		.byte	0x51
 16377 03ed 31       		.byte	0x31
 16378 03ee 1C       		.byte	0x1c
 16379 03ef 9F       		.byte	0x9f
 16380 03f0 22090000 		.4byte	.LVL164
 16381 03f4 2C090000 		.4byte	.LVL166
 16382 03f8 0100     		.2byte	0x1
 16383 03fa 55       		.byte	0x55
 16384 03fb 2C090000 		.4byte	.LVL166
 16385 03ff B8090000 		.4byte	.LVL178
 16386 0403 0600     		.2byte	0x6
 16387 0405 F3       		.byte	0xf3
 16388 0406 01       		.uleb128 0x1
 16389 0407 51       		.byte	0x51
 16390 0408 31       		.byte	0x31
 16391 0409 1C       		.byte	0x1c
 16392 040a 9F       		.byte	0x9f
 16393 040b B8090000 		.4byte	.LVL178
 16394 040f BA090000 		.4byte	.LVL179
ARM GAS  /tmp/ccq8Pe5l.s 			page 289


 16395 0413 0100     		.2byte	0x1
 16396 0415 55       		.byte	0x55
 16397 0416 BA090000 		.4byte	.LVL179
 16398 041a CE090000 		.4byte	.LVL181
 16399 041e 0300     		.2byte	0x3
 16400 0420 71       		.byte	0x71
 16401 0421 7F       		.sleb128 -1
 16402 0422 9F       		.byte	0x9f
 16403 0423 CE090000 		.4byte	.LVL181
 16404 0427 FC090000 		.4byte	.LVL186
 16405 042b 0600     		.2byte	0x6
 16406 042d F3       		.byte	0xf3
 16407 042e 01       		.uleb128 0x1
 16408 042f 51       		.byte	0x51
 16409 0430 31       		.byte	0x31
 16410 0431 1C       		.byte	0x1c
 16411 0432 9F       		.byte	0x9f
 16412 0433 FC090000 		.4byte	.LVL186
 16413 0437 720A0000 		.4byte	.LVL202
 16414 043b 0100     		.2byte	0x1
 16415 043d 55       		.byte	0x55
 16416 043e 720A0000 		.4byte	.LVL202
 16417 0442 B80A0000 		.4byte	.LVL205
 16418 0446 0600     		.2byte	0x6
 16419 0448 F3       		.byte	0xf3
 16420 0449 01       		.uleb128 0x1
 16421 044a 51       		.byte	0x51
 16422 044b 31       		.byte	0x31
 16423 044c 1C       		.byte	0x1c
 16424 044d 9F       		.byte	0x9f
 16425 044e B80A0000 		.4byte	.LVL205
 16426 0452 100B0000 		.4byte	.LVL214
 16427 0456 0100     		.2byte	0x1
 16428 0458 55       		.byte	0x55
 16429 0459 100B0000 		.4byte	.LVL214
 16430 045d 360B0000 		.4byte	.LVL217
 16431 0461 0600     		.2byte	0x6
 16432 0463 F3       		.byte	0xf3
 16433 0464 01       		.uleb128 0x1
 16434 0465 51       		.byte	0x51
 16435 0466 31       		.byte	0x31
 16436 0467 1C       		.byte	0x1c
 16437 0468 9F       		.byte	0x9f
 16438 0469 360B0000 		.4byte	.LVL217
 16439 046d 6C0B0000 		.4byte	.LVL220
 16440 0471 0100     		.2byte	0x1
 16441 0473 55       		.byte	0x55
 16442 0474 6C0B0000 		.4byte	.LVL220
 16443 0478 38110000 		.4byte	.LVL288
 16444 047c 0600     		.2byte	0x6
 16445 047e F3       		.byte	0xf3
 16446 047f 01       		.uleb128 0x1
 16447 0480 51       		.byte	0x51
 16448 0481 31       		.byte	0x31
 16449 0482 1C       		.byte	0x1c
 16450 0483 9F       		.byte	0x9f
 16451 0484 38110000 		.4byte	.LVL288
ARM GAS  /tmp/ccq8Pe5l.s 			page 290


 16452 0488 3E110000 		.4byte	.LVL290
 16453 048c 0100     		.2byte	0x1
 16454 048e 55       		.byte	0x55
 16455 048f 3E110000 		.4byte	.LVL290
 16456 0493 BE160000 		.4byte	.LVL359
 16457 0497 0600     		.2byte	0x6
 16458 0499 F3       		.byte	0xf3
 16459 049a 01       		.uleb128 0x1
 16460 049b 51       		.byte	0x51
 16461 049c 31       		.byte	0x31
 16462 049d 1C       		.byte	0x1c
 16463 049e 9F       		.byte	0x9f
 16464 049f BE160000 		.4byte	.LVL359
 16465 04a3 06170000 		.4byte	.LVL364
 16466 04a7 0100     		.2byte	0x1
 16467 04a9 55       		.byte	0x55
 16468 04aa 06170000 		.4byte	.LVL364
 16469 04ae 48170000 		.4byte	.LVL370
 16470 04b2 0600     		.2byte	0x6
 16471 04b4 F3       		.byte	0xf3
 16472 04b5 01       		.uleb128 0x1
 16473 04b6 51       		.byte	0x51
 16474 04b7 31       		.byte	0x31
 16475 04b8 1C       		.byte	0x1c
 16476 04b9 9F       		.byte	0x9f
 16477 04ba 48170000 		.4byte	.LVL370
 16478 04be 58170000 		.4byte	.LVL373
 16479 04c2 0100     		.2byte	0x1
 16480 04c4 55       		.byte	0x55
 16481 04c5 58170000 		.4byte	.LVL373
 16482 04c9 D81A0000 		.4byte	.LVL405
 16483 04cd 0600     		.2byte	0x6
 16484 04cf F3       		.byte	0xf3
 16485 04d0 01       		.uleb128 0x1
 16486 04d1 51       		.byte	0x51
 16487 04d2 31       		.byte	0x31
 16488 04d3 1C       		.byte	0x1c
 16489 04d4 9F       		.byte	0x9f
 16490 04d5 D81A0000 		.4byte	.LVL405
 16491 04d9 241B0000 		.4byte	.LFE259
 16492 04dd 0100     		.2byte	0x1
 16493 04df 55       		.byte	0x55
 16494 04e0 00000000 		.4byte	0
 16495 04e4 00000000 		.4byte	0
 16496              	.LLST7:
 16497 04e8 12000000 		.4byte	.LVL14
 16498 04ec 6E000000 		.4byte	.LVL16
 16499 04f0 0100     		.2byte	0x1
 16500 04f2 58       		.byte	0x58
 16501 04f3 70000000 		.4byte	.LVL17
 16502 04f7 54030000 		.4byte	.LVL47
 16503 04fb 0100     		.2byte	0x1
 16504 04fd 58       		.byte	0x58
 16505 04fe 98030000 		.4byte	.LVL50
 16506 0502 14080000 		.4byte	.LVL138
 16507 0506 0100     		.2byte	0x1
 16508 0508 58       		.byte	0x58
ARM GAS  /tmp/ccq8Pe5l.s 			page 291


 16509 0509 18080000 		.4byte	.LVL140
 16510 050d 721A0000 		.4byte	.LVL399
 16511 0511 0100     		.2byte	0x1
 16512 0513 58       		.byte	0x58
 16513 0514 D81A0000 		.4byte	.LVL405
 16514 0518 241B0000 		.4byte	.LFE259
 16515 051c 0100     		.2byte	0x1
 16516 051e 58       		.byte	0x58
 16517 051f 00000000 		.4byte	0
 16518 0523 00000000 		.4byte	0
 16519              	.LLST8:
 16520 0527 1C170000 		.4byte	.LVL367
 16521 052b 27170000 		.4byte	.LVL369-1
 16522 052f 0100     		.2byte	0x1
 16523 0531 51       		.byte	0x51
 16524 0532 00000000 		.4byte	0
 16525 0536 00000000 		.4byte	0
 16526              	.LLST9:
 16527 053a 24170000 		.4byte	.LVL368
 16528 053e 27170000 		.4byte	.LVL369-1
 16529 0542 0700     		.2byte	0x7
 16530 0544 74       		.byte	0x74
 16531 0545 00       		.sleb128 0
 16532 0546 73       		.byte	0x73
 16533 0547 00       		.sleb128 0
 16534 0548 22       		.byte	0x22
 16535 0549 31       		.byte	0x31
 16536 054a 1C       		.byte	0x1c
 16537 054b 00000000 		.4byte	0
 16538 054f 00000000 		.4byte	0
 16539              	.LLST10:
 16540 0553 14170000 		.4byte	.LVL365
 16541 0557 48170000 		.4byte	.LVL370
 16542 055b 0100     		.2byte	0x1
 16543 055d 55       		.byte	0x55
 16544 055e 00000000 		.4byte	0
 16545 0562 00000000 		.4byte	0
 16546              	.LLST11:
 16547 0566 A2070000 		.4byte	.LVL121
 16548 056a AC070000 		.4byte	.LVL122
 16549 056e 0100     		.2byte	0x1
 16550 0570 50       		.byte	0x50
 16551 0571 D4070000 		.4byte	.LVL129
 16552 0575 E0070000 		.4byte	.LVL130
 16553 0579 0100     		.2byte	0x1
 16554 057b 50       		.byte	0x50
 16555 057c 00000000 		.4byte	0
 16556 0580 00000000 		.4byte	0
 16557              	.LLST12:
 16558 0584 98070000 		.4byte	.LVL120
 16559 0588 A1070000 		.4byte	.LVL121-1
 16560 058c 0100     		.2byte	0x1
 16561 058e 50       		.byte	0x50
 16562 058f 00000000 		.4byte	0
 16563 0593 00000000 		.4byte	0
 16564              	.LLST13:
 16565 0597 88030000 		.4byte	.LVL48
ARM GAS  /tmp/ccq8Pe5l.s 			page 292


 16566 059b 8D030000 		.4byte	.LVL49-1
 16567 059f 0100     		.2byte	0x1
 16568 05a1 51       		.byte	0x51
 16569 05a2 00000000 		.4byte	0
 16570 05a6 00000000 		.4byte	0
 16571              	.LLST14:
 16572 05aa 88030000 		.4byte	.LVL48
 16573 05ae 8E030000 		.4byte	.LVL49
 16574 05b2 0600     		.2byte	0x6
 16575 05b4 03       		.byte	0x3
 16576 05b5 00000000 		.4byte	send_buffer
 16577 05b9 9F       		.byte	0x9f
 16578 05ba 00000000 		.4byte	0
 16579 05be 00000000 		.4byte	0
 16580              	.LLST15:
 16581 05c2 2A040000 		.4byte	.LVL64
 16582 05c6 30040000 		.4byte	.LVL65
 16583 05ca 0100     		.2byte	0x1
 16584 05cc 51       		.byte	0x51
 16585 05cd 00000000 		.4byte	0
 16586 05d1 00000000 		.4byte	0
 16587              	.LLST16:
 16588 05d5 2A040000 		.4byte	.LVL64
 16589 05d9 30040000 		.4byte	.LVL65
 16590 05dd 0600     		.2byte	0x6
 16591 05df 03       		.byte	0x3
 16592 05e0 00000000 		.4byte	send_buffer
 16593 05e4 9F       		.byte	0x9f
 16594 05e5 00000000 		.4byte	0
 16595 05e9 00000000 		.4byte	0
 16596              	.LLST17:
 16597 05ed 50070000 		.4byte	.LVL118
 16598 05f1 90070000 		.4byte	.LVL119
 16599 05f5 0100     		.2byte	0x1
 16600 05f7 51       		.byte	0x51
 16601 05f8 00000000 		.4byte	0
 16602 05fc 00000000 		.4byte	0
 16603              	.LLST18:
 16604 0600 50070000 		.4byte	.LVL118
 16605 0604 90070000 		.4byte	.LVL119
 16606 0608 0600     		.2byte	0x6
 16607 060a 03       		.byte	0x3
 16608 060b 00000000 		.4byte	send_buffer
 16609 060f 9F       		.byte	0x9f
 16610 0610 00000000 		.4byte	0
 16611 0614 00000000 		.4byte	0
 16612              	.LLST19:
 16613 0618 B8070000 		.4byte	.LVL124
 16614 061c C2070000 		.4byte	.LVL125
 16615 0620 0200     		.2byte	0x2
 16616 0622 32       		.byte	0x32
 16617 0623 9F       		.byte	0x9f
 16618 0624 00000000 		.4byte	0
 16619 0628 00000000 		.4byte	0
 16620              	.LLST20:
 16621 062c B8070000 		.4byte	.LVL124
 16622 0630 C2070000 		.4byte	.LVL125
ARM GAS  /tmp/ccq8Pe5l.s 			page 293


 16623 0634 0600     		.2byte	0x6
 16624 0636 03       		.byte	0x3
 16625 0637 00000000 		.4byte	send_buffer
 16626 063b 9F       		.byte	0x9f
 16627 063c 00000000 		.4byte	0
 16628 0640 00000000 		.4byte	0
 16629              	.LLST21:
 16630 0644 E8070000 		.4byte	.LVL131
 16631 0648 F2070000 		.4byte	.LVL132
 16632 064c 0200     		.2byte	0x2
 16633 064e 32       		.byte	0x32
 16634 064f 9F       		.byte	0x9f
 16635 0650 00000000 		.4byte	0
 16636 0654 00000000 		.4byte	0
 16637              	.LLST22:
 16638 0658 E8070000 		.4byte	.LVL131
 16639 065c F2070000 		.4byte	.LVL132
 16640 0660 0600     		.2byte	0x6
 16641 0662 03       		.byte	0x3
 16642 0663 00000000 		.4byte	send_buffer
 16643 0667 9F       		.byte	0x9f
 16644 0668 00000000 		.4byte	0
 16645 066c 00000000 		.4byte	0
 16646              	.LLST23:
 16647 0670 0C080000 		.4byte	.LVL137
 16648 0674 14080000 		.4byte	.LVL138
 16649 0678 0200     		.2byte	0x2
 16650 067a 33       		.byte	0x33
 16651 067b 9F       		.byte	0x9f
 16652 067c 00000000 		.4byte	0
 16653 0680 00000000 		.4byte	0
 16654              	.LLST24:
 16655 0684 0C080000 		.4byte	.LVL137
 16656 0688 14080000 		.4byte	.LVL138
 16657 068c 0600     		.2byte	0x6
 16658 068e 03       		.byte	0x3
 16659 068f 00000000 		.4byte	send_buffer
 16660 0693 9F       		.byte	0x9f
 16661 0694 00000000 		.4byte	0
 16662 0698 00000000 		.4byte	0
 16663              	.LLST25:
 16664 069c 6C090000 		.4byte	.LVL170
 16665 06a0 77090000 		.4byte	.LVL171-1
 16666 06a4 0200     		.2byte	0x2
 16667 06a6 90       		.byte	0x90
 16668 06a7 40       		.uleb128 0x40
 16669 06a8 77090000 		.4byte	.LVL171-1
 16670 06ac B8090000 		.4byte	.LVL178
 16671 06b0 0200     		.2byte	0x2
 16672 06b2 90       		.byte	0x90
 16673 06b3 50       		.uleb128 0x50
 16674 06b4 00000000 		.4byte	0
 16675 06b8 00000000 		.4byte	0
 16676              	.LLST26:
 16677 06bc 84090000 		.4byte	.LVL173
 16678 06c0 A2090000 		.4byte	.LVL175
 16679 06c4 0100     		.2byte	0x1
ARM GAS  /tmp/ccq8Pe5l.s 			page 294


 16680 06c6 54       		.byte	0x54
 16681 06c7 00000000 		.4byte	0
 16682 06cb 00000000 		.4byte	0
 16683              	.LLST27:
 16684 06cf AA090000 		.4byte	.LVL176
 16685 06d3 B8090000 		.4byte	.LVL178
 16686 06d7 0200     		.2byte	0x2
 16687 06d9 3A       		.byte	0x3a
 16688 06da 9F       		.byte	0x9f
 16689 06db 00000000 		.4byte	0
 16690 06df 00000000 		.4byte	0
 16691              	.LLST28:
 16692 06e3 AA090000 		.4byte	.LVL176
 16693 06e7 B8090000 		.4byte	.LVL178
 16694 06eb 0600     		.2byte	0x6
 16695 06ed 03       		.byte	0x3
 16696 06ee 00000000 		.4byte	send_buffer
 16697 06f2 9F       		.byte	0x9f
 16698 06f3 00000000 		.4byte	0
 16699 06f7 00000000 		.4byte	0
 16700              	.LLST29:
 16701 06fb F2090000 		.4byte	.LVL185
 16702 06ff FC090000 		.4byte	.LVL186
 16703 0703 0100     		.2byte	0x1
 16704 0705 51       		.byte	0x51
 16705 0706 00000000 		.4byte	0
 16706 070a 00000000 		.4byte	0
 16707              	.LLST30:
 16708 070e F2090000 		.4byte	.LVL185
 16709 0712 FC090000 		.4byte	.LVL186
 16710 0716 0600     		.2byte	0x6
 16711 0718 03       		.byte	0x3
 16712 0719 00000000 		.4byte	send_buffer
 16713 071d 9F       		.byte	0x9f
 16714 071e 00000000 		.4byte	0
 16715 0722 00000000 		.4byte	0
 16716              	.LLST31:
 16717 0726 0E0A0000 		.4byte	.LVL188
 16718 072a 140A0000 		.4byte	.LVL189
 16719 072e 0200     		.2byte	0x2
 16720 0730 90       		.byte	0x90
 16721 0731 40       		.uleb128 0x40
 16722 0732 140A0000 		.4byte	.LVL189
 16723 0736 720A0000 		.4byte	.LVL202
 16724 073a 0200     		.2byte	0x2
 16725 073c 90       		.byte	0x90
 16726 073d 52       		.uleb128 0x52
 16727 073e E01A0000 		.4byte	.LVL406
 16728 0742 E81A0000 		.4byte	.LVL407
 16729 0746 0200     		.2byte	0x2
 16730 0748 90       		.byte	0x90
 16731 0749 52       		.uleb128 0x52
 16732 074a 00000000 		.4byte	0
 16733 074e 00000000 		.4byte	0
 16734              	.LLST32:
 16735 0752 1E0A0000 		.4byte	.LVL191
 16736 0756 240A0000 		.4byte	.LVL192
ARM GAS  /tmp/ccq8Pe5l.s 			page 295


 16737 075a 0200     		.2byte	0x2
 16738 075c 90       		.byte	0x90
 16739 075d 40       		.uleb128 0x40
 16740 075e 240A0000 		.4byte	.LVL192
 16741 0762 720A0000 		.4byte	.LVL202
 16742 0766 0200     		.2byte	0x2
 16743 0768 90       		.byte	0x90
 16744 0769 50       		.uleb128 0x50
 16745 076a E01A0000 		.4byte	.LVL406
 16746 076e E81A0000 		.4byte	.LVL407
 16747 0772 0200     		.2byte	0x2
 16748 0774 90       		.byte	0x90
 16749 0775 50       		.uleb128 0x50
 16750 0776 00000000 		.4byte	0
 16751 077a 00000000 		.4byte	0
 16752              	.LLST33:
 16753 077e 2E0A0000 		.4byte	.LVL194
 16754 0782 340A0000 		.4byte	.LVL195
 16755 0786 0200     		.2byte	0x2
 16756 0788 90       		.byte	0x90
 16757 0789 40       		.uleb128 0x40
 16758 078a 340A0000 		.4byte	.LVL195
 16759 078e 720A0000 		.4byte	.LVL202
 16760 0792 0200     		.2byte	0x2
 16761 0794 90       		.byte	0x90
 16762 0795 51       		.uleb128 0x51
 16763 0796 E01A0000 		.4byte	.LVL406
 16764 079a E81A0000 		.4byte	.LVL407
 16765 079e 0200     		.2byte	0x2
 16766 07a0 90       		.byte	0x90
 16767 07a1 51       		.uleb128 0x51
 16768 07a2 00000000 		.4byte	0
 16769 07a6 00000000 		.4byte	0
 16770              	.LLST34:
 16771 07aa 400A0000 		.4byte	.LVL197
 16772 07ae 480A0000 		.4byte	.LVL198
 16773 07b2 0200     		.2byte	0x2
 16774 07b4 90       		.byte	0x90
 16775 07b5 40       		.uleb128 0x40
 16776 07b6 480A0000 		.4byte	.LVL198
 16777 07ba 4D0A0000 		.4byte	.LVL199-1
 16778 07be 0200     		.2byte	0x2
 16779 07c0 90       		.byte	0x90
 16780 07c1 43       		.uleb128 0x43
 16781 07c2 00000000 		.4byte	0
 16782 07c6 00000000 		.4byte	0
 16783              	.LLST35:
 16784 07ca 4E0A0000 		.4byte	.LVL199
 16785 07ce 6E0A0000 		.4byte	.LVL201
 16786 07d2 0100     		.2byte	0x1
 16787 07d4 50       		.byte	0x50
 16788 07d5 E01A0000 		.4byte	.LVL406
 16789 07d9 E81A0000 		.4byte	.LVL407
 16790 07dd 0100     		.2byte	0x1
 16791 07df 50       		.byte	0x50
 16792 07e0 00000000 		.4byte	0
 16793 07e4 00000000 		.4byte	0
ARM GAS  /tmp/ccq8Pe5l.s 			page 296


 16794              	.LLST36:
 16795 07e8 7A0A0000 		.4byte	.LVL204
 16796 07ec B80A0000 		.4byte	.LVL205
 16797 07f0 0100     		.2byte	0x1
 16798 07f2 51       		.byte	0x51
 16799 07f3 00000000 		.4byte	0
 16800 07f7 00000000 		.4byte	0
 16801              	.LLST37:
 16802 07fb 7A0A0000 		.4byte	.LVL204
 16803 07ff B80A0000 		.4byte	.LVL205
 16804 0803 0600     		.2byte	0x6
 16805 0805 03       		.byte	0x3
 16806 0806 00000000 		.4byte	send_buffer
 16807 080a 9F       		.byte	0x9f
 16808 080b 00000000 		.4byte	0
 16809 080f 00000000 		.4byte	0
 16810              	.LLST38:
 16811 0813 F60A0000 		.4byte	.LVL212
 16812 0817 180B0000 		.4byte	.LVL215
 16813 081b 0100     		.2byte	0x1
 16814 081d 54       		.byte	0x54
 16815 081e D81A0000 		.4byte	.LVL405
 16816 0822 E01A0000 		.4byte	.LVL406
 16817 0826 0100     		.2byte	0x1
 16818 0828 54       		.byte	0x54
 16819 0829 00000000 		.4byte	0
 16820 082d 00000000 		.4byte	0
 16821              	.LLST39:
 16822 0831 28110000 		.4byte	.LVL287
 16823 0835 38110000 		.4byte	.LVL288
 16824 0839 0100     		.2byte	0x1
 16825 083b 51       		.byte	0x51
 16826 083c 00000000 		.4byte	0
 16827 0840 00000000 		.4byte	0
 16828              	.LLST40:
 16829 0844 28110000 		.4byte	.LVL287
 16830 0848 38110000 		.4byte	.LVL288
 16831 084c 0600     		.2byte	0x6
 16832 084e 03       		.byte	0x3
 16833 084f 00000000 		.4byte	send_buffer
 16834 0853 9F       		.byte	0x9f
 16835 0854 00000000 		.4byte	0
 16836 0858 00000000 		.4byte	0
 16837              	.LLST41:
 16838 085c B2160000 		.4byte	.LVL358
 16839 0860 BE160000 		.4byte	.LVL359
 16840 0864 0200     		.2byte	0x2
 16841 0866 31       		.byte	0x31
 16842 0867 9F       		.byte	0x9f
 16843 0868 00000000 		.4byte	0
 16844 086c 00000000 		.4byte	0
 16845              	.LLST42:
 16846 0870 B2160000 		.4byte	.LVL358
 16847 0874 BE160000 		.4byte	.LVL359
 16848 0878 0600     		.2byte	0x6
 16849 087a 03       		.byte	0x3
 16850 087b 00000000 		.4byte	send_buffer
ARM GAS  /tmp/ccq8Pe5l.s 			page 297


 16851 087f 9F       		.byte	0x9f
 16852 0880 00000000 		.4byte	0
 16853 0884 00000000 		.4byte	0
 16854              	.LLST43:
 16855 0888 CC1A0000 		.4byte	.LVL404
 16856 088c D81A0000 		.4byte	.LVL405
 16857 0890 0200     		.2byte	0x2
 16858 0892 31       		.byte	0x31
 16859 0893 9F       		.byte	0x9f
 16860 0894 00000000 		.4byte	0
 16861 0898 00000000 		.4byte	0
 16862              	.LLST44:
 16863 089c CC1A0000 		.4byte	.LVL404
 16864 08a0 D81A0000 		.4byte	.LVL405
 16865 08a4 0600     		.2byte	0x6
 16866 08a6 03       		.byte	0x3
 16867 08a7 00000000 		.4byte	send_buffer
 16868 08ab 9F       		.byte	0x9f
 16869 08ac 00000000 		.4byte	0
 16870 08b0 00000000 		.4byte	0
 16871              	.LLST45:
 16872 08b4 1C000000 		.4byte	.LVL416
 16873 08b8 30000000 		.4byte	.LVL419
 16874 08bc 0100     		.2byte	0x1
 16875 08be 50       		.byte	0x50
 16876 08bf 00000000 		.4byte	0
 16877 08c3 00000000 		.4byte	0
 16878              	.LLST46:
 16879 08c7 2C000000 		.4byte	.LVL418
 16880 08cb 31000000 		.4byte	.LVL420-1
 16881 08cf 0100     		.2byte	0x1
 16882 08d1 51       		.byte	0x51
 16883 08d2 00000000 		.4byte	0
 16884 08d6 00000000 		.4byte	0
 16885              	.LLST47:
 16886 08da 20000000 		.4byte	.LVL417
 16887 08de 32000000 		.4byte	.LVL420
 16888 08e2 0600     		.2byte	0x6
 16889 08e4 03       		.byte	0x3
 16890 08e5 00000000 		.4byte	print_buffer.11235
 16891 08e9 9F       		.byte	0x9f
 16892 08ea 00000000 		.4byte	0
 16893 08ee 00000000 		.4byte	0
 16894              	.LLST48:
 16895 08f2 00000000 		.4byte	.LVL421
 16896 08f6 3C000000 		.4byte	.LVL427
 16897 08fa 0100     		.2byte	0x1
 16898 08fc 50       		.byte	0x50
 16899 08fd 3C000000 		.4byte	.LVL427
 16900 0901 42000000 		.4byte	.LVL429
 16901 0905 0400     		.2byte	0x4
 16902 0907 F3       		.byte	0xf3
 16903 0908 01       		.uleb128 0x1
 16904 0909 50       		.byte	0x50
 16905 090a 9F       		.byte	0x9f
 16906 090b 42000000 		.4byte	.LVL429
 16907 090f 4C000000 		.4byte	.LFE261
ARM GAS  /tmp/ccq8Pe5l.s 			page 298


 16908 0913 0100     		.2byte	0x1
 16909 0915 50       		.byte	0x50
 16910 0916 00000000 		.4byte	0
 16911 091a 00000000 		.4byte	0
 16912              	.LLST49:
 16913 091e 00000000 		.4byte	.LVL421
 16914 0922 34000000 		.4byte	.LVL426
 16915 0926 0100     		.2byte	0x1
 16916 0928 51       		.byte	0x51
 16917 0929 34000000 		.4byte	.LVL426
 16918 092d 42000000 		.4byte	.LVL429
 16919 0931 0400     		.2byte	0x4
 16920 0933 F3       		.byte	0xf3
 16921 0934 01       		.uleb128 0x1
 16922 0935 51       		.byte	0x51
 16923 0936 9F       		.byte	0x9f
 16924 0937 42000000 		.4byte	.LVL429
 16925 093b 44000000 		.4byte	.LVL430
 16926 093f 0100     		.2byte	0x1
 16927 0941 51       		.byte	0x51
 16928 0942 44000000 		.4byte	.LVL430
 16929 0946 4C000000 		.4byte	.LFE261
 16930 094a 0400     		.2byte	0x4
 16931 094c F3       		.byte	0xf3
 16932 094d 01       		.uleb128 0x1
 16933 094e 51       		.byte	0x51
 16934 094f 9F       		.byte	0x9f
 16935 0950 00000000 		.4byte	0
 16936 0954 00000000 		.4byte	0
 16937              	.LLST51:
 16938 0958 1C000000 		.4byte	.LVL422
 16939 095c 26000000 		.4byte	.LVL423
 16940 0960 0200     		.2byte	0x2
 16941 0962 31       		.byte	0x31
 16942 0963 9F       		.byte	0x9f
 16943 0964 26000000 		.4byte	.LVL423
 16944 0968 2A000000 		.4byte	.LVL424
 16945 096c 0800     		.2byte	0x8
 16946 096e 72       		.byte	0x72
 16947 096f 00       		.sleb128 0
 16948 0970 70       		.byte	0x70
 16949 0971 00       		.sleb128 0
 16950 0972 1C       		.byte	0x1c
 16951 0973 23       		.byte	0x23
 16952 0974 03       		.uleb128 0x3
 16953 0975 9F       		.byte	0x9f
 16954 0976 2A000000 		.4byte	.LVL424
 16955 097a 34000000 		.4byte	.LVL426
 16956 097e 0800     		.2byte	0x8
 16957 0980 72       		.byte	0x72
 16958 0981 00       		.sleb128 0
 16959 0982 70       		.byte	0x70
 16960 0983 00       		.sleb128 0
 16961 0984 1C       		.byte	0x1c
 16962 0985 23       		.byte	0x23
 16963 0986 02       		.uleb128 0x2
 16964 0987 9F       		.byte	0x9f
ARM GAS  /tmp/ccq8Pe5l.s 			page 299


 16965 0988 42000000 		.4byte	.LVL429
 16966 098c 4C000000 		.4byte	.LFE261
 16967 0990 0200     		.2byte	0x2
 16968 0992 31       		.byte	0x31
 16969 0993 9F       		.byte	0x9f
 16970 0994 00000000 		.4byte	0
 16971 0998 00000000 		.4byte	0
 16972              	.LLST52:
 16973 099c 1C000000 		.4byte	.LVL422
 16974 09a0 26000000 		.4byte	.LVL423
 16975 09a4 0200     		.2byte	0x2
 16976 09a6 30       		.byte	0x30
 16977 09a7 9F       		.byte	0x9f
 16978 09a8 26000000 		.4byte	.LVL423
 16979 09ac 2A000000 		.4byte	.LVL424
 16980 09b0 0800     		.2byte	0x8
 16981 09b2 72       		.byte	0x72
 16982 09b3 00       		.sleb128 0
 16983 09b4 70       		.byte	0x70
 16984 09b5 00       		.sleb128 0
 16985 09b6 1C       		.byte	0x1c
 16986 09b7 23       		.byte	0x23
 16987 09b8 01       		.uleb128 0x1
 16988 09b9 9F       		.byte	0x9f
 16989 09ba 2A000000 		.4byte	.LVL424
 16990 09be 2E000000 		.4byte	.LVL425
 16991 09c2 0600     		.2byte	0x6
 16992 09c4 72       		.byte	0x72
 16993 09c5 00       		.sleb128 0
 16994 09c6 70       		.byte	0x70
 16995 09c7 00       		.sleb128 0
 16996 09c8 1C       		.byte	0x1c
 16997 09c9 9F       		.byte	0x9f
 16998 09ca 2E000000 		.4byte	.LVL425
 16999 09ce 34000000 		.4byte	.LVL426
 17000 09d2 0800     		.2byte	0x8
 17001 09d4 72       		.byte	0x72
 17002 09d5 00       		.sleb128 0
 17003 09d6 70       		.byte	0x70
 17004 09d7 00       		.sleb128 0
 17005 09d8 1C       		.byte	0x1c
 17006 09d9 23       		.byte	0x23
 17007 09da 01       		.uleb128 0x1
 17008 09db 9F       		.byte	0x9f
 17009 09dc 42000000 		.4byte	.LVL429
 17010 09e0 4C000000 		.4byte	.LFE261
 17011 09e4 0200     		.2byte	0x2
 17012 09e6 30       		.byte	0x30
 17013 09e7 9F       		.byte	0x9f
 17014 09e8 00000000 		.4byte	0
 17015 09ec 00000000 		.4byte	0
 17016              	.LLST53:
 17017 09f0 34000000 		.4byte	.LVL426
 17018 09f4 3D000000 		.4byte	.LVL428-1
 17019 09f8 0100     		.2byte	0x1
 17020 09fa 51       		.byte	0x51
 17021 09fb 00000000 		.4byte	0
ARM GAS  /tmp/ccq8Pe5l.s 			page 300


 17022 09ff 00000000 		.4byte	0
 17023              	.LLST54:
 17024 0a03 34000000 		.4byte	.LVL426
 17025 0a07 42000000 		.4byte	.LVL429
 17026 0a0b 0100     		.2byte	0x1
 17027 0a0d 56       		.byte	0x56
 17028 0a0e 00000000 		.4byte	0
 17029 0a12 00000000 		.4byte	0
 17030              	.LLST55:
 17031 0a16 00000000 		.4byte	.LVL431
 17032 0a1a 0E000000 		.4byte	.LVL432
 17033 0a1e 0200     		.2byte	0x2
 17034 0a20 90       		.byte	0x90
 17035 0a21 40       		.uleb128 0x40
 17036 0a22 0E000000 		.4byte	.LVL432
 17037 0a26 40000000 		.4byte	.LFE262
 17038 0a2a 0600     		.2byte	0x6
 17039 0a2c F3       		.byte	0xf3
 17040 0a2d 03       		.uleb128 0x3
 17041 0a2e F5       		.byte	0xf5
 17042 0a2f 40       		.uleb128 0x40
 17043 0a30 25       		.uleb128 0x25
 17044 0a31 9F       		.byte	0x9f
 17045 0a32 00000000 		.4byte	0
 17046 0a36 00000000 		.4byte	0
 17047              	.LLST56:
 17048 0a3a 2C000000 		.4byte	.LVL434
 17049 0a3e 33000000 		.4byte	.LVL435-1
 17050 0a42 0100     		.2byte	0x1
 17051 0a44 51       		.byte	0x51
 17052 0a45 00000000 		.4byte	0
 17053 0a49 00000000 		.4byte	0
 17054              	.LLST57:
 17055 0a4d 2C000000 		.4byte	.LVL434
 17056 0a51 38000000 		.4byte	.LVL436
 17057 0a55 0300     		.2byte	0x3
 17058 0a57 91       		.byte	0x91
 17059 0a58 70       		.sleb128 -16
 17060 0a59 9F       		.byte	0x9f
 17061 0a5a 38000000 		.4byte	.LVL436
 17062 0a5e 40000000 		.4byte	.LFE262
 17063 0a62 0300     		.2byte	0x3
 17064 0a64 7D       		.byte	0x7d
 17065 0a65 70       		.sleb128 -16
 17066 0a66 9F       		.byte	0x9f
 17067 0a67 00000000 		.4byte	0
 17068 0a6b 00000000 		.4byte	0
 17069              	.LLST58:
 17070 0a6f 00000000 		.4byte	.LVL437
 17071 0a73 38000000 		.4byte	.LVL443
 17072 0a77 0100     		.2byte	0x1
 17073 0a79 50       		.byte	0x50
 17074 0a7a 38000000 		.4byte	.LVL443
 17075 0a7e 70000000 		.4byte	.LVL448
 17076 0a82 0400     		.2byte	0x4
 17077 0a84 F3       		.byte	0xf3
 17078 0a85 01       		.uleb128 0x1
ARM GAS  /tmp/ccq8Pe5l.s 			page 301


 17079 0a86 50       		.byte	0x50
 17080 0a87 9F       		.byte	0x9f
 17081 0a88 70000000 		.4byte	.LVL448
 17082 0a8c 7C000000 		.4byte	.LFE263
 17083 0a90 0100     		.2byte	0x1
 17084 0a92 50       		.byte	0x50
 17085 0a93 00000000 		.4byte	0
 17086 0a97 00000000 		.4byte	0
 17087              	.LLST59:
 17088 0a9b 00000000 		.4byte	.LVL437
 17089 0a9f 22000000 		.4byte	.LVL441
 17090 0aa3 0100     		.2byte	0x1
 17091 0aa5 51       		.byte	0x51
 17092 0aa6 22000000 		.4byte	.LVL441
 17093 0aaa 70000000 		.4byte	.LVL448
 17094 0aae 0100     		.2byte	0x1
 17095 0ab0 56       		.byte	0x56
 17096 0ab1 70000000 		.4byte	.LVL448
 17097 0ab5 7C000000 		.4byte	.LFE263
 17098 0ab9 0100     		.2byte	0x1
 17099 0abb 51       		.byte	0x51
 17100 0abc 00000000 		.4byte	0
 17101 0ac0 00000000 		.4byte	0
 17102              	.LLST60:
 17103 0ac4 06000000 		.4byte	.LVL438
 17104 0ac8 10000000 		.4byte	.LVL439
 17105 0acc 0100     		.2byte	0x1
 17106 0ace 53       		.byte	0x53
 17107 0acf 10000000 		.4byte	.LVL439
 17108 0ad3 16000000 		.4byte	.LVL440
 17109 0ad7 0300     		.2byte	0x3
 17110 0ad9 73       		.byte	0x73
 17111 0ada 78       		.sleb128 -8
 17112 0adb 9F       		.byte	0x9f
 17113 0adc 16000000 		.4byte	.LVL440
 17114 0ae0 22000000 		.4byte	.LVL441
 17115 0ae4 0500     		.2byte	0x5
 17116 0ae6 71       		.byte	0x71
 17117 0ae7 00       		.sleb128 0
 17118 0ae8 32       		.byte	0x32
 17119 0ae9 24       		.byte	0x24
 17120 0aea 9F       		.byte	0x9f
 17121 0aeb 22000000 		.4byte	.LVL441
 17122 0aef 70000000 		.4byte	.LVL448
 17123 0af3 0500     		.2byte	0x5
 17124 0af5 76       		.byte	0x76
 17125 0af6 00       		.sleb128 0
 17126 0af7 32       		.byte	0x32
 17127 0af8 24       		.byte	0x24
 17128 0af9 9F       		.byte	0x9f
 17129 0afa 00000000 		.4byte	0
 17130 0afe 00000000 		.4byte	0
 17131              	.LLST61:
 17132 0b02 2C000000 		.4byte	.LVL442
 17133 0b06 70000000 		.4byte	.LVL448
 17134 0b0a 0200     		.2byte	0x2
 17135 0b0c 78       		.byte	0x78
ARM GAS  /tmp/ccq8Pe5l.s 			page 302


 17136 0b0d 00       		.sleb128 0
 17137 0b0e 00000000 		.4byte	0
 17138 0b12 00000000 		.4byte	0
 17139              	.LLST62:
 17140 0b16 2C000000 		.4byte	.LVL442
 17141 0b1a 38000000 		.4byte	.LVL443
 17142 0b1e 0200     		.2byte	0x2
 17143 0b20 30       		.byte	0x30
 17144 0b21 9F       		.byte	0x9f
 17145 0b22 38000000 		.4byte	.LVL443
 17146 0b26 42000000 		.4byte	.LVL444
 17147 0b2a 0100     		.2byte	0x1
 17148 0b2c 54       		.byte	0x54
 17149 0b2d 42000000 		.4byte	.LVL444
 17150 0b31 52000000 		.4byte	.LVL445
 17151 0b35 0300     		.2byte	0x3
 17152 0b37 74       		.byte	0x74
 17153 0b38 7F       		.sleb128 -1
 17154 0b39 9F       		.byte	0x9f
 17155 0b3a 52000000 		.4byte	.LVL445
 17156 0b3e 58000000 		.4byte	.LVL446
 17157 0b42 0100     		.2byte	0x1
 17158 0b44 54       		.byte	0x54
 17159 0b45 00000000 		.4byte	0
 17160 0b49 00000000 		.4byte	0
 17161              	.LLST63:
 17162 0b4d 58000000 		.4byte	.LVL446
 17163 0b51 61000000 		.4byte	.LVL447-1
 17164 0b55 0100     		.2byte	0x1
 17165 0b57 51       		.byte	0x51
 17166 0b58 00000000 		.4byte	0
 17167 0b5c 00000000 		.4byte	0
 17168              	.LLST64:
 17169 0b60 58000000 		.4byte	.LVL446
 17170 0b64 70000000 		.4byte	.LVL448
 17171 0b68 0100     		.2byte	0x1
 17172 0b6a 58       		.byte	0x58
 17173 0b6b 00000000 		.4byte	0
 17174 0b6f 00000000 		.4byte	0
 17175              	.LLST65:
 17176 0b73 00000000 		.4byte	.LVL450
 17177 0b77 08000000 		.4byte	.LVL451
 17178 0b7b 0100     		.2byte	0x1
 17179 0b7d 50       		.byte	0x50
 17180 0b7e 08000000 		.4byte	.LVL451
 17181 0b82 14000000 		.4byte	.LVL453
 17182 0b86 0100     		.2byte	0x1
 17183 0b88 52       		.byte	0x52
 17184 0b89 14000000 		.4byte	.LVL453
 17185 0b8d 17000000 		.4byte	.LVL454-1
 17186 0b91 0100     		.2byte	0x1
 17187 0b93 51       		.byte	0x51
 17188 0b94 17000000 		.4byte	.LVL454-1
 17189 0b98 34000000 		.4byte	.LFE266
 17190 0b9c 0400     		.2byte	0x4
 17191 0b9e F3       		.byte	0xf3
 17192 0b9f 01       		.uleb128 0x1
ARM GAS  /tmp/ccq8Pe5l.s 			page 303


 17193 0ba0 50       		.byte	0x50
 17194 0ba1 9F       		.byte	0x9f
 17195 0ba2 00000000 		.4byte	0
 17196 0ba6 00000000 		.4byte	0
 17197              	.LLST66:
 17198 0baa 00000000 		.4byte	.LVL450
 17199 0bae 0E000000 		.4byte	.LVL452
 17200 0bb2 0100     		.2byte	0x1
 17201 0bb4 51       		.byte	0x51
 17202 0bb5 0E000000 		.4byte	.LVL452
 17203 0bb9 26000000 		.4byte	.LVL456
 17204 0bbd 0100     		.2byte	0x1
 17205 0bbf 54       		.byte	0x54
 17206 0bc0 26000000 		.4byte	.LVL456
 17207 0bc4 27000000 		.4byte	.LVL457-1
 17208 0bc8 0300     		.2byte	0x3
 17209 0bca 71       		.byte	0x71
 17210 0bcb 7F       		.sleb128 -1
 17211 0bcc 9F       		.byte	0x9f
 17212 0bcd 27000000 		.4byte	.LVL457-1
 17213 0bd1 28000000 		.4byte	.LVL457
 17214 0bd5 0400     		.2byte	0x4
 17215 0bd7 F3       		.byte	0xf3
 17216 0bd8 01       		.uleb128 0x1
 17217 0bd9 51       		.byte	0x51
 17218 0bda 9F       		.byte	0x9f
 17219 0bdb 28000000 		.4byte	.LVL457
 17220 0bdf 2A000000 		.4byte	.LVL458
 17221 0be3 0100     		.2byte	0x1
 17222 0be5 54       		.byte	0x54
 17223 0be6 2A000000 		.4byte	.LVL458
 17224 0bea 34000000 		.4byte	.LFE266
 17225 0bee 0300     		.2byte	0x3
 17226 0bf0 71       		.byte	0x71
 17227 0bf1 7F       		.sleb128 -1
 17228 0bf2 9F       		.byte	0x9f
 17229 0bf3 00000000 		.4byte	0
 17230 0bf7 00000000 		.4byte	0
 17231              	.LLST67:
 17232 0bfb 00000000 		.4byte	.LVL450
 17233 0bff 1E000000 		.4byte	.LVL455
 17234 0c03 0200     		.2byte	0x2
 17235 0c05 31       		.byte	0x31
 17236 0c06 9F       		.byte	0x9f
 17237 0c07 1E000000 		.4byte	.LVL455
 17238 0c0b 27000000 		.4byte	.LVL457-1
 17239 0c0f 0100     		.2byte	0x1
 17240 0c11 51       		.byte	0x51
 17241 0c12 27000000 		.4byte	.LVL457-1
 17242 0c16 28000000 		.4byte	.LVL457
 17243 0c1a 0600     		.2byte	0x6
 17244 0c1c F3       		.byte	0xf3
 17245 0c1d 01       		.uleb128 0x1
 17246 0c1e 51       		.byte	0x51
 17247 0c1f 23       		.byte	0x23
 17248 0c20 01       		.uleb128 0x1
 17249 0c21 9F       		.byte	0x9f
ARM GAS  /tmp/ccq8Pe5l.s 			page 304


 17250 0c22 28000000 		.4byte	.LVL457
 17251 0c26 34000000 		.4byte	.LFE266
 17252 0c2a 0100     		.2byte	0x1
 17253 0c2c 51       		.byte	0x51
 17254 0c2d 00000000 		.4byte	0
 17255 0c31 00000000 		.4byte	0
 17256              	.LLST68:
 17257 0c35 1E000000 		.4byte	.LVL455
 17258 0c39 27000000 		.4byte	.LVL457-1
 17259 0c3d 0100     		.2byte	0x1
 17260 0c3f 51       		.byte	0x51
 17261 0c40 27000000 		.4byte	.LVL457-1
 17262 0c44 28000000 		.4byte	.LVL457
 17263 0c48 0600     		.2byte	0x6
 17264 0c4a F3       		.byte	0xf3
 17265 0c4b 01       		.uleb128 0x1
 17266 0c4c 51       		.byte	0x51
 17267 0c4d 23       		.byte	0x23
 17268 0c4e 01       		.uleb128 0x1
 17269 0c4f 9F       		.byte	0x9f
 17270 0c50 28000000 		.4byte	.LVL457
 17271 0c54 34000000 		.4byte	.LFE266
 17272 0c58 0100     		.2byte	0x1
 17273 0c5a 51       		.byte	0x51
 17274 0c5b 00000000 		.4byte	0
 17275 0c5f 00000000 		.4byte	0
 17276              		.section	.debug_aranges,"",%progbits
 17277 0000 74000000 		.4byte	0x74
 17278 0004 0200     		.2byte	0x2
 17279 0006 00000000 		.4byte	.Ldebug_info0
 17280 000a 04       		.byte	0x4
 17281 000b 00       		.byte	0
 17282 000c 0000     		.2byte	0
 17283 000e 0000     		.2byte	0
 17284 0010 00000000 		.4byte	.LFB267
 17285 0014 00010000 		.4byte	.LFE267-.LFB267
 17286 0018 00000000 		.4byte	.LFB256
 17287 001c 24000000 		.4byte	.LFE256-.LFB256
 17288 0020 00000000 		.4byte	.LFB257
 17289 0024 0C000000 		.4byte	.LFE257-.LFB257
 17290 0028 00000000 		.4byte	.LFB258
 17291 002c 10000000 		.4byte	.LFE258-.LFB258
 17292 0030 00000000 		.4byte	.LFB259
 17293 0034 241B0000 		.4byte	.LFE259-.LFB259
 17294 0038 00000000 		.4byte	.LFB260
 17295 003c 44000000 		.4byte	.LFE260-.LFB260
 17296 0040 00000000 		.4byte	.LFB261
 17297 0044 4C000000 		.4byte	.LFE261-.LFB261
 17298 0048 00000000 		.4byte	.LFB262
 17299 004c 40000000 		.4byte	.LFE262-.LFB262
 17300 0050 00000000 		.4byte	.LFB263
 17301 0054 7C000000 		.4byte	.LFE263-.LFB263
 17302 0058 00000000 		.4byte	.LFB264
 17303 005c 0C000000 		.4byte	.LFE264-.LFB264
 17304 0060 00000000 		.4byte	.LFB265
 17305 0064 0C000000 		.4byte	.LFE265-.LFB265
 17306 0068 00000000 		.4byte	.LFB266
ARM GAS  /tmp/ccq8Pe5l.s 			page 305


 17307 006c 34000000 		.4byte	.LFE266-.LFB266
 17308 0070 00000000 		.4byte	0
 17309 0074 00000000 		.4byte	0
 17310              		.section	.debug_ranges,"",%progbits
 17311              	.Ldebug_ranges0:
 17312 0000 04000000 		.4byte	.LBB56
 17313 0004 06000000 		.4byte	.LBE56
 17314 0008 08000000 		.4byte	.LBB60
 17315 000c 20000000 		.4byte	.LBE60
 17316 0010 2E000000 		.4byte	.LBB73
 17317 0014 30000000 		.4byte	.LBE73
 17318 0018 00000000 		.4byte	0
 17319 001c 00000000 		.4byte	0
 17320 0020 20000000 		.4byte	.LBB61
 17321 0024 22000000 		.4byte	.LBE61
 17322 0028 26000000 		.4byte	.LBB72
 17323 002c 2E000000 		.4byte	.LBE72
 17324 0030 34000000 		.4byte	.LBB74
 17325 0034 BA000000 		.4byte	.LBE74
 17326 0038 BC000000 		.4byte	.LBB75
 17327 003c 00010000 		.4byte	.LBE75
 17328 0040 00000000 		.4byte	0
 17329 0044 00000000 		.4byte	0
 17330 0048 92000000 		.4byte	.LBB62
 17331 004c 94000000 		.4byte	.LBE62
 17332 0050 98000000 		.4byte	.LBB68
 17333 0054 9A000000 		.4byte	.LBE68
 17334 0058 AA000000 		.4byte	.LBB69
 17335 005c AC000000 		.4byte	.LBE69
 17336 0060 AE000000 		.4byte	.LBB70
 17337 0064 B0000000 		.4byte	.LBE70
 17338 0068 B4000000 		.4byte	.LBB71
 17339 006c BA000000 		.4byte	.LBE71
 17340 0070 00000000 		.4byte	0
 17341 0074 00000000 		.4byte	0
 17342 0078 40030000 		.4byte	.LBB76
 17343 007c 42030000 		.4byte	.LBE76
 17344 0080 46030000 		.4byte	.LBB80
 17345 0084 48030000 		.4byte	.LBE80
 17346 0088 88030000 		.4byte	.LBB81
 17347 008c 8E030000 		.4byte	.LBE81
 17348 0090 00000000 		.4byte	0
 17349 0094 00000000 		.4byte	0
 17350 0098 26040000 		.4byte	.LBB82
 17351 009c 28040000 		.4byte	.LBE82
 17352 00a0 2A040000 		.4byte	.LBB85
 17353 00a4 34040000 		.4byte	.LBE85
 17354 00a8 00000000 		.4byte	0
 17355 00ac 00000000 		.4byte	0
 17356 00b0 48070000 		.4byte	.LBB86
 17357 00b4 4A070000 		.4byte	.LBE86
 17358 00b8 4C070000 		.4byte	.LBB90
 17359 00bc 4E070000 		.4byte	.LBE90
 17360 00c0 50070000 		.4byte	.LBB91
 17361 00c4 90070000 		.4byte	.LBE91
 17362 00c8 00000000 		.4byte	0
 17363 00cc 00000000 		.4byte	0
ARM GAS  /tmp/ccq8Pe5l.s 			page 306


 17364 00d0 A2070000 		.4byte	.LBB92
 17365 00d4 A4070000 		.4byte	.LBE92
 17366 00d8 A6070000 		.4byte	.LBB96
 17367 00dc A8070000 		.4byte	.LBE96
 17368 00e0 BC070000 		.4byte	.LBB97
 17369 00e4 C8070000 		.4byte	.LBE97
 17370 00e8 00000000 		.4byte	0
 17371 00ec 00000000 		.4byte	0
 17372 00f0 D4070000 		.4byte	.LBB98
 17373 00f4 D6070000 		.4byte	.LBE98
 17374 00f8 D8070000 		.4byte	.LBB102
 17375 00fc DA070000 		.4byte	.LBE102
 17376 0100 EC070000 		.4byte	.LBB103
 17377 0104 F2070000 		.4byte	.LBE103
 17378 0108 00000000 		.4byte	0
 17379 010c 00000000 		.4byte	0
 17380 0110 F8070000 		.4byte	.LBB104
 17381 0114 FA070000 		.4byte	.LBE104
 17382 0118 FC070000 		.4byte	.LBB108
 17383 011c FE070000 		.4byte	.LBE108
 17384 0120 0E080000 		.4byte	.LBB109
 17385 0124 14080000 		.4byte	.LBE109
 17386 0128 00000000 		.4byte	0
 17387 012c 00000000 		.4byte	0
 17388 0130 2C090000 		.4byte	.LBB113
 17389 0134 2E090000 		.4byte	.LBE113
 17390 0138 98090000 		.4byte	.LBB117
 17391 013c 9A090000 		.4byte	.LBE117
 17392 0140 AA090000 		.4byte	.LBB118
 17393 0144 B6090000 		.4byte	.LBE118
 17394 0148 00000000 		.4byte	0
 17395 014c 00000000 		.4byte	0
 17396 0150 E6090000 		.4byte	.LBB119
 17397 0154 E8090000 		.4byte	.LBE119
 17398 0158 EA090000 		.4byte	.LBB123
 17399 015c EC090000 		.4byte	.LBE123
 17400 0160 F4090000 		.4byte	.LBB124
 17401 0164 FC090000 		.4byte	.LBE124
 17402 0168 00000000 		.4byte	0
 17403 016c 00000000 		.4byte	0
 17404 0170 760A0000 		.4byte	.LBB126
 17405 0174 780A0000 		.4byte	.LBE126
 17406 0178 7A0A0000 		.4byte	.LBB129
 17407 017c B80A0000 		.4byte	.LBE129
 17408 0180 00000000 		.4byte	0
 17409 0184 00000000 		.4byte	0
 17410 0188 24110000 		.4byte	.LBB131
 17411 018c 26110000 		.4byte	.LBE131
 17412 0190 28110000 		.4byte	.LBB134
 17413 0194 38110000 		.4byte	.LBE134
 17414 0198 00000000 		.4byte	0
 17415 019c 00000000 		.4byte	0
 17416 01a0 A6160000 		.4byte	.LBB135
 17417 01a4 A8160000 		.4byte	.LBE135
 17418 01a8 AA160000 		.4byte	.LBB139
 17419 01ac AC160000 		.4byte	.LBE139
 17420 01b0 B4160000 		.4byte	.LBB140
ARM GAS  /tmp/ccq8Pe5l.s 			page 307


 17421 01b4 BE160000 		.4byte	.LBE140
 17422 01b8 00000000 		.4byte	0
 17423 01bc 00000000 		.4byte	0
 17424 01c0 C01A0000 		.4byte	.LBB141
 17425 01c4 C21A0000 		.4byte	.LBE141
 17426 01c8 C41A0000 		.4byte	.LBB145
 17427 01cc C61A0000 		.4byte	.LBE145
 17428 01d0 CC1A0000 		.4byte	.LBB146
 17429 01d4 D21A0000 		.4byte	.LBE146
 17430 01d8 00000000 		.4byte	0
 17431 01dc 00000000 		.4byte	0
 17432 01e0 20000000 		.4byte	.LBB147
 17433 01e4 24000000 		.4byte	.LBE147
 17434 01e8 2C000000 		.4byte	.LBB150
 17435 01ec 32000000 		.4byte	.LBE150
 17436 01f0 00000000 		.4byte	0
 17437 01f4 00000000 		.4byte	0
 17438 01f8 10000000 		.4byte	.LBB151
 17439 01fc 12000000 		.4byte	.LBE151
 17440 0200 1C000000 		.4byte	.LBB152
 17441 0204 34000000 		.4byte	.LBE152
 17442 0208 42000000 		.4byte	.LBB155
 17443 020c 4C000000 		.4byte	.LBE155
 17444 0210 00000000 		.4byte	0
 17445 0214 00000000 		.4byte	0
 17446 0218 28000000 		.4byte	.LBB156
 17447 021c 2A000000 		.4byte	.LBE156
 17448 0220 2C000000 		.4byte	.LBB159
 17449 0224 34000000 		.4byte	.LBE159
 17450 0228 00000000 		.4byte	0
 17451 022c 00000000 		.4byte	0
 17452 0230 24000000 		.4byte	.LBB160
 17453 0234 26000000 		.4byte	.LBE160
 17454 0238 2E000000 		.4byte	.LBB161
 17455 023c 58000000 		.4byte	.LBE161
 17456 0240 00000000 		.4byte	0
 17457 0244 00000000 		.4byte	0
 17458 0248 18000000 		.4byte	.LBB164
 17459 024c 1C000000 		.4byte	.LBE164
 17460 0250 1E000000 		.4byte	.LBB168
 17461 0254 22000000 		.4byte	.LBE168
 17462 0258 26000000 		.4byte	.LBB169
 17463 025c 34000000 		.4byte	.LBE169
 17464 0260 00000000 		.4byte	0
 17465 0264 00000000 		.4byte	0
 17466 0268 00000000 		.4byte	.LFB267
 17467 026c 00010000 		.4byte	.LFE267
 17468 0270 00000000 		.4byte	.LFB256
 17469 0274 24000000 		.4byte	.LFE256
 17470 0278 00000000 		.4byte	.LFB257
 17471 027c 0C000000 		.4byte	.LFE257
 17472 0280 00000000 		.4byte	.LFB258
 17473 0284 10000000 		.4byte	.LFE258
 17474 0288 00000000 		.4byte	.LFB259
 17475 028c 241B0000 		.4byte	.LFE259
 17476 0290 00000000 		.4byte	.LFB260
 17477 0294 44000000 		.4byte	.LFE260
ARM GAS  /tmp/ccq8Pe5l.s 			page 308


 17478 0298 00000000 		.4byte	.LFB261
 17479 029c 4C000000 		.4byte	.LFE261
 17480 02a0 00000000 		.4byte	.LFB262
 17481 02a4 40000000 		.4byte	.LFE262
 17482 02a8 00000000 		.4byte	.LFB263
 17483 02ac 7C000000 		.4byte	.LFE263
 17484 02b0 00000000 		.4byte	.LFB264
 17485 02b4 0C000000 		.4byte	.LFE264
 17486 02b8 00000000 		.4byte	.LFB265
 17487 02bc 0C000000 		.4byte	.LFE265
 17488 02c0 00000000 		.4byte	.LFB266
 17489 02c4 34000000 		.4byte	.LFE266
 17490 02c8 00000000 		.4byte	0
 17491 02cc 00000000 		.4byte	0
 17492              		.section	.debug_line,"",%progbits
 17493              	.Ldebug_line0:
 17494 0000 6F0A0000 		.section	.debug_str,"MS",%progbits,1
 17494      02003903 
 17494      00000201 
 17494      FB0E0D00 
 17494      01010101 
 17495              	.LASF279:
 17496 0000 4348554B 		.ascii	"CHUK_CTRL_TYPE_CURRENT\000"
 17496      5F435452 
 17496      4C5F5459 
 17496      50455F43 
 17496      55525245 
 17497              	.LASF93:
 17498 0017 706F7274 		.ascii	"port_intctx\000"
 17498      5F696E74 
 17498      63747800 
 17499              	.LASF247:
 17500 0023 6374726C 		.ascii	"ctrl_type\000"
 17500      5F747970 
 17500      6500
 17501              	.LASF159:
 17502 002d 6C5F6D61 		.ascii	"l_max_erpm_fbrake\000"
 17502      785F6572 
 17502      706D5F66 
 17502      6272616B 
 17502      6500
 17503              	.LASF156:
 17504 003f 6C5F6162 		.ascii	"l_abs_current_max\000"
 17504      735F6375 
 17504      7272656E 
 17504      745F6D61 
 17504      7800
 17505              	.LASF238:
 17506 0051 50504D5F 		.ascii	"PPM_CTRL_TYPE_NONE\000"
 17506      4354524C 
 17506      5F545950 
 17506      455F4E4F 
 17506      4E4500
 17507              	.LASF419:
 17508 0064 636F6D6D 		.ascii	"commands_printf\000"
 17508      616E6473 
 17508      5F707269 
ARM GAS  /tmp/ccq8Pe5l.s 			page 309


 17508      6E746600 
 17509              	.LASF31:
 17510 0074 6D73675F 		.ascii	"msg_t\000"
 17510      7400
 17511              	.LASF337:
 17512 007a 434F4D4D 		.ascii	"COMM_FW_VERSION\000"
 17512      5F46575F 
 17512      56455253 
 17512      494F4E00 
 17513              	.LASF386:
 17514 008a 464C4153 		.ascii	"FLASH_ERROR_PGA\000"
 17514      485F4552 
 17514      524F525F 
 17514      50474100 
 17515              	.LASF455:
 17516 009a 636F6E66 		.ascii	"conf_general_measure_flux_linkage\000"
 17516      5F67656E 
 17516      6572616C 
 17516      5F6D6561 
 17516      73757265 
 17517              	.LASF364:
 17518 00bc 434F4D4D 		.ascii	"COMM_DETECT_HALL_FOC\000"
 17518      5F444554 
 17518      4543545F 
 17518      48414C4C 
 17518      5F464F43 
 17519              	.LASF385:
 17520 00d1 464C4153 		.ascii	"FLASH_ERROR_PGP\000"
 17520      485F4552 
 17520      524F525F 
 17520      50475000 
 17521              	.LASF384:
 17522 00e1 464C4153 		.ascii	"FLASH_ERROR_PGS\000"
 17522      485F4552 
 17522      524F525F 
 17522      50475300 
 17523              	.LASF301:
 17524 00f1 4E52465F 		.ascii	"NRF_RETR_DELAY_750US\000"
 17524      52455452 
 17524      5F44454C 
 17524      41595F37 
 17524      35305553 
 17525              	.LASF83:
 17526 0106 63685F73 		.ascii	"ch_system_t\000"
 17526      79737465 
 17526      6D5F7400 
 17527              	.LASF3:
 17528 0112 5F5F7569 		.ascii	"__uint8_t\000"
 17528      6E74385F 
 17528      7400
 17529              	.LASF100:
 17530 011c 77747365 		.ascii	"wtsemp\000"
 17530      6D7000
 17531              	.LASF249:
 17532 0123 68797374 		.ascii	"hyst\000"
 17532      00
 17533              	.LASF226:
ARM GAS  /tmp/ccq8Pe5l.s 			page 310


 17534 0128 5F426F6F 		.ascii	"_Bool\000"
 17534      6C00
 17535              	.LASF273:
 17536 012e 63635F62 		.ascii	"cc_button_inverted\000"
 17536      7574746F 
 17536      6E5F696E 
 17536      76657274 
 17536      656400
 17537              	.LASF399:
 17538 0141 636F6D6D 		.ascii	"commands_init\000"
 17538      616E6473 
 17538      5F696E69 
 17538      7400
 17539              	.LASF79:
 17540 014f 76745F73 		.ascii	"vt_systime\000"
 17540      79737469 
 17540      6D6500
 17541              	.LASF275:
 17542 015a 766F6C74 		.ascii	"voltage_inverted\000"
 17542      6167655F 
 17542      696E7665 
 17542      72746564 
 17542      00
 17543              	.LASF441:
 17544 016b 73656E64 		.ascii	"send_func\000"
 17544      5F66756E 
 17544      6300
 17545              	.LASF109:
 17546 0175 6D5F6E65 		.ascii	"m_next\000"
 17546      787400
 17547              	.LASF165:
 17548 017c 6C5F736C 		.ascii	"l_slow_abs_current\000"
 17548      6F775F61 
 17548      62735F63 
 17548      75727265 
 17548      6E7400
 17549              	.LASF428:
 17550 018f 73616D70 		.ascii	"samples\000"
 17550      6C657300 
 17551              	.LASF155:
 17552 0197 6C5F696E 		.ascii	"l_in_current_min\000"
 17552      5F637572 
 17552      72656E74 
 17552      5F6D696E 
 17552      00
 17553              	.LASF20:
 17554 01a8 75696E74 		.ascii	"uint16_t\000"
 17554      31365F74 
 17554      00
 17555              	.LASF290:
 17556 01b1 4E52465F 		.ascii	"NRF_POWER_M18DBM\000"
 17556      504F5745 
 17556      525F4D31 
 17556      3844424D 
 17556      00
 17557              	.LASF143:
 17558 01c2 44495350 		.ascii	"DISP_POS_MODE_ENCODER\000"
ARM GAS  /tmp/ccq8Pe5l.s 			page 311


 17558      5F504F53 
 17558      5F4D4F44 
 17558      455F454E 
 17558      434F4445 
 17559              	.LASF389:
 17560 01d8 464C4153 		.ascii	"FLASH_ERROR_OPERATION\000"
 17560      485F4552 
 17560      524F525F 
 17560      4F504552 
 17560      4154494F 
 17561              	.LASF217:
 17562 01ee 63635F73 		.ascii	"cc_startup_boost_duty\000"
 17562      74617274 
 17562      75705F62 
 17562      6F6F7374 
 17562      5F647574 
 17563              	.LASF141:
 17564 0204 44495350 		.ascii	"DISP_POS_MODE_INDUCTANCE\000"
 17564      5F504F53 
 17564      5F4D4F44 
 17564      455F494E 
 17564      44554354 
 17565              	.LASF60:
 17566 021d 63685F74 		.ascii	"ch_threads_queue\000"
 17566      68726561 
 17566      64735F71 
 17566      75657565 
 17566      00
 17567              	.LASF439:
 17568 022e 64657465 		.ascii	"detect_hall_table\000"
 17568      63745F68 
 17568      616C6C5F 
 17568      7461626C 
 17568      6500
 17569              	.LASF157:
 17570 0240 6C5F6D69 		.ascii	"l_min_erpm\000"
 17570      6E5F6572 
 17570      706D00
 17571              	.LASF490:
 17572 024b 636F6D6D 		.ascii	"comm_can_send_buffer\000"
 17572      5F63616E 
 17572      5F73656E 
 17572      645F6275 
 17572      66666572 
 17573              	.LASF40:
 17574 0260 705F6E65 		.ascii	"p_newer\000"
 17574      77657200 
 17575              	.LASF190:
 17576 0268 666F635F 		.ascii	"foc_encoder_offset\000"
 17576      656E636F 
 17576      6465725F 
 17576      6F666673 
 17576      657400
 17577              	.LASF485:
 17578 027b 666C6173 		.ascii	"flash_helper_write_new_app_data\000"
 17578      685F6865 
 17578      6C706572 
ARM GAS  /tmp/ccq8Pe5l.s 			page 312


 17578      5F777269 
 17578      74655F6E 
 17579              	.LASF374:
 17580 029b 6A735F78 		.ascii	"js_x\000"
 17580      00
 17581              	.LASF375:
 17582 02a0 6A735F79 		.ascii	"js_y\000"
 17582      00
 17583              	.LASF256:
 17584 02a5 6D756C74 		.ascii	"multi_esc\000"
 17584      695F6573 
 17584      6300
 17585              	.LASF320:
 17586 02af 72657472 		.ascii	"retries\000"
 17586      69657300 
 17587              	.LASF264:
 17588 02b7 4144435F 		.ascii	"ADC_CTRL_TYPE_CURRENT_NOREV_BRAKE_BUTTON\000"
 17588      4354524C 
 17588      5F545950 
 17588      455F4355 
 17588      5252454E 
 17589              	.LASF300:
 17590 02e0 4E52465F 		.ascii	"NRF_RETR_DELAY_500US\000"
 17590      52455452 
 17590      5F44454C 
 17590      41595F35 
 17590      30305553 
 17591              	.LASF293:
 17592 02f5 4E52465F 		.ascii	"NRF_POWER_0DBM\000"
 17592      504F5745 
 17592      525F3044 
 17592      424D00
 17593              	.LASF412:
 17594 0304 63687563 		.ascii	"chuck_d_tmp\000"
 17594      6B5F645F 
 17594      746D7000 
 17595              	.LASF442:
 17596 0310 61707064 		.ascii	"appdata_func\000"
 17596      6174615F 
 17596      66756E63 
 17596      00
 17597              	.LASF168:
 17598 031d 6C5F7465 		.ascii	"l_temp_fet_end\000"
 17598      6D705F66 
 17598      65745F65 
 17598      6E6400
 17599              	.LASF223:
 17600 032c 6D5F6475 		.ascii	"m_duty_ramp_step_rpm_lim\000"
 17600      74795F72 
 17600      616D705F 
 17600      73746570 
 17600      5F72706D 
 17601              	.LASF35:
 17602 0345 74687265 		.ascii	"thread_t\000"
 17602      61645F74 
 17602      00
 17603              	.LASF78:
ARM GAS  /tmp/ccq8Pe5l.s 			page 313


 17604 034e 63685F76 		.ascii	"ch_virtual_timers_list\000"
 17604      69727475 
 17604      616C5F74 
 17604      696D6572 
 17604      735F6C69 
 17605              	.LASF21:
 17606 0365 696E7433 		.ascii	"int32_t\000"
 17606      325F7400 
 17607              	.LASF34:
 17608 036d 73797374 		.ascii	"systime_t\000"
 17608      696D655F 
 17608      7400
 17609              	.LASF349:
 17610 0377 434F4D4D 		.ascii	"COMM_SET_MCCONF\000"
 17610      5F534554 
 17610      5F4D4343 
 17610      4F4E4600 
 17611              	.LASF137:
 17612 0387 4641554C 		.ascii	"FAULT_CODE_OVER_TEMP_FET\000"
 17612      545F434F 
 17612      44455F4F 
 17612      5645525F 
 17612      54454D50 
 17613              	.LASF315:
 17614 03a0 4E52465F 		.ascii	"NRF_RETR_DELAY\000"
 17614      52455452 
 17614      5F44454C 
 17614      415900
 17615              	.LASF115:
 17616 03af 50574D5F 		.ascii	"PWM_MODE_BIPOLAR\000"
 17616      4D4F4445 
 17616      5F424950 
 17616      4F4C4152 
 17616      00
 17617              	.LASF116:
 17618 03c0 6D635F70 		.ascii	"mc_pwm_mode\000"
 17618      776D5F6D 
 17618      6F646500 
 17619              	.LASF437:
 17620 03cc 64657465 		.ascii	"detect_min_rpm\000"
 17620      63745F6D 
 17620      696E5F72 
 17620      706D00
 17621              	.LASF333:
 17622 03db 6170705F 		.ascii	"app_uart_baudrate\000"
 17622      75617274 
 17622      5F626175 
 17622      64726174 
 17622      6500
 17623              	.LASF499:
 17624 03ed 636F6E66 		.ascii	"conf_general_store_mc_configuration\000"
 17624      5F67656E 
 17624      6572616C 
 17624      5F73746F 
 17624      72655F6D 
 17625              	.LASF254:
 17626 0411 72706D5F 		.ascii	"rpm_lim_start\000"
ARM GAS  /tmp/ccq8Pe5l.s 			page 314


 17626      6C696D5F 
 17626      73746172 
 17626      7400
 17627              	.LASF493:
 17628 041f 6170705F 		.ascii	"app_adc_get_decoded_level\000"
 17628      6164635F 
 17628      6765745F 
 17628      6465636F 
 17628      6465645F 
 17629              	.LASF431:
 17630 0439 64657465 		.ascii	"detect_thread_wa\000"
 17630      63745F74 
 17630      68726561 
 17630      645F7761 
 17630      00
 17631              	.LASF376:
 17632 044a 6163635F 		.ascii	"acc_x\000"
 17632      7800
 17633              	.LASF377:
 17634 0450 6163635F 		.ascii	"acc_y\000"
 17634      7900
 17635              	.LASF378:
 17636 0456 6163635F 		.ascii	"acc_z\000"
 17636      7A00
 17637              	.LASF86:
 17638 045c 76746C69 		.ascii	"vtlist\000"
 17638      737400
 17639              	.LASF237:
 17640 0463 6170705F 		.ascii	"app_use\000"
 17640      75736500 
 17641              	.LASF48:
 17642 046b 705F7761 		.ascii	"p_waiting\000"
 17642      6974696E 
 17642      6700
 17643              	.LASF424:
 17644 0475 696E6465 		.ascii	"index\000"
 17644      7800
 17645              	.LASF417:
 17646 047b 72657369 		.ascii	"resistance\000"
 17646      7374616E 
 17646      636500
 17647              	.LASF365:
 17648 0486 434F4D4D 		.ascii	"COMM_REBOOT\000"
 17648      5F524542 
 17648      4F4F5400 
 17649              	.LASF85:
 17650 0492 726C6973 		.ascii	"rlist\000"
 17650      7400
 17651              	.LASF56:
 17652 0498 74687265 		.ascii	"threads_list_t\000"
 17652      6164735F 
 17652      6C697374 
 17652      5F7400
 17653              	.LASF178:
 17654 04a7 736C5F6D 		.ascii	"sl_min_erpm_cycle_int_limit\000"
 17654      696E5F65 
 17654      72706D5F 
ARM GAS  /tmp/ccq8Pe5l.s 			page 315


 17654      6379636C 
 17654      655F696E 
 17655              	.LASF187:
 17656 04c3 666F635F 		.ascii	"foc_current_ki\000"
 17656      63757272 
 17656      656E745F 
 17656      6B6900
 17657              	.LASF335:
 17658 04d2 6170705F 		.ascii	"app_nrf_conf\000"
 17658      6E72665F 
 17658      636F6E66 
 17658      00
 17659              	.LASF257:
 17660 04df 74635F6D 		.ascii	"tc_max_diff\000"
 17660      61785F64 
 17660      69666600 
 17661              	.LASF186:
 17662 04eb 666F635F 		.ascii	"foc_current_kp\000"
 17662      63757272 
 17662      656E745F 
 17662      6B7000
 17663              	.LASF421:
 17664 04fa 7072696E 		.ascii	"print_buffer\000"
 17664      745F6275 
 17664      66666572 
 17664      00
 17665              	.LASF291:
 17666 0507 4E52465F 		.ascii	"NRF_POWER_M12DBM\000"
 17666      504F5745 
 17666      525F4D31 
 17666      3244424D 
 17666      00
 17667              	.LASF451:
 17668 0518 6D656D63 		.ascii	"memcpy\000"
 17668      707900
 17669              	.LASF464:
 17670 051f 73657276 		.ascii	"servodec_get_last_pulse_len\000"
 17670      6F646563 
 17670      5F676574 
 17670      5F6C6173 
 17670      745F7075 
 17671              	.LASF458:
 17672 053b 636F6E66 		.ascii	"conf_general_get_default_app_configuration\000"
 17672      5F67656E 
 17672      6572616C 
 17672      5F676574 
 17672      5F646566 
 17673              	.LASF30:
 17674 0566 74707269 		.ascii	"tprio_t\000"
 17674      6F5F7400 
 17675              	.LASF332:
 17676 056e 6170705F 		.ascii	"app_adc_conf\000"
 17676      6164635F 
 17676      636F6E66 
 17676      00
 17677              	.LASF298:
 17678 057b 4E52465F 		.ascii	"NRF_CRC\000"
ARM GAS  /tmp/ccq8Pe5l.s 			page 316


 17678      43524300 
 17679              	.LASF418:
 17680 0583 6C696E6B 		.ascii	"linkage\000"
 17680      61676500 
 17681              	.LASF125:
 17682 058b 464F435F 		.ascii	"FOC_SENSOR_MODE_ENCODER\000"
 17682      53454E53 
 17682      4F525F4D 
 17682      4F44455F 
 17682      454E434F 
 17683              	.LASF258:
 17684 05a3 70706D5F 		.ascii	"ppm_config\000"
 17684      636F6E66 
 17684      696700
 17685              	.LASF514:
 17686 05ae 5F5F6469 		.ascii	"__disable_irq\000"
 17686      7361626C 
 17686      655F6972 
 17686      7100
 17687              	.LASF245:
 17688 05bc 50504D5F 		.ascii	"PPM_CTRL_TYPE_PID_NOREV\000"
 17688      4354524C 
 17688      5F545950 
 17688      455F5049 
 17688      445F4E4F 
 17689              	.LASF270:
 17690 05d4 766F6C74 		.ascii	"voltage_start\000"
 17690      6167655F 
 17690      73746172 
 17690      7400
 17691              	.LASF111:
 17692 05e2 7466756E 		.ascii	"tfunc_t\000"
 17692      635F7400 
 17693              	.LASF508:
 17694 05ea 76736E70 		.ascii	"vsnprintf\000"
 17694      72696E74 
 17694      6600
 17695              	.LASF5:
 17696 05f4 5F5F696E 		.ascii	"__int16_t\000"
 17696      7431365F 
 17696      7400
 17697              	.LASF7:
 17698 05fe 5F5F7569 		.ascii	"__uint16_t\000"
 17698      6E743136 
 17698      5F7400
 17699              	.LASF355:
 17700 0609 434F4D4D 		.ascii	"COMM_SAMPLE_PRINT\000"
 17700      5F53414D 
 17700      504C455F 
 17700      5052494E 
 17700      5400
 17701              	.LASF277:
 17702 061b 6164635F 		.ascii	"adc_config\000"
 17702      636F6E66 
 17702      696700
 17703              	.LASF50:
 17704 0626 705F6D73 		.ascii	"p_msg\000"
ARM GAS  /tmp/ccq8Pe5l.s 			page 317


 17704      6700
 17705              	.LASF221:
 17706 062c 6D5F6661 		.ascii	"m_fault_stop_time_ms\000"
 17706      756C745F 
 17706      73746F70 
 17706      5F74696D 
 17706      655F6D73 
 17707              	.LASF495:
 17708 0641 6170705F 		.ascii	"app_adc_get_decoded_level2\000"
 17708      6164635F 
 17708      6765745F 
 17708      6465636F 
 17708      6465645F 
 17709              	.LASF466:
 17710 065c 6D635F69 		.ascii	"mc_interface_set_pid_speed\000"
 17710      6E746572 
 17710      66616365 
 17710      5F736574 
 17710      5F706964 
 17711              	.LASF211:
 17712 0677 735F7069 		.ascii	"s_pid_kd\000"
 17712      645F6B64 
 17712      00
 17713              	.LASF393:
 17714 0680 5F5F676E 		.ascii	"__gnuc_va_list\000"
 17714      75635F76 
 17714      615F6C69 
 17714      737400
 17715              	.LASF193:
 17716 068f 666F635F 		.ascii	"foc_motor_l\000"
 17716      6D6F746F 
 17716      725F6C00 
 17717              	.LASF194:
 17718 069b 666F635F 		.ascii	"foc_motor_r\000"
 17718      6D6F746F 
 17718      725F7200 
 17719              	.LASF91:
 17720 06a7 73746B61 		.ascii	"stkalign_t\000"
 17720      6C69676E 
 17720      5F7400
 17721              	.LASF73:
 17722 06b2 76745F70 		.ascii	"vt_prev\000"
 17722      72657600 
 17723              	.LASF450:
 17724 06ba 63685468 		.ascii	"chThdCreateStatic\000"
 17724      64437265 
 17724      61746553 
 17724      74617469 
 17724      6300
 17725              	.LASF4:
 17726 06cc 756E7369 		.ascii	"unsigned char\000"
 17726      676E6564 
 17726      20636861 
 17726      7200
 17727              	.LASF212:
 17728 06da 735F7069 		.ascii	"s_pid_min_erpm\000"
 17728      645F6D69 
ARM GAS  /tmp/ccq8Pe5l.s 			page 318


 17728      6E5F6572 
 17728      706D00
 17729              	.LASF105:
 17730 06e9 735F636E 		.ascii	"s_cnt\000"
 17730      7400
 17731              	.LASF61:
 17732 06ef 72656164 		.ascii	"ready_list_t\000"
 17732      795F6C69 
 17732      73745F74 
 17732      00
 17733              	.LASF57:
 17734 06fc 63685F74 		.ascii	"ch_thread\000"
 17734      68726561 
 17734      6400
 17735              	.LASF0:
 17736 0706 666C6F61 		.ascii	"float\000"
 17736      7400
 17737              	.LASF324:
 17738 070c 6E72665F 		.ascii	"nrf_config\000"
 17738      636F6E66 
 17738      696700
 17739              	.LASF292:
 17740 0717 4E52465F 		.ascii	"NRF_POWER_M6DBM\000"
 17740      504F5745 
 17740      525F4D36 
 17740      44424D00 
 17741              	.LASF432:
 17742 0727 64657465 		.ascii	"detect_tp\000"
 17742      63745F74 
 17742      7000
 17743              	.LASF188:
 17744 0731 666F635F 		.ascii	"foc_f_sw\000"
 17744      665F7377 
 17744      00
 17745              	.LASF252:
 17746 073a 6D656469 		.ascii	"median_filter\000"
 17746      616E5F66 
 17746      696C7465 
 17746      7200
 17747              	.LASF80:
 17748 0748 73797374 		.ascii	"system_debug_t\000"
 17748      656D5F64 
 17748      65627567 
 17748      5F7400
 17749              	.LASF167:
 17750 0757 6C5F7465 		.ascii	"l_temp_fet_start\000"
 17750      6D705F66 
 17750      65745F73 
 17750      74617274 
 17750      00
 17751              	.LASF436:
 17752 0768 64657465 		.ascii	"detect_current\000"
 17752      63745F63 
 17752      75727265 
 17752      6E7400
 17753              	.LASF39:
 17754 0777 705F6374 		.ascii	"p_ctx\000"
ARM GAS  /tmp/ccq8Pe5l.s 			page 319


 17754      7800
 17755              	.LASF76:
 17756 077d 76745F70 		.ascii	"vt_par\000"
 17756      617200
 17757              	.LASF276:
 17758 0784 75706461 		.ascii	"update_rate_hz\000"
 17758      74655F72 
 17758      6174655F 
 17758      687A00
 17759              	.LASF68:
 17760 0793 725F6375 		.ascii	"r_current\000"
 17760      7272656E 
 17760      7400
 17761              	.LASF366:
 17762 079d 434F4D4D 		.ascii	"COMM_ALIVE\000"
 17762      5F414C49 
 17762      564500
 17763              	.LASF149:
 17764 07a8 636F6D6D 		.ascii	"comm_mode\000"
 17764      5F6D6F64 
 17764      6500
 17765              	.LASF166:
 17766 07b2 6C5F7270 		.ascii	"l_rpm_lim_neg_torque\000"
 17766      6D5F6C69 
 17766      6D5F6E65 
 17766      675F746F 
 17766      72717565 
 17767              	.LASF136:
 17768 07c7 4641554C 		.ascii	"FAULT_CODE_ABS_OVER_CURRENT\000"
 17768      545F434F 
 17768      44455F41 
 17768      42535F4F 
 17768      5645525F 
 17769              	.LASF196:
 17770 07e3 666F635F 		.ascii	"foc_observer_gain\000"
 17770      6F627365 
 17770      72766572 
 17770      5F676169 
 17770      6E00
 17771              	.LASF284:
 17772 07f5 73746963 		.ascii	"stick_erpm_per_s_in_cc\000"
 17772      6B5F6572 
 17772      706D5F70 
 17772      65725F73 
 17772      5F696E5F 
 17773              	.LASF516:
 17774 080c 636F6D6D 		.ascii	"commands_get_disp_pos_mode\000"
 17774      616E6473 
 17774      5F676574 
 17774      5F646973 
 17774      705F706F 
 17775              	.LASF23:
 17776 0827 75696E74 		.ascii	"uint64_t\000"
 17776      36345F74 
 17776      00
 17777              	.LASF454:
 17778 0830 6D637077 		.ascii	"mcpwm_foc_hall_detect\000"
ARM GAS  /tmp/ccq8Pe5l.s 			page 320


 17778      6D5F666F 
 17778      635F6861 
 17778      6C6C5F64 
 17778      65746563 
 17779              	.LASF314:
 17780 0846 4E52465F 		.ascii	"NRF_RETR_DELAY_4000US\000"
 17780      52455452 
 17780      5F44454C 
 17780      41595F34 
 17780      30303055 
 17781              	.LASF383:
 17782 085c 464C4153 		.ascii	"FLASH_ERROR_RD\000"
 17782      485F4552 
 17782      524F525F 
 17782      524400
 17783              	.LASF427:
 17784 086b 636F6D6D 		.ascii	"commands_send_experiment_samples\000"
 17784      616E6473 
 17784      5F73656E 
 17784      645F6578 
 17784      70657269 
 17785              	.LASF142:
 17786 088c 44495350 		.ascii	"DISP_POS_MODE_OBSERVER\000"
 17786      5F504F53 
 17786      5F4D4F44 
 17786      455F4F42 
 17786      53455256 
 17787              	.LASF473:
 17788 08a3 6D635F69 		.ascii	"mc_interface_read_reset_avg_motor_current\000"
 17788      6E746572 
 17788      66616365 
 17788      5F726561 
 17788      645F7265 
 17789              	.LASF106:
 17790 08cd 63685F6D 		.ascii	"ch_mutex\000"
 17790      75746578 
 17790      00
 17791              	.LASF140:
 17792 08d6 44495350 		.ascii	"DISP_POS_MODE_NONE\000"
 17792      5F504F53 
 17792      5F4D4F44 
 17792      455F4E4F 
 17792      4E4500
 17793              	.LASF388:
 17794 08e9 464C4153 		.ascii	"FLASH_ERROR_PROGRAM\000"
 17794      485F4552 
 17794      524F525F 
 17794      50524F47 
 17794      52414D00 
 17795              	.LASF489:
 17796 08fd 6170705F 		.ascii	"app_nunchuk_update_output\000"
 17796      6E756E63 
 17796      68756B5F 
 17796      75706461 
 17796      74655F6F 
 17797              	.LASF121:
 17798 0917 53454E53 		.ascii	"SENSOR_MODE_SENSORED\000"
ARM GAS  /tmp/ccq8Pe5l.s 			page 321


 17798      4F525F4D 
 17798      4F44455F 
 17798      53454E53 
 17798      4F524544 
 17799              	.LASF396:
 17800 092c 76615F6C 		.ascii	"va_list\000"
 17800      69737400 
 17801              	.LASF379:
 17802 0934 62745F63 		.ascii	"bt_c\000"
 17802      00
 17803              	.LASF289:
 17804 0939 4E52465F 		.ascii	"NRF_SPEED\000"
 17804      53504545 
 17804      4400
 17805              	.LASF283:
 17806 0943 72616D70 		.ascii	"ramp_time_neg\000"
 17806      5F74696D 
 17806      655F6E65 
 17806      6700
 17807              	.LASF380:
 17808 0951 62745F7A 		.ascii	"bt_z\000"
 17808      00
 17809              	.LASF70:
 17810 0956 76697274 		.ascii	"virtual_timer_t\000"
 17810      75616C5F 
 17810      74696D65 
 17810      725F7400 
 17811              	.LASF65:
 17812 0966 725F6374 		.ascii	"r_ctx\000"
 17812      7800
 17813              	.LASF72:
 17814 096c 76745F6E 		.ascii	"vt_next\000"
 17814      65787400 
 17815              	.LASF340:
 17816 0974 434F4D4D 		.ascii	"COMM_WRITE_NEW_APP_DATA\000"
 17816      5F575249 
 17816      54455F4E 
 17816      45575F41 
 17816      50505F44 
 17817              	.LASF339:
 17818 098c 434F4D4D 		.ascii	"COMM_ERASE_NEW_APP\000"
 17818      5F455241 
 17818      53455F4E 
 17818      45575F41 
 17818      505000
 17819              	.LASF25:
 17820 099f 7274636E 		.ascii	"rtcnt_t\000"
 17820      745F7400 
 17821              	.LASF122:
 17822 09a7 53454E53 		.ascii	"SENSOR_MODE_HYBRID\000"
 17822      4F525F4D 
 17822      4F44455F 
 17822      48594252 
 17822      494400
 17823              	.LASF382:
 17824 09ba 464C4153 		.ascii	"FLASH_BUSY\000"
 17824      485F4255 
ARM GAS  /tmp/ccq8Pe5l.s 			page 322


 17824      535900
 17825              	.LASF173:
 17826 09c5 6C6F5F63 		.ascii	"lo_current_max\000"
 17826      75727265 
 17826      6E745F6D 
 17826      617800
 17827              	.LASF191:
 17828 09d4 666F635F 		.ascii	"foc_encoder_inverted\000"
 17828      656E636F 
 17828      6465725F 
 17828      696E7665 
 17828      72746564 
 17829              	.LASF218:
 17830 09e9 63635F6D 		.ascii	"cc_min_current\000"
 17830      696E5F63 
 17830      75727265 
 17830      6E7400
 17831              	.LASF251:
 17832 09f8 70756C73 		.ascii	"pulse_end\000"
 17832      655F656E 
 17832      6400
 17833              	.LASF261:
 17834 0a02 4144435F 		.ascii	"ADC_CTRL_TYPE_CURRENT_REV_CENTER\000"
 17834      4354524C 
 17834      5F545950 
 17834      455F4355 
 17834      5252454E 
 17835              	.LASF505:
 17836 0a23 6170705F 		.ascii	"app_set_configuration\000"
 17836      7365745F 
 17836      636F6E66 
 17836      69677572 
 17836      6174696F 
 17837              	.LASF24:
 17838 0a39 73697A65 		.ascii	"size_t\000"
 17838      5F7400
 17839              	.LASF326:
 17840 0a40 74696D65 		.ascii	"timeout_msec\000"
 17840      6F75745F 
 17840      6D736563 
 17840      00
 17841              	.LASF18:
 17842 0a4d 75696E74 		.ascii	"uint8_t\000"
 17842      385F7400 
 17843              	.LASF328:
 17844 0a55 73656E64 		.ascii	"send_can_status\000"
 17844      5F63616E 
 17844      5F737461 
 17844      74757300 
 17845              	.LASF67:
 17846 0a65 725F6F6C 		.ascii	"r_older\000"
 17846      64657200 
 17847              	.LASF37:
 17848 0a6d 705F7072 		.ascii	"p_prev\000"
 17848      657600
 17849              	.LASF362:
 17850 0a74 434F4D4D 		.ascii	"COMM_DETECT_MOTOR_FLUX_LINKAGE\000"
ARM GAS  /tmp/ccq8Pe5l.s 			page 323


 17850      5F444554 
 17850      4543545F 
 17850      4D4F544F 
 17850      525F464C 
 17851              	.LASF234:
 17852 0a93 4150505F 		.ascii	"APP_NUNCHUK\000"
 17852      4E554E43 
 17852      48554B00 
 17853              	.LASF381:
 17854 0a9f 63687563 		.ascii	"chuck_data\000"
 17854      6B5F6461 
 17854      746100
 17855              	.LASF162:
 17856 0aaa 6C5F6D61 		.ascii	"l_max_vin\000"
 17856      785F7669 
 17856      6E00
 17857              	.LASF435:
 17858 0ab4 64657465 		.ascii	"detect_coupling_k\000"
 17858      63745F63 
 17858      6F75706C 
 17858      696E675F 
 17858      6B00
 17859              	.LASF97:
 17860 0ac6 65786974 		.ascii	"exitcode\000"
 17860      636F6465 
 17860      00
 17861              	.LASF323:
 17862 0acf 73656E64 		.ascii	"send_crc_ack\000"
 17862      5F637263 
 17862      5F61636B 
 17862      00
 17863              	.LASF403:
 17864 0adc 7061636B 		.ascii	"packet_id\000"
 17864      65745F69 
 17864      6400
 17865              	.LASF229:
 17866 0ae6 4150505F 		.ascii	"APP_PPM\000"
 17866      50504D00 
 17867              	.LASF474:
 17868 0aee 6D635F69 		.ascii	"mc_interface_read_reset_avg_input_current\000"
 17868      6E746572 
 17868      66616365 
 17868      5F726561 
 17868      645F7265 
 17869              	.LASF476:
 17870 0b18 6D635F69 		.ascii	"mc_interface_get_rpm\000"
 17870      6E746572 
 17870      66616365 
 17870      5F676574 
 17870      5F72706D 
 17871              	.LASF460:
 17872 0b2d 62756666 		.ascii	"buffer_append_uint16\000"
 17872      65725F61 
 17872      7070656E 
 17872      645F7569 
 17872      6E743136 
 17873              	.LASF267:
ARM GAS  /tmp/ccq8Pe5l.s 			page 324


 17874 0b42 4144435F 		.ascii	"ADC_CTRL_TYPE_DUTY_REV_CENTER\000"
 17874      4354524C 
 17874      5F545950 
 17874      455F4455 
 17874      54595F52 
 17875              	.LASF246:
 17876 0b60 70706D5F 		.ascii	"ppm_control_type\000"
 17876      636F6E74 
 17876      726F6C5F 
 17876      74797065 
 17876      00
 17877              	.LASF410:
 17878 0b71 666C6173 		.ascii	"flash_res\000"
 17878      685F7265 
 17878      7300
 17879              	.LASF342:
 17880 0b7b 434F4D4D 		.ascii	"COMM_SET_DUTY\000"
 17880      5F534554 
 17880      5F445554 
 17880      5900
 17881              	.LASF163:
 17882 0b89 6C5F6261 		.ascii	"l_battery_cut_start\000"
 17882      74746572 
 17882      795F6375 
 17882      745F7374 
 17882      61727400 
 17883              	.LASF145:
 17884 0b9d 44495350 		.ascii	"DISP_POS_MODE_PID_POS_ERROR\000"
 17884      5F504F53 
 17884      5F4D4F44 
 17884      455F5049 
 17884      445F504F 
 17885              	.LASF161:
 17886 0bb9 6C5F6D69 		.ascii	"l_min_vin\000"
 17886      6E5F7669 
 17886      6E00
 17887              	.LASF308:
 17888 0bc3 4E52465F 		.ascii	"NRF_RETR_DELAY_2500US\000"
 17888      52455452 
 17888      5F44454C 
 17888      41595F32 
 17888      35303055 
 17889              	.LASF350:
 17890 0bd9 434F4D4D 		.ascii	"COMM_GET_MCCONF\000"
 17890      5F474554 
 17890      5F4D4343 
 17890      4F4E4600 
 17891              	.LASF207:
 17892 0be9 666F635F 		.ascii	"foc_hall_table\000"
 17892      68616C6C 
 17892      5F746162 
 17892      6C6500
 17893              	.LASF348:
 17894 0bf8 434F4D4D 		.ascii	"COMM_SET_SERVO_POS\000"
 17894      5F534554 
 17894      5F534552 
 17894      564F5F50 
ARM GAS  /tmp/ccq8Pe5l.s 			page 325


 17894      4F5300
 17895              	.LASF475:
 17896 0c0b 6D635F69 		.ascii	"mc_interface_get_duty_cycle_now\000"
 17896      6E746572 
 17896      66616365 
 17896      5F676574 
 17896      5F647574 
 17897              	.LASF367:
 17898 0c2b 434F4D4D 		.ascii	"COMM_GET_DECODED_PPM\000"
 17898      5F474554 
 17898      5F444543 
 17898      4F444544 
 17898      5F50504D 
 17899              	.LASF144:
 17900 0c40 44495350 		.ascii	"DISP_POS_MODE_PID_POS\000"
 17900      5F504F53 
 17900      5F4D4F44 
 17900      455F5049 
 17900      445F504F 
 17901              	.LASF130:
 17902 0c56 4D4F544F 		.ascii	"MOTOR_TYPE_FOC\000"
 17902      525F5459 
 17902      50455F46 
 17902      4F4300
 17903              	.LASF177:
 17904 0c65 736C5F6D 		.ascii	"sl_min_erpm\000"
 17904      696E5F65 
 17904      72706D00 
 17905              	.LASF133:
 17906 0c71 4641554C 		.ascii	"FAULT_CODE_OVER_VOLTAGE\000"
 17906      545F434F 
 17906      44455F4F 
 17906      5645525F 
 17906      564F4C54 
 17907              	.LASF224:
 17908 0c89 6D5F6375 		.ascii	"m_current_backoff_gain\000"
 17908      7272656E 
 17908      745F6261 
 17908      636B6F66 
 17908      665F6761 
 17909              	.LASF459:
 17910 0ca0 62756666 		.ascii	"buffer_append_uint32\000"
 17910      65725F61 
 17910      7070656E 
 17910      645F7569 
 17910      6E743332 
 17911              	.LASF370:
 17912 0cb5 434F4D4D 		.ascii	"COMM_FORWARD_CAN\000"
 17912      5F464F52 
 17912      57415244 
 17912      5F43414E 
 17912      00
 17913              	.LASF96:
 17914 0cc6 7264796D 		.ascii	"rdymsg\000"
 17914      736700
 17915              	.LASF172:
 17916 0ccd 6C5F6D61 		.ascii	"l_max_duty\000"
ARM GAS  /tmp/ccq8Pe5l.s 			page 326


 17916      785F6475 
 17916      747900
 17917              	.LASF359:
 17918 0cd8 434F4D4D 		.ascii	"COMM_EXPERIMENT_SAMPLE\000"
 17918      5F455850 
 17918      4552494D 
 17918      454E545F 
 17918      53414D50 
 17919              	.LASF409:
 17920 0cef 61707063 		.ascii	"appconf\000"
 17920      6F6E6600 
 17921              	.LASF456:
 17922 0cf7 62756666 		.ascii	"buffer_append_float32\000"
 17922      65725F61 
 17922      7070656E 
 17922      645F666C 
 17922      6F617433 
 17923              	.LASF38:
 17924 0d0d 705F7072 		.ascii	"p_prio\000"
 17924      696F00
 17925              	.LASF483:
 17926 0d14 6D635F69 		.ascii	"mc_interface_get_fault\000"
 17926      6E746572 
 17926      66616365 
 17926      5F676574 
 17926      5F666175 
 17927              	.LASF14:
 17928 0d2b 5F5F7569 		.ascii	"__uint64_t\000"
 17928      6E743634 
 17928      5F7400
 17929              	.LASF312:
 17930 0d36 4E52465F 		.ascii	"NRF_RETR_DELAY_3500US\000"
 17930      52455452 
 17930      5F44454C 
 17930      41595F33 
 17930      35303055 
 17931              	.LASF262:
 17932 0d4c 4144435F 		.ascii	"ADC_CTRL_TYPE_CURRENT_REV_BUTTON\000"
 17932      4354524C 
 17932      5F545950 
 17932      455F4355 
 17932      5252454E 
 17933              	.LASF462:
 17934 0d6d 74696D65 		.ascii	"timeout_reset\000"
 17934      6F75745F 
 17934      72657365 
 17934      7400
 17935              	.LASF322:
 17936 0d7b 61646472 		.ascii	"address\000"
 17936      65737300 
 17937              	.LASF181:
 17938 0d83 736C5F70 		.ascii	"sl_phase_advance_at_br\000"
 17938      68617365 
 17938      5F616476 
 17938      616E6365 
 17938      5F61745F 
 17939              	.LASF263:
ARM GAS  /tmp/ccq8Pe5l.s 			page 327


 17940 0d9a 4144435F 		.ascii	"ADC_CTRL_TYPE_CURRENT_NOREV_BRAKE_CENTER\000"
 17940      4354524C 
 17940      5F545950 
 17940      455F4355 
 17940      5252454E 
 17941              	.LASF36:
 17942 0dc3 705F6E65 		.ascii	"p_next\000"
 17942      787400
 17943              	.LASF321:
 17944 0dca 6368616E 		.ascii	"channel\000"
 17944      6E656C00 
 17945              	.LASF219:
 17946 0dd2 63635F67 		.ascii	"cc_gain\000"
 17946      61696E00 
 17947              	.LASF304:
 17948 0dda 4E52465F 		.ascii	"NRF_RETR_DELAY_1500US\000"
 17948      52455452 
 17948      5F44454C 
 17948      41595F31 
 17948      35303055 
 17949              	.LASF28:
 17950 0df0 74726566 		.ascii	"trefs_t\000"
 17950      735F7400 
 17951              	.LASF510:
 17952 0df8 636F6D6D 		.ascii	"commands.c\000"
 17952      616E6473 
 17952      2E6300
 17953              	.LASF54:
 17954 0e03 705F6D70 		.ascii	"p_mpool\000"
 17954      6F6F6C00 
 17955              	.LASF148:
 17956 0e0b 70776D5F 		.ascii	"pwm_mode\000"
 17956      6D6F6465 
 17956      00
 17957              	.LASF268:
 17958 0e14 4144435F 		.ascii	"ADC_CTRL_TYPE_DUTY_REV_BUTTON\000"
 17958      4354524C 
 17958      5F545950 
 17958      455F4455 
 17958      54595F52 
 17959              	.LASF150:
 17960 0e32 6D6F746F 		.ascii	"motor_type\000"
 17960      725F7479 
 17960      706500
 17961              	.LASF174:
 17962 0e3d 6C6F5F63 		.ascii	"lo_current_min\000"
 17962      75727265 
 17962      6E745F6D 
 17962      696E00
 17963              	.LASF179:
 17964 0e4c 736C5F6D 		.ascii	"sl_max_fullbreak_current_dir_change\000"
 17964      61785F66 
 17964      756C6C62 
 17964      7265616B 
 17964      5F637572 
 17965              	.LASF434:
 17966 0e70 64657465 		.ascii	"detect_cycle_int_limit\000"
ARM GAS  /tmp/ccq8Pe5l.s 			page 328


 17966      63745F63 
 17966      79636C65 
 17966      5F696E74 
 17966      5F6C696D 
 17967              	.LASF26:
 17968 0e87 746D6F64 		.ascii	"tmode_t\000"
 17968      655F7400 
 17969              	.LASF204:
 17970 0e8f 666F635F 		.ascii	"foc_sl_d_current_duty\000"
 17970      736C5F64 
 17970      5F637572 
 17970      72656E74 
 17970      5F647574 
 17971              	.LASF309:
 17972 0ea5 4E52465F 		.ascii	"NRF_RETR_DELAY_2750US\000"
 17972      52455452 
 17972      5F44454C 
 17972      41595F32 
 17972      37353055 
 17973              	.LASF184:
 17974 0ebb 68616C6C 		.ascii	"hall_table\000"
 17974      5F746162 
 17974      6C6500
 17975              	.LASF414:
 17976 0ec6 68616C6C 		.ascii	"hall_tab\000"
 17976      5F746162 
 17976      00
 17977              	.LASF129:
 17978 0ecf 4D4F544F 		.ascii	"MOTOR_TYPE_DC\000"
 17978      525F5459 
 17978      50455F44 
 17978      4300
 17979              	.LASF305:
 17980 0edd 4E52465F 		.ascii	"NRF_RETR_DELAY_1750US\000"
 17980      52455452 
 17980      5F44454C 
 17980      41595F31 
 17980      37353055 
 17981              	.LASF447:
 17982 0ef3 636F6E66 		.ascii	"conf_general_detect_motor_param\000"
 17982      5F67656E 
 17982      6572616C 
 17982      5F646574 
 17982      6563745F 
 17983              	.LASF239:
 17984 0f13 50504D5F 		.ascii	"PPM_CTRL_TYPE_CURRENT\000"
 17984      4354524C 
 17984      5F545950 
 17984      455F4355 
 17984      5252454E 
 17985              	.LASF334:
 17986 0f29 6170705F 		.ascii	"app_chuk_conf\000"
 17986      6368756B 
 17986      5F636F6E 
 17986      6600
 17987              	.LASF195:
 17988 0f37 666F635F 		.ascii	"foc_motor_flux_linkage\000"
ARM GAS  /tmp/ccq8Pe5l.s 			page 329


 17988      6D6F746F 
 17988      725F666C 
 17988      75785F6C 
 17988      696E6B61 
 17989              	.LASF397:
 17990 0f4e 6E616D65 		.ascii	"name\000"
 17990      00
 17991              	.LASF208:
 17992 0f53 666F635F 		.ascii	"foc_hall_sl_erpm\000"
 17992      68616C6C 
 17992      5F736C5F 
 17992      6572706D 
 17992      00
 17993              	.LASF180:
 17994 0f64 736C5F63 		.ascii	"sl_cycle_int_limit\000"
 17994      79636C65 
 17994      5F696E74 
 17994      5F6C696D 
 17994      697400
 17995              	.LASF17:
 17996 0f77 696E7438 		.ascii	"int8_t\000"
 17996      5F7400
 17997              	.LASF82:
 17998 0f7e 70616E69 		.ascii	"panic_msg\000"
 17998      635F6D73 
 17998      6700
 17999              	.LASF327:
 18000 0f88 74696D65 		.ascii	"timeout_brake_current\000"
 18000      6F75745F 
 18000      6272616B 
 18000      655F6375 
 18000      7272656E 
 18001              	.LASF66:
 18002 0f9e 725F6E65 		.ascii	"r_newer\000"
 18002      77657200 
 18003              	.LASF343:
 18004 0fa6 434F4D4D 		.ascii	"COMM_SET_CURRENT\000"
 18004      5F534554 
 18004      5F435552 
 18004      52454E54 
 18004      00
 18005              	.LASF373:
 18006 0fb7 434F4D4D 		.ascii	"COMM_PACKET_ID\000"
 18006      5F504143 
 18006      4B45545F 
 18006      494400
 18007              	.LASF29:
 18008 0fc6 74736C69 		.ascii	"tslices_t\000"
 18008      6365735F 
 18008      7400
 18009              	.LASF488:
 18010 0fd0 62756666 		.ascii	"buffer_get_int16\000"
 18010      65725F67 
 18010      65745F69 
 18010      6E743136 
 18010      00
 18011              	.LASF74:
ARM GAS  /tmp/ccq8Pe5l.s 			page 330


 18012 0fe1 76745F64 		.ascii	"vt_delta\000"
 18012      656C7461 
 18012      00
 18013              	.LASF89:
 18014 0fea 73697A65 		.ascii	"sizetype\000"
 18014      74797065 
 18014      00
 18015              	.LASF19:
 18016 0ff3 696E7431 		.ascii	"int16_t\000"
 18016      365F7400 
 18017              	.LASF8:
 18018 0ffb 73686F72 		.ascii	"short unsigned int\000"
 18018      7420756E 
 18018      7369676E 
 18018      65642069 
 18018      6E7400
 18019              	.LASF1:
 18020 100e 7369676E 		.ascii	"signed char\000"
 18020      65642063 
 18020      68617200 
 18021              	.LASF438:
 18022 101a 64657465 		.ascii	"detect_low_duty\000"
 18022      63745F6C 
 18022      6F775F64 
 18022      75747900 
 18023              	.LASF46:
 18024 102a 705F7072 		.ascii	"p_preempt\000"
 18024      65656D70 
 18024      7400
 18025              	.LASF158:
 18026 1034 6C5F6D61 		.ascii	"l_max_erpm\000"
 18026      785F6572 
 18026      706D00
 18027              	.LASF47:
 18028 103f 705F7469 		.ascii	"p_time\000"
 18028      6D6500
 18029              	.LASF413:
 18030 1046 63757272 		.ascii	"current\000"
 18030      656E7400 
 18031              	.LASF463:
 18032 104e 73657276 		.ascii	"servodec_get_servo\000"
 18032      6F646563 
 18032      5F676574 
 18032      5F736572 
 18032      766F00
 18033              	.LASF497:
 18034 1061 7465726D 		.ascii	"terminal_process_string\000"
 18034      696E616C 
 18034      5F70726F 
 18034      63657373 
 18034      5F737472 
 18035              	.LASF471:
 18036 1079 62756666 		.ascii	"buffer_append_float16\000"
 18036      65725F61 
 18036      7070656E 
 18036      645F666C 
 18036      6F617431 
ARM GAS  /tmp/ccq8Pe5l.s 			page 331


 18037              	.LASF465:
 18038 108f 62756666 		.ascii	"buffer_get_int32\000"
 18038      65725F67 
 18038      65745F69 
 18038      6E743332 
 18038      00
 18039              	.LASF331:
 18040 10a0 6170705F 		.ascii	"app_ppm_conf\000"
 18040      70706D5F 
 18040      636F6E66 
 18040      00
 18041              	.LASF429:
 18042 10ad 636F6D6D 		.ascii	"commands_set_app_data_handler\000"
 18042      616E6473 
 18042      5F736574 
 18042      5F617070 
 18042      5F646174 
 18043              	.LASF138:
 18044 10cb 4641554C 		.ascii	"FAULT_CODE_OVER_TEMP_MOTOR\000"
 18044      545F434F 
 18044      44455F4F 
 18044      5645525F 
 18044      54454D50 
 18045              	.LASF49:
 18046 10e6 705F6D73 		.ascii	"p_msgqueue\000"
 18046      67717565 
 18046      756500
 18047              	.LASF440:
 18048 10f1 64657465 		.ascii	"detect_hall_res\000"
 18048      63745F68 
 18048      616C6C5F 
 18048      72657300 
 18049              	.LASF255:
 18050 1101 72706D5F 		.ascii	"rpm_lim_end\000"
 18050      6C696D5F 
 18050      656E6400 
 18051              	.LASF200:
 18052 110d 666F635F 		.ascii	"foc_duty_dowmramp_ki\000"
 18052      64757479 
 18052      5F646F77 
 18052      6D72616D 
 18052      705F6B69 
 18053              	.LASF299:
 18054 1122 4E52465F 		.ascii	"NRF_RETR_DELAY_250US\000"
 18054      52455452 
 18054      5F44454C 
 18054      41595F32 
 18054      35305553 
 18055              	.LASF108:
 18056 1137 6D5F6F77 		.ascii	"m_owner\000"
 18056      6E657200 
 18057              	.LASF199:
 18058 113f 666F635F 		.ascii	"foc_duty_dowmramp_kp\000"
 18058      64757479 
 18058      5F646F77 
 18058      6D72616D 
 18058      705F6B70 
ARM GAS  /tmp/ccq8Pe5l.s 			page 332


 18059              	.LASF515:
 18060 1154 64657465 		.ascii	"detect_thread\000"
 18060      63745F74 
 18060      68726561 
 18060      6400
 18061              	.LASF496:
 18062 1162 6170705F 		.ascii	"app_adc_get_voltage2\000"
 18062      6164635F 
 18062      6765745F 
 18062      766F6C74 
 18062      61676532 
 18063              	.LASF406:
 18064 1177 61745F73 		.ascii	"at_start\000"
 18064      74617274 
 18064      00
 18065              	.LASF84:
 18066 1180 63685F73 		.ascii	"ch_system\000"
 18066      79737465 
 18066      6D00
 18067              	.LASF152:
 18068 118a 6C5F6375 		.ascii	"l_current_max\000"
 18068      7272656E 
 18068      745F6D61 
 18068      7800
 18069              	.LASF401:
 18070 1198 66756E63 		.ascii	"func\000"
 18070      00
 18071              	.LASF286:
 18072 119d 4E52465F 		.ascii	"NRF_SPEED_250K\000"
 18072      53504545 
 18072      445F3235 
 18072      304B00
 18073              	.LASF103:
 18074 11ac 63685F73 		.ascii	"ch_semaphore\000"
 18074      656D6170 
 18074      686F7265 
 18074      00
 18075              	.LASF241:
 18076 11b9 50504D5F 		.ascii	"PPM_CTRL_TYPE_CURRENT_NOREV_BRAKE\000"
 18076      4354524C 
 18076      5F545950 
 18076      455F4355 
 18076      5252454E 
 18077              	.LASF280:
 18078 11db 4348554B 		.ascii	"CHUK_CTRL_TYPE_CURRENT_NOREV\000"
 18078      5F435452 
 18078      4C5F5459 
 18078      50455F43 
 18078      55525245 
 18079              	.LASF278:
 18080 11f8 4348554B 		.ascii	"CHUK_CTRL_TYPE_NONE\000"
 18080      5F435452 
 18080      4C5F5459 
 18080      50455F4E 
 18080      4F4E4500 
 18081              	.LASF59:
 18082 120c 74687265 		.ascii	"threads_queue_t\000"
ARM GAS  /tmp/ccq8Pe5l.s 			page 333


 18082      6164735F 
 18082      71756575 
 18082      655F7400 
 18083              	.LASF318:
 18084 121c 6372635F 		.ascii	"crc_type\000"
 18084      74797065 
 18084      00
 18085              	.LASF445:
 18086 1225 4144435F 		.ascii	"ADC_Value\000"
 18086      56616C75 
 18086      6500
 18087              	.LASF124:
 18088 122f 464F435F 		.ascii	"FOC_SENSOR_MODE_SENSORLESS\000"
 18088      53454E53 
 18088      4F525F4D 
 18088      4F44455F 
 18088      53454E53 
 18089              	.LASF45:
 18090 124a 705F7265 		.ascii	"p_refs\000"
 18090      667300
 18091              	.LASF281:
 18092 1251 6368756B 		.ascii	"chuk_control_type\000"
 18092      5F636F6E 
 18092      74726F6C 
 18092      5F747970 
 18092      6500
 18093              	.LASF468:
 18094 1263 6D635F69 		.ascii	"mc_interface_set_current\000"
 18094      6E746572 
 18094      66616365 
 18094      5F736574 
 18094      5F637572 
 18095              	.LASF123:
 18096 127c 6D635F73 		.ascii	"mc_sensor_mode\000"
 18096      656E736F 
 18096      725F6D6F 
 18096      646500
 18097              	.LASF10:
 18098 128b 6C6F6E67 		.ascii	"long int\000"
 18098      20696E74 
 18098      00
 18099              	.LASF87:
 18100 1294 6D61696E 		.ascii	"mainthread\000"
 18100      74687265 
 18100      616400
 18101              	.LASF107:
 18102 129f 6D5F7175 		.ascii	"m_queue\000"
 18102      65756500 
 18103              	.LASF347:
 18104 12a7 434F4D4D 		.ascii	"COMM_SET_DETECT\000"
 18104      5F534554 
 18104      5F444554 
 18104      45435400 
 18105              	.LASF420:
 18106 12b7 666F726D 		.ascii	"format\000"
 18106      617400
 18107              	.LASF338:
ARM GAS  /tmp/ccq8Pe5l.s 			page 334


 18108 12be 434F4D4D 		.ascii	"COMM_JUMP_TO_BOOTLOADER\000"
 18108      5F4A554D 
 18108      505F544F 
 18108      5F424F4F 
 18108      544C4F41 
 18109              	.LASF117:
 18110 12d6 434F4D4D 		.ascii	"COMM_MODE_INTEGRATE\000"
 18110      5F4D4F44 
 18110      455F494E 
 18110      54454752 
 18110      41544500 
 18111              	.LASF244:
 18112 12ea 50504D5F 		.ascii	"PPM_CTRL_TYPE_PID\000"
 18112      4354524C 
 18112      5F545950 
 18112      455F5049 
 18112      4400
 18113              	.LASF99:
 18114 12fc 77747472 		.ascii	"wttrp\000"
 18114      7000
 18115              	.LASF92:
 18116 1302 636F6E74 		.ascii	"context\000"
 18116      65787400 
 18117              	.LASF502:
 18118 130a 6D635F69 		.ascii	"mc_interface_sample_print_data\000"
 18118      6E746572 
 18118      66616365 
 18118      5F73616D 
 18118      706C655F 
 18119              	.LASF411:
 18120 1329 6E65775F 		.ascii	"new_app_offset\000"
 18120      6170705F 
 18120      6F666673 
 18120      657400
 18121              	.LASF498:
 18122 1338 636F6E66 		.ascii	"conf_general_get_default_mc_configuration\000"
 18122      5F67656E 
 18122      6572616C 
 18122      5F676574 
 18122      5F646566 
 18123              	.LASF192:
 18124 1362 666F635F 		.ascii	"foc_encoder_ratio\000"
 18124      656E636F 
 18124      6465725F 
 18124      72617469 
 18124      6F00
 18125              	.LASF22:
 18126 1374 75696E74 		.ascii	"uint32_t\000"
 18126      33325F74 
 18126      00
 18127              	.LASF369:
 18128 137d 434F4D4D 		.ascii	"COMM_GET_DECODED_CHUK\000"
 18128      5F474554 
 18128      5F444543 
 18128      4F444544 
 18128      5F434855 
 18129              	.LASF164:
ARM GAS  /tmp/ccq8Pe5l.s 			page 335


 18130 1393 6C5F6261 		.ascii	"l_battery_cut_end\000"
 18130      74746572 
 18130      795F6375 
 18130      745F656E 
 18130      6400
 18131              	.LASF294:
 18132 13a5 4E52465F 		.ascii	"NRF_POWER\000"
 18132      504F5745 
 18132      5200
 18133              	.LASF392:
 18134 13af 6C6F6E67 		.ascii	"long double\000"
 18134      20646F75 
 18134      626C6500 
 18135              	.LASF346:
 18136 13bb 434F4D4D 		.ascii	"COMM_SET_POS\000"
 18136      5F534554 
 18136      5F504F53 
 18136      00
 18137              	.LASF90:
 18138 13c8 72656761 		.ascii	"regarm_t\000"
 18138      726D5F74 
 18138      00
 18139              	.LASF32:
 18140 13d1 6576656E 		.ascii	"eventmask_t\000"
 18140      746D6173 
 18140      6B5F7400 
 18141              	.LASF404:
 18142 13dd 73616D70 		.ascii	"sample_len\000"
 18142      6C655F6C 
 18142      656E00
 18143              	.LASF487:
 18144 13e8 666C6173 		.ascii	"flash_helper_jump_to_bootloader\000"
 18144      685F6865 
 18144      6C706572 
 18144      5F6A756D 
 18144      705F746F 
 18145              	.LASF511:
 18146 1408 2F686F6D 		.ascii	"/home/sivert/Documents/GitHub/BLDC/bldc-firmware\000"
 18146      652F7369 
 18146      76657274 
 18146      2F446F63 
 18146      756D656E 
 18147              	.LASF12:
 18148 1439 6C6F6E67 		.ascii	"long unsigned int\000"
 18148      20756E73 
 18148      69676E65 
 18148      6420696E 
 18148      7400
 18149              	.LASF220:
 18150 144b 63635F72 		.ascii	"cc_ramp_step_max\000"
 18150      616D705F 
 18150      73746570 
 18150      5F6D6178 
 18150      00
 18151              	.LASF479:
 18152 145c 6D635F69 		.ascii	"mc_interface_get_watt_hours\000"
 18152      6E746572 
ARM GAS  /tmp/ccq8Pe5l.s 			page 336


 18152      66616365 
 18152      5F676574 
 18152      5F776174 
 18153              	.LASF215:
 18154 1478 705F7069 		.ascii	"p_pid_kd\000"
 18154      645F6B64 
 18154      00
 18155              	.LASF214:
 18156 1481 705F7069 		.ascii	"p_pid_ki\000"
 18156      645F6B69 
 18156      00
 18157              	.LASF295:
 18158 148a 4E52465F 		.ascii	"NRF_CRC_DISABLED\000"
 18158      4352435F 
 18158      44495341 
 18158      424C4544 
 18158      00
 18159              	.LASF213:
 18160 149b 705F7069 		.ascii	"p_pid_kp\000"
 18160      645F6B70 
 18160      00
 18161              	.LASF481:
 18162 14a4 6D635F69 		.ascii	"mc_interface_get_tachometer_value\000"
 18162      6E746572 
 18162      66616365 
 18162      5F676574 
 18162      5F746163 
 18163              	.LASF317:
 18164 14c6 706F7765 		.ascii	"power\000"
 18164      7200
 18165              	.LASF228:
 18166 14cc 4150505F 		.ascii	"APP_NONE\000"
 18166      4E4F4E45 
 18166      00
 18167              	.LASF114:
 18168 14d5 50574D5F 		.ascii	"PWM_MODE_SYNCHRONOUS\000"
 18168      4D4F4445 
 18168      5F53594E 
 18168      4348524F 
 18168      4E4F5553 
 18169              	.LASF271:
 18170 14ea 766F6C74 		.ascii	"voltage_end\000"
 18170      6167655F 
 18170      656E6400 
 18171              	.LASF146:
 18172 14f6 44495350 		.ascii	"DISP_POS_MODE_ENCODER_OBSERVER_ERROR\000"
 18172      5F504F53 
 18172      5F4D4F44 
 18172      455F454E 
 18172      434F4445 
 18173              	.LASF110:
 18174 151b 63686172 		.ascii	"char\000"
 18174      00
 18175              	.LASF63:
 18176 1520 725F7175 		.ascii	"r_queue\000"
 18176      65756500 
 18177              	.LASF183:
ARM GAS  /tmp/ccq8Pe5l.s 			page 337


 18178 1528 736C5F62 		.ascii	"sl_bemf_coupling_k\000"
 18178      656D665F 
 18178      636F7570 
 18178      6C696E67 
 18178      5F6B00
 18179              	.LASF282:
 18180 153b 72616D70 		.ascii	"ramp_time_pos\000"
 18180      5F74696D 
 18180      655F706F 
 18180      7300
 18181              	.LASF426:
 18182 1549 726F746F 		.ascii	"rotor_pos\000"
 18182      725F706F 
 18182      7300
 18183              	.LASF313:
 18184 1553 4E52465F 		.ascii	"NRF_RETR_DELAY_3750US\000"
 18184      52455452 
 18184      5F44454C 
 18184      41595F33 
 18184      37353055 
 18185              	.LASF415:
 18186 1569 6D696E5F 		.ascii	"min_rpm\000"
 18186      72706D00 
 18187              	.LASF500:
 18188 1571 63684576 		.ascii	"chEvtSignal\000"
 18188      74536967 
 18188      6E616C00 
 18189              	.LASF232:
 18190 157d 4150505F 		.ascii	"APP_PPM_UART\000"
 18190      50504D5F 
 18190      55415254 
 18190      00
 18191              	.LASF169:
 18192 158a 6C5F7465 		.ascii	"l_temp_motor_start\000"
 18192      6D705F6D 
 18192      6F746F72 
 18192      5F737461 
 18192      727400
 18193              	.LASF513:
 18194 159d 63685468 		.ascii	"chThdGetSelfX\000"
 18194      64476574 
 18194      53656C66 
 18194      5800
 18195              	.LASF478:
 18196 15ab 6D635F69 		.ascii	"mc_interface_get_amp_hours_charged\000"
 18196      6E746572 
 18196      66616365 
 18196      5F676574 
 18196      5F616D70 
 18197              	.LASF449:
 18198 15ce 62756666 		.ascii	"buffer_append_int32\000"
 18198      65725F61 
 18198      7070656E 
 18198      645F696E 
 18198      74333200 
 18199              	.LASF153:
 18200 15e2 6C5F6375 		.ascii	"l_current_min\000"
ARM GAS  /tmp/ccq8Pe5l.s 			page 338


 18200      7272656E 
 18200      745F6D69 
 18200      6E00
 18201              	.LASF423:
 18202 15f0 62756666 		.ascii	"buffer\000"
 18202      657200
 18203              	.LASF235:
 18204 15f7 4150505F 		.ascii	"APP_NRF\000"
 18204      4E524600 
 18205              	.LASF230:
 18206 15ff 4150505F 		.ascii	"APP_ADC\000"
 18206      41444300 
 18207              	.LASF134:
 18208 1607 4641554C 		.ascii	"FAULT_CODE_UNDER_VOLTAGE\000"
 18208      545F434F 
 18208      44455F55 
 18208      4E444552 
 18208      5F564F4C 
 18209              	.LASF363:
 18210 1620 434F4D4D 		.ascii	"COMM_DETECT_ENCODER\000"
 18210      5F444554 
 18210      4543545F 
 18210      454E434F 
 18210      44455200 
 18211              	.LASF351:
 18212 1634 434F4D4D 		.ascii	"COMM_GET_MCCONF_DEFAULT\000"
 18212      5F474554 
 18212      5F4D4343 
 18212      4F4E465F 
 18212      44454641 
 18213              	.LASF341:
 18214 164c 434F4D4D 		.ascii	"COMM_GET_VALUES\000"
 18214      5F474554 
 18214      5F56414C 
 18214      55455300 
 18215              	.LASF33:
 18216 165c 636E745F 		.ascii	"cnt_t\000"
 18216      7400
 18217              	.LASF400:
 18218 1662 636F6D6D 		.ascii	"commands_set_send_func\000"
 18218      616E6473 
 18218      5F736574 
 18218      5F73656E 
 18218      645F6675 
 18219              	.LASF416:
 18220 1679 64757479 		.ascii	"duty\000"
 18220      00
 18221              	.LASF269:
 18222 167e 6164635F 		.ascii	"adc_control_type\000"
 18222      636F6E74 
 18222      726F6C5F 
 18222      74797065 
 18222      00
 18223              	.LASF132:
 18224 168f 4641554C 		.ascii	"FAULT_CODE_NONE\000"
 18224      545F434F 
 18224      44455F4E 
ARM GAS  /tmp/ccq8Pe5l.s 			page 339


 18224      4F4E4500 
 18225              	.LASF210:
 18226 169f 735F7069 		.ascii	"s_pid_ki\000"
 18226      645F6B69 
 18226      00
 18227              	.LASF185:
 18228 16a8 68616C6C 		.ascii	"hall_sl_erpm\000"
 18228      5F736C5F 
 18228      6572706D 
 18228      00
 18229              	.LASF209:
 18230 16b5 735F7069 		.ascii	"s_pid_kp\000"
 18230      645F6B70 
 18230      00
 18231              	.LASF461:
 18232 16be 6D637077 		.ascii	"mcpwm_set_detect\000"
 18232      6D5F7365 
 18232      745F6465 
 18232      74656374 
 18232      00
 18233              	.LASF357:
 18234 16cf 434F4D4D 		.ascii	"COMM_PRINT\000"
 18234      5F505249 
 18234      4E5400
 18235              	.LASF336:
 18236 16da 6170705F 		.ascii	"app_configuration\000"
 18236      636F6E66 
 18236      69677572 
 18236      6174696F 
 18236      6E00
 18237              	.LASF390:
 18238 16ec 464C4153 		.ascii	"FLASH_COMPLETE\000"
 18238      485F434F 
 18238      4D504C45 
 18238      544500
 18239              	.LASF287:
 18240 16fb 4E52465F 		.ascii	"NRF_SPEED_1M\000"
 18240      53504545 
 18240      445F314D 
 18240      00
 18241              	.LASF482:
 18242 1708 6D635F69 		.ascii	"mc_interface_get_tachometer_abs_value\000"
 18242      6E746572 
 18242      66616365 
 18242      5F676574 
 18242      5F746163 
 18243              	.LASF425:
 18244 172e 636F6D6D 		.ascii	"commands_send_rotor_pos\000"
 18244      616E6473 
 18244      5F73656E 
 18244      645F726F 
 18244      746F725F 
 18245              	.LASF201:
 18246 1746 666F635F 		.ascii	"foc_openloop_rpm\000"
 18246      6F70656E 
 18246      6C6F6F70 
 18246      5F72706D 
ARM GAS  /tmp/ccq8Pe5l.s 			page 340


 18246      00
 18247              	.LASF205:
 18248 1757 666F635F 		.ascii	"foc_sl_d_current_factor\000"
 18248      736C5F64 
 18248      5F637572 
 18248      72656E74 
 18248      5F666163 
 18249              	.LASF198:
 18250 176f 666F635F 		.ascii	"foc_pll_ki\000"
 18250      706C6C5F 
 18250      6B6900
 18251              	.LASF197:
 18252 177a 666F635F 		.ascii	"foc_pll_kp\000"
 18252      706C6C5F 
 18252      6B7000
 18253              	.LASF236:
 18254 1785 4150505F 		.ascii	"APP_CUSTOM\000"
 18254      43555354 
 18254      4F4D00
 18255              	.LASF486:
 18256 1790 666C6173 		.ascii	"flash_helper_erase_new_app\000"
 18256      685F6865 
 18256      6C706572 
 18256      5F657261 
 18256      73655F6E 
 18257              	.LASF443:
 18258 17ab 64697370 		.ascii	"display_position_mode\000"
 18258      6C61795F 
 18258      706F7369 
 18258      74696F6E 
 18258      5F6D6F64 
 18259              	.LASF457:
 18260 17c1 6D637077 		.ascii	"mcpwm_foc_measure_res_ind\000"
 18260      6D5F666F 
 18260      635F6D65 
 18260      61737572 
 18260      655F7265 
 18261              	.LASF507:
 18262 17db 6D635F69 		.ascii	"mc_interface_release_motor\000"
 18262      6E746572 
 18262      66616365 
 18262      5F72656C 
 18262      65617365 
 18263              	.LASF69:
 18264 17f6 76746675 		.ascii	"vtfunc_t\000"
 18264      6E635F74 
 18264      00
 18265              	.LASF361:
 18266 17ff 434F4D4D 		.ascii	"COMM_DETECT_MOTOR_R_L\000"
 18266      5F444554 
 18266      4543545F 
 18266      4D4F544F 
 18266      525F525F 
 18267              	.LASF288:
 18268 1815 4E52465F 		.ascii	"NRF_SPEED_2M\000"
 18268      53504545 
 18268      445F324D 
ARM GAS  /tmp/ccq8Pe5l.s 			page 341


 18268      00
 18269              	.LASF501:
 18270 1822 62756666 		.ascii	"buffer_get_uint16\000"
 18270      65725F67 
 18270      65745F75 
 18270      696E7431 
 18270      3600
 18271              	.LASF98:
 18272 1834 77746F62 		.ascii	"wtobjp\000"
 18272      6A7000
 18273              	.LASF231:
 18274 183b 4150505F 		.ascii	"APP_UART\000"
 18274      55415254 
 18274      00
 18275              	.LASF330:
 18276 1844 6170705F 		.ascii	"app_to_use\000"
 18276      746F5F75 
 18276      736500
 18277              	.LASF53:
 18278 184f 705F7265 		.ascii	"p_realprio\000"
 18278      616C7072 
 18278      696F00
 18279              	.LASF233:
 18280 185a 4150505F 		.ascii	"APP_ADC_UART\000"
 18280      4144435F 
 18280      55415254 
 18280      00
 18281              	.LASF371:
 18282 1867 434F4D4D 		.ascii	"COMM_SET_CHUCK_DATA\000"
 18282      5F534554 
 18282      5F434855 
 18282      434B5F44 
 18282      41544100 
 18283              	.LASF101:
 18284 187b 77746D74 		.ascii	"wtmtxp\000"
 18284      787000
 18285              	.LASF131:
 18286 1882 6D635F6D 		.ascii	"mc_motor_type\000"
 18286      6F746F72 
 18286      5F747970 
 18286      6500
 18287              	.LASF274:
 18288 1890 7265765F 		.ascii	"rev_button_inverted\000"
 18288      62757474 
 18288      6F6E5F69 
 18288      6E766572 
 18288      74656400 
 18289              	.LASF391:
 18290 18a4 646F7562 		.ascii	"double\000"
 18290      6C6500
 18291              	.LASF353:
 18292 18ab 434F4D4D 		.ascii	"COMM_GET_APPCONF\000"
 18292      5F474554 
 18292      5F415050 
 18292      434F4E46 
 18292      00
 18293              	.LASF491:
ARM GAS  /tmp/ccq8Pe5l.s 			page 342


 18294 18bc 6D635F69 		.ascii	"mc_interface_set_pid_pos\000"
 18294      6E746572 
 18294      66616365 
 18294      5F736574 
 18294      5F706964 
 18295              	.LASF170:
 18296 18d5 6C5F7465 		.ascii	"l_temp_motor_end\000"
 18296      6D705F6D 
 18296      6F746F72 
 18296      5F656E64 
 18296      00
 18297              	.LASF151:
 18298 18e6 73656E73 		.ascii	"sensor_mode\000"
 18298      6F725F6D 
 18298      6F646500 
 18299              	.LASF120:
 18300 18f2 53454E53 		.ascii	"SENSOR_MODE_SENSORLESS\000"
 18300      4F525F4D 
 18300      4F44455F 
 18300      53454E53 
 18300      4F524C45 
 18301              	.LASF316:
 18302 1909 73706565 		.ascii	"speed\000"
 18302      6400
 18303              	.LASF62:
 18304 190f 63685F72 		.ascii	"ch_ready_list\000"
 18304      65616479 
 18304      5F6C6973 
 18304      7400
 18305              	.LASF9:
 18306 191d 5F5F696E 		.ascii	"__int32_t\000"
 18306      7433325F 
 18306      7400
 18307              	.LASF11:
 18308 1927 5F5F7569 		.ascii	"__uint32_t\000"
 18308      6E743332 
 18308      5F7400
 18309              	.LASF81:
 18310 1932 63685F73 		.ascii	"ch_system_debug\000"
 18310      79737465 
 18310      6D5F6465 
 18310      62756700 
 18311              	.LASF398:
 18312 1942 64617461 		.ascii	"data\000"
 18312      00
 18313              	.LASF484:
 18314 1947 62756666 		.ascii	"buffer_get_uint32\000"
 18314      65725F67 
 18314      65745F75 
 18314      696E7433 
 18314      3200
 18315              	.LASF470:
 18316 1959 6C6F6766 		.ascii	"logf\000"
 18316      00
 18317              	.LASF266:
 18318 195e 4144435F 		.ascii	"ADC_CTRL_TYPE_DUTY\000"
 18318      4354524C 
ARM GAS  /tmp/ccq8Pe5l.s 			page 343


 18318      5F545950 
 18318      455F4455 
 18318      545900
 18319              	.LASF430:
 18320 1971 636F6D6D 		.ascii	"commands_send_app_data\000"
 18320      616E6473 
 18320      5F73656E 
 18320      645F6170 
 18320      705F6461 
 18321              	.LASF285:
 18322 1988 6368756B 		.ascii	"chuk_config\000"
 18322      5F636F6E 
 18322      66696700 
 18323              	.LASF259:
 18324 1994 4144435F 		.ascii	"ADC_CTRL_TYPE_NONE\000"
 18324      4354524C 
 18324      5F545950 
 18324      455F4E4F 
 18324      4E4500
 18325              	.LASF407:
 18326 19a7 6D63636F 		.ascii	"mcconf\000"
 18326      6E6600
 18327              	.LASF112:
 18328 19ae 6D757465 		.ascii	"mutex_t\000"
 18328      785F7400 
 18329              	.LASF51:
 18330 19b6 705F6570 		.ascii	"p_epending\000"
 18330      656E6469 
 18330      6E6700
 18331              	.LASF202:
 18332 19c1 666F635F 		.ascii	"foc_sl_openloop_hyst\000"
 18332      736C5F6F 
 18332      70656E6C 
 18332      6F6F705F 
 18332      68797374 
 18333              	.LASF253:
 18334 19d6 73616665 		.ascii	"safe_start\000"
 18334      5F737461 
 18334      727400
 18335              	.LASF368:
 18336 19e1 434F4D4D 		.ascii	"COMM_GET_DECODED_ADC\000"
 18336      5F474554 
 18336      5F444543 
 18336      4F444544 
 18336      5F414443 
 18337              	.LASF352:
 18338 19f6 434F4D4D 		.ascii	"COMM_SET_APPCONF\000"
 18338      5F534554 
 18338      5F415050 
 18338      434F4E46 
 18338      00
 18339              	.LASF402:
 18340 1a07 636F6D6D 		.ascii	"commands_process_packet\000"
 18340      616E6473 
 18340      5F70726F 
 18340      63657373 
 18340      5F706163 
ARM GAS  /tmp/ccq8Pe5l.s 			page 344


 18341              	.LASF243:
 18342 1a1f 50504D5F 		.ascii	"PPM_CTRL_TYPE_DUTY_NOREV\000"
 18342      4354524C 
 18342      5F545950 
 18342      455F4455 
 18342      54595F4E 
 18343              	.LASF175:
 18344 1a38 6C6F5F69 		.ascii	"lo_in_current_max\000"
 18344      6E5F6375 
 18344      7272656E 
 18344      745F6D61 
 18344      7800
 18345              	.LASF360:
 18346 1a4a 434F4D4D 		.ascii	"COMM_DETECT_MOTOR_PARAM\000"
 18346      5F444554 
 18346      4543545F 
 18346      4D4F544F 
 18346      525F5041 
 18347              	.LASF504:
 18348 1a62 636F6E66 		.ascii	"conf_general_store_app_configuration\000"
 18348      5F67656E 
 18348      6572616C 
 18348      5F73746F 
 18348      72655F61 
 18349              	.LASF408:
 18350 1a87 6D63636F 		.ascii	"mcconf_old\000"
 18350      6E665F6F 
 18350      6C6400
 18351              	.LASF64:
 18352 1a92 725F7072 		.ascii	"r_prio\000"
 18352      696F00
 18353              	.LASF206:
 18354 1a99 666F635F 		.ascii	"foc_sensor_mode\000"
 18354      73656E73 
 18354      6F725F6D 
 18354      6F646500 
 18355              	.LASF444:
 18356 1aa9 49544D5F 		.ascii	"ITM_RxBuffer\000"
 18356      52784275 
 18356      66666572 
 18356      00
 18357              	.LASF135:
 18358 1ab6 4641554C 		.ascii	"FAULT_CODE_DRV8302\000"
 18358      545F434F 
 18358      44455F44 
 18358      52563833 
 18358      303200
 18359              	.LASF126:
 18360 1ac9 464F435F 		.ascii	"FOC_SENSOR_MODE_HALL\000"
 18360      53454E53 
 18360      4F525F4D 
 18360      4F44455F 
 18360      48414C4C 
 18361              	.LASF15:
 18362 1ade 6C6F6E67 		.ascii	"long long unsigned int\000"
 18362      206C6F6E 
 18362      6720756E 
ARM GAS  /tmp/ccq8Pe5l.s 			page 345


 18362      7369676E 
 18362      65642069 
 18363              	.LASF94:
 18364 1af5 6F666673 		.ascii	"offset\000"
 18364      657400
 18365              	.LASF189:
 18366 1afc 666F635F 		.ascii	"foc_dt_us\000"
 18366      64745F75 
 18366      7300
 18367              	.LASF512:
 18368 1b06 63685265 		.ascii	"chRegSetThreadName\000"
 18368      67536574 
 18368      54687265 
 18368      61644E61 
 18368      6D6500
 18369              	.LASF88:
 18370 1b19 69646C65 		.ascii	"idle_thread_wa\000"
 18370      5F746872 
 18370      6561645F 
 18370      776100
 18371              	.LASF75:
 18372 1b28 76745F66 		.ascii	"vt_func\000"
 18372      756E6300 
 18373              	.LASF467:
 18374 1b30 6D635F69 		.ascii	"mc_interface_set_brake_current\000"
 18374      6E746572 
 18374      66616365 
 18374      5F736574 
 18374      5F627261 
 18375              	.LASF344:
 18376 1b4f 434F4D4D 		.ascii	"COMM_SET_CURRENT_BRAKE\000"
 18376      5F534554 
 18376      5F435552 
 18376      52454E54 
 18376      5F425241 
 18377              	.LASF71:
 18378 1b66 63685F76 		.ascii	"ch_virtual_timer\000"
 18378      69727475 
 18378      616C5F74 
 18378      696D6572 
 18378      00
 18379              	.LASF44:
 18380 1b77 705F666C 		.ascii	"p_flags\000"
 18380      61677300 
 18381              	.LASF102:
 18382 1b7f 65776D61 		.ascii	"ewmask\000"
 18382      736B00
 18383              	.LASF472:
 18384 1b86 6D635F69 		.ascii	"mc_interface_get_configuration\000"
 18384      6E746572 
 18384      66616365 
 18384      5F676574 
 18384      5F636F6E 
 18385              	.LASF345:
 18386 1ba5 434F4D4D 		.ascii	"COMM_SET_RPM\000"
 18386      5F534554 
 18386      5F52504D 
ARM GAS  /tmp/ccq8Pe5l.s 			page 346


 18386      00
 18387              	.LASF310:
 18388 1bb2 4E52465F 		.ascii	"NRF_RETR_DELAY_3000US\000"
 18388      52455452 
 18388      5F44454C 
 18388      41595F33 
 18388      30303055 
 18389              	.LASF52:
 18390 1bc8 705F6D74 		.ascii	"p_mtxlist\000"
 18390      786C6973 
 18390      7400
 18391              	.LASF182:
 18392 1bd2 736C5F63 		.ascii	"sl_cycle_int_rpm_br\000"
 18392      79636C65 
 18392      5F696E74 
 18392      5F72706D 
 18392      5F627200 
 18393              	.LASF27:
 18394 1be6 74737461 		.ascii	"tstate_t\000"
 18394      74655F74 
 18394      00
 18395              	.LASF433:
 18396 1bef 73656E64 		.ascii	"send_buffer\000"
 18396      5F627566 
 18396      66657200 
 18397              	.LASF242:
 18398 1bfb 50504D5F 		.ascii	"PPM_CTRL_TYPE_DUTY\000"
 18398      4354524C 
 18398      5F545950 
 18398      455F4455 
 18398      545900
 18399              	.LASF119:
 18400 1c0e 6D635F63 		.ascii	"mc_comm_mode\000"
 18400      6F6D6D5F 
 18400      6D6F6465 
 18400      00
 18401              	.LASF42:
 18402 1c1b 705F6E61 		.ascii	"p_name\000"
 18402      6D6500
 18403              	.LASF387:
 18404 1c22 464C4153 		.ascii	"FLASH_ERROR_WRP\000"
 18404      485F4552 
 18404      524F525F 
 18404      57525000 
 18405              	.LASF306:
 18406 1c32 4E52465F 		.ascii	"NRF_RETR_DELAY_2000US\000"
 18406      52455452 
 18406      5F44454C 
 18406      41595F32 
 18406      30303055 
 18407              	.LASF395:
 18408 1c48 5F5F6170 		.ascii	"__ap\000"
 18408      00
 18409              	.LASF422:
 18410 1c4d 636F6D6D 		.ascii	"commands_send_samples\000"
 18410      616E6473 
 18410      5F73656E 
ARM GAS  /tmp/ccq8Pe5l.s 			page 347


 18410      645F7361 
 18410      6D706C65 
 18411              	.LASF503:
 18412 1c63 6170705F 		.ascii	"app_get_configuration\000"
 18412      6765745F 
 18412      636F6E66 
 18412      69677572 
 18412      6174696F 
 18413              	.LASF147:
 18414 1c79 64697370 		.ascii	"disp_pos_mode\000"
 18414      5F706F73 
 18414      5F6D6F64 
 18414      6500
 18415              	.LASF77:
 18416 1c87 76697274 		.ascii	"virtual_timers_list_t\000"
 18416      75616C5F 
 18416      74696D65 
 18416      72735F6C 
 18416      6973745F 
 18417              	.LASF492:
 18418 1c9d 6170705F 		.ascii	"app_nunchuk_get_decoded_chuk\000"
 18418      6E756E63 
 18418      68756B5F 
 18418      6765745F 
 18418      6465636F 
 18419              	.LASF113:
 18420 1cba 50574D5F 		.ascii	"PWM_MODE_NONSYNCHRONOUS_HISW\000"
 18420      4D4F4445 
 18420      5F4E4F4E 
 18420      53594E43 
 18420      48524F4E 
 18421              	.LASF453:
 18422 1cd7 6D635F69 		.ascii	"mc_interface_set_configuration\000"
 18422      6E746572 
 18422      66616365 
 18422      5F736574 
 18422      5F636F6E 
 18423              	.LASF477:
 18424 1cf6 6D635F69 		.ascii	"mc_interface_get_amp_hours\000"
 18424      6E746572 
 18424      66616365 
 18424      5F676574 
 18424      5F616D70 
 18425              	.LASF372:
 18426 1d11 434F4D4D 		.ascii	"COMM_CUSTOM_APP_DATA\000"
 18426      5F435553 
 18426      544F4D5F 
 18426      4150505F 
 18426      44415441 
 18427              	.LASF302:
 18428 1d26 4E52465F 		.ascii	"NRF_RETR_DELAY_1000US\000"
 18428      52455452 
 18428      5F44454C 
 18428      41595F31 
 18428      30303055 
 18429              	.LASF358:
 18430 1d3c 434F4D4D 		.ascii	"COMM_ROTOR_POSITION\000"
ARM GAS  /tmp/ccq8Pe5l.s 			page 348


 18430      5F524F54 
 18430      4F525F50 
 18430      4F534954 
 18430      494F4E00 
 18431              	.LASF104:
 18432 1d50 735F7175 		.ascii	"s_queue\000"
 18432      65756500 
 18433              	.LASF272:
 18434 1d58 7573655F 		.ascii	"use_filter\000"
 18434      66696C74 
 18434      657200
 18435              	.LASF139:
 18436 1d63 6D635F66 		.ascii	"mc_fault_code\000"
 18436      61756C74 
 18436      5F636F64 
 18436      6500
 18437              	.LASF222:
 18438 1d71 6D5F6475 		.ascii	"m_duty_ramp_step\000"
 18438      74795F72 
 18438      616D705F 
 18438      73746570 
 18438      00
 18439              	.LASF227:
 18440 1d82 6D635F63 		.ascii	"mc_configuration\000"
 18440      6F6E6669 
 18440      67757261 
 18440      74696F6E 
 18440      00
 18441              	.LASF311:
 18442 1d93 4E52465F 		.ascii	"NRF_RETR_DELAY_3250US\000"
 18442      52455452 
 18442      5F44454C 
 18442      41595F33 
 18442      32353055 
 18443              	.LASF13:
 18444 1da9 6C6F6E67 		.ascii	"long long int\000"
 18444      206C6F6E 
 18444      6720696E 
 18444      7400
 18445              	.LASF356:
 18446 1db7 434F4D4D 		.ascii	"COMM_TERMINAL_CMD\000"
 18446      5F544552 
 18446      4D494E41 
 18446      4C5F434D 
 18446      4400
 18447              	.LASF260:
 18448 1dc9 4144435F 		.ascii	"ADC_CTRL_TYPE_CURRENT\000"
 18448      4354524C 
 18448      5F545950 
 18448      455F4355 
 18448      5252454E 
 18449              	.LASF296:
 18450 1ddf 4E52465F 		.ascii	"NRF_CRC_1B\000"
 18450      4352435F 
 18450      314200
 18451              	.LASF160:
 18452 1dea 6C5F6D61 		.ascii	"l_max_erpm_fbrake_cc\000"
ARM GAS  /tmp/ccq8Pe5l.s 			page 349


 18452      785F6572 
 18452      706D5F66 
 18452      6272616B 
 18452      655F6363 
 18453              	.LASF307:
 18454 1dff 4E52465F 		.ascii	"NRF_RETR_DELAY_2250US\000"
 18454      52455452 
 18454      5F44454C 
 18454      41595F32 
 18454      32353055 
 18455              	.LASF354:
 18456 1e15 434F4D4D 		.ascii	"COMM_GET_APPCONF_DEFAULT\000"
 18456      5F474554 
 18456      5F415050 
 18456      434F4E46 
 18456      5F444546 
 18457              	.LASF248:
 18458 1e2e 7069645F 		.ascii	"pid_max_erpm\000"
 18458      6D61785F 
 18458      6572706D 
 18458      00
 18459              	.LASF319:
 18460 1e3b 72657472 		.ascii	"retry_delay\000"
 18460      795F6465 
 18460      6C617900 
 18461              	.LASF469:
 18462 1e47 6D635F69 		.ascii	"mc_interface_set_duty\000"
 18462      6E746572 
 18462      66616365 
 18462      5F736574 
 18462      5F647574 
 18463              	.LASF297:
 18464 1e5d 4E52465F 		.ascii	"NRF_CRC_2B\000"
 18464      4352435F 
 18464      324200
 18465              	.LASF506:
 18466 1e68 74696D65 		.ascii	"timeout_configure\000"
 18466      6F75745F 
 18466      636F6E66 
 18466      69677572 
 18466      6500
 18467              	.LASF303:
 18468 1e7a 4E52465F 		.ascii	"NRF_RETR_DELAY_1250US\000"
 18468      52455452 
 18468      5F44454C 
 18468      41595F31 
 18468      32353055 
 18469              	.LASF154:
 18470 1e90 6C5F696E 		.ascii	"l_in_current_max\000"
 18470      5F637572 
 18470      72656E74 
 18470      5F6D6178 
 18470      00
 18471              	.LASF41:
 18472 1ea1 705F6F6C 		.ascii	"p_older\000"
 18472      64657200 
 18473              	.LASF329:
ARM GAS  /tmp/ccq8Pe5l.s 			page 350


 18474 1ea9 73656E64 		.ascii	"send_can_status_rate_hz\000"
 18474      5F63616E 
 18474      5F737461 
 18474      7475735F 
 18474      72617465 
 18475              	.LASF452:
 18476 1ec1 62756666 		.ascii	"buffer_get_float32\000"
 18476      65725F67 
 18476      65745F66 
 18476      6C6F6174 
 18476      333200
 18477              	.LASF55:
 18478 1ed4 74687265 		.ascii	"thread_reference_t\000"
 18478      61645F72 
 18478      65666572 
 18478      656E6365 
 18478      5F7400
 18479              	.LASF216:
 18480 1ee7 705F7069 		.ascii	"p_pid_ang_div\000"
 18480      645F616E 
 18480      675F6469 
 18480      7600
 18481              	.LASF325:
 18482 1ef5 636F6E74 		.ascii	"controller_id\000"
 18482      726F6C6C 
 18482      65725F69 
 18482      6400
 18483              	.LASF203:
 18484 1f03 666F635F 		.ascii	"foc_sl_openloop_time\000"
 18484      736C5F6F 
 18484      70656E6C 
 18484      6F6F705F 
 18484      74696D65 
 18485              	.LASF95:
 18486 1f18 746D5F63 		.ascii	"tm_calibration_t\000"
 18486      616C6962 
 18486      72617469 
 18486      6F6E5F74 
 18486      00
 18487              	.LASF2:
 18488 1f29 5F5F696E 		.ascii	"__int8_t\000"
 18488      74385F74 
 18488      00
 18489              	.LASF176:
 18490 1f32 6C6F5F69 		.ascii	"lo_in_current_min\000"
 18490      6E5F6375 
 18490      7272656E 
 18490      745F6D69 
 18490      6E00
 18491              	.LASF250:
 18492 1f44 70756C73 		.ascii	"pulse_start\000"
 18492      655F7374 
 18492      61727400 
 18493              	.LASF480:
 18494 1f50 6D635F69 		.ascii	"mc_interface_get_watt_hours_charged\000"
 18494      6E746572 
 18494      66616365 
ARM GAS  /tmp/ccq8Pe5l.s 			page 351


 18494      5F676574 
 18494      5F776174 
 18495              	.LASF509:
 18496 1f74 474E5520 		.ascii	"GNU C 4.9.3 20150529 (release) [ARM/embedded-4_9-br"
 18496      4320342E 
 18496      392E3320 
 18496      32303135 
 18496      30353239 
 18497 1fa7 616E6368 		.ascii	"anch revision 227977] -mcpu=cortex-m4 -mfloat-abi=h"
 18497      20726576 
 18497      6973696F 
 18497      6E203232 
 18497      37393737 
 18498 1fda 61726420 		.ascii	"ard -mfpu=fpv4-sp-d16 -mno-thumb-interwork -mthumb "
 18498      2D6D6670 
 18498      753D6670 
 18498      76342D73 
 18498      702D6431 
 18499 200d 2D676764 		.ascii	"-ggdb -O2 -std=gnu99 -fomit-frame-pointer -falign-f"
 18499      62202D4F 
 18499      32202D73 
 18499      74643D67 
 18499      6E753939 
 18500 2040 756E6374 		.ascii	"unctions=16 -ffunction-sections -fdata-sections -fn"
 18500      696F6E73 
 18500      3D313620 
 18500      2D666675 
 18500      6E637469 
 18501 2073 6F2D636F 		.ascii	"o-common -fsingle-precision-constant\000"
 18501      6D6D6F6E 
 18501      202D6673 
 18501      696E676C 
 18501      652D7072 
 18502              	.LASF171:
 18503 2098 6C5F6D69 		.ascii	"l_min_duty\000"
 18503      6E5F6475 
 18503      747900
 18504              	.LASF240:
 18505 20a3 50504D5F 		.ascii	"PPM_CTRL_TYPE_CURRENT_NOREV\000"
 18505      4354524C 
 18505      5F545950 
 18505      455F4355 
 18505      5252454E 
 18506              	.LASF494:
 18507 20bf 6170705F 		.ascii	"app_adc_get_voltage\000"
 18507      6164635F 
 18507      6765745F 
 18507      766F6C74 
 18507      61676500 
 18508              	.LASF127:
 18509 20d3 6D635F66 		.ascii	"mc_foc_sensor_mode\000"
 18509      6F635F73 
 18509      656E736F 
 18509      725F6D6F 
 18509      646500
 18510              	.LASF16:
 18511 20e6 756E7369 		.ascii	"unsigned int\000"
ARM GAS  /tmp/ccq8Pe5l.s 			page 352


 18511      676E6564 
 18511      20696E74 
 18511      00
 18512              	.LASF446:
 18513 20f3 63684576 		.ascii	"chEvtWaitAny\000"
 18513      74576169 
 18513      74416E79 
 18513      00
 18514              	.LASF265:
 18515 2100 4144435F 		.ascii	"ADC_CTRL_TYPE_CURRENT_NOREV_BRAKE_ADC\000"
 18515      4354524C 
 18515      5F545950 
 18515      455F4355 
 18515      5252454E 
 18516              	.LASF6:
 18517 2126 73686F72 		.ascii	"short int\000"
 18517      7420696E 
 18517      7400
 18518              	.LASF405:
 18519 2130 64656369 		.ascii	"decimation\000"
 18519      6D617469 
 18519      6F6E00
 18520              	.LASF448:
 18521 213b 636F6D6D 		.ascii	"commands_send_packet\000"
 18521      616E6473 
 18521      5F73656E 
 18521      645F7061 
 18521      636B6574 
 18522              	.LASF128:
 18523 2150 4D4F544F 		.ascii	"MOTOR_TYPE_BLDC\000"
 18523      525F5459 
 18523      50455F42 
 18523      4C444300 
 18524              	.LASF394:
 18525 2160 5F5F7661 		.ascii	"__va_list\000"
 18525      5F6C6973 
 18525      7400
 18526              	.LASF43:
 18527 216a 705F7374 		.ascii	"p_state\000"
 18527      61746500 
 18528              	.LASF58:
 18529 2172 63685F74 		.ascii	"ch_threads_list\000"
 18529      68726561 
 18529      64735F6C 
 18529      69737400 
 18530              	.LASF118:
 18531 2182 434F4D4D 		.ascii	"COMM_MODE_DELAY\000"
 18531      5F4D4F44 
 18531      455F4445 
 18531      4C415900 
 18532              	.LASF225:
 18533 2192 6D5F656E 		.ascii	"m_encoder_counts\000"
 18533      636F6465 
 18533      725F636F 
 18533      756E7473 
 18533      00
 18534              		.ident	"GCC: (GNU Tools for ARM Embedded Processors) 4.9.3 20150529 (release) [ARM/embedded-4_9-br
ARM GAS  /tmp/ccq8Pe5l.s 			page 353


ARM GAS  /tmp/ccq8Pe5l.s 			page 354


DEFINED SYMBOLS
                            *ABS*:0000000000000000 commands.c
     /tmp/ccq8Pe5l.s:21     .text.detect_thread:0000000000000000 $t
     /tmp/ccq8Pe5l.s:26     .text.detect_thread:0000000000000000 detect_thread
     /tmp/ccq8Pe5l.s:209    .text.detect_thread:00000000000000c8 $d
     /tmp/ccq8Pe5l.s:228    .text.commands_init:0000000000000000 $t
     /tmp/ccq8Pe5l.s:234    .text.commands_init:0000000000000000 commands_init
     /tmp/ccq8Pe5l.s:262    .text.commands_init:000000000000001c $d
     /tmp/ccq8Pe5l.s:268    .text.commands_set_send_func:0000000000000000 $t
     /tmp/ccq8Pe5l.s:274    .text.commands_set_send_func:0000000000000000 commands_set_send_func
     /tmp/ccq8Pe5l.s:289    .text.commands_set_send_func:0000000000000008 $d
     /tmp/ccq8Pe5l.s:294    .text.commands_send_packet:0000000000000000 $t
     /tmp/ccq8Pe5l.s:300    .text.commands_send_packet:0000000000000000 commands_send_packet
     /tmp/ccq8Pe5l.s:320    .text.commands_send_packet:000000000000000c $d
     /tmp/ccq8Pe5l.s:325    .text.commands_process_packet:0000000000000000 $t
     /tmp/ccq8Pe5l.s:331    .text.commands_process_packet:0000000000000000 commands_process_packet
     /tmp/ccq8Pe5l.s:379    .text.commands_process_packet:0000000000000026 $d
     /tmp/ccq8Pe5l.s:416    .text.commands_process_packet:000000000000006e $t
     /tmp/ccq8Pe5l.s:949    .text.commands_process_packet:00000000000003cc $d
     /tmp/ccq8Pe5l.s:957    .text.commands_process_packet:00000000000003e0 $t
     /tmp/ccq8Pe5l.s:1387   .text.commands_process_packet:0000000000000758 $d
     /tmp/ccq8Pe5l.s:1406   .text.commands_process_packet:0000000000000790 $t
     /tmp/ccq8Pe5l.s:2009   .text.commands_process_packet:0000000000000a84 $d
     /tmp/ccq8Pe5l.s:2029   .text.commands_process_packet:0000000000000ab8 $t
     /tmp/ccq8Pe5l.s:2122   .text.commands_process_packet:0000000000000b44 $d
     /tmp/ccq8Pe5l.s:2130   .text.commands_process_packet:0000000000000b5c $t
     /tmp/ccq8Pe5l.s:2576   .text.commands_process_packet:0000000000000f3c $d
     /tmp/ccq8Pe5l.s:2583   .text.commands_process_packet:0000000000000f54 $t
     /tmp/ccq8Pe5l.s:2798   .text.commands_process_packet:0000000000001134 $d
     /tmp/ccq8Pe5l.s:2804   .text.commands_process_packet:0000000000001138 $t
     /tmp/ccq8Pe5l.s:3356   .text.commands_process_packet:00000000000014f8 $d
     /tmp/ccq8Pe5l.s:3363   .text.commands_process_packet:000000000000150c $t
     /tmp/ccq8Pe5l.s:3699   .text.commands_process_packet:000000000000172c $d
     /tmp/ccq8Pe5l.s:3709   .text.commands_process_packet:0000000000001748 $t
     /tmp/ccq8Pe5l.s:4312   .text.commands_process_packet:0000000000001b18 $d
     /tmp/ccq8Pe5l.s:4319   .text.commands_printf:0000000000000000 $t
     /tmp/ccq8Pe5l.s:4325   .text.commands_printf:0000000000000000 commands_printf
     /tmp/ccq8Pe5l.s:4404   .text.commands_printf:000000000000003c $d
     /tmp/ccq8Pe5l.s:4410   .text.commands_send_samples:0000000000000000 $t
     /tmp/ccq8Pe5l.s:4416   .text.commands_send_samples:0000000000000000 commands_send_samples
     /tmp/ccq8Pe5l.s:4500   .text.commands_send_samples:0000000000000048 $d
     /tmp/ccq8Pe5l.s:4506   .text.commands_send_rotor_pos:0000000000000000 $t
     /tmp/ccq8Pe5l.s:4512   .text.commands_send_rotor_pos:0000000000000000 commands_send_rotor_pos
     /tmp/ccq8Pe5l.s:4579   .text.commands_send_rotor_pos:0000000000000038 $d
     /tmp/ccq8Pe5l.s:4585   .text.commands_send_experiment_samples:0000000000000000 $t
     /tmp/ccq8Pe5l.s:4591   .text.commands_send_experiment_samples:0000000000000000 commands_send_experiment_samples
     /tmp/ccq8Pe5l.s:4717   .text.commands_send_experiment_samples:0000000000000074 $d
     /tmp/ccq8Pe5l.s:4723   .text.commands_get_disp_pos_mode:0000000000000000 $t
     /tmp/ccq8Pe5l.s:4729   .text.commands_get_disp_pos_mode:0000000000000000 commands_get_disp_pos_mode
     /tmp/ccq8Pe5l.s:4744   .text.commands_get_disp_pos_mode:0000000000000008 $d
     /tmp/ccq8Pe5l.s:4749   .text.commands_set_app_data_handler:0000000000000000 $t
     /tmp/ccq8Pe5l.s:4755   .text.commands_set_app_data_handler:0000000000000000 commands_set_app_data_handler
     /tmp/ccq8Pe5l.s:4770   .text.commands_set_app_data_handler:0000000000000008 $d
     /tmp/ccq8Pe5l.s:4775   .text.commands_send_app_data:0000000000000000 $t
     /tmp/ccq8Pe5l.s:4781   .text.commands_send_app_data:0000000000000000 commands_send_app_data
     /tmp/ccq8Pe5l.s:4854   .text.commands_send_app_data:000000000000002c $d
     /tmp/ccq8Pe5l.s:4862   .bss.send_func:0000000000000000 $d
ARM GAS  /tmp/ccq8Pe5l.s 			page 355


     /tmp/ccq8Pe5l.s:4866   .bss.send_func:0000000000000000 send_func
     /tmp/ccq8Pe5l.s:4869   .bss.detect_min_rpm:0000000000000000 $d
     /tmp/ccq8Pe5l.s:4873   .bss.detect_min_rpm:0000000000000000 detect_min_rpm
     /tmp/ccq8Pe5l.s:4876   .bss.appdata_func:0000000000000000 $d
     /tmp/ccq8Pe5l.s:4880   .bss.appdata_func:0000000000000000 appdata_func
     /tmp/ccq8Pe5l.s:4883   .bss.detect_hall_table:0000000000000000 $d
     /tmp/ccq8Pe5l.s:4887   .bss.detect_hall_table:0000000000000000 detect_hall_table
     /tmp/ccq8Pe5l.s:4890   .bss.mcconf.11176:0000000000000000 $d
     /tmp/ccq8Pe5l.s:4894   .bss.mcconf.11176:0000000000000000 mcconf.11176
     /tmp/ccq8Pe5l.s:4897   .bss.mcconf_old.11177:0000000000000000 $d
     /tmp/ccq8Pe5l.s:4901   .bss.mcconf_old.11177:0000000000000000 mcconf_old.11177
     /tmp/ccq8Pe5l.s:4904   .bss.detect_hall_res:0000000000000000 $d
     /tmp/ccq8Pe5l.s:4908   .bss.detect_hall_res:0000000000000000 detect_hall_res
     /tmp/ccq8Pe5l.s:4911   .bss.detect_thread_wa:0000000000000000 $d
     /tmp/ccq8Pe5l.s:4915   .bss.detect_thread_wa:0000000000000000 detect_thread_wa
     /tmp/ccq8Pe5l.s:4918   .bss.send_buffer:0000000000000000 $d
     /tmp/ccq8Pe5l.s:4922   .bss.send_buffer:0000000000000000 send_buffer
     /tmp/ccq8Pe5l.s:4925   .rodata.str1.4:0000000000000000 $d
     /tmp/ccq8Pe5l.s:4929   .bss.detect_tp:0000000000000000 $d
     /tmp/ccq8Pe5l.s:4933   .bss.detect_tp:0000000000000000 detect_tp
     /tmp/ccq8Pe5l.s:4936   .bss.detect_low_duty:0000000000000000 $d
     /tmp/ccq8Pe5l.s:4940   .bss.detect_low_duty:0000000000000000 detect_low_duty
     /tmp/ccq8Pe5l.s:4943   .bss.print_buffer.11235:0000000000000000 $d
     /tmp/ccq8Pe5l.s:4947   .bss.print_buffer.11235:0000000000000000 print_buffer.11235
     /tmp/ccq8Pe5l.s:4950   .bss.detect_current:0000000000000000 $d
     /tmp/ccq8Pe5l.s:4954   .bss.detect_current:0000000000000000 detect_current
     /tmp/ccq8Pe5l.s:4957   .bss.detect_coupling_k:0000000000000000 $d
     /tmp/ccq8Pe5l.s:4961   .bss.detect_coupling_k:0000000000000000 detect_coupling_k
     /tmp/ccq8Pe5l.s:4964   .bss.detect_cycle_int_limit:0000000000000000 $d
     /tmp/ccq8Pe5l.s:4968   .bss.detect_cycle_int_limit:0000000000000000 detect_cycle_int_limit
     /tmp/ccq8Pe5l.s:4974   .bss.display_position_mode:0000000000000000 display_position_mode
     /tmp/ccq8Pe5l.s:4975   .bss.display_position_mode:0000000000000000 $d
                     .debug_frame:0000000000000010 $d

UNDEFINED SYMBOLS
chEvtWaitAny
conf_general_detect_motor_param
buffer_append_int32
ch
chThdCreateStatic
conf_general_get_default_app_configuration
buffer_append_uint32
buffer_append_uint16
buffer_append_float32
mc_interface_get_configuration
memcpy
mcpwm_set_detect
timeout_reset
servodec_get_servo
servodec_get_last_pulse_len
buffer_get_int32
mc_interface_set_pid_speed
mc_interface_set_brake_current
mc_interface_set_current
mc_interface_set_duty
logf
buffer_append_float16
ARM GAS  /tmp/ccq8Pe5l.s 			page 356


mc_interface_read_reset_avg_motor_current
mc_interface_read_reset_avg_input_current
mc_interface_get_duty_cycle_now
mc_interface_get_rpm
mc_interface_get_amp_hours
mc_interface_get_amp_hours_charged
mc_interface_get_watt_hours
mc_interface_get_watt_hours_charged
mc_interface_get_tachometer_value
mc_interface_get_tachometer_abs_value
mc_interface_get_fault
ADC_Value
buffer_get_uint32
flash_helper_write_new_app_data
flash_helper_erase_new_app
flash_helper_jump_to_bootloader
buffer_get_int16
app_nunchuk_update_output
comm_can_send_buffer
mc_interface_set_pid_pos
app_nunchuk_get_decoded_chuk
app_adc_get_decoded_level
app_adc_get_voltage
app_adc_get_decoded_level2
app_adc_get_voltage2
buffer_get_float32
mc_interface_set_configuration
mcpwm_foc_hall_detect
conf_general_measure_flux_linkage
mcpwm_foc_measure_res_ind
terminal_process_string
conf_general_get_default_mc_configuration
conf_general_store_mc_configuration
chEvtSignal
buffer_get_uint16
mc_interface_sample_print_data
app_get_configuration
conf_general_store_app_configuration
app_set_configuration
timeout_configure
mc_interface_release_motor
vsnprintf
