ARM GAS  /tmp/ccq8Pe5l.s 			page 1


   1              		.syntax unified
   2              		.cpu cortex-m4
   3              		.eabi_attribute 27, 1
   4              		.eabi_attribute 28, 1
   5              		.fpu fpv4-sp-d16
   6              		.eabi_attribute 20, 1
   7              		.eabi_attribute 21, 1
   8              		.eabi_attribute 23, 3
   9              		.eabi_attribute 24, 1
  10              		.eabi_attribute 25, 1
  11              		.eabi_attribute 26, 1
  12              		.eabi_attribute 30, 2
  13              		.eabi_attribute 34, 1
  14              		.eabi_attribute 18, 4
  15              		.thumb
  16              		.file	"commands.c"
  17              		.text
  18              	.Ltext0:
  19              		.cfi_sections	.debug_frame
  20              		.section	.text.detect_thread,"ax",%progbits
  21              		.align	2
  22              		.p2align 4,,15
  23              		.thumb
  24              		.thumb_func
  25              		.type	detect_thread, %function
  26              	detect_thread:
  27              	.LFB267:
  28              		.file 1 "commands.c"
  29              		.loc 1 864 0
  30              		.cfi_startproc
  31              		@ args = 0, pretend = 0, frame = 16
  32              		@ frame_needed = 0, uses_anonymous_args = 0
  33              	.LVL0:
  34 0000 2DE9F04F 		push	{r4, r5, r6, r7, r8, r9, r10, fp, lr}
  35              		.cfi_def_cfa_offset 36
  36              		.cfi_offset 4, -36
  37              		.cfi_offset 5, -32
  38              		.cfi_offset 6, -28
  39              		.cfi_offset 7, -24
  40              		.cfi_offset 8, -20
  41              		.cfi_offset 9, -16
  42              		.cfi_offset 10, -12
  43              		.cfi_offset 11, -8
  44              		.cfi_offset 14, -4
  45              	.LBB56:
  46              	.LBB57:
  47              		.file 2 "ChibiOS_3.0.2/os/rt/include/chregistry.h"
  48              		.loc 2 135 0
  49 0004 304B     		ldr	r3, .L11
  50              	.LBE57:
  51              	.LBE56:
  52              		.loc 1 869 0
  53 0006 314A     		ldr	r2, .L11+4
  54              	.LBB60:
  55              	.LBB58:
  56              		.loc 2 135 0
  57 0008 9B69     		ldr	r3, [r3, #24]
ARM GAS  /tmp/ccq8Pe5l.s 			page 2


  58 000a 3149     		ldr	r1, .L11+8
  59 000c DFF8E4B0 		ldr	fp, .L11+44
  60 0010 DFF8E4A0 		ldr	r10, .L11+48
  61 0014 DFF8E490 		ldr	r9, .L11+52
  62 0018 DFF8CC80 		ldr	r8, .L11+32
  63 001c 2D4C     		ldr	r4, .L11+12
  64 001e 2E4F     		ldr	r7, .L11+16
  65              	.LBE58:
  66              	.LBE60:
  67              	.LBB61:
  68              		.loc 1 874 0
  69 0020 2E4E     		ldr	r6, .L11+20
  70              	.LBE61:
  71              		.loc 1 864 0
  72 0022 2DED028B 		fstmfdd	sp!, {d8}
  73              		.cfi_def_cfa_offset 44
  74              		.cfi_offset 80, -44
  75              		.cfi_offset 81, -40
  76              	.LBB72:
  77              		.loc 1 877 0
  78 0026 DFED2E8A 		flds	s17, .L11+24
  79 002a 9FED2E8A 		flds	s16, .L11+28
  80              	.LBE72:
  81              	.LBB73:
  82              	.LBB59:
  83              		.loc 2 135 0
  84 002e 9961     		str	r1, [r3, #24]
  85              	.LBE59:
  86              	.LBE73:
  87              		.loc 1 864 0
  88 0030 85B0     		sub	sp, sp, #20
  89              		.cfi_def_cfa_offset 64
  90              		.loc 1 869 0
  91 0032 1360     		str	r3, [r2]
  92              	.LVL1:
  93              	.L5:
  94              	.LBB74:
  95              		.loc 1 874 0
  96 0034 2C4D     		ldr	r5, .L11+32
  97              		.loc 1 872 0
  98 0036 0120     		movs	r0, #1
  99 0038 FFF7FEFF 		bl	chEvtWaitAny
 100              	.LVL2:
 101              		.loc 1 874 0
 102 003c 2946     		mov	r1, r5
 103 003e 9BED000A 		flds	s0, [fp]
 104 0042 DAED000A 		flds	s1, [r10]
 105 0046 99ED001A 		flds	s2, [r9]
 106 004a 2448     		ldr	r0, .L11+20
 107 004c 274A     		ldr	r2, .L11+36
 108 004e 224B     		ldr	r3, .L11+16
 109 0050 FFF7FEFF 		bl	conf_general_detect_motor_param
 110              	.LVL3:
 111 0054 0028     		cmp	r0, #0
 112 0056 31D0     		beq	.L2
 113 0058 D6ED007A 		flds	s15, [r6]
 114 005c 67EE887A 		fmuls	s15, s15, s16
ARM GAS  /tmp/ccq8Pe5l.s 			page 3


 115 0060 FDEEE77A 		ftosizs	s15, s15
 116 0064 CDED017A 		fsts	s15, [sp, #4]	@ int
 117              	.L3:
 118              		.loc 1 882 0
 119 0068 0122     		movs	r2, #1
 120 006a 1723     		movs	r3, #23
 121              		.loc 1 883 0
 122 006c 1948     		ldr	r0, .L11+12
 123              		.loc 1 882 0
 124 006e 0392     		str	r2, [sp, #12]
 125              		.loc 1 883 0
 126 0070 0199     		ldr	r1, [sp, #4]
 127              		.loc 1 882 0
 128 0072 2370     		strb	r3, [r4]
 129              		.loc 1 883 0
 130 0074 03AA     		add	r2, sp, #12
 131 0076 FFF7FEFF 		bl	buffer_append_int32
 132              	.LVL4:
 133              		.loc 1 884 0
 134 007a D8ED007A 		flds	s15, [r8]
 135 007e 1548     		ldr	r0, .L11+12
 136 0080 67EE887A 		fmuls	s15, s15, s16
 137 0084 03AA     		add	r2, sp, #12
 138 0086 FDEEE77A 		ftosizs	s15, s15
 139 008a 17EE901A 		fmrs	r1, s15	@ int
 140 008e FFF7FEFF 		bl	buffer_append_int32
 141              	.LVL5:
 142              	.LBB62:
 143              	.LBB63:
 144              		.loc 1 94 0
 145 0092 1749     		ldr	r1, .L11+40
 146              	.LBE63:
 147              	.LBE62:
 148              		.loc 1 885 0
 149 0094 154A     		ldr	r2, .L11+36
 150 0096 039B     		ldr	r3, [sp, #12]
 151              	.LBB68:
 152              	.LBB64:
 153              		.loc 1 94 0
 154 0098 0D68     		ldr	r5, [r1]
 155              	.LBE64:
 156              	.LBE68:
 157              		.loc 1 885 0
 158 009a 03CA     		ldmia	r2!, {r0, r1}
 159 009c 04EB030E 		add	lr, r4, r3
 160 00a0 E050     		str	r0, [r4, r3]	@ unaligned
 161              		.loc 1 887 0
 162 00a2 3A68     		ldr	r2, [r7]
 163              		.loc 1 885 0
 164 00a4 CEF80410 		str	r1, [lr, #4]	@ unaligned
 165              		.loc 1 887 0
 166 00a8 0933     		adds	r3, r3, #9
 167              	.LBB69:
 168              	.LBB65:
 169              		.loc 1 95 0
 170 00aa 0A48     		ldr	r0, .L11+12
 171              	.LBE65:
ARM GAS  /tmp/ccq8Pe5l.s 			page 4


 172              	.LBE69:
 173              		.loc 1 887 0
 174 00ac 0393     		str	r3, [sp, #12]
 175              	.LBB70:
 176              	.LBB66:
 177              		.loc 1 95 0
 178 00ae 1946     		mov	r1, r3
 179              	.LBE66:
 180              	.LBE70:
 181              		.loc 1 887 0
 182 00b0 8EF80820 		strb	r2, [lr, #8]
 183              	.LVL6:
 184              	.LBB71:
 185              	.LBB67:
 186              		.loc 1 94 0
 187 00b4 002D     		cmp	r5, #0
 188 00b6 BDD0     		beq	.L5
 189              		.loc 1 95 0
 190 00b8 A847     		blx	r5
 191              	.LVL7:
 192              	.LBE67:
 193              	.LBE71:
 194              	.LBE74:
 195              		.loc 1 889 0
 196 00ba BBE7     		b	.L5
 197              	.LVL8:
 198              	.L2:
 199              	.LBB75:
 200              		.loc 1 877 0
 201 00bc C6ED008A 		fsts	s17, [r6]
 202              		.loc 1 878 0
 203 00c0 C5ED008A 		fsts	s17, [r5]
 204 00c4 0190     		str	r0, [sp, #4]
 205 00c6 CFE7     		b	.L3
 206              	.L12:
 207              		.align	2
 208              	.L11:
 209 00c8 00000000 		.word	ch
 210 00cc 00000000 		.word	.LANCHOR0
 211 00d0 00000000 		.word	.LC0
 212 00d4 00000000 		.word	.LANCHOR8
 213 00d8 00000000 		.word	.LANCHOR7
 214 00dc 00000000 		.word	.LANCHOR4
 215 00e0 00000000 		.word	0
 216 00e4 00007A44 		.word	1148846080
 217 00e8 00000000 		.word	.LANCHOR5
 218 00ec 00000000 		.word	.LANCHOR6
 219 00f0 00000000 		.word	.LANCHOR9
 220 00f4 00000000 		.word	.LANCHOR1
 221 00f8 00000000 		.word	.LANCHOR2
 222 00fc 00000000 		.word	.LANCHOR3
 223              	.LBE75:
 224              		.cfi_endproc
 225              	.LFE267:
 226              		.size	detect_thread, .-detect_thread
 227              		.section	.text.commands_init,"ax",%progbits
 228              		.align	2
ARM GAS  /tmp/ccq8Pe5l.s 			page 5


 229              		.p2align 4,,15
 230              		.global	commands_init
 231              		.thumb
 232              		.thumb_func
 233              		.type	commands_init, %function
 234              	commands_init:
 235              	.LFB256:
 236              		.loc 1 70 0
 237              		.cfi_startproc
 238              		@ args = 0, pretend = 0, frame = 0
 239              		@ frame_needed = 0, uses_anonymous_args = 0
 240 0000 00B5     		push	{lr}
 241              		.cfi_def_cfa_offset 4
 242              		.cfi_offset 14, -4
 243 0002 83B0     		sub	sp, sp, #12
 244              		.cfi_def_cfa_offset 16
 245              		.loc 1 71 0
 246 0004 0023     		movs	r3, #0
 247 0006 0093     		str	r3, [sp]
 248 0008 40F69811 		movw	r1, #2456
 249 000c 034B     		ldr	r3, .L15
 250 000e 0448     		ldr	r0, .L15+4
 251 0010 4022     		movs	r2, #64
 252 0012 FFF7FEFF 		bl	chThdCreateStatic
 253              	.LVL9:
 254              		.loc 1 72 0
 255 0016 03B0     		add	sp, sp, #12
 256              		.cfi_def_cfa_offset 4
 257              		@ sp needed
 258 0018 5DF804FB 		ldr	pc, [sp], #4
 259              	.L16:
 260              		.align	2
 261              	.L15:
 262 001c 00000000 		.word	detect_thread
 263 0020 00000000 		.word	.LANCHOR10
 264              		.cfi_endproc
 265              	.LFE256:
 266              		.size	commands_init, .-commands_init
 267              		.section	.text.commands_set_send_func,"ax",%progbits
 268              		.align	2
 269              		.p2align 4,,15
 270              		.global	commands_set_send_func
 271              		.thumb
 272              		.thumb_func
 273              		.type	commands_set_send_func, %function
 274              	commands_set_send_func:
 275              	.LFB257:
 276              		.loc 1 80 0
 277              		.cfi_startproc
 278              		@ args = 0, pretend = 0, frame = 0
 279              		@ frame_needed = 0, uses_anonymous_args = 0
 280              		@ link register save eliminated.
 281              	.LVL10:
 282              		.loc 1 81 0
 283 0000 014B     		ldr	r3, .L18
 284 0002 1860     		str	r0, [r3]
 285 0004 7047     		bx	lr
ARM GAS  /tmp/ccq8Pe5l.s 			page 6


 286              	.L19:
 287 0006 00BF     		.align	2
 288              	.L18:
 289 0008 00000000 		.word	.LANCHOR9
 290              		.cfi_endproc
 291              	.LFE257:
 292              		.size	commands_set_send_func, .-commands_set_send_func
 293              		.section	.text.commands_send_packet,"ax",%progbits
 294              		.align	2
 295              		.p2align 4,,15
 296              		.global	commands_send_packet
 297              		.thumb
 298              		.thumb_func
 299              		.type	commands_send_packet, %function
 300              	commands_send_packet:
 301              	.LFB258:
 302              		.loc 1 93 0
 303              		.cfi_startproc
 304              		@ args = 0, pretend = 0, frame = 0
 305              		@ frame_needed = 0, uses_anonymous_args = 0
 306              		@ link register save eliminated.
 307              	.LVL11:
 308              		.loc 1 94 0
 309 0000 024B     		ldr	r3, .L22
 310 0002 1B68     		ldr	r3, [r3]
 311 0004 03B1     		cbz	r3, .L20
 312              		.loc 1 95 0
 313 0006 1847     		bx	r3	@ indirect register sibling call
 314              	.LVL12:
 315              	.L20:
 316 0008 7047     		bx	lr
 317              	.L23:
 318 000a 00BF     		.align	2
 319              	.L22:
 320 000c 00000000 		.word	.LANCHOR9
 321              		.cfi_endproc
 322              	.LFE258:
 323              		.size	commands_send_packet, .-commands_send_packet
 324              		.section	.text.commands_process_packet,"ax",%progbits
 325              		.align	2
 326              		.p2align 4,,15
 327              		.global	commands_process_packet
 328              		.thumb
 329              		.thumb_func
 330              		.type	commands_process_packet, %function
 331              	commands_process_packet:
 332              	.LFB259:
 333              		.loc 1 108 0
 334              		.cfi_startproc
 335              		@ args = 0, pretend = 0, frame = 168
 336              		@ frame_needed = 0, uses_anonymous_args = 0
 337              	.LVL13:
 338              		.loc 1 109 0
 339 0000 A9B3     		cbz	r1, .L124
 340              		.loc 1 108 0
 341 0002 2DE9F047 		push	{r4, r5, r6, r7, r8, r9, r10, lr}
 342              		.cfi_def_cfa_offset 32
ARM GAS  /tmp/ccq8Pe5l.s 			page 7


 343              		.cfi_offset 4, -32
 344              		.cfi_offset 5, -28
 345              		.cfi_offset 6, -24
 346              		.cfi_offset 7, -20
 347              		.cfi_offset 8, -16
 348              		.cfi_offset 9, -12
 349              		.cfi_offset 10, -8
 350              		.cfi_offset 14, -4
 351 0006 2DED068B 		fstmfdd	sp!, {d8, d9, d10}
 352              		.cfi_def_cfa_offset 56
 353              		.cfi_offset 80, -56
 354              		.cfi_offset 81, -52
 355              		.cfi_offset 82, -48
 356              		.cfi_offset 83, -44
 357              		.cfi_offset 84, -40
 358              		.cfi_offset 85, -36
 359              		.loc 1 124 0
 360 000a 0446     		mov	r4, r0
 361              		.loc 1 108 0
 362 000c AAB0     		sub	sp, sp, #168
 363              		.cfi_def_cfa_offset 224
 364              		.loc 1 124 0
 365 000e 14F8018B 		ldrb	r8, [r4], #1	@ zero_extendqisi2
 366              	.LVL14:
 367              		.loc 1 114 0
 368 0012 0023     		movs	r3, #0
 369 0014 0746     		mov	r7, r0
 370 0016 0093     		str	r3, [sp]
 371              		.loc 1 126 0
 372 0018 4D1E     		subs	r5, r1, #1
 373              	.LVL15:
 374              		.loc 1 128 0
 375 001a B8F1230F 		cmp	r8, #35
 376 001e 00F2B681 		bhi	.L24
 377 0022 DFE818F0 		tbh	[pc, r8, lsl #1]
 378              	.L28:
 379 0026 E903     		.2byte	(.L27-.L28)/2
 380 0028 E603     		.2byte	(.L29-.L28)/2
 381 002a D103     		.2byte	(.L30-.L28)/2
 382 002c B503     		.2byte	(.L31-.L28)/2
 383 002e 4C02     		.2byte	(.L32-.L28)/2
 384 0030 3B02     		.2byte	(.L33-.L28)/2
 385 0032 2A02     		.2byte	(.L34-.L28)/2
 386 0034 1902     		.2byte	(.L35-.L28)/2
 387 0036 0C02     		.2byte	(.L36-.L28)/2
 388 0038 2D04     		.2byte	(.L37-.L28)/2
 389 003a B901     		.2byte	(.L38-.L28)/2
 390 003c B401     		.2byte	(.L24-.L28)/2
 391 003e 8908     		.2byte	(.L39-.L28)/2
 392 0040 9B05     		.2byte	(.L40-.L28)/2
 393 0042 9B05     		.2byte	(.L40-.L28)/2
 394 0044 910B     		.2byte	(.L41-.L28)/2
 395 0046 2500     		.2byte	(.L42-.L28)/2
 396 0048 2500     		.2byte	(.L42-.L28)/2
 397 004a 6E0B     		.2byte	(.L43-.L28)/2
 398 004c 8805     		.2byte	(.L44-.L28)/2
 399 004e B401     		.2byte	(.L24-.L28)/2
ARM GAS  /tmp/ccq8Pe5l.s 			page 8


 400 0050 B401     		.2byte	(.L24-.L28)/2
 401 0052 B401     		.2byte	(.L24-.L28)/2
 402 0054 4C0B     		.2byte	(.L45-.L28)/2
 403 0056 4905     		.2byte	(.L46-.L28)/2
 404 0058 EB04     		.2byte	(.L47-.L28)/2
 405 005a C904     		.2byte	(.L48-.L28)/2
 406 005c 8004     		.2byte	(.L49-.L28)/2
 407 005e 7E04     		.2byte	(.L50-.L28)/2
 408 0060 D001     		.2byte	(.L51-.L28)/2
 409 0062 DD01     		.2byte	(.L52-.L28)/2
 410 0064 4C04     		.2byte	(.L53-.L28)/2
 411 0066 3E04     		.2byte	(.L54-.L28)/2
 412 0068 2604     		.2byte	(.L55-.L28)/2
 413 006a 0104     		.2byte	(.L56-.L28)/2
 414 006c F903     		.2byte	(.L57-.L28)/2
 415              	.LVL16:
 416              		.p2align 1
 417              	.L124:
 418              		.cfi_def_cfa_offset 0
 419              		.cfi_restore 4
 420              		.cfi_restore 5
 421              		.cfi_restore 6
 422              		.cfi_restore 7
 423              		.cfi_restore 8
 424              		.cfi_restore 9
 425              		.cfi_restore 10
 426              		.cfi_restore 14
 427              		.cfi_restore 80
 428              		.cfi_restore 81
 429              		.cfi_restore 82
 430              		.cfi_restore 83
 431              		.cfi_restore 84
 432              		.cfi_restore 85
 433 006e 7047     		bx	lr
 434              	.LVL17:
 435              	.L42:
 436              		.cfi_def_cfa_offset 224
 437              		.cfi_offset 4, -32
 438              		.cfi_offset 5, -28
 439              		.cfi_offset 6, -24
 440              		.cfi_offset 7, -20
 441              		.cfi_offset 8, -16
 442              		.cfi_offset 9, -12
 443              		.cfi_offset 10, -8
 444              		.cfi_offset 14, -4
 445              		.cfi_offset 80, -56
 446              		.cfi_offset 81, -52
 447              		.cfi_offset 82, -48
 448              		.cfi_offset 83, -44
 449              		.cfi_offset 84, -40
 450              		.cfi_offset 85, -36
 451              		.loc 1 526 0
 452 0070 B8F1100F 		cmp	r8, #16
 453 0074 01F03885 		beq	.L135
 454              		.loc 1 529 0
 455 0078 02A8     		add	r0, sp, #8
 456 007a FFF7FEFF 		bl	conf_general_get_default_app_configuration
ARM GAS  /tmp/ccq8Pe5l.s 			page 9


 457              	.LVL18:
 458              	.L65:
 459              		.loc 1 533 0
 460 007e D34C     		ldr	r4, .L140
 461              	.LVL19:
 462              		.loc 1 534 0
 463 0080 9DF80850 		ldrb	r5, [sp, #8]	@ zero_extendqisi2
 464              	.LVL20:
 465              		.loc 1 535 0
 466 0084 0399     		ldr	r1, [sp, #12]
 467              		.loc 1 536 0
 468 0086 9FEDD28A 		flds	s16, .L140+4
 469              		.loc 1 533 0
 470 008a 84F80080 		strb	r8, [r4]
 471              		.loc 1 534 0
 472 008e 0223     		movs	r3, #2
 473              		.loc 1 535 0
 474 0090 2046     		mov	r0, r4
 475 0092 6A46     		mov	r2, sp
 476              		.loc 1 534 0
 477 0094 0093     		str	r3, [sp]
 478 0096 6570     		strb	r5, [r4, #1]
 479              		.loc 1 535 0
 480 0098 FFF7FEFF 		bl	buffer_append_uint32
 481              	.LVL21:
 482              		.loc 1 536 0
 483 009c DDED047A 		flds	s15, [sp, #16]
 484 00a0 67EE887A 		fmuls	s15, s15, s16
 485 00a4 2046     		mov	r0, r4
 486 00a6 FDEEE77A 		ftosizs	s15, s15
 487 00aa 6A46     		mov	r2, sp
 488 00ac 17EE901A 		fmrs	r1, s15	@ int
 489 00b0 FFF7FEFF 		bl	buffer_append_int32
 490              	.LVL22:
 491              		.loc 1 537 0
 492 00b4 009B     		ldr	r3, [sp]
 493 00b6 9DF81420 		ldrb	r2, [sp, #20]	@ zero_extendqisi2
 494 00ba E254     		strb	r2, [r4, r3]
 495              		.loc 1 538 0
 496 00bc BDF81810 		ldrh	r1, [sp, #24]
 497              		.loc 1 537 0
 498 00c0 0133     		adds	r3, r3, #1
 499              		.loc 1 538 0
 500 00c2 2046     		mov	r0, r4
 501 00c4 6A46     		mov	r2, sp
 502              		.loc 1 537 0
 503 00c6 0093     		str	r3, [sp]
 504              		.loc 1 538 0
 505 00c8 FFF7FEFF 		bl	buffer_append_uint16
 506              	.LVL23:
 507              		.loc 1 543 0
 508 00cc DDED097A 		flds	s15, [sp, #36]
 509              		.loc 1 540 0
 510 00d0 009B     		ldr	r3, [sp]
 511 00d2 9DF81C20 		ldrb	r2, [sp, #28]	@ zero_extendqisi2
 512 00d6 E254     		strb	r2, [r4, r3]
 513              		.loc 1 543 0
ARM GAS  /tmp/ccq8Pe5l.s 			page 10


 514 00d8 67EE887A 		fmuls	s15, s15, s16
 515              		.loc 1 542 0
 516 00dc E518     		adds	r5, r4, r3
 517              		.loc 1 543 0
 518 00de FDEEE77A 		ftosizs	s15, s15
 519              		.loc 1 542 0
 520 00e2 0233     		adds	r3, r3, #2
 521 00e4 9DF82060 		ldrb	r6, [sp, #32]	@ zero_extendqisi2
 522 00e8 0093     		str	r3, [sp]
 523              		.loc 1 543 0
 524 00ea 17EE901A 		fmrs	r1, s15	@ int
 525 00ee 2046     		mov	r0, r4
 526 00f0 6A46     		mov	r2, sp
 527              		.loc 1 542 0
 528 00f2 6E70     		strb	r6, [r5, #1]
 529              		.loc 1 543 0
 530 00f4 FFF7FEFF 		bl	buffer_append_int32
 531              	.LVL24:
 532              		.loc 1 544 0
 533 00f8 DDED0A7A 		flds	s15, [sp, #40]
 534 00fc 67EE887A 		fmuls	s15, s15, s16
 535 0100 2046     		mov	r0, r4
 536 0102 FDEEE77A 		ftosizs	s15, s15
 537 0106 6A46     		mov	r2, sp
 538 0108 17EE901A 		fmrs	r1, s15	@ int
 539 010c FFF7FEFF 		bl	buffer_append_int32
 540              	.LVL25:
 541              		.loc 1 545 0
 542 0110 DDED0B7A 		flds	s15, [sp, #44]
 543 0114 67EE887A 		fmuls	s15, s15, s16
 544 0118 2046     		mov	r0, r4
 545 011a FDEEE77A 		ftosizs	s15, s15
 546 011e 6A46     		mov	r2, sp
 547 0120 17EE901A 		fmrs	r1, s15	@ int
 548 0124 FFF7FEFF 		bl	buffer_append_int32
 549              	.LVL26:
 550              		.loc 1 546 0
 551 0128 DDED0C7A 		flds	s15, [sp, #48]
 552 012c 67EE887A 		fmuls	s15, s15, s16
 553 0130 2046     		mov	r0, r4
 554 0132 FDEEE77A 		ftosizs	s15, s15
 555 0136 6A46     		mov	r2, sp
 556 0138 17EE901A 		fmrs	r1, s15	@ int
 557 013c FFF7FEFF 		bl	buffer_append_int32
 558              	.LVL27:
 559              		.loc 1 549 0
 560 0140 DDED0E7A 		flds	s15, [sp, #56]
 561              		.loc 1 547 0
 562 0144 009B     		ldr	r3, [sp]
 563 0146 9DF83420 		ldrb	r2, [sp, #52]	@ zero_extendqisi2
 564 014a E254     		strb	r2, [r4, r3]
 565              		.loc 1 549 0
 566 014c 67EE887A 		fmuls	s15, s15, s16
 567              		.loc 1 548 0
 568 0150 E518     		adds	r5, r4, r3
 569              		.loc 1 549 0
 570 0152 FDEEE77A 		ftosizs	s15, s15
ARM GAS  /tmp/ccq8Pe5l.s 			page 11


 571              		.loc 1 548 0
 572 0156 0233     		adds	r3, r3, #2
 573 0158 9DF83560 		ldrb	r6, [sp, #53]	@ zero_extendqisi2
 574 015c 0093     		str	r3, [sp]
 575              		.loc 1 549 0
 576 015e 17EE901A 		fmrs	r1, s15	@ int
 577 0162 2046     		mov	r0, r4
 578 0164 6A46     		mov	r2, sp
 579              		.loc 1 548 0
 580 0166 6E70     		strb	r6, [r5, #1]
 581              		.loc 1 549 0
 582 0168 FFF7FEFF 		bl	buffer_append_int32
 583              	.LVL28:
 584              		.loc 1 550 0
 585 016c DDED0F7A 		flds	s15, [sp, #60]
 586 0170 67EE887A 		fmuls	s15, s15, s16
 587 0174 2046     		mov	r0, r4
 588 0176 FDEEE77A 		ftosizs	s15, s15
 589 017a 6A46     		mov	r2, sp
 590 017c 17EE901A 		fmrs	r1, s15	@ int
 591 0180 FFF7FEFF 		bl	buffer_append_int32
 592              	.LVL29:
 593              		.loc 1 553 0
 594 0184 DDED117A 		flds	s15, [sp, #68]
 595              		.loc 1 551 0
 596 0188 009B     		ldr	r3, [sp]
 597 018a 9DF84020 		ldrb	r2, [sp, #64]	@ zero_extendqisi2
 598 018e E254     		strb	r2, [r4, r3]
 599              		.loc 1 553 0
 600 0190 67EE887A 		fmuls	s15, s15, s16
 601              		.loc 1 552 0
 602 0194 E518     		adds	r5, r4, r3
 603              		.loc 1 553 0
 604 0196 FDEEE77A 		ftosizs	s15, s15
 605              		.loc 1 552 0
 606 019a 9DF84160 		ldrb	r6, [sp, #65]	@ zero_extendqisi2
 607 019e 6E70     		strb	r6, [r5, #1]
 608              		.loc 1 553 0
 609 01a0 17EE901A 		fmrs	r1, s15	@ int
 610              		.loc 1 552 0
 611 01a4 0233     		adds	r3, r3, #2
 612              		.loc 1 553 0
 613 01a6 2046     		mov	r0, r4
 614 01a8 6A46     		mov	r2, sp
 615              		.loc 1 552 0
 616 01aa 0093     		str	r3, [sp]
 617              		.loc 1 553 0
 618 01ac FFF7FEFF 		bl	buffer_append_int32
 619              	.LVL30:
 620              		.loc 1 556 0
 621 01b0 DDED137A 		flds	s15, [sp, #76]
 622              		.loc 1 555 0
 623 01b4 009B     		ldr	r3, [sp]
 624 01b6 9DF84820 		ldrb	r2, [sp, #72]	@ zero_extendqisi2
 625 01ba E254     		strb	r2, [r4, r3]
 626              		.loc 1 556 0
 627 01bc 67EE887A 		fmuls	s15, s15, s16
ARM GAS  /tmp/ccq8Pe5l.s 			page 12


 628              		.loc 1 555 0
 629 01c0 0133     		adds	r3, r3, #1
 630              		.loc 1 556 0
 631 01c2 FDEEE77A 		ftosizs	s15, s15
 632 01c6 2046     		mov	r0, r4
 633 01c8 17EE901A 		fmrs	r1, s15	@ int
 634 01cc 6A46     		mov	r2, sp
 635              		.loc 1 555 0
 636 01ce 0093     		str	r3, [sp]
 637              		.loc 1 556 0
 638 01d0 FFF7FEFF 		bl	buffer_append_int32
 639              	.LVL31:
 640              		.loc 1 557 0
 641 01d4 DDED147A 		flds	s15, [sp, #80]
 642 01d8 67EE887A 		fmuls	s15, s15, s16
 643 01dc 2046     		mov	r0, r4
 644 01de FDEEE77A 		ftosizs	s15, s15
 645 01e2 6A46     		mov	r2, sp
 646 01e4 17EE901A 		fmrs	r1, s15	@ int
 647 01e8 FFF7FEFF 		bl	buffer_append_int32
 648              	.LVL32:
 649              		.loc 1 558 0
 650 01ec DDED157A 		flds	s15, [sp, #84]
 651 01f0 67EE887A 		fmuls	s15, s15, s16
 652 01f4 2046     		mov	r0, r4
 653 01f6 FDEEE77A 		ftosizs	s15, s15
 654 01fa 6A46     		mov	r2, sp
 655 01fc 17EE901A 		fmrs	r1, s15	@ int
 656 0200 FFF7FEFF 		bl	buffer_append_int32
 657              	.LVL33:
 658              		.loc 1 564 0
 659 0204 DDED187A 		flds	s15, [sp, #96]
 660              		.loc 1 559 0
 661 0208 009B     		ldr	r3, [sp]
 662 020a 9DF85820 		ldrb	r2, [sp, #88]	@ zero_extendqisi2
 663              		.loc 1 560 0
 664 020e 9DF859C0 		ldrb	ip, [sp, #89]	@ zero_extendqisi2
 665              		.loc 1 561 0
 666 0212 9DF85AE0 		ldrb	lr, [sp, #90]	@ zero_extendqisi2
 667              		.loc 1 559 0
 668 0216 E254     		strb	r2, [r4, r3]
 669              		.loc 1 564 0
 670 0218 67EE887A 		fmuls	s15, s15, s16
 671              		.loc 1 560 0
 672 021c E518     		adds	r5, r4, r3
 673              		.loc 1 564 0
 674 021e FDEEE77A 		ftosizs	s15, s15
 675              		.loc 1 563 0
 676 0222 0533     		adds	r3, r3, #5
 677              		.loc 1 562 0
 678 0224 9DF85B70 		ldrb	r7, [sp, #91]	@ zero_extendqisi2
 679              	.LVL34:
 680              		.loc 1 563 0
 681 0228 9DF85C60 		ldrb	r6, [sp, #92]	@ zero_extendqisi2
 682              		.loc 1 560 0
 683 022c 85F801C0 		strb	ip, [r5, #1]
 684              		.loc 1 564 0
ARM GAS  /tmp/ccq8Pe5l.s 			page 13


 685 0230 17EE901A 		fmrs	r1, s15	@ int
 686 0234 2046     		mov	r0, r4
 687 0236 6A46     		mov	r2, sp
 688              		.loc 1 561 0
 689 0238 85F802E0 		strb	lr, [r5, #2]
 690              		.loc 1 563 0
 691 023c 0093     		str	r3, [sp]
 692              		.loc 1 562 0
 693 023e EF70     		strb	r7, [r5, #3]
 694              		.loc 1 563 0
 695 0240 2E71     		strb	r6, [r5, #4]
 696              		.loc 1 564 0
 697 0242 FFF7FEFF 		bl	buffer_append_int32
 698              	.LVL35:
 699              		.loc 1 565 0
 700 0246 DDED197A 		flds	s15, [sp, #100]
 701 024a 67EE887A 		fmuls	s15, s15, s16
 702 024e 2046     		mov	r0, r4
 703 0250 FDEEE77A 		ftosizs	s15, s15
 704 0254 6A46     		mov	r2, sp
 705 0256 17EE901A 		fmrs	r1, s15	@ int
 706 025a FFF7FEFF 		bl	buffer_append_int32
 707              	.LVL36:
 708              		.loc 1 568 0
 709 025e DDED1B7A 		flds	s15, [sp, #108]
 710              		.loc 1 566 0
 711 0262 009B     		ldr	r3, [sp]
 712 0264 9DF86820 		ldrb	r2, [sp, #104]	@ zero_extendqisi2
 713 0268 E254     		strb	r2, [r4, r3]
 714              		.loc 1 568 0
 715 026a 67EE887A 		fmuls	s15, s15, s16
 716              		.loc 1 567 0
 717 026e E518     		adds	r5, r4, r3
 718              		.loc 1 568 0
 719 0270 FDEEE77A 		ftosizs	s15, s15
 720              		.loc 1 567 0
 721 0274 0233     		adds	r3, r3, #2
 722              		.loc 1 568 0
 723 0276 17EE901A 		fmrs	r1, s15	@ int
 724              		.loc 1 567 0
 725 027a 9DF86960 		ldrb	r6, [sp, #105]	@ zero_extendqisi2
 726 027e 0093     		str	r3, [sp]
 727              		.loc 1 568 0
 728 0280 2046     		mov	r0, r4
 729 0282 6A46     		mov	r2, sp
 730              		.loc 1 567 0
 731 0284 6E70     		strb	r6, [r5, #1]
 732              		.loc 1 568 0
 733 0286 FFF7FEFF 		bl	buffer_append_int32
 734              	.LVL37:
 735              		.loc 1 569 0
 736 028a 2046     		mov	r0, r4
 737 028c 6A46     		mov	r2, sp
 738 028e BDF87010 		ldrh	r1, [sp, #112]
 739 0292 FFF7FEFF 		bl	buffer_append_uint16
 740              	.LVL38:
 741              		.loc 1 571 0
ARM GAS  /tmp/ccq8Pe5l.s 			page 14


 742 0296 2046     		mov	r0, r4
 743 0298 6A46     		mov	r2, sp
 744 029a 1D99     		ldr	r1, [sp, #116]
 745 029c FFF7FEFF 		bl	buffer_append_uint32
 746              	.LVL39:
 747              		.loc 1 573 0
 748 02a0 009B     		ldr	r3, [sp]
 749 02a2 9DF87820 		ldrb	r2, [sp, #120]	@ zero_extendqisi2
 750 02a6 E254     		strb	r2, [r4, r3]
 751              		.loc 1 574 0
 752 02a8 F0EE480A 		fcpys	s1, s16
 753              		.loc 1 573 0
 754 02ac 0133     		adds	r3, r3, #1
 755              		.loc 1 574 0
 756 02ae 2046     		mov	r0, r4
 757 02b0 6946     		mov	r1, sp
 758 02b2 9DED1F0A 		flds	s0, [sp, #124]
 759              		.loc 1 573 0
 760 02b6 0093     		str	r3, [sp]
 761              		.loc 1 574 0
 762 02b8 FFF7FEFF 		bl	buffer_append_float32
 763              	.LVL40:
 764              		.loc 1 575 0
 765 02bc F0EE480A 		fcpys	s1, s16
 766 02c0 2046     		mov	r0, r4
 767 02c2 6946     		mov	r1, sp
 768 02c4 9DED200A 		flds	s0, [sp, #128]
 769 02c8 FFF7FEFF 		bl	buffer_append_float32
 770              	.LVL41:
 771              		.loc 1 576 0
 772 02cc F0EE480A 		fcpys	s1, s16
 773 02d0 2046     		mov	r0, r4
 774 02d2 6946     		mov	r1, sp
 775 02d4 9DED210A 		flds	s0, [sp, #132]
 776 02d8 FFF7FEFF 		bl	buffer_append_float32
 777              	.LVL42:
 778              		.loc 1 577 0
 779 02dc F0EE480A 		fcpys	s1, s16
 780 02e0 2046     		mov	r0, r4
 781 02e2 6946     		mov	r1, sp
 782 02e4 9DED220A 		flds	s0, [sp, #136]
 783 02e8 FFF7FEFF 		bl	buffer_append_float32
 784              	.LVL43:
 785              		.loc 1 578 0
 786 02ec F0EE480A 		fcpys	s1, s16
 787 02f0 2046     		mov	r0, r4
 788 02f2 6946     		mov	r1, sp
 789 02f4 9DED230A 		flds	s0, [sp, #140]
 790 02f8 FFF7FEFF 		bl	buffer_append_float32
 791              	.LVL44:
 792              		.loc 1 579 0
 793 02fc F0EE480A 		fcpys	s1, s16
 794 0300 2046     		mov	r0, r4
 795 0302 6946     		mov	r1, sp
 796 0304 9DED240A 		flds	s0, [sp, #144]
 797 0308 FFF7FEFF 		bl	buffer_append_float32
 798              	.LVL45:
ARM GAS  /tmp/ccq8Pe5l.s 			page 15


 799              		.loc 1 582 0
 800 030c DDED267A 		flds	s15, [sp, #152]
 801              		.loc 1 580 0
 802 0310 009B     		ldr	r3, [sp]
 803 0312 9DF89420 		ldrb	r2, [sp, #148]	@ zero_extendqisi2
 804 0316 E254     		strb	r2, [r4, r3]
 805              		.loc 1 582 0
 806 0318 27EE888A 		fmuls	s16, s15, s16
 807              		.loc 1 581 0
 808 031c E518     		adds	r5, r4, r3
 809              		.loc 1 582 0
 810 031e FDEEC87A 		ftosizs	s15, s16
 811              		.loc 1 581 0
 812 0322 0233     		adds	r3, r3, #2
 813 0324 9DF89560 		ldrb	r6, [sp, #149]	@ zero_extendqisi2
 814 0328 0093     		str	r3, [sp]
 815              		.loc 1 582 0
 816 032a 6A46     		mov	r2, sp
 817 032c 17EE901A 		fmrs	r1, s15	@ int
 818 0330 2046     		mov	r0, r4
 819              		.loc 1 581 0
 820 0332 6E70     		strb	r6, [r5, #1]
 821              		.loc 1 582 0
 822 0334 FFF7FEFF 		bl	buffer_append_int32
 823              	.LVL46:
 824              		.loc 1 590 0
 825 0338 2AAB     		add	r3, sp, #168
 826              		.loc 1 584 0
 827 033a 009A     		ldr	r2, [sp]
 828              		.loc 1 590 0
 829 033c 33F8069D 		ldrh	r9, [r3, #-6]!	@ unaligned
 830              	.LBB76:
 831              	.LBB77:
 832              		.loc 1 94 0
 833 0340 2449     		ldr	r1, .L140+8
 834              	.LBE77:
 835              	.LBE76:
 836              		.loc 1 590 0
 837 0342 93F802A0 		ldrb	r10, [r3, #2]	@ zero_extendqisi2
 838              	.LBB80:
 839              	.LBB78:
 840              		.loc 1 94 0
 841 0346 0D68     		ldr	r5, [r1]
 842              	.LBE78:
 843              	.LBE80:
 844              		.loc 1 584 0
 845 0348 9DF89C10 		ldrb	r1, [sp, #156]	@ zero_extendqisi2
 846 034c A154     		strb	r1, [r4, r2]
 847              		.loc 1 585 0
 848 034e A318     		adds	r3, r4, r2
 849 0350 9DF89D80 		ldrb	r8, [sp, #157]	@ zero_extendqisi2
 850              	.LVL47:
 851              		.loc 1 586 0
 852 0354 9DF89EC0 		ldrb	ip, [sp, #158]	@ zero_extendqisi2
 853              		.loc 1 587 0
 854 0358 9DF89FE0 		ldrb	lr, [sp, #159]	@ zero_extendqisi2
 855              		.loc 1 588 0
ARM GAS  /tmp/ccq8Pe5l.s 			page 16


 856 035c 9DF8A070 		ldrb	r7, [sp, #160]	@ zero_extendqisi2
 857              		.loc 1 589 0
 858 0360 9DF8A160 		ldrb	r6, [sp, #161]	@ zero_extendqisi2
 859              		.loc 1 592 0
 860 0364 9DF8A500 		ldrb	r0, [sp, #165]	@ zero_extendqisi2
 861              		.loc 1 590 0
 862 0368 83F808A0 		strb	r10, [r3, #8]
 863              		.loc 1 592 0
 864 036c 02F10A01 		add	r1, r2, #10
 865              		.loc 1 590 0
 866 0370 A3F80690 		strh	r9, [r3, #6]	@ unaligned
 867              		.loc 1 592 0
 868 0374 0091     		str	r1, [sp]
 869              		.loc 1 585 0
 870 0376 83F80180 		strb	r8, [r3, #1]
 871              		.loc 1 586 0
 872 037a 83F802C0 		strb	ip, [r3, #2]
 873              		.loc 1 587 0
 874 037e 83F803E0 		strb	lr, [r3, #3]
 875              		.loc 1 588 0
 876 0382 1F71     		strb	r7, [r3, #4]
 877              		.loc 1 589 0
 878 0384 5E71     		strb	r6, [r3, #5]
 879              		.loc 1 592 0
 880 0386 5872     		strb	r0, [r3, #9]
 881              	.LVL48:
 882              	.LBB81:
 883              	.LBB79:
 884              		.loc 1 94 0
 885 0388 0DB1     		cbz	r5, .L24
 886              		.loc 1 95 0
 887 038a 2046     		mov	r0, r4
 888 038c A847     		blx	r5
 889              	.LVL49:
 890              	.L24:
 891              	.LBE79:
 892              	.LBE81:
 893              		.loc 1 789 0
 894 038e 2AB0     		add	sp, sp, #168
 895              		.cfi_remember_state
 896              		.cfi_def_cfa_offset 56
 897              		@ sp needed
 898 0390 BDEC068B 		fldmfdd	sp!, {d8-d10}
 899              		.cfi_restore 84
 900              		.cfi_restore 85
 901              		.cfi_restore 82
 902              		.cfi_restore 83
 903              		.cfi_restore 80
 904              		.cfi_restore 81
 905              		.cfi_def_cfa_offset 32
 906 0394 BDE8F087 		pop	{r4, r5, r6, r7, r8, r9, r10, pc}
 907              	.LVL50:
 908              	.L38:
 909              		.cfi_restore_state
 910              		.loc 1 219 0
 911 0398 FFF7FEFF 		bl	mc_interface_get_configuration
 912              	.LVL51:
ARM GAS  /tmp/ccq8Pe5l.s 			page 17


 913 039c 0E4C     		ldr	r4, .L140+12
 914              	.LVL52:
 915 039e 0146     		mov	r1, r0
 916 03a0 4FF49872 		mov	r2, #304
 917 03a4 2046     		mov	r0, r4
 918 03a6 FFF7FEFF 		bl	memcpy
 919              	.LVL53:
 920              		.loc 1 222 0
 921 03aa 0C49     		ldr	r1, .L140+16
 922 03ac 7B78     		ldrb	r3, [r7, #1]	@ zero_extendqisi2
 923              		.loc 1 224 0
 924 03ae A278     		ldrb	r2, [r4, #2]	@ zero_extendqisi2
 925              		.loc 1 222 0
 926 03b0 0B70     		strb	r3, [r1]
 927 03b2 0121     		movs	r1, #1
 928 03b4 0091     		str	r1, [sp]
 929              		.loc 1 224 0
 930 03b6 32B9     		cbnz	r2, .L51
 931              		.loc 1 225 0
 932 03b8 002B     		cmp	r3, #0
 933 03ba 01F09E83 		beq	.L136
 934              		.loc 1 227 0
 935 03be 012B     		cmp	r3, #1
 936 03c0 01D1     		bne	.L51
 937              		.loc 1 228 0
 938 03c2 FFF7FEFF 		bl	mcpwm_set_detect
 939              	.LVL54:
 940              	.L51:
 941              		.loc 1 736 0
 942 03c6 FFF7FEFF 		bl	timeout_reset
 943              	.LVL55:
 944              		.loc 1 737 0
 945 03ca E0E7     		b	.L24
 946              	.L141:
 947              		.align	2
 948              	.L140:
 949 03cc 00000000 		.word	.LANCHOR8
 950 03d0 00007A44 		.word	1148846080
 951 03d4 00000000 		.word	.LANCHOR9
 952 03d8 00000000 		.word	.LANCHOR11
 953 03dc 00000000 		.word	.LANCHOR12
 954              	.LVL56:
 955              	.L52:
 956              		.loc 1 741 0
 957 03e0 2AAD     		add	r5, sp, #168
 958              	.LVL57:
 959 03e2 DD4C     		ldr	r4, .L142
 960              	.LVL58:
 961              		.loc 1 742 0
 962 03e4 9FEDDD8A 		flds	s16, .L142+4
 963              		.loc 1 741 0
 964 03e8 1E23     		movs	r3, #30
 965 03ea 0122     		movs	r2, #1
 966              		.loc 1 742 0
 967 03ec 0020     		movs	r0, #0
 968              	.LVL59:
 969              		.loc 1 741 0
ARM GAS  /tmp/ccq8Pe5l.s 			page 18


 970 03ee 2370     		strb	r3, [r4]
 971 03f0 45F8A82D 		str	r2, [r5, #-168]!
 972              		.loc 1 742 0
 973 03f4 FFF7FEFF 		bl	servodec_get_servo
 974              	.LVL60:
 975 03f8 20EE080A 		fmuls	s0, s0, s16
 976 03fc 2A46     		mov	r2, r5
 977 03fe FDEEC07A 		ftosizs	s15, s0
 978 0402 2046     		mov	r0, r4
 979 0404 17EE901A 		fmrs	r1, s15	@ int
 980 0408 FFF7FEFF 		bl	buffer_append_int32
 981              	.LVL61:
 982              		.loc 1 743 0
 983 040c 0020     		movs	r0, #0
 984 040e FFF7FEFF 		bl	servodec_get_last_pulse_len
 985              	.LVL62:
 986 0412 20EE080A 		fmuls	s0, s0, s16
 987              	.L130:
 988              		.loc 1 760 0
 989 0416 FDEEC07A 		ftosizs	s15, s0
 990 041a 2A46     		mov	r2, r5
 991 041c 17EE901A 		fmrs	r1, s15	@ int
 992 0420 2046     		mov	r0, r4
 993 0422 FFF7FEFF 		bl	buffer_append_int32
 994              	.LVL63:
 995              	.LBB82:
 996              	.LBB83:
 997              		.loc 1 94 0
 998 0426 CE4B     		ldr	r3, .L142+8
 999              	.LBE83:
 1000              	.LBE82:
 1001              		.loc 1 761 0
 1002 0428 0099     		ldr	r1, [sp]
 1003              	.LVL64:
 1004              	.LBB85:
 1005              	.LBB84:
 1006              		.loc 1 94 0
 1007 042a 1B68     		ldr	r3, [r3]
 1008 042c 002B     		cmp	r3, #0
 1009 042e AED0     		beq	.L24
 1010              	.LVL65:
 1011              	.L127:
 1012              		.loc 1 95 0
 1013 0430 2046     		mov	r0, r4
 1014 0432 9847     		blx	r3
 1015              	.LVL66:
 1016              	.LBE84:
 1017              	.LBE85:
 1018              		.loc 1 789 0
 1019 0434 2AB0     		add	sp, sp, #168
 1020              		.cfi_remember_state
 1021              		.cfi_def_cfa_offset 56
 1022              		@ sp needed
 1023 0436 BDEC068B 		fldmfdd	sp!, {d8-d10}
 1024              		.cfi_restore 80
 1025              		.cfi_restore 81
 1026              		.cfi_restore 82
ARM GAS  /tmp/ccq8Pe5l.s 			page 19


 1027              		.cfi_restore 83
 1028              		.cfi_restore 84
 1029              		.cfi_restore 85
 1030              		.cfi_def_cfa_offset 32
 1031 043a BDE8F087 		pop	{r4, r5, r6, r7, r8, r9, r10, pc}
 1032              	.LVL67:
 1033              	.L36:
 1034              		.cfi_restore_state
 1035              		.loc 1 208 0
 1036 043e 6946     		mov	r1, sp
 1037 0440 2046     		mov	r0, r4
 1038 0442 FFF7FEFF 		bl	buffer_get_int32
 1039              	.LVL68:
 1040 0446 07EE900A 		fmsr	s15, r0	@ int
 1041 044a B8EEE70A 		fsitos	s0, s15
 1042 044e FFF7FEFF 		bl	mc_interface_set_pid_speed
 1043              	.LVL69:
 1044              		.loc 1 209 0
 1045 0452 FFF7FEFF 		bl	timeout_reset
 1046              	.LVL70:
 1047              		.loc 1 210 0
 1048 0456 9AE7     		b	.L24
 1049              	.L35:
 1050              		.loc 1 202 0
 1051 0458 6946     		mov	r1, sp
 1052 045a 2046     		mov	r0, r4
 1053 045c FFF7FEFF 		bl	buffer_get_int32
 1054              	.LVL71:
 1055 0460 07EE100A 		fmsr	s14, r0	@ int
 1056 0464 DFEDBF7A 		flds	s15, .L142+12
 1057 0468 B8EEC70A 		fsitos	s0, s14
 1058 046c 80EE270A 		fdivs	s0, s0, s15
 1059 0470 FFF7FEFF 		bl	mc_interface_set_brake_current
 1060              	.LVL72:
 1061              		.loc 1 203 0
 1062 0474 FFF7FEFF 		bl	timeout_reset
 1063              	.LVL73:
 1064              		.loc 1 204 0
 1065 0478 89E7     		b	.L24
 1066              	.L34:
 1067              		.loc 1 196 0
 1068 047a 6946     		mov	r1, sp
 1069 047c 2046     		mov	r0, r4
 1070 047e FFF7FEFF 		bl	buffer_get_int32
 1071              	.LVL74:
 1072 0482 07EE100A 		fmsr	s14, r0	@ int
 1073 0486 DFEDB77A 		flds	s15, .L142+12
 1074 048a B8EEC70A 		fsitos	s0, s14
 1075 048e 80EE270A 		fdivs	s0, s0, s15
 1076 0492 FFF7FEFF 		bl	mc_interface_set_current
 1077              	.LVL75:
 1078              		.loc 1 197 0
 1079 0496 FFF7FEFF 		bl	timeout_reset
 1080              	.LVL76:
 1081              		.loc 1 198 0
 1082 049a 78E7     		b	.L24
 1083              	.L33:
ARM GAS  /tmp/ccq8Pe5l.s 			page 20


 1084              		.loc 1 190 0
 1085 049c 6946     		mov	r1, sp
 1086 049e 2046     		mov	r0, r4
 1087 04a0 FFF7FEFF 		bl	buffer_get_int32
 1088              	.LVL77:
 1089 04a4 07EE100A 		fmsr	s14, r0	@ int
 1090 04a8 DFEDAF7A 		flds	s15, .L142+16
 1091 04ac B8EEC70A 		fsitos	s0, s14
 1092 04b0 80EE270A 		fdivs	s0, s0, s15
 1093 04b4 FFF7FEFF 		bl	mc_interface_set_duty
 1094              	.LVL78:
 1095              		.loc 1 191 0
 1096 04b8 FFF7FEFF 		bl	timeout_reset
 1097              	.LVL79:
 1098              		.loc 1 192 0
 1099 04bc 67E7     		b	.L24
 1100              	.L32:
 1101              		.loc 1 165 0
 1102 04be AB4E     		ldr	r6, .L142+20
 1103 04c0 9FEDAB9A 		flds	s18, .L142+24
 1104 04c4 7389     		ldrh	r3, [r6, #10]
 1105 04c6 9FEDAB8A 		flds	s16, .L142+28
 1106              		.loc 1 164 0
 1107 04ca A34C     		ldr	r4, .L142
 1108              	.LVL80:
 1109              		.loc 1 165 0
 1110 04cc DFEDAA8A 		flds	s17, .L142+32
 1111 04d0 DFEDAAAA 		flds	s21, .L142+36
 1112 04d4 9FEDAAAA 		flds	s20, .L142+40
 1113 04d8 9BB2     		uxth	r3, r3
 1114 04da 07EE903A 		fmsr	s15, r3	@ int
 1115 04de B8EEE70A 		fsitos	s0, s15
 1116              		.loc 1 164 0
 1117 04e2 2AAD     		add	r5, sp, #168
 1118              	.LVL81:
 1119              		.loc 1 165 0
 1120 04e4 89EE000A 		fdivs	s0, s18, s0
 1121              		.loc 1 164 0
 1122 04e8 0122     		movs	r2, #1
 1123 04ea 0423     		movs	r3, #4
 1124 04ec 45F8A82D 		str	r2, [r5, #-168]!
 1125 04f0 2370     		strb	r3, [r4]
 1126              		.loc 1 165 0
 1127 04f2 F7EE009A 		fconsts	s19, #112
 1128 04f6 30EE480A 		fsubs	s0, s0, s16
 1129 04fa 80EE080A 		fdivs	s0, s0, s16
 1130 04fe FFF7FEFF 		bl	logf
 1131              	.LVL82:
 1132 0502 2946     		mov	r1, r5
 1133 0504 2046     		mov	r0, r4
 1134 0506 80EE280A 		fdivs	s0, s0, s17
 1135 050a F2EE040A 		fconsts	s1, #36
 1136 050e 30EE2A0A 		fadds	s0, s0, s21
 1137 0512 89EE800A 		fdivs	s0, s19, s0
 1138 0516 30EE4A0A 		fsubs	s0, s0, s20
 1139 051a FFF7FEFF 		bl	buffer_append_float16
 1140              	.LVL83:
ARM GAS  /tmp/ccq8Pe5l.s 			page 21


 1141              		.loc 1 166 0
 1142 051e 7389     		ldrh	r3, [r6, #10]
 1143 0520 9BB2     		uxth	r3, r3
 1144 0522 07EE903A 		fmsr	s15, r3	@ int
 1145 0526 B8EEE70A 		fsitos	s0, s15
 1146 052a 89EE000A 		fdivs	s0, s18, s0
 1147 052e 30EE480A 		fsubs	s0, s0, s16
 1148 0532 80EE080A 		fdivs	s0, s0, s16
 1149 0536 FFF7FEFF 		bl	logf
 1150              	.LVL84:
 1151 053a 2946     		mov	r1, r5
 1152 053c 2046     		mov	r0, r4
 1153 053e 80EE280A 		fdivs	s0, s0, s17
 1154 0542 F2EE040A 		fconsts	s1, #36
 1155 0546 30EE2A0A 		fadds	s0, s0, s21
 1156 054a 89EE800A 		fdivs	s0, s19, s0
 1157 054e 30EE4A0A 		fsubs	s0, s0, s20
 1158 0552 FFF7FEFF 		bl	buffer_append_float16
 1159              	.LVL85:
 1160              		.loc 1 167 0
 1161 0556 7389     		ldrh	r3, [r6, #10]
 1162 0558 9BB2     		uxth	r3, r3
 1163 055a 07EE903A 		fmsr	s15, r3	@ int
 1164 055e B8EEE70A 		fsitos	s0, s15
 1165 0562 89EE000A 		fdivs	s0, s18, s0
 1166 0566 30EE480A 		fsubs	s0, s0, s16
 1167 056a 80EE080A 		fdivs	s0, s0, s16
 1168 056e FFF7FEFF 		bl	logf
 1169              	.LVL86:
 1170 0572 2946     		mov	r1, r5
 1171 0574 2046     		mov	r0, r4
 1172 0576 80EE280A 		fdivs	s0, s0, s17
 1173 057a F2EE040A 		fconsts	s1, #36
 1174 057e 30EE2A0A 		fadds	s0, s0, s21
 1175 0582 89EE800A 		fdivs	s0, s19, s0
 1176 0586 30EE4A0A 		fsubs	s0, s0, s20
 1177 058a FFF7FEFF 		bl	buffer_append_float16
 1178              	.LVL87:
 1179              		.loc 1 168 0
 1180 058e 7389     		ldrh	r3, [r6, #10]
 1181 0590 9BB2     		uxth	r3, r3
 1182 0592 07EE903A 		fmsr	s15, r3	@ int
 1183 0596 B8EEE70A 		fsitos	s0, s15
 1184 059a 89EE000A 		fdivs	s0, s18, s0
 1185 059e 30EE480A 		fsubs	s0, s0, s16
 1186 05a2 80EE080A 		fdivs	s0, s0, s16
 1187 05a6 FFF7FEFF 		bl	logf
 1188              	.LVL88:
 1189 05aa 2946     		mov	r1, r5
 1190 05ac 2046     		mov	r0, r4
 1191 05ae 80EE280A 		fdivs	s0, s0, s17
 1192 05b2 F2EE040A 		fconsts	s1, #36
 1193 05b6 30EE2A0A 		fadds	s0, s0, s21
 1194 05ba 89EE800A 		fdivs	s0, s19, s0
 1195 05be 30EE4A0A 		fsubs	s0, s0, s20
 1196 05c2 FFF7FEFF 		bl	buffer_append_float16
 1197              	.LVL89:
ARM GAS  /tmp/ccq8Pe5l.s 			page 22


 1198              		.loc 1 169 0
 1199 05c6 7389     		ldrh	r3, [r6, #10]
 1200 05c8 9BB2     		uxth	r3, r3
 1201 05ca 07EE903A 		fmsr	s15, r3	@ int
 1202 05ce B8EEE70A 		fsitos	s0, s15
 1203 05d2 89EE000A 		fdivs	s0, s18, s0
 1204 05d6 30EE480A 		fsubs	s0, s0, s16
 1205 05da 80EE080A 		fdivs	s0, s0, s16
 1206 05de FFF7FEFF 		bl	logf
 1207              	.LVL90:
 1208 05e2 2946     		mov	r1, r5
 1209 05e4 2046     		mov	r0, r4
 1210 05e6 80EE280A 		fdivs	s0, s0, s17
 1211 05ea F2EE040A 		fconsts	s1, #36
 1212 05ee 30EE2A0A 		fadds	s0, s0, s21
 1213 05f2 89EE800A 		fdivs	s0, s19, s0
 1214 05f6 30EE4A0A 		fsubs	s0, s0, s20
 1215 05fa FFF7FEFF 		bl	buffer_append_float16
 1216              	.LVL91:
 1217              		.loc 1 170 0
 1218 05fe 7389     		ldrh	r3, [r6, #10]
 1219 0600 9BB2     		uxth	r3, r3
 1220 0602 07EE903A 		fmsr	s15, r3	@ int
 1221 0606 B8EEE70A 		fsitos	s0, s15
 1222 060a 89EE000A 		fdivs	s0, s18, s0
 1223 060e 30EE480A 		fsubs	s0, s0, s16
 1224 0612 80EE080A 		fdivs	s0, s0, s16
 1225 0616 FFF7FEFF 		bl	logf
 1226              	.LVL92:
 1227 061a 2946     		mov	r1, r5
 1228 061c 2046     		mov	r0, r4
 1229 061e 80EE280A 		fdivs	s0, s0, s17
 1230 0622 F2EE040A 		fconsts	s1, #36
 1231 0626 30EE2A0A 		fadds	s0, s0, s21
 1232 062a 89EE800A 		fdivs	s0, s19, s0
 1233 062e 30EE4A0A 		fsubs	s0, s0, s20
 1234 0632 FFF7FEFF 		bl	buffer_append_float16
 1235              	.LVL93:
 1236              		.loc 1 171 0
 1237 0636 7389     		ldrh	r3, [r6, #10]
 1238 0638 9BB2     		uxth	r3, r3
 1239 063a 07EE903A 		fmsr	s15, r3	@ int
 1240 063e B8EEE70A 		fsitos	s0, s15
 1241 0642 89EE000A 		fdivs	s0, s18, s0
 1242 0646 30EE480A 		fsubs	s0, s0, s16
 1243 064a 80EE080A 		fdivs	s0, s0, s16
 1244 064e FFF7FEFF 		bl	logf
 1245              	.LVL94:
 1246 0652 2946     		mov	r1, r5
 1247 0654 2046     		mov	r0, r4
 1248 0656 80EE280A 		fdivs	s0, s0, s17
 1249 065a F2EE040A 		fconsts	s1, #36
 1250 065e 30EE2A0A 		fadds	s0, s0, s21
 1251 0662 89EE800A 		fdivs	s0, s19, s0
 1252 0666 30EE4A0A 		fsubs	s0, s0, s20
 1253 066a FFF7FEFF 		bl	buffer_append_float16
 1254              	.LVL95:
ARM GAS  /tmp/ccq8Pe5l.s 			page 23


 1255              		.loc 1 172 0
 1256 066e FFF7FEFF 		bl	mc_interface_read_reset_avg_motor_current
 1257              	.LVL96:
 1258 0672 2946     		mov	r1, r5
 1259 0674 2046     		mov	r0, r4
 1260 0676 DFED430A 		flds	s1, .L142+44
 1261 067a FFF7FEFF 		bl	buffer_append_float32
 1262              	.LVL97:
 1263              		.loc 1 173 0
 1264 067e FFF7FEFF 		bl	mc_interface_read_reset_avg_input_current
 1265              	.LVL98:
 1266 0682 2946     		mov	r1, r5
 1267 0684 2046     		mov	r0, r4
 1268 0686 DFED3F0A 		flds	s1, .L142+44
 1269 068a FFF7FEFF 		bl	buffer_append_float32
 1270              	.LVL99:
 1271              		.loc 1 174 0
 1272 068e FFF7FEFF 		bl	mc_interface_get_duty_cycle_now
 1273              	.LVL100:
 1274 0692 2946     		mov	r1, r5
 1275 0694 2046     		mov	r0, r4
 1276 0696 DFED330A 		flds	s1, .L142+12
 1277 069a FFF7FEFF 		bl	buffer_append_float16
 1278              	.LVL101:
 1279              		.loc 1 175 0
 1280 069e FFF7FEFF 		bl	mc_interface_get_rpm
 1281              	.LVL102:
 1282 06a2 2946     		mov	r1, r5
 1283 06a4 2046     		mov	r0, r4
 1284 06a6 F0EE690A 		fcpys	s1, s19
 1285 06aa FFF7FEFF 		bl	buffer_append_float32
 1286              	.LVL103:
 1287              		.loc 1 176 0
 1288 06ae 338A     		ldrh	r3, [r6, #16]
 1289 06b0 9FED357A 		flds	s14, .L142+48
 1290 06b4 9FED350A 		flds	s0, .L142+52
 1291 06b8 9BB2     		uxth	r3, r3
 1292 06ba 07EE903A 		fmsr	s15, r3	@ int
 1293 06be F8EE677A 		fuitos	s15, s15
 1294 06c2 2946     		mov	r1, r5
 1295 06c4 67EE877A 		fmuls	s15, s15, s14
 1296 06c8 F2EE040A 		fconsts	s1, #36
 1297 06cc 27EE800A 		fmuls	s0, s15, s0
 1298 06d0 2046     		mov	r0, r4
 1299 06d2 FFF7FEFF 		bl	buffer_append_float16
 1300              	.LVL104:
 1301              		.loc 1 177 0
 1302 06d6 0020     		movs	r0, #0
 1303 06d8 FFF7FEFF 		bl	mc_interface_get_amp_hours
 1304              	.LVL105:
 1305 06dc 2946     		mov	r1, r5
 1306 06de F0EE480A 		fcpys	s1, s16
 1307 06e2 2046     		mov	r0, r4
 1308 06e4 FFF7FEFF 		bl	buffer_append_float32
 1309              	.LVL106:
 1310              		.loc 1 178 0
 1311 06e8 0020     		movs	r0, #0
ARM GAS  /tmp/ccq8Pe5l.s 			page 24


 1312 06ea FFF7FEFF 		bl	mc_interface_get_amp_hours_charged
 1313              	.LVL107:
 1314 06ee 2946     		mov	r1, r5
 1315 06f0 F0EE480A 		fcpys	s1, s16
 1316 06f4 2046     		mov	r0, r4
 1317 06f6 FFF7FEFF 		bl	buffer_append_float32
 1318              	.LVL108:
 1319              		.loc 1 179 0
 1320 06fa 0020     		movs	r0, #0
 1321 06fc FFF7FEFF 		bl	mc_interface_get_watt_hours
 1322              	.LVL109:
 1323 0700 2946     		mov	r1, r5
 1324 0702 F0EE480A 		fcpys	s1, s16
 1325 0706 2046     		mov	r0, r4
 1326 0708 FFF7FEFF 		bl	buffer_append_float32
 1327              	.LVL110:
 1328              		.loc 1 180 0
 1329 070c 0020     		movs	r0, #0
 1330 070e FFF7FEFF 		bl	mc_interface_get_watt_hours_charged
 1331              	.LVL111:
 1332 0712 F0EE480A 		fcpys	s1, s16
 1333 0716 2946     		mov	r1, r5
 1334 0718 2046     		mov	r0, r4
 1335 071a FFF7FEFF 		bl	buffer_append_float32
 1336              	.LVL112:
 1337              		.loc 1 181 0
 1338 071e 0020     		movs	r0, #0
 1339 0720 FFF7FEFF 		bl	mc_interface_get_tachometer_value
 1340              	.LVL113:
 1341 0724 2A46     		mov	r2, r5
 1342 0726 0146     		mov	r1, r0
 1343 0728 2046     		mov	r0, r4
 1344 072a FFF7FEFF 		bl	buffer_append_int32
 1345              	.LVL114:
 1346              		.loc 1 182 0
 1347 072e 0020     		movs	r0, #0
 1348 0730 FFF7FEFF 		bl	mc_interface_get_tachometer_abs_value
 1349              	.LVL115:
 1350 0734 2A46     		mov	r2, r5
 1351 0736 0146     		mov	r1, r0
 1352 0738 2046     		mov	r0, r4
 1353 073a FFF7FEFF 		bl	buffer_append_int32
 1354              	.LVL116:
 1355              		.loc 1 183 0
 1356 073e 009D     		ldr	r5, [sp]
 1357 0740 6B1C     		adds	r3, r5, #1
 1358 0742 0093     		str	r3, [sp]
 1359 0744 FFF7FEFF 		bl	mc_interface_get_fault
 1360              	.LVL117:
 1361              	.LBB86:
 1362              	.LBB87:
 1363              		.loc 1 94 0
 1364 0748 054B     		ldr	r3, .L142+8
 1365              	.LBE87:
 1366              	.LBE86:
 1367              		.loc 1 183 0
 1368 074a 6055     		strb	r0, [r4, r5]
ARM GAS  /tmp/ccq8Pe5l.s 			page 25


 1369              	.LBB90:
 1370              	.LBB88:
 1371              		.loc 1 94 0
 1372 074c 1B68     		ldr	r3, [r3]
 1373              	.LBE88:
 1374              	.LBE90:
 1375              		.loc 1 185 0
 1376 074e 0099     		ldr	r1, [sp]
 1377              	.LVL118:
 1378              	.LBB91:
 1379              	.LBB89:
 1380              		.loc 1 94 0
 1381 0750 002B     		cmp	r3, #0
 1382 0752 7FF46DAE 		bne	.L127
 1383 0756 1AE6     		b	.L24
 1384              	.L143:
 1385              		.align	2
 1386              	.L142:
 1387 0758 00000000 		.word	.LANCHOR8
 1388 075c 00247449 		.word	1232348160
 1389 0760 00000000 		.word	.LANCHOR9
 1390 0764 00007A44 		.word	1148846080
 1391 0768 0050C347 		.word	1203982336
 1392 076c 00000000 		.word	ADC_Value
 1393 0770 3C361C4C 		.word	1276917308
 1394 0774 00401C46 		.word	1176256512
 1395 0778 00A05645 		.word	1163304960
 1396 077c 0FCF5B3B 		.word	995872527
 1397 0780 33938843 		.word	1133024051
 1398 0784 0000C842 		.word	1120403456
 1399 0788 6740533A 		.word	978534503
 1400 078c 74D19541 		.word	1100337524
 1401              	.LVL119:
 1402              	.L31:
 1403              	.LBE89:
 1404              	.LBE91:
 1405              		.loc 1 153 0
 1406 0790 2046     		mov	r0, r4
 1407 0792 6946     		mov	r1, sp
 1408 0794 FFF7FEFF 		bl	buffer_get_uint32
 1409              	.LVL120:
 1410              		.loc 1 154 0
 1411 0798 009A     		ldr	r2, [sp]
 1412 079a A118     		adds	r1, r4, r2
 1413 079c AA1A     		subs	r2, r5, r2
 1414 079e FFF7FEFF 		bl	flash_helper_write_new_app_data
 1415              	.LVL121:
 1416              	.LBB92:
 1417              	.LBB93:
 1418              		.loc 1 94 0
 1419 07a2 B84A     		ldr	r2, .L144
 1420              	.LBE93:
 1421              	.LBE92:
 1422              		.loc 1 157 0
 1423 07a4 B84B     		ldr	r3, .L144+4
 1424              	.LBB96:
 1425              	.LBB94:
ARM GAS  /tmp/ccq8Pe5l.s 			page 26


 1426              		.loc 1 94 0
 1427 07a6 1268     		ldr	r2, [r2]
 1428              	.LBE94:
 1429              	.LBE96:
 1430              		.loc 1 158 0
 1431 07a8 A0F10900 		sub	r0, #9
 1432              	.LVL122:
 1433              		.loc 1 157 0
 1434 07ac 0324     		movs	r4, #3
 1435              	.LVL123:
 1436              		.loc 1 158 0
 1437 07ae B0FA80F0 		clz	r0, r0
 1438 07b2 0221     		movs	r1, #2
 1439 07b4 4009     		lsrs	r0, r0, #5
 1440 07b6 5870     		strb	r0, [r3, #1]
 1441              	.LVL124:
 1442              		.loc 1 157 0
 1443 07b8 1C70     		strb	r4, [r3]
 1444              		.loc 1 158 0
 1445 07ba 0091     		str	r1, [sp]
 1446              	.LBB97:
 1447              	.LBB95:
 1448              		.loc 1 94 0
 1449 07bc 002A     		cmp	r2, #0
 1450 07be 3FF4E6AD 		beq	.L24
 1451              	.LVL125:
 1452              	.L126:
 1453              		.loc 1 95 0
 1454 07c2 1846     		mov	r0, r3
 1455 07c4 9047     		blx	r2
 1456              	.LVL126:
 1457 07c6 E2E5     		b	.L24
 1458              	.LVL127:
 1459              	.L30:
 1460              	.LBE95:
 1461              	.LBE97:
 1462              		.loc 1 143 0
 1463 07c8 6946     		mov	r1, sp
 1464 07ca 2046     		mov	r0, r4
 1465 07cc FFF7FEFF 		bl	buffer_get_uint32
 1466              	.LVL128:
 1467 07d0 FFF7FEFF 		bl	flash_helper_erase_new_app
 1468              	.LVL129:
 1469              	.LBB98:
 1470              	.LBB99:
 1471              		.loc 1 94 0
 1472 07d4 AB4A     		ldr	r2, .L144
 1473              	.LBE99:
 1474              	.LBE98:
 1475              		.loc 1 146 0
 1476 07d6 AC4B     		ldr	r3, .L144+4
 1477              	.LBB102:
 1478              	.LBB100:
 1479              		.loc 1 94 0
 1480 07d8 1268     		ldr	r2, [r2]
 1481              	.LBE100:
 1482              	.LBE102:
ARM GAS  /tmp/ccq8Pe5l.s 			page 27


 1483              		.loc 1 146 0
 1484 07da 0221     		movs	r1, #2
 1485              		.loc 1 147 0
 1486 07dc A0F10900 		sub	r0, #9
 1487              	.LVL130:
 1488 07e0 B0FA80F0 		clz	r0, r0
 1489 07e4 4009     		lsrs	r0, r0, #5
 1490 07e6 5870     		strb	r0, [r3, #1]
 1491              	.LVL131:
 1492              		.loc 1 146 0
 1493 07e8 1970     		strb	r1, [r3]
 1494              		.loc 1 147 0
 1495 07ea 0091     		str	r1, [sp]
 1496              	.LBB103:
 1497              	.LBB101:
 1498              		.loc 1 94 0
 1499 07ec 002A     		cmp	r2, #0
 1500 07ee E8D1     		bne	.L126
 1501 07f0 CDE5     		b	.L24
 1502              	.LVL132:
 1503              	.L29:
 1504              	.LBE101:
 1505              	.LBE103:
 1506              		.loc 1 138 0
 1507 07f2 FFF7FEFF 		bl	flash_helper_jump_to_bootloader
 1508              	.LVL133:
 1509              		.loc 1 139 0
 1510 07f6 CAE5     		b	.L24
 1511              	.L27:
 1512              	.LBB104:
 1513              	.LBB105:
 1514              		.loc 1 94 0
 1515 07f8 A24B     		ldr	r3, .L144
 1516              	.LBE105:
 1517              	.LBE104:
 1518              		.loc 1 131 0
 1519 07fa A348     		ldr	r0, .L144+4
 1520              	.LBB108:
 1521              	.LBB106:
 1522              		.loc 1 94 0
 1523 07fc 1B68     		ldr	r3, [r3]
 1524              	.LBE106:
 1525              	.LBE108:
 1526              		.loc 1 131 0
 1527 07fe 0025     		movs	r5, #0
 1528              	.LVL134:
 1529              		.loc 1 132 0
 1530 0800 0224     		movs	r4, #2
 1531              	.LVL135:
 1532              		.loc 1 133 0
 1533 0802 1022     		movs	r2, #16
 1534 0804 0321     		movs	r1, #3
 1535              	.LVL136:
 1536              		.loc 1 131 0
 1537 0806 0570     		strb	r5, [r0]
 1538              		.loc 1 132 0
 1539 0808 4470     		strb	r4, [r0, #1]
ARM GAS  /tmp/ccq8Pe5l.s 			page 28


 1540              		.loc 1 133 0
 1541 080a 8270     		strb	r2, [r0, #2]
 1542              	.LVL137:
 1543 080c 0091     		str	r1, [sp]
 1544              	.LBB109:
 1545              	.LBB107:
 1546              		.loc 1 94 0
 1547 080e 002B     		cmp	r3, #0
 1548 0810 3FF4BDAD 		beq	.L24
 1549              	.LVL138:
 1550              	.L125:
 1551              	.LBE107:
 1552              	.LBE109:
 1553              		.loc 1 782 0
 1554 0814 9847     		blx	r3
 1555              	.LVL139:
 1556 0816 BAE5     		b	.L24
 1557              	.LVL140:
 1558              	.L57:
 1559              		.loc 1 781 0
 1560 0818 9C4B     		ldr	r3, .L144+8
 1561 081a 1B68     		ldr	r3, [r3]
 1562 081c 002B     		cmp	r3, #0
 1563 081e 3FF4B6AD 		beq	.L24
 1564              		.loc 1 782 0
 1565 0822 2046     		mov	r0, r4
 1566 0824 2946     		mov	r1, r5
 1567 0826 F5E7     		b	.L125
 1568              	.L56:
 1569              		.loc 1 772 0
 1570 0828 C278     		ldrb	r2, [r0, #3]	@ zero_extendqisi2
 1571              		.loc 1 773 0
 1572 082a 0379     		ldrb	r3, [r0, #4]	@ zero_extendqisi2
 1573              		.loc 1 770 0
 1574 082c 4178     		ldrb	r1, [r0, #1]	@ zero_extendqisi2
 1575              		.loc 1 771 0
 1576 082e 8678     		ldrb	r6, [r0, #2]	@ zero_extendqisi2
 1577              		.loc 1 770 0
 1578 0830 0291     		str	r1, [sp, #8]
 1579              		.loc 1 772 0
 1580 0832 0032     		adds	r2, r2, #0
 1581 0834 18BF     		it	ne
 1582 0836 0122     		movne	r2, #1
 1583              		.loc 1 773 0
 1584 0838 0033     		adds	r3, r3, #0
 1585 083a 18BF     		it	ne
 1586 083c 0123     		movne	r3, #1
 1587              		.loc 1 774 0
 1588 083e 6946     		mov	r1, sp
 1589              		.loc 1 773 0
 1590 0840 0425     		movs	r5, #4
 1591              	.LVL141:
 1592              		.loc 1 774 0
 1593 0842 2046     		mov	r0, r4
 1594              		.loc 1 772 0
 1595 0844 8DF81C20 		strb	r2, [sp, #28]
 1596              		.loc 1 773 0
ARM GAS  /tmp/ccq8Pe5l.s 			page 29


 1597 0848 8DF81D30 		strb	r3, [sp, #29]
 1598              		.loc 1 771 0
 1599 084c 0396     		str	r6, [sp, #12]
 1600              		.loc 1 773 0
 1601 084e 0095     		str	r5, [sp]
 1602              		.loc 1 774 0
 1603 0850 FFF7FEFF 		bl	buffer_get_int16
 1604              	.LVL142:
 1605              		.loc 1 775 0
 1606 0854 6946     		mov	r1, sp
 1607              		.loc 1 774 0
 1608 0856 0490     		str	r0, [sp, #16]
 1609              		.loc 1 775 0
 1610 0858 2046     		mov	r0, r4
 1611 085a FFF7FEFF 		bl	buffer_get_int16
 1612              	.LVL143:
 1613              		.loc 1 776 0
 1614 085e 6946     		mov	r1, sp
 1615              		.loc 1 775 0
 1616 0860 0590     		str	r0, [sp, #20]
 1617              		.loc 1 776 0
 1618 0862 2046     		mov	r0, r4
 1619 0864 FFF7FEFF 		bl	buffer_get_int16
 1620              	.LVL144:
 1621 0868 0690     		str	r0, [sp, #24]
 1622              		.loc 1 777 0
 1623 086a 02A8     		add	r0, sp, #8
 1624 086c FFF7FEFF 		bl	app_nunchuk_update_output
 1625              	.LVL145:
 1626              		.loc 1 778 0
 1627 0870 8DE5     		b	.L24
 1628              	.LVL146:
 1629              	.L55:
 1630              		.loc 1 765 0
 1631 0872 8A1E     		subs	r2, r1, #2
 1632 0874 4078     		ldrb	r0, [r0, #1]	@ zero_extendqisi2
 1633 0876 B91C     		adds	r1, r7, #2
 1634 0878 0023     		movs	r3, #0
 1635 087a FFF7FEFF 		bl	comm_can_send_buffer
 1636              	.LVL147:
 1637              		.loc 1 766 0
 1638 087e 86E5     		b	.L24
 1639              	.L37:
 1640              		.loc 1 214 0
 1641 0880 6946     		mov	r1, sp
 1642 0882 2046     		mov	r0, r4
 1643 0884 FFF7FEFF 		bl	buffer_get_int32
 1644              	.LVL148:
 1645 0888 07EE100A 		fmsr	s14, r0	@ int
 1646 088c DFED807A 		flds	s15, .L144+12
 1647 0890 B8EEC70A 		fsitos	s0, s14
 1648 0894 80EE270A 		fdivs	s0, s0, s15
 1649 0898 FFF7FEFF 		bl	mc_interface_set_pid_pos
 1650              	.LVL149:
 1651              		.loc 1 215 0
 1652 089c FFF7FEFF 		bl	timeout_reset
 1653              	.LVL150:
ARM GAS  /tmp/ccq8Pe5l.s 			page 30


 1654              		.loc 1 216 0
 1655 08a0 75E5     		b	.L24
 1656              	.L54:
 1657              		.loc 1 759 0
 1658 08a2 2AAD     		add	r5, sp, #168
 1659              	.LVL151:
 1660 08a4 784C     		ldr	r4, .L144+4
 1661              	.LVL152:
 1662 08a6 0122     		movs	r2, #1
 1663 08a8 2023     		movs	r3, #32
 1664 08aa 45F8A82D 		str	r2, [r5, #-168]!
 1665 08ae 2370     		strb	r3, [r4]
 1666              		.loc 1 760 0
 1667 08b0 FFF7FEFF 		bl	app_nunchuk_get_decoded_chuk
 1668              	.LVL153:
 1669 08b4 DFED767A 		flds	s15, .L144+12
 1670 08b8 20EE270A 		fmuls	s0, s0, s15
 1671 08bc ABE5     		b	.L130
 1672              	.LVL154:
 1673              	.L53:
 1674              		.loc 1 749 0
 1675 08be 2AAD     		add	r5, sp, #168
 1676              	.LVL155:
 1677 08c0 714C     		ldr	r4, .L144+4
 1678              	.LVL156:
 1679              		.loc 1 750 0
 1680 08c2 9FED738A 		flds	s16, .L144+12
 1681              		.loc 1 749 0
 1682 08c6 1F23     		movs	r3, #31
 1683 08c8 0122     		movs	r2, #1
 1684 08ca 2370     		strb	r3, [r4]
 1685 08cc 45F8A82D 		str	r2, [r5, #-168]!
 1686              		.loc 1 750 0
 1687 08d0 FFF7FEFF 		bl	app_adc_get_decoded_level
 1688              	.LVL157:
 1689 08d4 20EE080A 		fmuls	s0, s0, s16
 1690 08d8 2A46     		mov	r2, r5
 1691 08da FDEEC07A 		ftosizs	s15, s0
 1692 08de 2046     		mov	r0, r4
 1693 08e0 17EE901A 		fmrs	r1, s15	@ int
 1694 08e4 FFF7FEFF 		bl	buffer_append_int32
 1695              	.LVL158:
 1696              		.loc 1 751 0
 1697 08e8 FFF7FEFF 		bl	app_adc_get_voltage
 1698              	.LVL159:
 1699 08ec 20EE080A 		fmuls	s0, s0, s16
 1700 08f0 2A46     		mov	r2, r5
 1701 08f2 FDEEC07A 		ftosizs	s15, s0
 1702 08f6 2046     		mov	r0, r4
 1703 08f8 17EE901A 		fmrs	r1, s15	@ int
 1704 08fc FFF7FEFF 		bl	buffer_append_int32
 1705              	.LVL160:
 1706              		.loc 1 752 0
 1707 0900 FFF7FEFF 		bl	app_adc_get_decoded_level2
 1708              	.LVL161:
 1709 0904 20EE080A 		fmuls	s0, s0, s16
 1710 0908 2A46     		mov	r2, r5
ARM GAS  /tmp/ccq8Pe5l.s 			page 31


 1711 090a FDEEC07A 		ftosizs	s15, s0
 1712 090e 2046     		mov	r0, r4
 1713 0910 17EE901A 		fmrs	r1, s15	@ int
 1714 0914 FFF7FEFF 		bl	buffer_append_int32
 1715              	.LVL162:
 1716              		.loc 1 753 0
 1717 0918 FFF7FEFF 		bl	app_adc_get_voltage2
 1718              	.LVL163:
 1719 091c 20EE080A 		fmuls	s0, s0, s16
 1720 0920 79E5     		b	.L130
 1721              	.LVL164:
 1722              	.L50:
 1723              	.LBB110:
 1724              	.LBB111:
 1725              		.file 3 "ChibiOS_3.0.2/os/ext/CMSIS/include/core_cmFunc.h"
 1726              		.loc 3 342 0
 1727              	@ 342 "ChibiOS_3.0.2/os/ext/CMSIS/include/core_cmFunc.h" 1
 1728 0922 72B6     		cpsid i
 1729              	@ 0 "" 2
 1730              		.thumb
 1731              	.L73:
 1732              	.LBE111:
 1733              	.LBE110:
 1734              		.loc 1 732 0 discriminator 5
 1735 0924 FEE7     		b	.L73
 1736              	.L49:
 1737              	.LBB112:
 1738              		.loc 1 703 0
 1739 0926 FFF7FEFF 		bl	mc_interface_get_configuration
 1740              	.LVL165:
 1741 092a 5A4D     		ldr	r5, .L144+16
 1742              	.LVL166:
 1743              	.LBB113:
 1744              	.LBB114:
 1745              		.loc 1 94 0
 1746 092c 554E     		ldr	r6, .L144
 1747              	.LBE114:
 1748              	.LBE113:
 1749              		.loc 1 703 0
 1750 092e 0146     		mov	r1, r0
 1751 0930 4FF49872 		mov	r2, #304
 1752 0934 2846     		mov	r0, r5
 1753 0936 FFF7FEFF 		bl	memcpy
 1754              	.LVL167:
 1755              		.loc 1 704 0
 1756 093a 2946     		mov	r1, r5
 1757 093c 4FF49872 		mov	r2, #304
 1758 0940 5548     		ldr	r0, .L144+20
 1759 0942 FFF7FEFF 		bl	memcpy
 1760              	.LVL168:
 1761              		.loc 1 706 0
 1762 0946 2AA9     		add	r1, sp, #168
 1763 0948 0023     		movs	r3, #0
 1764 094a 41F8A83D 		str	r3, [r1, #-168]!
 1765              		.loc 1 707 0
 1766 094e 2046     		mov	r0, r4
 1767 0950 9FED520A 		flds	s0, .L144+24
ARM GAS  /tmp/ccq8Pe5l.s 			page 32


 1768 0954 FFF7FEFF 		bl	buffer_get_float32
 1769              	.LVL169:
 1770              		.loc 1 710 0
 1771 0958 514B     		ldr	r3, .L144+28
 1772              		.loc 1 711 0
 1773 095a 524A     		ldr	r2, .L144+32
 1774              		.loc 1 710 0
 1775 095c C5F89430 		str	r3, [r5, #148]	@ float
 1776              		.loc 1 709 0
 1777 0960 0221     		movs	r1, #2
 1778              		.loc 1 712 0
 1779 0962 514B     		ldr	r3, .L144+36
 1780              		.loc 1 709 0
 1781 0964 A970     		strb	r1, [r5, #2]
 1782              		.loc 1 713 0
 1783 0966 2846     		mov	r0, r5
 1784              		.loc 1 707 0
 1785 0968 B0EE408A 		fcpys	s16, s0
 1786              	.LVL170:
 1787              		.loc 1 711 0
 1788 096c C5F88C20 		str	r2, [r5, #140]	@ float
 1789              		.loc 1 712 0
 1790 0970 C5F89030 		str	r3, [r5, #144]	@ float
 1791              		.loc 1 713 0
 1792 0974 FFF7FEFF 		bl	mc_interface_set_configuration
 1793              	.LVL171:
 1794              		.loc 1 716 0
 1795 0978 B0EE480A 		fcpys	s0, s16
 1796 097c 02A8     		add	r0, sp, #8
 1797 097e FFF7FEFF 		bl	mcpwm_foc_hall_detect
 1798              	.LVL172:
 1799 0982 0446     		mov	r4, r0
 1800              	.LVL173:
 1801              		.loc 1 717 0
 1802 0984 4448     		ldr	r0, .L144+20
 1803 0986 FFF7FEFF 		bl	mc_interface_set_configuration
 1804              	.LVL174:
 1805              		.loc 1 720 0
 1806 098a 3F4A     		ldr	r2, .L144+4
 1807              		.loc 1 721 0
 1808 098c 02AB     		add	r3, sp, #8
 1809              		.loc 1 720 0
 1810 098e 1546     		mov	r5, r2
 1811              		.loc 1 721 0
 1812 0990 03CB     		ldmia	r3!, {r0, r1}
 1813              		.loc 1 720 0
 1814 0992 1B23     		movs	r3, #27
 1815 0994 05F8013B 		strb	r3, [r5], #1
 1816              	.LBB117:
 1817              	.LBB115:
 1818              		.loc 1 94 0
 1819 0998 3368     		ldr	r3, [r6]
 1820              	.LBE115:
 1821              	.LBE117:
 1822              		.loc 1 721 0
 1823 099a C2F80100 		str	r0, [r2, #1]	@ unaligned
 1824              		.loc 1 723 0
ARM GAS  /tmp/ccq8Pe5l.s 			page 33


 1825 099e 84F00104 		eor	r4, r4, #1
 1826              	.LVL175:
 1827 09a2 0A26     		movs	r6, #10
 1828              		.loc 1 721 0
 1829 09a4 6960     		str	r1, [r5, #4]	@ unaligned
 1830              		.loc 1 723 0
 1831 09a6 0096     		str	r6, [sp]
 1832 09a8 5472     		strb	r4, [r2, #9]
 1833              	.LVL176:
 1834              	.LBB118:
 1835              	.LBB116:
 1836              		.loc 1 94 0
 1837 09aa 002B     		cmp	r3, #0
 1838 09ac 3FF4EFAC 		beq	.L24
 1839              		.loc 1 95 0
 1840 09b0 1046     		mov	r0, r2
 1841 09b2 3146     		mov	r1, r6
 1842 09b4 9847     		blx	r3
 1843              	.LVL177:
 1844              	.LBE116:
 1845              	.LBE118:
 1846              	.LBE112:
 1847              		.loc 1 727 0
 1848 09b6 EAE4     		b	.L24
 1849              	.LVL178:
 1850              	.L48:
 1851              		.loc 1 693 0
 1852 09b8 2AAD     		add	r5, sp, #168
 1853              	.LVL179:
 1854 09ba 0123     		movs	r3, #1
 1855 09bc 45F8A83D 		str	r3, [r5, #-168]!
 1856 09c0 314C     		ldr	r4, .L144+4
 1857              	.LVL180:
 1858              		.loc 1 694 0
 1859 09c2 9FED3A0A 		flds	s0, .L144+40
 1860 09c6 DFED320A 		flds	s1, .L144+12
 1861              		.loc 1 693 0
 1862 09ca 1A23     		movs	r3, #26
 1863              		.loc 1 694 0
 1864 09cc 2946     		mov	r1, r5
 1865              	.LVL181:
 1866 09ce 2046     		mov	r0, r4
 1867              	.LVL182:
 1868              		.loc 1 693 0
 1869 09d0 2370     		strb	r3, [r4]
 1870              		.loc 1 694 0
 1871 09d2 FFF7FEFF 		bl	buffer_append_float32
 1872              	.LVL183:
 1873              		.loc 1 695 0
 1874 09d6 2046     		mov	r0, r4
 1875 09d8 2946     		mov	r1, r5
 1876 09da 9FED350A 		flds	s0, .L144+44
 1877 09de DFED2C0A 		flds	s1, .L144+12
 1878 09e2 FFF7FEFF 		bl	buffer_append_float32
 1879              	.LVL184:
 1880              	.LBB119:
 1881              	.LBB120:
ARM GAS  /tmp/ccq8Pe5l.s 			page 34


 1882              		.loc 1 94 0
 1883 09e6 274B     		ldr	r3, .L144
 1884              	.LBE120:
 1885              	.LBE119:
 1886              		.loc 1 696 0
 1887 09e8 009A     		ldr	r2, [sp]
 1888              	.LBB123:
 1889              	.LBB121:
 1890              		.loc 1 94 0
 1891 09ea 1B68     		ldr	r3, [r3]
 1892              	.LBE121:
 1893              	.LBE123:
 1894              		.loc 1 696 0
 1895 09ec 0020     		movs	r0, #0
 1896 09ee 511C     		adds	r1, r2, #1
 1897 09f0 A054     		strb	r0, [r4, r2]
 1898              	.LVL185:
 1899 09f2 0091     		str	r1, [sp]
 1900              	.LBB124:
 1901              	.LBB122:
 1902              		.loc 1 94 0
 1903 09f4 002B     		cmp	r3, #0
 1904 09f6 7FF41BAD 		bne	.L127
 1905 09fa C8E4     		b	.L24
 1906              	.LVL186:
 1907              	.L47:
 1908              	.LBE122:
 1909              	.LBE124:
 1910              	.LBB125:
 1911              		.loc 1 646 0
 1912 09fc 6946     		mov	r1, sp
 1913 09fe 2046     		mov	r0, r4
 1914 0a00 9FED260A 		flds	s0, .L144+24
 1915 0a04 FFF7FEFF 		bl	buffer_get_float32
 1916              	.LVL187:
 1917              		.loc 1 647 0
 1918 0a08 2046     		mov	r0, r4
 1919              		.loc 1 646 0
 1920 0a0a B0EE409A 		fcpys	s18, s0
 1921              	.LVL188:
 1922              		.loc 1 647 0
 1923 0a0e 6946     		mov	r1, sp
 1924 0a10 9FED220A 		flds	s0, .L144+24
 1925              	.LVL189:
 1926 0a14 FFF7FEFF 		bl	buffer_get_float32
 1927              	.LVL190:
 1928              		.loc 1 648 0
 1929 0a18 2046     		mov	r0, r4
 1930              		.loc 1 647 0
 1931 0a1a B0EE408A 		fcpys	s16, s0
 1932              	.LVL191:
 1933              		.loc 1 648 0
 1934 0a1e 6946     		mov	r1, sp
 1935 0a20 9FED1E0A 		flds	s0, .L144+24
 1936              	.LVL192:
 1937 0a24 FFF7FEFF 		bl	buffer_get_float32
 1938              	.LVL193:
ARM GAS  /tmp/ccq8Pe5l.s 			page 35


 1939              		.loc 1 649 0
 1940 0a28 2046     		mov	r0, r4
 1941              		.loc 1 648 0
 1942 0a2a F0EE408A 		fcpys	s17, s0
 1943              	.LVL194:
 1944              		.loc 1 649 0
 1945 0a2e 6946     		mov	r1, sp
 1946 0a30 9FED170A 		flds	s0, .L144+12
 1947              	.LVL195:
 1948 0a34 FFF7FEFF 		bl	buffer_get_float32
 1949              	.LVL196:
 1950              		.loc 1 652 0
 1951 0a38 F0EE680A 		fcpys	s1, s17
 1952              		.loc 1 649 0
 1953 0a3c F0EE401A 		fcpys	s3, s0
 1954              	.LVL197:
 1955              		.loc 1 652 0
 1956 0a40 B0EE481A 		fcpys	s2, s16
 1957 0a44 B0EE490A 		fcpys	s0, s18
 1958              	.LVL198:
 1959 0a48 02A8     		add	r0, sp, #8
 1960 0a4a FFF7FEFF 		bl	conf_general_measure_flux_linkage
 1961              	.LVL199:
 1962              		.loc 1 654 0
 1963 0a4e 0028     		cmp	r0, #0
 1964 0a50 41F04680 		bne	.L137
 1965              		.loc 1 655 0
 1966 0a54 DFED167A 		flds	s15, .L144+44
 1967 0a58 B0EE670A 		fcpys	s0, s15
 1968 0a5c CDED027A 		fsts	s15, [sp, #8]
 1969              	.L70:
 1970              		.loc 1 659 0 discriminator 3
 1971 0a60 094C     		ldr	r4, .L144+4
 1972              	.LVL200:
 1973              		.loc 1 660 0 discriminator 3
 1974 0a62 DFED140A 		flds	s1, .L144+48
 1975              		.loc 1 659 0 discriminator 3
 1976 0a66 1922     		movs	r2, #25
 1977 0a68 0123     		movs	r3, #1
 1978              		.loc 1 660 0 discriminator 3
 1979 0a6a 6946     		mov	r1, sp
 1980 0a6c 2046     		mov	r0, r4
 1981              	.LVL201:
 1982              		.loc 1 659 0 discriminator 3
 1983 0a6e 2270     		strb	r2, [r4]
 1984 0a70 0093     		str	r3, [sp]
 1985              	.LVL202:
 1986              	.L133:
 1987              		.loc 1 660 0 discriminator 3
 1988 0a72 FFF7FEFF 		bl	buffer_append_float32
 1989              	.LVL203:
 1990              	.LBB126:
 1991              	.LBB127:
 1992              		.loc 1 94 0 discriminator 3
 1993 0a76 034B     		ldr	r3, .L144
 1994              	.LBE127:
 1995              	.LBE126:
ARM GAS  /tmp/ccq8Pe5l.s 			page 36


 1996              		.loc 1 661 0 discriminator 3
 1997 0a78 0099     		ldr	r1, [sp]
 1998              	.LVL204:
 1999              	.LBB129:
 2000              	.LBB128:
 2001              		.loc 1 94 0 discriminator 3
 2002 0a7a 1B68     		ldr	r3, [r3]
 2003 0a7c 002B     		cmp	r3, #0
 2004 0a7e 7FF4D7AC 		bne	.L127
 2005 0a82 84E4     		b	.L24
 2006              	.L145:
 2007              		.align	2
 2008              	.L144:
 2009 0a84 00000000 		.word	.LANCHOR9
 2010 0a88 00000000 		.word	.LANCHOR8
 2011 0a8c 00000000 		.word	.LANCHOR14
 2012 0a90 00247449 		.word	1232348160
 2013 0a94 00000000 		.word	.LANCHOR11
 2014 0a98 00000000 		.word	.LANCHOR13
 2015 0a9c 00007A44 		.word	1148846080
 2016 0aa0 00401C46 		.word	1176256512
 2017 0aa4 0AD7233C 		.word	1008981770
 2018 0aa8 00002041 		.word	1092616192
 2019 0aac 00407A44 		.word	1148862464
 2020 0ab0 00000000 		.word	0
 2021 0ab4 8096184B 		.word	1259902592
 2022              	.LVL205:
 2023              	.L46:
 2024              	.LBE128:
 2025              	.LBE129:
 2026              	.LBE125:
 2027              	.LBB130:
 2028              		.loc 1 620 0
 2029 0ab8 FFF7FEFF 		bl	mc_interface_get_configuration
 2030              	.LVL206:
 2031 0abc 214C     		ldr	r4, .L146
 2032              	.LVL207:
 2033              		.loc 1 626 0
 2034 0abe 9FED228A 		flds	s16, .L146+4
 2035              		.loc 1 620 0
 2036 0ac2 0146     		mov	r1, r0
 2037 0ac4 4FF49872 		mov	r2, #304
 2038 0ac8 2046     		mov	r0, r4
 2039 0aca FFF7FEFF 		bl	memcpy
 2040              	.LVL208:
 2041              		.loc 1 621 0
 2042 0ace 2146     		mov	r1, r4
 2043 0ad0 4FF49872 		mov	r2, #304
 2044 0ad4 1D48     		ldr	r0, .L146+8
 2045 0ad6 FFF7FEFF 		bl	memcpy
 2046              	.LVL209:
 2047              		.loc 1 623 0
 2048 0ada 0223     		movs	r3, #2
 2049              		.loc 1 624 0
 2050 0adc 2046     		mov	r0, r4
 2051              		.loc 1 623 0
 2052 0ade A370     		strb	r3, [r4, #2]
ARM GAS  /tmp/ccq8Pe5l.s 			page 37


 2053              		.loc 1 624 0
 2054 0ae0 FFF7FEFF 		bl	mc_interface_set_configuration
 2055              	.LVL210:
 2056              		.loc 1 628 0
 2057 0ae4 01A8     		add	r0, sp, #4
 2058 0ae6 02A9     		add	r1, sp, #8
 2059              		.loc 1 626 0
 2060 0ae8 8DED018A 		fsts	s16, [sp, #4]
 2061              		.loc 1 627 0
 2062 0aec 8DED028A 		fsts	s16, [sp, #8]
 2063              		.loc 1 628 0
 2064 0af0 FFF7FEFF 		bl	mcpwm_foc_measure_res_ind
 2065              	.LVL211:
 2066 0af4 0446     		mov	r4, r0
 2067              	.LVL212:
 2068              		.loc 1 629 0
 2069 0af6 1548     		ldr	r0, .L146+8
 2070 0af8 FFF7FEFF 		bl	mc_interface_set_configuration
 2071              	.LVL213:
 2072              		.loc 1 631 0
 2073 0afc 002C     		cmp	r4, #0
 2074 0afe 40F0EB87 		bne	.L138
 2075              		.loc 1 633 0
 2076 0b02 B0EE480A 		fcpys	s0, s16
 2077              		.loc 1 632 0
 2078 0b06 8DED018A 		fsts	s16, [sp, #4]
 2079              		.loc 1 633 0
 2080 0b0a 8DED028A 		fsts	s16, [sp, #8]
 2081              	.L67:
 2082              		.loc 1 637 0 discriminator 2
 2083 0b0e 2AAD     		add	r5, sp, #168
 2084              	.LVL214:
 2085 0b10 0123     		movs	r3, #1
 2086 0b12 45F8A83D 		str	r3, [r5, #-168]!
 2087 0b16 0E4C     		ldr	r4, .L146+12
 2088              	.LVL215:
 2089              		.loc 1 638 0 discriminator 2
 2090 0b18 DFED0E0A 		flds	s1, .L146+16
 2091 0b1c 2946     		mov	r1, r5
 2092              		.loc 1 637 0 discriminator 2
 2093 0b1e 1823     		movs	r3, #24
 2094              		.loc 1 638 0 discriminator 2
 2095 0b20 2046     		mov	r0, r4
 2096              		.loc 1 637 0 discriminator 2
 2097 0b22 2370     		strb	r3, [r4]
 2098              		.loc 1 638 0 discriminator 2
 2099 0b24 FFF7FEFF 		bl	buffer_append_float32
 2100              	.LVL216:
 2101              		.loc 1 639 0 discriminator 2
 2102 0b28 2046     		mov	r0, r4
 2103 0b2a 2946     		mov	r1, r5
 2104 0b2c 9DED020A 		flds	s0, [sp, #8]
 2105 0b30 DFED090A 		flds	s1, .L146+20
 2106 0b34 9DE7     		b	.L133
 2107              	.LVL217:
 2108              	.L44:
 2109              	.LBE130:
ARM GAS  /tmp/ccq8Pe5l.s 			page 38


 2110              		.loc 1 606 0
 2111 0b36 0023     		movs	r3, #0
 2112 0b38 6355     		strb	r3, [r4, r5]
 2113              		.loc 1 607 0
 2114 0b3a 2046     		mov	r0, r4
 2115 0b3c FFF7FEFF 		bl	terminal_process_string
 2116              	.LVL218:
 2117              		.loc 1 608 0
 2118 0b40 25E4     		b	.L24
 2119              	.L147:
 2120 0b42 00BF     		.align	2
 2121              	.L146:
 2122 0b44 00000000 		.word	.LANCHOR11
 2123 0b48 00000000 		.word	0
 2124 0b4c 00000000 		.word	.LANCHOR13
 2125 0b50 00000000 		.word	.LANCHOR8
 2126 0b54 00247449 		.word	1232348160
 2127 0b58 00007A44 		.word	1148846080
 2128              	.L40:
 2129              		.loc 1 354 0
 2130 0b5c B8F10D0F 		cmp	r8, #13
 2131 0b60 00F0CF87 		beq	.L139
 2132              		.loc 1 357 0
 2133 0b64 F548     		ldr	r0, .L148
 2134 0b66 FFF7FEFF 		bl	conf_general_get_default_mc_configuration
 2135              	.LVL219:
 2136              	.L63:
 2137              		.loc 1 363 0
 2138 0b6a F44D     		ldr	r5, .L148
 2139              	.LVL220:
 2140              		.loc 1 368 0
 2141 0b6c 9FEDF48A 		flds	s16, .L148+4
 2142 0b70 D5ED017A 		flds	s15, [r5, #4]
 2143              		.loc 1 361 0
 2144 0b74 F34C     		ldr	r4, .L148+8
 2145              	.LVL221:
 2146              		.loc 1 363 0
 2147 0b76 2A78     		ldrb	r2, [r5]	@ zero_extendqisi2
 2148 0b78 6270     		strb	r2, [r4, #1]
 2149              		.loc 1 366 0
 2150 0b7a 2AAE     		add	r6, sp, #168
 2151              		.loc 1 368 0
 2152 0b7c 67EE887A 		fmuls	s15, s15, s16
 2153              		.loc 1 366 0
 2154 0b80 0522     		movs	r2, #5
 2155 0b82 46F8A82D 		str	r2, [r6, #-168]!
 2156              		.loc 1 368 0
 2157 0b86 FDEEE77A 		ftosizs	s15, s15
 2158              		.loc 1 364 0
 2159 0b8a 95F801E0 		ldrb	lr, [r5, #1]	@ zero_extendqisi2
 2160              		.loc 1 366 0
 2161 0b8e EB78     		ldrb	r3, [r5, #3]	@ zero_extendqisi2
 2162              		.loc 1 365 0
 2163 0b90 AF78     		ldrb	r7, [r5, #2]	@ zero_extendqisi2
 2164              	.LVL222:
 2165              		.loc 1 364 0
 2166 0b92 84F802E0 		strb	lr, [r4, #2]
ARM GAS  /tmp/ccq8Pe5l.s 			page 39


 2167              		.loc 1 368 0
 2168 0b96 17EE901A 		fmrs	r1, s15	@ int
 2169 0b9a 3246     		mov	r2, r6
 2170 0b9c 2046     		mov	r0, r4
 2171              		.loc 1 366 0
 2172 0b9e 2371     		strb	r3, [r4, #4]
 2173              		.loc 1 365 0
 2174 0ba0 E770     		strb	r7, [r4, #3]
 2175              		.loc 1 361 0
 2176 0ba2 84F80080 		strb	r8, [r4]
 2177              		.loc 1 368 0
 2178 0ba6 FFF7FEFF 		bl	buffer_append_int32
 2179              	.LVL223:
 2180              		.loc 1 369 0
 2181 0baa D5ED027A 		flds	s15, [r5, #8]
 2182              		.loc 1 387 0
 2183 0bae DFEDE68A 		flds	s17, .L148+12
 2184              		.loc 1 369 0
 2185 0bb2 67EE887A 		fmuls	s15, s15, s16
 2186 0bb6 3246     		mov	r2, r6
 2187 0bb8 FDEEE77A 		ftosizs	s15, s15
 2188 0bbc 2046     		mov	r0, r4
 2189 0bbe 17EE901A 		fmrs	r1, s15	@ int
 2190 0bc2 FFF7FEFF 		bl	buffer_append_int32
 2191              	.LVL224:
 2192              		.loc 1 370 0
 2193 0bc6 D5ED037A 		flds	s15, [r5, #12]
 2194 0bca 67EE887A 		fmuls	s15, s15, s16
 2195 0bce 3246     		mov	r2, r6
 2196 0bd0 FDEEE77A 		ftosizs	s15, s15
 2197 0bd4 2046     		mov	r0, r4
 2198 0bd6 17EE901A 		fmrs	r1, s15	@ int
 2199 0bda FFF7FEFF 		bl	buffer_append_int32
 2200              	.LVL225:
 2201              		.loc 1 371 0
 2202 0bde D5ED047A 		flds	s15, [r5, #16]
 2203 0be2 67EE887A 		fmuls	s15, s15, s16
 2204 0be6 3246     		mov	r2, r6
 2205 0be8 FDEEE77A 		ftosizs	s15, s15
 2206 0bec 2046     		mov	r0, r4
 2207 0bee 17EE901A 		fmrs	r1, s15	@ int
 2208 0bf2 FFF7FEFF 		bl	buffer_append_int32
 2209              	.LVL226:
 2210              		.loc 1 372 0
 2211 0bf6 D5ED057A 		flds	s15, [r5, #20]
 2212 0bfa 67EE887A 		fmuls	s15, s15, s16
 2213 0bfe 3246     		mov	r2, r6
 2214 0c00 FDEEE77A 		ftosizs	s15, s15
 2215 0c04 2046     		mov	r0, r4
 2216 0c06 17EE901A 		fmrs	r1, s15	@ int
 2217 0c0a FFF7FEFF 		bl	buffer_append_int32
 2218              	.LVL227:
 2219              		.loc 1 373 0
 2220 0c0e D5ED067A 		flds	s15, [r5, #24]
 2221 0c12 67EE887A 		fmuls	s15, s15, s16
 2222 0c16 3246     		mov	r2, r6
 2223 0c18 FDEEE77A 		ftosizs	s15, s15
ARM GAS  /tmp/ccq8Pe5l.s 			page 40


 2224 0c1c 2046     		mov	r0, r4
 2225 0c1e 17EE901A 		fmrs	r1, s15	@ int
 2226 0c22 FFF7FEFF 		bl	buffer_append_int32
 2227              	.LVL228:
 2228              		.loc 1 374 0
 2229 0c26 D5ED077A 		flds	s15, [r5, #28]
 2230 0c2a 67EE887A 		fmuls	s15, s15, s16
 2231 0c2e 3246     		mov	r2, r6
 2232 0c30 FDEEE77A 		ftosizs	s15, s15
 2233 0c34 2046     		mov	r0, r4
 2234 0c36 17EE901A 		fmrs	r1, s15	@ int
 2235 0c3a FFF7FEFF 		bl	buffer_append_int32
 2236              	.LVL229:
 2237              		.loc 1 375 0
 2238 0c3e D5ED087A 		flds	s15, [r5, #32]
 2239 0c42 67EE887A 		fmuls	s15, s15, s16
 2240 0c46 3246     		mov	r2, r6
 2241 0c48 FDEEE77A 		ftosizs	s15, s15
 2242 0c4c 2046     		mov	r0, r4
 2243 0c4e 17EE901A 		fmrs	r1, s15	@ int
 2244 0c52 FFF7FEFF 		bl	buffer_append_int32
 2245              	.LVL230:
 2246              		.loc 1 376 0
 2247 0c56 D5ED097A 		flds	s15, [r5, #36]
 2248 0c5a 67EE887A 		fmuls	s15, s15, s16
 2249 0c5e 3246     		mov	r2, r6
 2250 0c60 FDEEE77A 		ftosizs	s15, s15
 2251 0c64 2046     		mov	r0, r4
 2252 0c66 17EE901A 		fmrs	r1, s15	@ int
 2253 0c6a FFF7FEFF 		bl	buffer_append_int32
 2254              	.LVL231:
 2255              		.loc 1 377 0
 2256 0c6e D5ED0A7A 		flds	s15, [r5, #40]
 2257 0c72 67EE887A 		fmuls	s15, s15, s16
 2258 0c76 3246     		mov	r2, r6
 2259 0c78 FDEEE77A 		ftosizs	s15, s15
 2260 0c7c 2046     		mov	r0, r4
 2261 0c7e 17EE901A 		fmrs	r1, s15	@ int
 2262 0c82 FFF7FEFF 		bl	buffer_append_int32
 2263              	.LVL232:
 2264              		.loc 1 378 0
 2265 0c86 D5ED0B7A 		flds	s15, [r5, #44]
 2266 0c8a 67EE887A 		fmuls	s15, s15, s16
 2267 0c8e 3246     		mov	r2, r6
 2268 0c90 FDEEE77A 		ftosizs	s15, s15
 2269 0c94 2046     		mov	r0, r4
 2270 0c96 17EE901A 		fmrs	r1, s15	@ int
 2271 0c9a FFF7FEFF 		bl	buffer_append_int32
 2272              	.LVL233:
 2273              		.loc 1 379 0
 2274 0c9e F0EE480A 		fcpys	s1, s16
 2275 0ca2 2046     		mov	r0, r4
 2276 0ca4 3146     		mov	r1, r6
 2277 0ca6 95ED0C0A 		flds	s0, [r5, #48]
 2278 0caa FFF7FEFF 		bl	buffer_append_float32
 2279              	.LVL234:
 2280              		.loc 1 380 0
ARM GAS  /tmp/ccq8Pe5l.s 			page 41


 2281 0cae F0EE480A 		fcpys	s1, s16
 2282 0cb2 95ED0D0A 		flds	s0, [r5, #52]
 2283 0cb6 2046     		mov	r0, r4
 2284 0cb8 3146     		mov	r1, r6
 2285 0cba FFF7FEFF 		bl	buffer_append_float32
 2286              	.LVL235:
 2287              		.loc 1 383 0
 2288 0cbe D5ED0F7A 		flds	s15, [r5, #60]
 2289              		.loc 1 381 0
 2290 0cc2 009B     		ldr	r3, [sp]
 2291 0cc4 95F83820 		ldrb	r2, [r5, #56]	@ zero_extendqisi2
 2292              		.loc 1 382 0
 2293 0cc8 95F839E0 		ldrb	lr, [r5, #57]	@ zero_extendqisi2
 2294              		.loc 1 381 0
 2295 0ccc E254     		strb	r2, [r4, r3]
 2296              		.loc 1 383 0
 2297 0cce 67EE887A 		fmuls	s15, s15, s16
 2298              		.loc 1 382 0
 2299 0cd2 E718     		adds	r7, r4, r3
 2300              		.loc 1 383 0
 2301 0cd4 FDEEE77A 		ftosizs	s15, s15
 2302              		.loc 1 382 0
 2303 0cd8 0233     		adds	r3, r3, #2
 2304              		.loc 1 383 0
 2305 0cda 17EE901A 		fmrs	r1, s15	@ int
 2306 0cde 3246     		mov	r2, r6
 2307 0ce0 2046     		mov	r0, r4
 2308              		.loc 1 382 0
 2309 0ce2 87F801E0 		strb	lr, [r7, #1]
 2310 0ce6 0093     		str	r3, [sp]
 2311              		.loc 1 383 0
 2312 0ce8 FFF7FEFF 		bl	buffer_append_int32
 2313              	.LVL236:
 2314              		.loc 1 384 0
 2315 0cec D5ED107A 		flds	s15, [r5, #64]
 2316 0cf0 67EE887A 		fmuls	s15, s15, s16
 2317 0cf4 3246     		mov	r2, r6
 2318 0cf6 FDEEE77A 		ftosizs	s15, s15
 2319 0cfa 2046     		mov	r0, r4
 2320 0cfc 17EE901A 		fmrs	r1, s15	@ int
 2321 0d00 FFF7FEFF 		bl	buffer_append_int32
 2322              	.LVL237:
 2323              		.loc 1 385 0
 2324 0d04 D5ED117A 		flds	s15, [r5, #68]
 2325 0d08 67EE887A 		fmuls	s15, s15, s16
 2326 0d0c 3246     		mov	r2, r6
 2327 0d0e FDEEE77A 		ftosizs	s15, s15
 2328 0d12 2046     		mov	r0, r4
 2329 0d14 17EE901A 		fmrs	r1, s15	@ int
 2330 0d18 FFF7FEFF 		bl	buffer_append_int32
 2331              	.LVL238:
 2332              		.loc 1 386 0
 2333 0d1c D5ED127A 		flds	s15, [r5, #72]
 2334 0d20 67EE887A 		fmuls	s15, s15, s16
 2335 0d24 3246     		mov	r2, r6
 2336 0d26 FDEEE77A 		ftosizs	s15, s15
 2337 0d2a 2046     		mov	r0, r4
ARM GAS  /tmp/ccq8Pe5l.s 			page 42


 2338 0d2c 17EE901A 		fmrs	r1, s15	@ int
 2339 0d30 FFF7FEFF 		bl	buffer_append_int32
 2340              	.LVL239:
 2341              		.loc 1 387 0
 2342 0d34 D5ED137A 		flds	s15, [r5, #76]
 2343 0d38 67EEA87A 		fmuls	s15, s15, s17
 2344 0d3c 3246     		mov	r2, r6
 2345 0d3e FDEEE77A 		ftosizs	s15, s15
 2346 0d42 2046     		mov	r0, r4
 2347 0d44 17EE901A 		fmrs	r1, s15	@ int
 2348 0d48 FFF7FEFF 		bl	buffer_append_int32
 2349              	.LVL240:
 2350              		.loc 1 388 0
 2351 0d4c D5ED147A 		flds	s15, [r5, #80]
 2352 0d50 67EEA87A 		fmuls	s15, s15, s17
 2353 0d54 3246     		mov	r2, r6
 2354 0d56 FDEEE77A 		ftosizs	s15, s15
 2355 0d5a 2046     		mov	r0, r4
 2356 0d5c 17EE901A 		fmrs	r1, s15	@ int
 2357 0d60 FFF7FEFF 		bl	buffer_append_int32
 2358              	.LVL241:
 2359              		.loc 1 390 0
 2360 0d64 D5ED197A 		flds	s15, [r5, #100]
 2361 0d68 67EE887A 		fmuls	s15, s15, s16
 2362 0d6c 3246     		mov	r2, r6
 2363 0d6e FDEEE77A 		ftosizs	s15, s15
 2364 0d72 2046     		mov	r0, r4
 2365 0d74 17EE901A 		fmrs	r1, s15	@ int
 2366 0d78 FFF7FEFF 		bl	buffer_append_int32
 2367              	.LVL242:
 2368              		.loc 1 391 0
 2369 0d7c D5ED1A7A 		flds	s15, [r5, #104]
 2370 0d80 67EE887A 		fmuls	s15, s15, s16
 2371 0d84 3246     		mov	r2, r6
 2372 0d86 FDEEE77A 		ftosizs	s15, s15
 2373 0d8a 2046     		mov	r0, r4
 2374 0d8c 17EE901A 		fmrs	r1, s15	@ int
 2375 0d90 FFF7FEFF 		bl	buffer_append_int32
 2376              	.LVL243:
 2377              		.loc 1 392 0
 2378 0d94 D5ED1B7A 		flds	s15, [r5, #108]
 2379 0d98 67EE887A 		fmuls	s15, s15, s16
 2380 0d9c 3246     		mov	r2, r6
 2381 0d9e FDEEE77A 		ftosizs	s15, s15
 2382 0da2 2046     		mov	r0, r4
 2383 0da4 17EE901A 		fmrs	r1, s15	@ int
 2384 0da8 FFF7FEFF 		bl	buffer_append_int32
 2385              	.LVL244:
 2386              		.loc 1 393 0
 2387 0dac D5ED1C7A 		flds	s15, [r5, #112]
 2388 0db0 67EE887A 		fmuls	s15, s15, s16
 2389 0db4 3246     		mov	r2, r6
 2390 0db6 FDEEE77A 		ftosizs	s15, s15
 2391 0dba 2046     		mov	r0, r4
 2392 0dbc 17EE901A 		fmrs	r1, s15	@ int
 2393 0dc0 FFF7FEFF 		bl	buffer_append_int32
 2394              	.LVL245:
ARM GAS  /tmp/ccq8Pe5l.s 			page 43


 2395              		.loc 1 394 0
 2396 0dc4 D5ED1D7A 		flds	s15, [r5, #116]
 2397 0dc8 67EE887A 		fmuls	s15, s15, s16
 2398 0dcc 3246     		mov	r2, r6
 2399 0dce FDEEE77A 		ftosizs	s15, s15
 2400 0dd2 2046     		mov	r0, r4
 2401 0dd4 17EE901A 		fmrs	r1, s15	@ int
 2402 0dd8 FFF7FEFF 		bl	buffer_append_int32
 2403              	.LVL246:
 2404              		.loc 1 395 0
 2405 0ddc D5ED1E7A 		flds	s15, [r5, #120]
 2406 0de0 67EE887A 		fmuls	s15, s15, s16
 2407 0de4 3246     		mov	r2, r6
 2408 0de6 FDEEE77A 		ftosizs	s15, s15
 2409 0dea 2046     		mov	r0, r4
 2410 0dec 17EE901A 		fmrs	r1, s15	@ int
 2411 0df0 FFF7FEFF 		bl	buffer_append_int32
 2412              	.LVL247:
 2413              		.loc 1 396 0
 2414 0df4 D5ED1F7A 		flds	s15, [r5, #124]
 2415 0df8 67EE887A 		fmuls	s15, s15, s16
 2416 0dfc 3246     		mov	r2, r6
 2417 0dfe FDEEE77A 		ftosizs	s15, s15
 2418 0e02 2046     		mov	r0, r4
 2419 0e04 17EE901A 		fmrs	r1, s15	@ int
 2420 0e08 FFF7FEFF 		bl	buffer_append_int32
 2421              	.LVL248:
 2422              		.loc 1 400 0
 2423 0e0c D5ED227A 		flds	s15, [r5, #136]
 2424              		.loc 1 398 0
 2425 0e10 009B     		ldr	r3, [sp]
 2426              		.loc 1 400 0
 2427 0e12 67EE887A 		fmuls	s15, s15, s16
 2428              		.loc 1 398 0
 2429 0e16 05F18002 		add	r2, r5, #128
 2430 0e1a 03CA     		ldmia	r2!, {r0, r1}
 2431              		.loc 1 400 0
 2432 0e1c FDEEE77A 		ftosizs	s15, s15
 2433              		.loc 1 398 0
 2434 0e20 E218     		adds	r2, r4, r3
 2435 0e22 E050     		str	r0, [r4, r3]	@ unaligned
 2436              		.loc 1 399 0
 2437 0e24 0833     		adds	r3, r3, #8
 2438              		.loc 1 398 0
 2439 0e26 5160     		str	r1, [r2, #4]	@ unaligned
 2440              		.loc 1 400 0
 2441 0e28 2046     		mov	r0, r4
 2442 0e2a 17EE901A 		fmrs	r1, s15	@ int
 2443 0e2e 3246     		mov	r2, r6
 2444              		.loc 1 399 0
 2445 0e30 0093     		str	r3, [sp]
 2446              		.loc 1 400 0
 2447 0e32 FFF7FEFF 		bl	buffer_append_int32
 2448              	.LVL249:
 2449              		.loc 1 402 0
 2450 0e36 2046     		mov	r0, r4
 2451 0e38 3146     		mov	r1, r6
ARM GAS  /tmp/ccq8Pe5l.s 			page 44


 2452 0e3a 95ED230A 		flds	s0, [r5, #140]
 2453 0e3e DFED440A 		flds	s1, .L148+20
 2454 0e42 FFF7FEFF 		bl	buffer_append_float32
 2455              	.LVL250:
 2456              		.loc 1 403 0
 2457 0e46 2046     		mov	r0, r4
 2458 0e48 3146     		mov	r1, r6
 2459 0e4a 95ED240A 		flds	s0, [r5, #144]
 2460 0e4e DFED400A 		flds	s1, .L148+20
 2461 0e52 FFF7FEFF 		bl	buffer_append_float32
 2462              	.LVL251:
 2463              		.loc 1 404 0
 2464 0e56 F0EE480A 		fcpys	s1, s16
 2465 0e5a 2046     		mov	r0, r4
 2466 0e5c 3146     		mov	r1, r6
 2467 0e5e 95ED250A 		flds	s0, [r5, #148]
 2468 0e62 FFF7FEFF 		bl	buffer_append_float32
 2469              	.LVL252:
 2470              		.loc 1 405 0
 2471 0e66 2046     		mov	r0, r4
 2472 0e68 3146     		mov	r1, r6
 2473 0e6a 95ED260A 		flds	s0, [r5, #152]
 2474 0e6e F0EE680A 		fcpys	s1, s17
 2475 0e72 FFF7FEFF 		bl	buffer_append_float32
 2476              	.LVL253:
 2477              		.loc 1 406 0
 2478 0e76 009B     		ldr	r3, [sp]
 2479 0e78 95F8A020 		ldrb	r2, [r5, #160]	@ zero_extendqisi2
 2480 0e7c E254     		strb	r2, [r4, r3]
 2481              		.loc 1 407 0
 2482 0e7e F0EE480A 		fcpys	s1, s16
 2483              		.loc 1 406 0
 2484 0e82 0133     		adds	r3, r3, #1
 2485              		.loc 1 407 0
 2486 0e84 95ED270A 		flds	s0, [r5, #156]
 2487              		.loc 1 406 0
 2488 0e88 0093     		str	r3, [sp]
 2489              		.loc 1 407 0
 2490 0e8a 3146     		mov	r1, r6
 2491 0e8c 2046     		mov	r0, r4
 2492 0e8e FFF7FEFF 		bl	buffer_append_float32
 2493              	.LVL254:
 2494              		.loc 1 408 0
 2495 0e92 F0EE480A 		fcpys	s1, s16
 2496 0e96 2046     		mov	r0, r4
 2497 0e98 3146     		mov	r1, r6
 2498 0e9a 95ED290A 		flds	s0, [r5, #164]
 2499 0e9e FFF7FEFF 		bl	buffer_append_float32
 2500              	.LVL255:
 2501              		.loc 1 409 0
 2502 0ea2 009B     		ldr	r3, [sp]
 2503 0ea4 95F8DC20 		ldrb	r2, [r5, #220]	@ zero_extendqisi2
 2504 0ea8 E254     		strb	r2, [r4, r3]
 2505              		.loc 1 410 0
 2506 0eaa F0EE480A 		fcpys	s1, s16
 2507              		.loc 1 409 0
 2508 0eae 0133     		adds	r3, r3, #1
ARM GAS  /tmp/ccq8Pe5l.s 			page 45


 2509              		.loc 1 410 0
 2510 0eb0 95ED2E0A 		flds	s0, [r5, #184]
 2511              		.loc 1 409 0
 2512 0eb4 0093     		str	r3, [sp]
 2513              		.loc 1 410 0
 2514 0eb6 3146     		mov	r1, r6
 2515 0eb8 2046     		mov	r0, r4
 2516 0eba FFF7FEFF 		bl	buffer_append_float32
 2517              	.LVL256:
 2518              		.loc 1 411 0
 2519 0ebe F0EE480A 		fcpys	s1, s16
 2520 0ec2 2046     		mov	r0, r4
 2521 0ec4 3146     		mov	r1, r6
 2522 0ec6 95ED2F0A 		flds	s0, [r5, #188]
 2523 0eca FFF7FEFF 		bl	buffer_append_float32
 2524              	.LVL257:
 2525              		.loc 1 412 0
 2526 0ece 2046     		mov	r0, r4
 2527 0ed0 3146     		mov	r1, r6
 2528 0ed2 95ED2A0A 		flds	s0, [r5, #168]
 2529 0ed6 DFED1D0A 		flds	s1, .L148+16
 2530 0eda FFF7FEFF 		bl	buffer_append_float32
 2531              	.LVL258:
 2532              		.loc 1 413 0
 2533 0ede 2046     		mov	r0, r4
 2534 0ee0 3146     		mov	r1, r6
 2535 0ee2 95ED2B0A 		flds	s0, [r5, #172]
 2536 0ee6 DFED1A0A 		flds	s1, .L148+20
 2537 0eea FFF7FEFF 		bl	buffer_append_float32
 2538              	.LVL259:
 2539              		.loc 1 414 0
 2540 0eee 2046     		mov	r0, r4
 2541 0ef0 3146     		mov	r1, r6
 2542 0ef2 95ED2C0A 		flds	s0, [r5, #176]
 2543 0ef6 DFED160A 		flds	s1, .L148+20
 2544 0efa FFF7FEFF 		bl	buffer_append_float32
 2545              	.LVL260:
 2546              		.loc 1 415 0
 2547 0efe 2046     		mov	r0, r4
 2548 0f00 3146     		mov	r1, r6
 2549 0f02 95ED2D0A 		flds	s0, [r5, #180]
 2550 0f06 F7EE000A 		fconsts	s1, #112
 2551 0f0a FFF7FEFF 		bl	buffer_append_float32
 2552              	.LVL261:
 2553              		.loc 1 416 0
 2554 0f0e F0EE480A 		fcpys	s1, s16
 2555 0f12 2046     		mov	r0, r4
 2556 0f14 3146     		mov	r1, r6
 2557 0f16 95ED300A 		flds	s0, [r5, #192]
 2558 0f1a FFF7FEFF 		bl	buffer_append_float32
 2559              	.LVL262:
 2560              		.loc 1 417 0
 2561 0f1e F0EE480A 		fcpys	s1, s16
 2562 0f22 2046     		mov	r0, r4
 2563 0f24 3146     		mov	r1, r6
 2564 0f26 95ED310A 		flds	s0, [r5, #196]
 2565 0f2a FFF7FEFF 		bl	buffer_append_float32
ARM GAS  /tmp/ccq8Pe5l.s 			page 46


 2566              	.LVL263:
 2567              		.loc 1 418 0
 2568 0f2e F0EE480A 		fcpys	s1, s16
 2569 0f32 2046     		mov	r0, r4
 2570 0f34 3146     		mov	r1, r6
 2571 0f36 95ED320A 		flds	s0, [r5, #200]
 2572 0f3a 0BE0     		b	.L149
 2573              	.L150:
 2574              		.align	2
 2575              	.L148:
 2576 0f3c 00000000 		.word	.LANCHOR11
 2577 0f40 00007A44 		.word	1148846080
 2578 0f44 00000000 		.word	.LANCHOR8
 2579 0f48 00247449 		.word	1232348160
 2580 0f4c 20BCBE4C 		.word	1287568416
 2581 0f50 0050C347 		.word	1203982336
 2582              	.L149:
 2583 0f54 FFF7FEFF 		bl	buffer_append_float32
 2584              	.LVL264:
 2585              		.loc 1 419 0
 2586 0f58 F0EE480A 		fcpys	s1, s16
 2587 0f5c 2046     		mov	r0, r4
 2588 0f5e 3146     		mov	r1, r6
 2589 0f60 95ED330A 		flds	s0, [r5, #204]
 2590 0f64 FFF7FEFF 		bl	buffer_append_float32
 2591              	.LVL265:
 2592              		.loc 1 420 0
 2593 0f68 F0EE480A 		fcpys	s1, s16
 2594 0f6c 2046     		mov	r0, r4
 2595 0f6e 3146     		mov	r1, r6
 2596 0f70 95ED340A 		flds	s0, [r5, #208]
 2597 0f74 FFF7FEFF 		bl	buffer_append_float32
 2598              	.LVL266:
 2599              		.loc 1 421 0
 2600 0f78 F0EE480A 		fcpys	s1, s16
 2601 0f7c 2046     		mov	r0, r4
 2602 0f7e 3146     		mov	r1, r6
 2603 0f80 95ED350A 		flds	s0, [r5, #212]
 2604 0f84 FFF7FEFF 		bl	buffer_append_float32
 2605              	.LVL267:
 2606              		.loc 1 422 0
 2607 0f88 F0EE480A 		fcpys	s1, s16
 2608 0f8c 95ED360A 		flds	s0, [r5, #216]
 2609 0f90 2046     		mov	r0, r4
 2610 0f92 3146     		mov	r1, r6
 2611 0f94 FFF7FEFF 		bl	buffer_append_float32
 2612              	.LVL268:
 2613              		.loc 1 425 0
 2614 0f98 D5ED3A7A 		flds	s15, [r5, #232]
 2615              		.loc 1 423 0
 2616 0f9c 009B     		ldr	r3, [sp]
 2617 0f9e 2A46     		mov	r2, r5
 2618              		.loc 1 425 0
 2619 0fa0 67EE887A 		fmuls	s15, s15, s16
 2620              		.loc 1 423 0
 2621 0fa4 52F8DD1F 		ldr	r1, [r2, #221]!	@ unaligned
 2622 0fa8 E150     		str	r1, [r4, r3]	@ unaligned
ARM GAS  /tmp/ccq8Pe5l.s 			page 47


 2623              		.loc 1 425 0
 2624 0faa FDEEE77A 		ftosizs	s15, s15
 2625              		.loc 1 423 0
 2626 0fae E118     		adds	r1, r4, r3
 2627 0fb0 5268     		ldr	r2, [r2, #4]	@ unaligned
 2628 0fb2 4A60     		str	r2, [r1, #4]	@ unaligned
 2629              		.loc 1 424 0
 2630 0fb4 0833     		adds	r3, r3, #8
 2631              		.loc 1 425 0
 2632 0fb6 17EE901A 		fmrs	r1, s15	@ int
 2633 0fba 3246     		mov	r2, r6
 2634 0fbc 2046     		mov	r0, r4
 2635              		.loc 1 424 0
 2636 0fbe 0093     		str	r3, [sp]
 2637              		.loc 1 425 0
 2638 0fc0 FFF7FEFF 		bl	buffer_append_int32
 2639              	.LVL269:
 2640              		.loc 1 427 0
 2641 0fc4 D5ED3B7A 		flds	s15, [r5, #236]
 2642 0fc8 67EEA87A 		fmuls	s15, s15, s17
 2643 0fcc 3246     		mov	r2, r6
 2644 0fce FDEEE77A 		ftosizs	s15, s15
 2645 0fd2 2046     		mov	r0, r4
 2646 0fd4 17EE901A 		fmrs	r1, s15	@ int
 2647 0fd8 FFF7FEFF 		bl	buffer_append_int32
 2648              	.LVL270:
 2649              		.loc 1 428 0
 2650 0fdc D5ED3C7A 		flds	s15, [r5, #240]
 2651 0fe0 67EEA87A 		fmuls	s15, s15, s17
 2652 0fe4 3246     		mov	r2, r6
 2653 0fe6 FDEEE77A 		ftosizs	s15, s15
 2654 0fea 2046     		mov	r0, r4
 2655 0fec 17EE901A 		fmrs	r1, s15	@ int
 2656 0ff0 FFF7FEFF 		bl	buffer_append_int32
 2657              	.LVL271:
 2658              		.loc 1 429 0
 2659 0ff4 D5ED3D7A 		flds	s15, [r5, #244]
 2660 0ff8 67EEA87A 		fmuls	s15, s15, s17
 2661 0ffc 3246     		mov	r2, r6
 2662 0ffe FDEEE77A 		ftosizs	s15, s15
 2663 1002 2046     		mov	r0, r4
 2664 1004 17EE901A 		fmrs	r1, s15	@ int
 2665 1008 FFF7FEFF 		bl	buffer_append_int32
 2666              	.LVL272:
 2667              		.loc 1 430 0
 2668 100c D5ED3E7A 		flds	s15, [r5, #248]
 2669 1010 67EE887A 		fmuls	s15, s15, s16
 2670 1014 3246     		mov	r2, r6
 2671 1016 FDEEE77A 		ftosizs	s15, s15
 2672 101a 2046     		mov	r0, r4
 2673 101c 17EE901A 		fmrs	r1, s15	@ int
 2674 1020 FFF7FEFF 		bl	buffer_append_int32
 2675              	.LVL273:
 2676              		.loc 1 432 0
 2677 1024 D5ED3F7A 		flds	s15, [r5, #252]
 2678 1028 67EEA87A 		fmuls	s15, s15, s17
 2679 102c 3246     		mov	r2, r6
ARM GAS  /tmp/ccq8Pe5l.s 			page 48


 2680 102e FDEEE77A 		ftosizs	s15, s15
 2681 1032 2046     		mov	r0, r4
 2682 1034 17EE901A 		fmrs	r1, s15	@ int
 2683 1038 FFF7FEFF 		bl	buffer_append_int32
 2684              	.LVL274:
 2685              		.loc 1 433 0
 2686 103c D5ED407A 		flds	s15, [r5, #256]
 2687 1040 67EEA87A 		fmuls	s15, s15, s17
 2688 1044 3246     		mov	r2, r6
 2689 1046 FDEEE77A 		ftosizs	s15, s15
 2690 104a 2046     		mov	r0, r4
 2691 104c 17EE901A 		fmrs	r1, s15	@ int
 2692 1050 FFF7FEFF 		bl	buffer_append_int32
 2693              	.LVL275:
 2694              		.loc 1 434 0
 2695 1054 D5ED417A 		flds	s15, [r5, #260]
 2696 1058 67EEA87A 		fmuls	s15, s15, s17
 2697 105c 3246     		mov	r2, r6
 2698 105e FDEEE77A 		ftosizs	s15, s15
 2699 1062 2046     		mov	r0, r4
 2700 1064 17EE901A 		fmrs	r1, s15	@ int
 2701 1068 FFF7FEFF 		bl	buffer_append_int32
 2702              	.LVL276:
 2703              		.loc 1 435 0
 2704 106c 95ED420A 		flds	s0, [r5, #264]
 2705 1070 5FED490A 		flds	s1, .L148+20
 2706 1074 2046     		mov	r0, r4
 2707 1076 3146     		mov	r1, r6
 2708 1078 FFF7FEFF 		bl	buffer_append_float32
 2709              	.LVL277:
 2710              		.loc 1 437 0
 2711 107c D5ED437A 		flds	s15, [r5, #268]
 2712 1080 67EEA87A 		fmuls	s15, s15, s17
 2713 1084 3246     		mov	r2, r6
 2714 1086 FDEEE77A 		ftosizs	s15, s15
 2715 108a 2046     		mov	r0, r4
 2716 108c 17EE901A 		fmrs	r1, s15	@ int
 2717 1090 FFF7FEFF 		bl	buffer_append_int32
 2718              	.LVL278:
 2719              		.loc 1 438 0
 2720 1094 D5ED447A 		flds	s15, [r5, #272]
 2721 1098 27EE888A 		fmuls	s16, s15, s16
 2722 109c 3246     		mov	r2, r6
 2723 109e FDEEC87A 		ftosizs	s15, s16
 2724 10a2 2046     		mov	r0, r4
 2725 10a4 17EE901A 		fmrs	r1, s15	@ int
 2726 10a8 FFF7FEFF 		bl	buffer_append_int32
 2727              	.LVL279:
 2728              		.loc 1 439 0
 2729 10ac D5ED457A 		flds	s15, [r5, #276]
 2730 10b0 67EEA87A 		fmuls	s15, s15, s17
 2731 10b4 3246     		mov	r2, r6
 2732 10b6 FDEEE77A 		ftosizs	s15, s15
 2733 10ba 2046     		mov	r0, r4
 2734 10bc 17EE901A 		fmrs	r1, s15	@ int
 2735 10c0 FFF7FEFF 		bl	buffer_append_int32
 2736              	.LVL280:
ARM GAS  /tmp/ccq8Pe5l.s 			page 49


 2737              		.loc 1 440 0
 2738 10c4 D5ED467A 		flds	s15, [r5, #280]
 2739 10c8 67EEA87A 		fmuls	s15, s15, s17
 2740 10cc 3246     		mov	r2, r6
 2741 10ce FDEEE77A 		ftosizs	s15, s15
 2742 10d2 2046     		mov	r0, r4
 2743 10d4 17EE901A 		fmrs	r1, s15	@ int
 2744 10d8 FFF7FEFF 		bl	buffer_append_int32
 2745              	.LVL281:
 2746              		.loc 1 442 0
 2747 10dc 3246     		mov	r2, r6
 2748 10de 2046     		mov	r0, r4
 2749 10e0 D5F81C11 		ldr	r1, [r5, #284]
 2750 10e4 FFF7FEFF 		bl	buffer_append_int32
 2751              	.LVL282:
 2752              		.loc 1 443 0
 2753 10e8 2046     		mov	r0, r4
 2754 10ea 3146     		mov	r1, r6
 2755 10ec 95ED480A 		flds	s0, [r5, #288]
 2756 10f0 F0EE680A 		fcpys	s1, s17
 2757 10f4 FFF7FEFF 		bl	buffer_append_float32
 2758              	.LVL283:
 2759              		.loc 1 444 0
 2760 10f8 2046     		mov	r0, r4
 2761 10fa 3146     		mov	r1, r6
 2762 10fc 95ED490A 		flds	s0, [r5, #292]
 2763 1100 F0EE680A 		fcpys	s1, s17
 2764 1104 FFF7FEFF 		bl	buffer_append_float32
 2765              	.LVL284:
 2766              		.loc 1 445 0
 2767 1108 2046     		mov	r0, r4
 2768 110a F0EE680A 		fcpys	s1, s17
 2769 110e 3146     		mov	r1, r6
 2770 1110 95ED4A0A 		flds	s0, [r5, #296]
 2771 1114 FFF7FEFF 		bl	buffer_append_float32
 2772              	.LVL285:
 2773              		.loc 1 446 0
 2774 1118 D5F82C11 		ldr	r1, [r5, #300]
 2775 111c 2046     		mov	r0, r4
 2776 111e 3246     		mov	r2, r6
 2777 1120 FFF7FEFF 		bl	buffer_append_uint32
 2778              	.LVL286:
 2779              	.LBB131:
 2780              	.LBB132:
 2781              		.loc 1 94 0
 2782 1124 034B     		ldr	r3, .L151
 2783              	.LBE132:
 2784              	.LBE131:
 2785              		.loc 1 448 0
 2786 1126 0099     		ldr	r1, [sp]
 2787              	.LVL287:
 2788              	.LBB134:
 2789              	.LBB133:
 2790              		.loc 1 94 0
 2791 1128 1B68     		ldr	r3, [r3]
 2792 112a 002B     		cmp	r3, #0
 2793 112c 7FF480A9 		bne	.L127
ARM GAS  /tmp/ccq8Pe5l.s 			page 50


 2794 1130 FFF72DB9 		b	.L24
 2795              	.L152:
 2796              		.align	2
 2797              	.L151:
 2798 1134 00000000 		.word	.LANCHOR9
 2799              	.LVL288:
 2800              	.L39:
 2801              	.LBE133:
 2802              	.LBE134:
 2803              		.loc 1 247 0
 2804 1138 FFF7FEFF 		bl	mc_interface_get_configuration
 2805              	.LVL289:
 2806 113c EE4D     		ldr	r5, .L153
 2807              	.LVL290:
 2808              		.loc 1 255 0
 2809 113e 9FEDEF8A 		flds	s16, .L153+4
 2810              		.loc 1 274 0
 2811 1142 DFEDEF8A 		flds	s17, .L153+8
 2812              		.loc 1 294 0
 2813 1146 9FEDEF9A 		flds	s18, .L153+12
 2814              		.loc 1 253 0
 2815 114a 2AAE     		add	r6, sp, #168
 2816              		.loc 1 247 0
 2817 114c 0146     		mov	r1, r0
 2818 114e 4FF49872 		mov	r2, #304
 2819 1152 2846     		mov	r0, r5
 2820 1154 FFF7FEFF 		bl	memcpy
 2821              	.LVL291:
 2822              		.loc 1 253 0
 2823 1158 0423     		movs	r3, #4
 2824 115a 46F8A83D 		str	r3, [r6, #-168]!
 2825              		.loc 1 250 0
 2826 115e 7978     		ldrb	r1, [r7, #1]	@ zero_extendqisi2
 2827              		.loc 1 251 0
 2828 1160 97F802E0 		ldrb	lr, [r7, #2]	@ zero_extendqisi2
 2829              		.loc 1 252 0
 2830 1164 FA78     		ldrb	r2, [r7, #3]	@ zero_extendqisi2
 2831              		.loc 1 253 0
 2832 1166 3B79     		ldrb	r3, [r7, #4]	@ zero_extendqisi2
 2833              		.loc 1 250 0
 2834 1168 2970     		strb	r1, [r5]
 2835              		.loc 1 255 0
 2836 116a B0EE480A 		fcpys	s0, s16
 2837 116e 3146     		mov	r1, r6
 2838 1170 2046     		mov	r0, r4
 2839              		.loc 1 251 0
 2840 1172 85F801E0 		strb	lr, [r5, #1]
 2841              		.loc 1 252 0
 2842 1176 AA70     		strb	r2, [r5, #2]
 2843              		.loc 1 253 0
 2844 1178 EB70     		strb	r3, [r5, #3]
 2845              		.loc 1 255 0
 2846 117a FFF7FEFF 		bl	buffer_get_float32
 2847              	.LVL292:
 2848              		.loc 1 256 0
 2849 117e 3146     		mov	r1, r6
 2850              		.loc 1 255 0
ARM GAS  /tmp/ccq8Pe5l.s 			page 51


 2851 1180 85ED010A 		fsts	s0, [r5, #4]
 2852              		.loc 1 256 0
 2853 1184 2046     		mov	r0, r4
 2854 1186 B0EE480A 		fcpys	s0, s16
 2855 118a FFF7FEFF 		bl	buffer_get_float32
 2856              	.LVL293:
 2857              		.loc 1 257 0
 2858 118e 3146     		mov	r1, r6
 2859              		.loc 1 256 0
 2860 1190 85ED020A 		fsts	s0, [r5, #8]
 2861              		.loc 1 257 0
 2862 1194 2046     		mov	r0, r4
 2863 1196 B0EE480A 		fcpys	s0, s16
 2864 119a FFF7FEFF 		bl	buffer_get_float32
 2865              	.LVL294:
 2866              		.loc 1 258 0
 2867 119e 3146     		mov	r1, r6
 2868              		.loc 1 257 0
 2869 11a0 85ED030A 		fsts	s0, [r5, #12]
 2870              		.loc 1 258 0
 2871 11a4 2046     		mov	r0, r4
 2872 11a6 B0EE480A 		fcpys	s0, s16
 2873 11aa FFF7FEFF 		bl	buffer_get_float32
 2874              	.LVL295:
 2875              		.loc 1 259 0
 2876 11ae 3146     		mov	r1, r6
 2877              		.loc 1 258 0
 2878 11b0 85ED040A 		fsts	s0, [r5, #16]
 2879              		.loc 1 259 0
 2880 11b4 2046     		mov	r0, r4
 2881 11b6 B0EE480A 		fcpys	s0, s16
 2882 11ba FFF7FEFF 		bl	buffer_get_float32
 2883              	.LVL296:
 2884              		.loc 1 260 0
 2885 11be 3146     		mov	r1, r6
 2886              		.loc 1 259 0
 2887 11c0 85ED050A 		fsts	s0, [r5, #20]
 2888              		.loc 1 260 0
 2889 11c4 2046     		mov	r0, r4
 2890 11c6 B0EE480A 		fcpys	s0, s16
 2891 11ca FFF7FEFF 		bl	buffer_get_float32
 2892              	.LVL297:
 2893              		.loc 1 261 0
 2894 11ce 3146     		mov	r1, r6
 2895              		.loc 1 260 0
 2896 11d0 85ED060A 		fsts	s0, [r5, #24]
 2897              		.loc 1 261 0
 2898 11d4 2046     		mov	r0, r4
 2899 11d6 B0EE480A 		fcpys	s0, s16
 2900 11da FFF7FEFF 		bl	buffer_get_float32
 2901              	.LVL298:
 2902              		.loc 1 262 0
 2903 11de 3146     		mov	r1, r6
 2904              		.loc 1 261 0
 2905 11e0 85ED070A 		fsts	s0, [r5, #28]
 2906              		.loc 1 262 0
 2907 11e4 2046     		mov	r0, r4
ARM GAS  /tmp/ccq8Pe5l.s 			page 52


 2908 11e6 B0EE480A 		fcpys	s0, s16
 2909 11ea FFF7FEFF 		bl	buffer_get_float32
 2910              	.LVL299:
 2911              		.loc 1 263 0
 2912 11ee 3146     		mov	r1, r6
 2913              		.loc 1 262 0
 2914 11f0 85ED080A 		fsts	s0, [r5, #32]
 2915              		.loc 1 263 0
 2916 11f4 2046     		mov	r0, r4
 2917 11f6 B0EE480A 		fcpys	s0, s16
 2918 11fa FFF7FEFF 		bl	buffer_get_float32
 2919              	.LVL300:
 2920              		.loc 1 264 0
 2921 11fe 3146     		mov	r1, r6
 2922              		.loc 1 263 0
 2923 1200 85ED090A 		fsts	s0, [r5, #36]
 2924              		.loc 1 264 0
 2925 1204 2046     		mov	r0, r4
 2926 1206 B0EE480A 		fcpys	s0, s16
 2927 120a FFF7FEFF 		bl	buffer_get_float32
 2928              	.LVL301:
 2929              		.loc 1 265 0
 2930 120e 3146     		mov	r1, r6
 2931              		.loc 1 264 0
 2932 1210 85ED0A0A 		fsts	s0, [r5, #40]
 2933              		.loc 1 265 0
 2934 1214 2046     		mov	r0, r4
 2935 1216 B0EE480A 		fcpys	s0, s16
 2936 121a FFF7FEFF 		bl	buffer_get_float32
 2937              	.LVL302:
 2938              		.loc 1 266 0
 2939 121e 3146     		mov	r1, r6
 2940              		.loc 1 265 0
 2941 1220 85ED0B0A 		fsts	s0, [r5, #44]
 2942              		.loc 1 266 0
 2943 1224 2046     		mov	r0, r4
 2944 1226 B0EE480A 		fcpys	s0, s16
 2945 122a FFF7FEFF 		bl	buffer_get_float32
 2946              	.LVL303:
 2947              		.loc 1 267 0
 2948 122e 3146     		mov	r1, r6
 2949              		.loc 1 266 0
 2950 1230 85ED0C0A 		fsts	s0, [r5, #48]
 2951              		.loc 1 267 0
 2952 1234 2046     		mov	r0, r4
 2953 1236 B0EE480A 		fcpys	s0, s16
 2954 123a FFF7FEFF 		bl	buffer_get_float32
 2955              	.LVL304:
 2956              		.loc 1 268 0
 2957 123e 009B     		ldr	r3, [sp]
 2958              		.loc 1 267 0
 2959 1240 85ED0D0A 		fsts	s0, [r5, #52]
 2960              		.loc 1 268 0
 2961 1244 E25C     		ldrb	r2, [r4, r3]	@ zero_extendqisi2
 2962 1246 0032     		adds	r2, r2, #0
 2963              		.loc 1 269 0
 2964 1248 04EB0301 		add	r1, r4, r3
ARM GAS  /tmp/ccq8Pe5l.s 			page 53


 2965              		.loc 1 268 0
 2966 124c 18BF     		it	ne
 2967 124e 0122     		movne	r2, #1
 2968 1250 85F83820 		strb	r2, [r5, #56]
 2969              		.loc 1 269 0
 2970 1254 4A78     		ldrb	r2, [r1, #1]	@ zero_extendqisi2
 2971 1256 0032     		adds	r2, r2, #0
 2972 1258 18BF     		it	ne
 2973 125a 0122     		movne	r2, #1
 2974 125c 0233     		adds	r3, r3, #2
 2975              		.loc 1 270 0
 2976 125e 3146     		mov	r1, r6
 2977 1260 B0EE480A 		fcpys	s0, s16
 2978 1264 2046     		mov	r0, r4
 2979              		.loc 1 269 0
 2980 1266 85F83920 		strb	r2, [r5, #57]
 2981 126a 0093     		str	r3, [sp]
 2982              		.loc 1 270 0
 2983 126c FFF7FEFF 		bl	buffer_get_float32
 2984              	.LVL305:
 2985              		.loc 1 271 0
 2986 1270 3146     		mov	r1, r6
 2987              		.loc 1 270 0
 2988 1272 85ED0F0A 		fsts	s0, [r5, #60]
 2989              		.loc 1 271 0
 2990 1276 2046     		mov	r0, r4
 2991 1278 B0EE480A 		fcpys	s0, s16
 2992 127c FFF7FEFF 		bl	buffer_get_float32
 2993              	.LVL306:
 2994              		.loc 1 272 0
 2995 1280 3146     		mov	r1, r6
 2996              		.loc 1 271 0
 2997 1282 85ED100A 		fsts	s0, [r5, #64]
 2998              		.loc 1 272 0
 2999 1286 2046     		mov	r0, r4
 3000 1288 B0EE480A 		fcpys	s0, s16
 3001 128c FFF7FEFF 		bl	buffer_get_float32
 3002              	.LVL307:
 3003              		.loc 1 273 0
 3004 1290 3146     		mov	r1, r6
 3005              		.loc 1 272 0
 3006 1292 85ED110A 		fsts	s0, [r5, #68]
 3007              		.loc 1 273 0
 3008 1296 2046     		mov	r0, r4
 3009 1298 B0EE480A 		fcpys	s0, s16
 3010 129c FFF7FEFF 		bl	buffer_get_float32
 3011              	.LVL308:
 3012              		.loc 1 274 0
 3013 12a0 3146     		mov	r1, r6
 3014              		.loc 1 273 0
 3015 12a2 85ED120A 		fsts	s0, [r5, #72]
 3016              		.loc 1 274 0
 3017 12a6 2046     		mov	r0, r4
 3018 12a8 B0EE680A 		fcpys	s0, s17
 3019 12ac FFF7FEFF 		bl	buffer_get_float32
 3020              	.LVL309:
 3021              		.loc 1 275 0
ARM GAS  /tmp/ccq8Pe5l.s 			page 54


 3022 12b0 3146     		mov	r1, r6
 3023              		.loc 1 274 0
 3024 12b2 85ED130A 		fsts	s0, [r5, #76]
 3025              		.loc 1 275 0
 3026 12b6 2046     		mov	r0, r4
 3027 12b8 B0EE680A 		fcpys	s0, s17
 3028 12bc FFF7FEFF 		bl	buffer_get_float32
 3029              	.LVL310:
 3030              		.loc 1 277 0
 3031 12c0 D5F804E0 		ldr	lr, [r5, #4]	@ float
 3032              		.loc 1 279 0
 3033 12c4 EA68     		ldr	r2, [r5, #12]	@ float
 3034              		.loc 1 280 0
 3035 12c6 2B69     		ldr	r3, [r5, #16]	@ float
 3036              		.loc 1 278 0
 3037 12c8 AF68     		ldr	r7, [r5, #8]	@ float
 3038              		.loc 1 277 0
 3039 12ca C5F854E0 		str	lr, [r5, #84]	@ float
 3040              		.loc 1 282 0
 3041 12ce 3146     		mov	r1, r6
 3042 12d0 2046     		mov	r0, r4
 3043              		.loc 1 275 0
 3044 12d2 85ED140A 		fsts	s0, [r5, #80]
 3045              		.loc 1 279 0
 3046 12d6 EA65     		str	r2, [r5, #92]	@ float
 3047              		.loc 1 280 0
 3048 12d8 2B66     		str	r3, [r5, #96]	@ float
 3049              		.loc 1 278 0
 3050 12da AF65     		str	r7, [r5, #88]	@ float
 3051              		.loc 1 282 0
 3052 12dc FFF7FEFF 		bl	buffer_get_int32
 3053              	.LVL311:
 3054 12e0 07EE900A 		fmsr	s15, r0	@ int
 3055 12e4 F8EEE77A 		fsitos	s15, s15
 3056              		.loc 1 283 0
 3057 12e8 3146     		mov	r1, r6
 3058              		.loc 1 282 0
 3059 12ea C7EE887A 		fdivs	s15, s15, s16
 3060              		.loc 1 283 0
 3061 12ee 2046     		mov	r0, r4
 3062              		.loc 1 282 0
 3063 12f0 C5ED197A 		fsts	s15, [r5, #100]
 3064              		.loc 1 283 0
 3065 12f4 FFF7FEFF 		bl	buffer_get_int32
 3066              	.LVL312:
 3067 12f8 07EE900A 		fmsr	s15, r0	@ int
 3068 12fc F8EEE77A 		fsitos	s15, s15
 3069              		.loc 1 284 0
 3070 1300 3146     		mov	r1, r6
 3071              		.loc 1 283 0
 3072 1302 C7EE887A 		fdivs	s15, s15, s16
 3073              		.loc 1 284 0
 3074 1306 2046     		mov	r0, r4
 3075              		.loc 1 283 0
 3076 1308 C5ED1A7A 		fsts	s15, [r5, #104]
 3077              		.loc 1 284 0
 3078 130c FFF7FEFF 		bl	buffer_get_int32
ARM GAS  /tmp/ccq8Pe5l.s 			page 55


 3079              	.LVL313:
 3080 1310 07EE900A 		fmsr	s15, r0	@ int
 3081 1314 F8EEE77A 		fsitos	s15, s15
 3082              		.loc 1 285 0
 3083 1318 3146     		mov	r1, r6
 3084              		.loc 1 284 0
 3085 131a C7EE887A 		fdivs	s15, s15, s16
 3086              		.loc 1 285 0
 3087 131e 2046     		mov	r0, r4
 3088              		.loc 1 284 0
 3089 1320 C5ED1B7A 		fsts	s15, [r5, #108]
 3090              		.loc 1 285 0
 3091 1324 FFF7FEFF 		bl	buffer_get_int32
 3092              	.LVL314:
 3093 1328 07EE900A 		fmsr	s15, r0	@ int
 3094 132c F8EEE77A 		fsitos	s15, s15
 3095              		.loc 1 286 0
 3096 1330 3146     		mov	r1, r6
 3097              		.loc 1 285 0
 3098 1332 C7EE887A 		fdivs	s15, s15, s16
 3099              		.loc 1 286 0
 3100 1336 2046     		mov	r0, r4
 3101              		.loc 1 285 0
 3102 1338 C5ED1C7A 		fsts	s15, [r5, #112]
 3103              		.loc 1 286 0
 3104 133c FFF7FEFF 		bl	buffer_get_int32
 3105              	.LVL315:
 3106 1340 07EE900A 		fmsr	s15, r0	@ int
 3107 1344 F8EEE77A 		fsitos	s15, s15
 3108              		.loc 1 287 0
 3109 1348 3146     		mov	r1, r6
 3110              		.loc 1 286 0
 3111 134a C7EE887A 		fdivs	s15, s15, s16
 3112              		.loc 1 287 0
 3113 134e 2046     		mov	r0, r4
 3114              		.loc 1 286 0
 3115 1350 C5ED1D7A 		fsts	s15, [r5, #116]
 3116              		.loc 1 287 0
 3117 1354 FFF7FEFF 		bl	buffer_get_int32
 3118              	.LVL316:
 3119 1358 07EE900A 		fmsr	s15, r0	@ int
 3120 135c F8EEE77A 		fsitos	s15, s15
 3121              		.loc 1 288 0
 3122 1360 3146     		mov	r1, r6
 3123              		.loc 1 287 0
 3124 1362 C7EE887A 		fdivs	s15, s15, s16
 3125              		.loc 1 288 0
 3126 1366 2046     		mov	r0, r4
 3127              		.loc 1 287 0
 3128 1368 C5ED1E7A 		fsts	s15, [r5, #120]
 3129              		.loc 1 288 0
 3130 136c FFF7FEFF 		bl	buffer_get_int32
 3131              	.LVL317:
 3132 1370 07EE900A 		fmsr	s15, r0	@ int
 3133 1374 F8EEE77A 		fsitos	s15, s15
 3134              		.loc 1 290 0
 3135 1378 009A     		ldr	r2, [sp]
ARM GAS  /tmp/ccq8Pe5l.s 			page 56


 3136              		.loc 1 288 0
 3137 137a C7EE887A 		fdivs	s15, s15, s16
 3138              		.loc 1 290 0
 3139 137e A118     		adds	r1, r4, r2
 3140 1380 05F18003 		add	r3, r5, #128
 3141              		.loc 1 291 0
 3142 1384 0832     		adds	r2, r2, #8
 3143 1386 0092     		str	r2, [sp]
 3144              		.loc 1 288 0
 3145 1388 C5ED1F7A 		fsts	s15, [r5, #124]
 3146              		.loc 1 290 0
 3147 138c 0868     		ldr	r0, [r1]	@ unaligned
 3148 138e 4968     		ldr	r1, [r1, #4]	@ unaligned
 3149 1390 03C3     		stmia	r3!, {r0, r1}
 3150              		.loc 1 292 0
 3151 1392 3146     		mov	r1, r6
 3152 1394 2046     		mov	r0, r4
 3153 1396 FFF7FEFF 		bl	buffer_get_int32
 3154              	.LVL318:
 3155 139a 07EE900A 		fmsr	s15, r0	@ int
 3156 139e F8EEE77A 		fsitos	s15, s15
 3157              		.loc 1 294 0
 3158 13a2 3146     		mov	r1, r6
 3159              		.loc 1 292 0
 3160 13a4 C7EE887A 		fdivs	s15, s15, s16
 3161              		.loc 1 294 0
 3162 13a8 2046     		mov	r0, r4
 3163 13aa B0EE490A 		fcpys	s0, s18
 3164              		.loc 1 292 0
 3165 13ae C5ED227A 		fsts	s15, [r5, #136]
 3166              		.loc 1 294 0
 3167 13b2 FFF7FEFF 		bl	buffer_get_float32
 3168              	.LVL319:
 3169              		.loc 1 295 0
 3170 13b6 3146     		mov	r1, r6
 3171              		.loc 1 294 0
 3172 13b8 85ED230A 		fsts	s0, [r5, #140]
 3173              		.loc 1 295 0
 3174 13bc 2046     		mov	r0, r4
 3175 13be B0EE490A 		fcpys	s0, s18
 3176 13c2 FFF7FEFF 		bl	buffer_get_float32
 3177              	.LVL320:
 3178              		.loc 1 296 0
 3179 13c6 3146     		mov	r1, r6
 3180              		.loc 1 295 0
 3181 13c8 85ED240A 		fsts	s0, [r5, #144]
 3182              		.loc 1 296 0
 3183 13cc 2046     		mov	r0, r4
 3184 13ce B0EE480A 		fcpys	s0, s16
 3185 13d2 FFF7FEFF 		bl	buffer_get_float32
 3186              	.LVL321:
 3187              		.loc 1 297 0
 3188 13d6 3146     		mov	r1, r6
 3189              		.loc 1 296 0
 3190 13d8 85ED250A 		fsts	s0, [r5, #148]
 3191              		.loc 1 297 0
 3192 13dc 2046     		mov	r0, r4
ARM GAS  /tmp/ccq8Pe5l.s 			page 57


 3193 13de B0EE680A 		fcpys	s0, s17
 3194 13e2 FFF7FEFF 		bl	buffer_get_float32
 3195              	.LVL322:
 3196              		.loc 1 298 0
 3197 13e6 009B     		ldr	r3, [sp]
 3198              		.loc 1 297 0
 3199 13e8 85ED260A 		fsts	s0, [r5, #152]
 3200              		.loc 1 298 0
 3201 13ec E25C     		ldrb	r2, [r4, r3]	@ zero_extendqisi2
 3202 13ee 0032     		adds	r2, r2, #0
 3203 13f0 18BF     		it	ne
 3204 13f2 0122     		movne	r2, #1
 3205 13f4 0133     		adds	r3, r3, #1
 3206              		.loc 1 299 0
 3207 13f6 3146     		mov	r1, r6
 3208 13f8 B0EE480A 		fcpys	s0, s16
 3209 13fc 2046     		mov	r0, r4
 3210              		.loc 1 298 0
 3211 13fe 85F8A020 		strb	r2, [r5, #160]
 3212 1402 0093     		str	r3, [sp]
 3213              		.loc 1 299 0
 3214 1404 FFF7FEFF 		bl	buffer_get_float32
 3215              	.LVL323:
 3216              		.loc 1 300 0
 3217 1408 3146     		mov	r1, r6
 3218              		.loc 1 299 0
 3219 140a 85ED270A 		fsts	s0, [r5, #156]
 3220              		.loc 1 300 0
 3221 140e 2046     		mov	r0, r4
 3222 1410 B0EE480A 		fcpys	s0, s16
 3223 1414 FFF7FEFF 		bl	buffer_get_float32
 3224              	.LVL324:
 3225              		.loc 1 301 0
 3226 1418 009B     		ldr	r3, [sp]
 3227              		.loc 1 300 0
 3228 141a 85ED290A 		fsts	s0, [r5, #164]
 3229              		.loc 1 301 0
 3230 141e E25C     		ldrb	r2, [r4, r3]	@ zero_extendqisi2
 3231 1420 85F8DC20 		strb	r2, [r5, #220]
 3232 1424 0133     		adds	r3, r3, #1
 3233              		.loc 1 302 0
 3234 1426 3146     		mov	r1, r6
 3235 1428 B0EE480A 		fcpys	s0, s16
 3236 142c 2046     		mov	r0, r4
 3237              		.loc 1 301 0
 3238 142e 0093     		str	r3, [sp]
 3239              		.loc 1 302 0
 3240 1430 FFF7FEFF 		bl	buffer_get_float32
 3241              	.LVL325:
 3242              		.loc 1 303 0
 3243 1434 3146     		mov	r1, r6
 3244              		.loc 1 302 0
 3245 1436 85ED2E0A 		fsts	s0, [r5, #184]
 3246              		.loc 1 303 0
 3247 143a 2046     		mov	r0, r4
 3248 143c B0EE480A 		fcpys	s0, s16
 3249 1440 FFF7FEFF 		bl	buffer_get_float32
ARM GAS  /tmp/ccq8Pe5l.s 			page 58


 3250              	.LVL326:
 3251              		.loc 1 304 0
 3252 1444 3146     		mov	r1, r6
 3253              		.loc 1 303 0
 3254 1446 85ED2F0A 		fsts	s0, [r5, #188]
 3255              		.loc 1 304 0
 3256 144a 2046     		mov	r0, r4
 3257 144c 9FED2E0A 		flds	s0, .L153+16
 3258 1450 FFF7FEFF 		bl	buffer_get_float32
 3259              	.LVL327:
 3260              		.loc 1 305 0
 3261 1454 3146     		mov	r1, r6
 3262              		.loc 1 304 0
 3263 1456 85ED2A0A 		fsts	s0, [r5, #168]
 3264              		.loc 1 305 0
 3265 145a 2046     		mov	r0, r4
 3266 145c B0EE490A 		fcpys	s0, s18
 3267 1460 FFF7FEFF 		bl	buffer_get_float32
 3268              	.LVL328:
 3269              		.loc 1 306 0
 3270 1464 3146     		mov	r1, r6
 3271              		.loc 1 305 0
 3272 1466 85ED2B0A 		fsts	s0, [r5, #172]
 3273              		.loc 1 306 0
 3274 146a 2046     		mov	r0, r4
 3275 146c B0EE490A 		fcpys	s0, s18
 3276 1470 FFF7FEFF 		bl	buffer_get_float32
 3277              	.LVL329:
 3278              		.loc 1 307 0
 3279 1474 3146     		mov	r1, r6
 3280              		.loc 1 306 0
 3281 1476 85ED2C0A 		fsts	s0, [r5, #176]
 3282              		.loc 1 307 0
 3283 147a 2046     		mov	r0, r4
 3284 147c B7EE000A 		fconsts	s0, #112
 3285 1480 FFF7FEFF 		bl	buffer_get_float32
 3286              	.LVL330:
 3287              		.loc 1 308 0
 3288 1484 3146     		mov	r1, r6
 3289              		.loc 1 307 0
 3290 1486 85ED2D0A 		fsts	s0, [r5, #180]
 3291              		.loc 1 308 0
 3292 148a 2046     		mov	r0, r4
 3293 148c B0EE480A 		fcpys	s0, s16
 3294 1490 FFF7FEFF 		bl	buffer_get_float32
 3295              	.LVL331:
 3296              		.loc 1 309 0
 3297 1494 3146     		mov	r1, r6
 3298              		.loc 1 308 0
 3299 1496 85ED300A 		fsts	s0, [r5, #192]
 3300              		.loc 1 309 0
 3301 149a 2046     		mov	r0, r4
 3302 149c B0EE480A 		fcpys	s0, s16
 3303 14a0 FFF7FEFF 		bl	buffer_get_float32
 3304              	.LVL332:
 3305              		.loc 1 310 0
 3306 14a4 3146     		mov	r1, r6
ARM GAS  /tmp/ccq8Pe5l.s 			page 59


 3307              		.loc 1 309 0
 3308 14a6 85ED310A 		fsts	s0, [r5, #196]
 3309              		.loc 1 310 0
 3310 14aa 2046     		mov	r0, r4
 3311 14ac B0EE480A 		fcpys	s0, s16
 3312 14b0 FFF7FEFF 		bl	buffer_get_float32
 3313              	.LVL333:
 3314              		.loc 1 311 0
 3315 14b4 3146     		mov	r1, r6
 3316              		.loc 1 310 0
 3317 14b6 85ED320A 		fsts	s0, [r5, #200]
 3318              		.loc 1 311 0
 3319 14ba 2046     		mov	r0, r4
 3320 14bc B0EE480A 		fcpys	s0, s16
 3321 14c0 FFF7FEFF 		bl	buffer_get_float32
 3322              	.LVL334:
 3323              		.loc 1 312 0
 3324 14c4 3146     		mov	r1, r6
 3325              		.loc 1 311 0
 3326 14c6 85ED330A 		fsts	s0, [r5, #204]
 3327              		.loc 1 312 0
 3328 14ca 2046     		mov	r0, r4
 3329 14cc B0EE480A 		fcpys	s0, s16
 3330 14d0 FFF7FEFF 		bl	buffer_get_float32
 3331              	.LVL335:
 3332              		.loc 1 313 0
 3333 14d4 3146     		mov	r1, r6
 3334              		.loc 1 312 0
 3335 14d6 85ED340A 		fsts	s0, [r5, #208]
 3336              		.loc 1 313 0
 3337 14da 2046     		mov	r0, r4
 3338 14dc B0EE480A 		fcpys	s0, s16
 3339 14e0 FFF7FEFF 		bl	buffer_get_float32
 3340              	.LVL336:
 3341              		.loc 1 314 0
 3342 14e4 3146     		mov	r1, r6
 3343              		.loc 1 313 0
 3344 14e6 85ED350A 		fsts	s0, [r5, #212]
 3345              		.loc 1 314 0
 3346 14ea 2046     		mov	r0, r4
 3347 14ec B0EE480A 		fcpys	s0, s16
 3348 14f0 FFF7FEFF 		bl	buffer_get_float32
 3349              	.LVL337:
 3350              		.loc 1 315 0
 3351 14f4 009B     		ldr	r3, [sp]
 3352 14f6 09E0     		b	.L154
 3353              	.L155:
 3354              		.align	2
 3355              	.L153:
 3356 14f8 00000000 		.word	.LANCHOR11
 3357 14fc 00007A44 		.word	1148846080
 3358 1500 00247449 		.word	1232348160
 3359 1504 0050C347 		.word	1203982336
 3360 1508 20BCBE4C 		.word	1287568416
 3361              	.L154:
 3362              		.loc 1 314 0
 3363 150c 85ED360A 		fsts	s0, [r5, #216]
ARM GAS  /tmp/ccq8Pe5l.s 			page 60


 3364              		.loc 1 315 0
 3365 1510 E218     		adds	r2, r4, r3
 3366              		.loc 1 317 0
 3367 1512 3146     		mov	r1, r6
 3368              		.loc 1 315 0
 3369 1514 1768     		ldr	r7, [r2]	@ unaligned
 3370 1516 5268     		ldr	r2, [r2, #4]	@ unaligned
 3371 1518 C5F8E120 		str	r2, [r5, #225]	@ unaligned
 3372              		.loc 1 316 0
 3373 151c 0833     		adds	r3, r3, #8
 3374              		.loc 1 317 0
 3375 151e 2046     		mov	r0, r4
 3376              		.loc 1 315 0
 3377 1520 C5F8DD70 		str	r7, [r5, #221]	@ unaligned
 3378              		.loc 1 316 0
 3379 1524 0093     		str	r3, [sp]
 3380              		.loc 1 317 0
 3381 1526 FFF7FEFF 		bl	buffer_get_int32
 3382              	.LVL338:
 3383 152a 07EE900A 		fmsr	s15, r0	@ int
 3384 152e F8EEE77A 		fsitos	s15, s15
 3385              		.loc 1 319 0
 3386 1532 3146     		mov	r1, r6
 3387              		.loc 1 317 0
 3388 1534 C7EE887A 		fdivs	s15, s15, s16
 3389              		.loc 1 319 0
 3390 1538 2046     		mov	r0, r4
 3391              		.loc 1 317 0
 3392 153a C5ED3A7A 		fsts	s15, [r5, #232]
 3393              		.loc 1 319 0
 3394 153e FFF7FEFF 		bl	buffer_get_int32
 3395              	.LVL339:
 3396 1542 07EE900A 		fmsr	s15, r0	@ int
 3397 1546 F8EEE77A 		fsitos	s15, s15
 3398              		.loc 1 320 0
 3399 154a 3146     		mov	r1, r6
 3400              		.loc 1 319 0
 3401 154c C7EEA87A 		fdivs	s15, s15, s17
 3402              		.loc 1 320 0
 3403 1550 2046     		mov	r0, r4
 3404              		.loc 1 319 0
 3405 1552 C5ED3B7A 		fsts	s15, [r5, #236]
 3406              		.loc 1 320 0
 3407 1556 FFF7FEFF 		bl	buffer_get_int32
 3408              	.LVL340:
 3409 155a 07EE900A 		fmsr	s15, r0	@ int
 3410 155e F8EEE77A 		fsitos	s15, s15
 3411              		.loc 1 321 0
 3412 1562 3146     		mov	r1, r6
 3413              		.loc 1 320 0
 3414 1564 C7EEA87A 		fdivs	s15, s15, s17
 3415              		.loc 1 321 0
 3416 1568 2046     		mov	r0, r4
 3417              		.loc 1 320 0
 3418 156a C5ED3C7A 		fsts	s15, [r5, #240]
 3419              		.loc 1 321 0
 3420 156e FFF7FEFF 		bl	buffer_get_int32
ARM GAS  /tmp/ccq8Pe5l.s 			page 61


 3421              	.LVL341:
 3422 1572 07EE900A 		fmsr	s15, r0	@ int
 3423 1576 F8EEE77A 		fsitos	s15, s15
 3424              		.loc 1 322 0
 3425 157a 3146     		mov	r1, r6
 3426              		.loc 1 321 0
 3427 157c C7EEA87A 		fdivs	s15, s15, s17
 3428              		.loc 1 322 0
 3429 1580 2046     		mov	r0, r4
 3430              		.loc 1 321 0
 3431 1582 C5ED3D7A 		fsts	s15, [r5, #244]
 3432              		.loc 1 322 0
 3433 1586 FFF7FEFF 		bl	buffer_get_int32
 3434              	.LVL342:
 3435 158a 07EE900A 		fmsr	s15, r0	@ int
 3436 158e F8EEE77A 		fsitos	s15, s15
 3437              		.loc 1 324 0
 3438 1592 3146     		mov	r1, r6
 3439              		.loc 1 322 0
 3440 1594 C7EE887A 		fdivs	s15, s15, s16
 3441              		.loc 1 324 0
 3442 1598 2046     		mov	r0, r4
 3443              		.loc 1 322 0
 3444 159a C5ED3E7A 		fsts	s15, [r5, #248]
 3445              		.loc 1 324 0
 3446 159e FFF7FEFF 		bl	buffer_get_int32
 3447              	.LVL343:
 3448 15a2 07EE900A 		fmsr	s15, r0	@ int
 3449 15a6 F8EEE77A 		fsitos	s15, s15
 3450              		.loc 1 325 0
 3451 15aa 3146     		mov	r1, r6
 3452              		.loc 1 324 0
 3453 15ac C7EEA87A 		fdivs	s15, s15, s17
 3454              		.loc 1 325 0
 3455 15b0 2046     		mov	r0, r4
 3456              		.loc 1 324 0
 3457 15b2 C5ED3F7A 		fsts	s15, [r5, #252]
 3458              		.loc 1 325 0
 3459 15b6 FFF7FEFF 		bl	buffer_get_int32
 3460              	.LVL344:
 3461 15ba 07EE900A 		fmsr	s15, r0	@ int
 3462 15be F8EEE77A 		fsitos	s15, s15
 3463              		.loc 1 326 0
 3464 15c2 3146     		mov	r1, r6
 3465              		.loc 1 325 0
 3466 15c4 C7EEA87A 		fdivs	s15, s15, s17
 3467              		.loc 1 326 0
 3468 15c8 2046     		mov	r0, r4
 3469              		.loc 1 325 0
 3470 15ca C5ED407A 		fsts	s15, [r5, #256]
 3471              		.loc 1 326 0
 3472 15ce FFF7FEFF 		bl	buffer_get_int32
 3473              	.LVL345:
 3474 15d2 07EE900A 		fmsr	s15, r0	@ int
 3475 15d6 F8EEE77A 		fsitos	s15, s15
 3476              		.loc 1 327 0
 3477 15da 3146     		mov	r1, r6
ARM GAS  /tmp/ccq8Pe5l.s 			page 62


 3478              		.loc 1 326 0
 3479 15dc C7EEA87A 		fdivs	s15, s15, s17
 3480              		.loc 1 327 0
 3481 15e0 2046     		mov	r0, r4
 3482              		.loc 1 326 0
 3483 15e2 C5ED417A 		fsts	s15, [r5, #260]
 3484              		.loc 1 327 0
 3485 15e6 FFF7FEFF 		bl	buffer_get_int32
 3486              	.LVL346:
 3487 15ea 07EE900A 		fmsr	s15, r0	@ int
 3488 15ee F8EEE77A 		fsitos	s15, s15
 3489              		.loc 1 329 0
 3490 15f2 3146     		mov	r1, r6
 3491              		.loc 1 327 0
 3492 15f4 C7EE897A 		fdivs	s15, s15, s18
 3493              		.loc 1 329 0
 3494 15f8 2046     		mov	r0, r4
 3495              		.loc 1 327 0
 3496 15fa C5ED427A 		fsts	s15, [r5, #264]
 3497              		.loc 1 329 0
 3498 15fe FFF7FEFF 		bl	buffer_get_int32
 3499              	.LVL347:
 3500 1602 07EE900A 		fmsr	s15, r0	@ int
 3501 1606 F8EEE77A 		fsitos	s15, s15
 3502              		.loc 1 330 0
 3503 160a 3146     		mov	r1, r6
 3504              		.loc 1 329 0
 3505 160c C7EEA87A 		fdivs	s15, s15, s17
 3506              		.loc 1 330 0
 3507 1610 2046     		mov	r0, r4
 3508              		.loc 1 329 0
 3509 1612 C5ED437A 		fsts	s15, [r5, #268]
 3510              		.loc 1 330 0
 3511 1616 FFF7FEFF 		bl	buffer_get_int32
 3512              	.LVL348:
 3513 161a 07EE900A 		fmsr	s15, r0	@ int
 3514 161e F8EEE77A 		fsitos	s15, s15
 3515              		.loc 1 331 0
 3516 1622 3146     		mov	r1, r6
 3517              		.loc 1 330 0
 3518 1624 87EE888A 		fdivs	s16, s15, s16
 3519              		.loc 1 331 0
 3520 1628 2046     		mov	r0, r4
 3521              		.loc 1 330 0
 3522 162a 85ED448A 		fsts	s16, [r5, #272]
 3523              		.loc 1 331 0
 3524 162e FFF7FEFF 		bl	buffer_get_int32
 3525              	.LVL349:
 3526 1632 07EE900A 		fmsr	s15, r0	@ int
 3527 1636 F8EEE77A 		fsitos	s15, s15
 3528              		.loc 1 332 0
 3529 163a 3146     		mov	r1, r6
 3530              		.loc 1 331 0
 3531 163c C7EEA87A 		fdivs	s15, s15, s17
 3532              		.loc 1 332 0
 3533 1640 2046     		mov	r0, r4
 3534 1642 B0EE490A 		fcpys	s0, s18
ARM GAS  /tmp/ccq8Pe5l.s 			page 63


 3535              		.loc 1 331 0
 3536 1646 C5ED457A 		fsts	s15, [r5, #276]
 3537              		.loc 1 332 0
 3538 164a FFF7FEFF 		bl	buffer_get_float32
 3539              	.LVL350:
 3540              		.loc 1 334 0
 3541 164e 3146     		mov	r1, r6
 3542 1650 2046     		mov	r0, r4
 3543              		.loc 1 332 0
 3544 1652 85ED460A 		fsts	s0, [r5, #280]
 3545              		.loc 1 334 0
 3546 1656 FFF7FEFF 		bl	buffer_get_int32
 3547              	.LVL351:
 3548              		.loc 1 335 0
 3549 165a 3146     		mov	r1, r6
 3550              		.loc 1 334 0
 3551 165c C5F81C01 		str	r0, [r5, #284]
 3552              		.loc 1 335 0
 3553 1660 B0EE680A 		fcpys	s0, s17
 3554 1664 2046     		mov	r0, r4
 3555 1666 FFF7FEFF 		bl	buffer_get_float32
 3556              	.LVL352:
 3557              		.loc 1 336 0
 3558 166a 3146     		mov	r1, r6
 3559              		.loc 1 335 0
 3560 166c 85ED480A 		fsts	s0, [r5, #288]
 3561              		.loc 1 336 0
 3562 1670 2046     		mov	r0, r4
 3563 1672 B0EE680A 		fcpys	s0, s17
 3564 1676 FFF7FEFF 		bl	buffer_get_float32
 3565              	.LVL353:
 3566              		.loc 1 337 0
 3567 167a 3146     		mov	r1, r6
 3568              		.loc 1 336 0
 3569 167c 85ED490A 		fsts	s0, [r5, #292]
 3570              		.loc 1 337 0
 3571 1680 2046     		mov	r0, r4
 3572 1682 B0EE680A 		fcpys	s0, s17
 3573 1686 FFF7FEFF 		bl	buffer_get_float32
 3574              	.LVL354:
 3575              		.loc 1 338 0
 3576 168a 3146     		mov	r1, r6
 3577 168c 2046     		mov	r0, r4
 3578              		.loc 1 337 0
 3579 168e 85ED4A0A 		fsts	s0, [r5, #296]
 3580              		.loc 1 338 0
 3581 1692 FFF7FEFF 		bl	buffer_get_uint32
 3582              	.LVL355:
 3583 1696 C5F82C01 		str	r0, [r5, #300]
 3584              		.loc 1 340 0
 3585 169a 2846     		mov	r0, r5
 3586 169c FFF7FEFF 		bl	conf_general_store_mc_configuration
 3587              	.LVL356:
 3588              		.loc 1 341 0
 3589 16a0 2846     		mov	r0, r5
 3590 16a2 FFF7FEFF 		bl	mc_interface_set_configuration
 3591              	.LVL357:
ARM GAS  /tmp/ccq8Pe5l.s 			page 64


 3592              	.LBB135:
 3593              	.LBB136:
 3594              		.loc 1 94 0
 3595 16a6 214B     		ldr	r3, .L156
 3596              	.LBE136:
 3597              	.LBE135:
 3598              		.loc 1 348 0
 3599 16a8 2148     		ldr	r0, .L156+4
 3600              	.LBB139:
 3601              	.LBB137:
 3602              		.loc 1 94 0
 3603 16aa 1B68     		ldr	r3, [r3]
 3604              	.LBE137:
 3605              	.LBE139:
 3606              		.loc 1 348 0
 3607 16ac 0C22     		movs	r2, #12
 3608 16ae 0121     		movs	r1, #1
 3609 16b0 0270     		strb	r2, [r0]
 3610              	.LVL358:
 3611 16b2 0091     		str	r1, [sp]
 3612              	.LBB140:
 3613              	.LBB138:
 3614              		.loc 1 94 0
 3615 16b4 002B     		cmp	r3, #0
 3616 16b6 7FF4ADA8 		bne	.L125
 3617 16ba FEF768BE 		b	.L24
 3618              	.LVL359:
 3619              	.L45:
 3620              	.LBE138:
 3621              	.LBE140:
 3622              		.loc 1 612 0
 3623 16be 6946     		mov	r1, sp
 3624 16c0 2046     		mov	r0, r4
 3625 16c2 9FED200A 		flds	s0, .L156+24
 3626 16c6 FFF7FEFF 		bl	buffer_get_float32
 3627              	.LVL360:
 3628 16ca 1A4B     		ldr	r3, .L156+8
 3629              		.loc 1 613 0
 3630 16cc 6946     		mov	r1, sp
 3631              		.loc 1 612 0
 3632 16ce 83ED000A 		fsts	s0, [r3]
 3633              		.loc 1 613 0
 3634 16d2 2046     		mov	r0, r4
 3635 16d4 9FED1B0A 		flds	s0, .L156+24
 3636 16d8 FFF7FEFF 		bl	buffer_get_float32
 3637              	.LVL361:
 3638 16dc 164B     		ldr	r3, .L156+12
 3639              		.loc 1 614 0
 3640 16de 6946     		mov	r1, sp
 3641 16e0 2046     		mov	r0, r4
 3642              		.loc 1 613 0
 3643 16e2 83ED000A 		fsts	s0, [r3]
 3644              		.loc 1 614 0
 3645 16e6 9FED170A 		flds	s0, .L156+24
 3646 16ea FFF7FEFF 		bl	buffer_get_float32
 3647              	.LVL362:
 3648              		.loc 1 616 0
ARM GAS  /tmp/ccq8Pe5l.s 			page 65


 3649 16ee 134A     		ldr	r2, .L156+16
 3650              		.loc 1 614 0
 3651 16f0 134B     		ldr	r3, .L156+20
 3652              		.loc 1 616 0
 3653 16f2 1068     		ldr	r0, [r2]
 3654              		.loc 1 614 0
 3655 16f4 83ED000A 		fsts	s0, [r3]
 3656              		.loc 1 616 0
 3657 16f8 0121     		movs	r1, #1
 3658 16fa FFF7FEFF 		bl	chEvtSignal
 3659              	.LVL363:
 3660              		.loc 1 617 0
 3661 16fe FEF746BE 		b	.L24
 3662              	.L43:
 3663              		.loc 1 599 0
 3664 1702 2AA9     		add	r1, sp, #168
 3665 1704 4578     		ldrb	r5, [r0, #1]	@ zero_extendqisi2
 3666              	.LVL364:
 3667 1706 0123     		movs	r3, #1
 3668 1708 0035     		adds	r5, r5, #0
 3669 170a 41F8A83D 		str	r3, [r1, #-168]!
 3670              		.loc 1 600 0
 3671 170e 2046     		mov	r0, r4
 3672              		.loc 1 599 0
 3673 1710 18BF     		it	ne
 3674 1712 0125     		movne	r5, #1
 3675              	.LVL365:
 3676              		.loc 1 600 0
 3677 1714 FFF7FEFF 		bl	buffer_get_uint16
 3678              	.LVL366:
 3679              		.loc 1 601 0
 3680 1718 009B     		ldr	r3, [sp]
 3681              		.loc 1 600 0
 3682 171a 0146     		mov	r1, r0
 3683              	.LVL367:
 3684              		.loc 1 602 0
 3685 171c E25C     		ldrb	r2, [r4, r3]	@ zero_extendqisi2
 3686 171e 2846     		mov	r0, r5
 3687              		.loc 1 601 0
 3688 1720 0133     		adds	r3, r3, #1
 3689 1722 0093     		str	r3, [sp]
 3690              	.LVL368:
 3691              		.loc 1 602 0
 3692 1724 FFF7FEFF 		bl	mc_interface_sample_print_data
 3693              	.LVL369:
 3694              		.loc 1 603 0
 3695 1728 FEF731BE 		b	.L24
 3696              	.L157:
 3697              		.align	2
 3698              	.L156:
 3699 172c 00000000 		.word	.LANCHOR9
 3700 1730 00000000 		.word	.LANCHOR8
 3701 1734 00000000 		.word	.LANCHOR1
 3702 1738 00000000 		.word	.LANCHOR2
 3703 173c 00000000 		.word	.LANCHOR0
 3704 1740 00000000 		.word	.LANCHOR3
 3705 1744 00007A44 		.word	1148846080
ARM GAS  /tmp/ccq8Pe5l.s 			page 66


 3706              	.LVL370:
 3707              	.L41:
 3708              		.loc 1 452 0
 3709 1748 FFF7FEFF 		bl	app_get_configuration
 3710              	.LVL371:
 3711 174c A022     		movs	r2, #160
 3712 174e 0146     		mov	r1, r0
 3713 1750 02A8     		add	r0, sp, #8
 3714 1752 FFF7FEFF 		bl	memcpy
 3715              	.LVL372:
 3716              		.loc 1 455 0
 3717 1756 0125     		movs	r5, #1
 3718              	.LVL373:
 3719 1758 7B78     		ldrb	r3, [r7, #1]	@ zero_extendqisi2
 3720 175a 8DF80830 		strb	r3, [sp, #8]
 3721              		.loc 1 456 0
 3722 175e 6946     		mov	r1, sp
 3723 1760 2046     		mov	r0, r4
 3724              		.loc 1 455 0
 3725 1762 0095     		str	r5, [sp]
 3726              		.loc 1 456 0
 3727 1764 FFF7FEFF 		bl	buffer_get_uint32
 3728              	.LVL374:
 3729              		.loc 1 457 0
 3730 1768 6946     		mov	r1, sp
 3731              		.loc 1 456 0
 3732 176a 0390     		str	r0, [sp, #12]
 3733              		.loc 1 457 0
 3734 176c 2046     		mov	r0, r4
 3735 176e FFF7FEFF 		bl	buffer_get_int32
 3736              	.LVL375:
 3737 1772 07EE900A 		fmsr	s15, r0	@ int
 3738 1776 1FED0D8A 		flds	s16, .L156+24
 3739              		.loc 1 458 0
 3740 177a 009B     		ldr	r3, [sp]
 3741              		.loc 1 457 0
 3742 177c F8EEE77A 		fsitos	s15, s15
 3743              		.loc 1 458 0
 3744 1780 E25C     		ldrb	r2, [r4, r3]	@ zero_extendqisi2
 3745              		.loc 1 457 0
 3746 1782 C7EE887A 		fdivs	s15, s15, s16
 3747              		.loc 1 458 0
 3748 1786 0032     		adds	r2, r2, #0
 3749 1788 18BF     		it	ne
 3750 178a 0122     		movne	r2, #1
 3751 178c 2B44     		add	r3, r3, r5
 3752              		.loc 1 459 0
 3753 178e 6946     		mov	r1, sp
 3754 1790 2046     		mov	r0, r4
 3755              		.loc 1 458 0
 3756 1792 8DF81420 		strb	r2, [sp, #20]
 3757 1796 0093     		str	r3, [sp]
 3758              		.loc 1 457 0
 3759 1798 CDED047A 		fsts	s15, [sp, #16]
 3760              		.loc 1 459 0
 3761 179c FFF7FEFF 		bl	buffer_get_uint16
 3762              	.LVL376:
ARM GAS  /tmp/ccq8Pe5l.s 			page 67


 3763              		.loc 1 461 0
 3764 17a0 009B     		ldr	r3, [sp]
 3765              		.loc 1 459 0
 3766 17a2 0690     		str	r0, [sp, #24]
 3767              		.loc 1 463 0
 3768 17a4 E118     		adds	r1, r4, r3
 3769              		.loc 1 461 0
 3770 17a6 E25C     		ldrb	r2, [r4, r3]	@ zero_extendqisi2
 3771              		.loc 1 463 0
 3772 17a8 4978     		ldrb	r1, [r1, #1]	@ zero_extendqisi2
 3773 17aa 8DF82010 		strb	r1, [sp, #32]
 3774 17ae 0233     		adds	r3, r3, #2
 3775              		.loc 1 464 0
 3776 17b0 6946     		mov	r1, sp
 3777 17b2 2046     		mov	r0, r4
 3778              		.loc 1 461 0
 3779 17b4 8DF81C20 		strb	r2, [sp, #28]
 3780              		.loc 1 463 0
 3781 17b8 0093     		str	r3, [sp]
 3782              		.loc 1 464 0
 3783 17ba FFF7FEFF 		bl	buffer_get_int32
 3784              	.LVL377:
 3785 17be 07EE900A 		fmsr	s15, r0	@ int
 3786 17c2 F8EEE77A 		fsitos	s15, s15
 3787              		.loc 1 465 0
 3788 17c6 6946     		mov	r1, sp
 3789              		.loc 1 464 0
 3790 17c8 C7EE887A 		fdivs	s15, s15, s16
 3791              		.loc 1 465 0
 3792 17cc 2046     		mov	r0, r4
 3793              		.loc 1 464 0
 3794 17ce CDED097A 		fsts	s15, [sp, #36]
 3795              		.loc 1 465 0
 3796 17d2 FFF7FEFF 		bl	buffer_get_int32
 3797              	.LVL378:
 3798 17d6 07EE900A 		fmsr	s15, r0	@ int
 3799 17da F8EEE77A 		fsitos	s15, s15
 3800              		.loc 1 466 0
 3801 17de 6946     		mov	r1, sp
 3802              		.loc 1 465 0
 3803 17e0 C7EE887A 		fdivs	s15, s15, s16
 3804              		.loc 1 466 0
 3805 17e4 2046     		mov	r0, r4
 3806              		.loc 1 465 0
 3807 17e6 CDED0A7A 		fsts	s15, [sp, #40]
 3808              		.loc 1 466 0
 3809 17ea FFF7FEFF 		bl	buffer_get_int32
 3810              	.LVL379:
 3811 17ee 07EE900A 		fmsr	s15, r0	@ int
 3812 17f2 F8EEE77A 		fsitos	s15, s15
 3813              		.loc 1 467 0
 3814 17f6 6946     		mov	r1, sp
 3815              		.loc 1 466 0
 3816 17f8 C7EE887A 		fdivs	s15, s15, s16
 3817              		.loc 1 467 0
 3818 17fc 2046     		mov	r0, r4
 3819              		.loc 1 466 0
ARM GAS  /tmp/ccq8Pe5l.s 			page 68


 3820 17fe CDED0B7A 		fsts	s15, [sp, #44]
 3821              		.loc 1 467 0
 3822 1802 FFF7FEFF 		bl	buffer_get_int32
 3823              	.LVL380:
 3824 1806 07EE900A 		fmsr	s15, r0	@ int
 3825 180a F8EEE77A 		fsitos	s15, s15
 3826              		.loc 1 468 0
 3827 180e 009B     		ldr	r3, [sp]
 3828              		.loc 1 467 0
 3829 1810 C7EE887A 		fdivs	s15, s15, s16
 3830              		.loc 1 469 0
 3831 1814 E118     		adds	r1, r4, r3
 3832              		.loc 1 468 0
 3833 1816 E25C     		ldrb	r2, [r4, r3]	@ zero_extendqisi2
 3834              		.loc 1 469 0
 3835 1818 4E78     		ldrb	r6, [r1, #1]	@ zero_extendqisi2
 3836              		.loc 1 468 0
 3837 181a 0032     		adds	r2, r2, #0
 3838 181c 18BF     		it	ne
 3839 181e 0122     		movne	r2, #1
 3840              		.loc 1 469 0
 3841 1820 0036     		adds	r6, r6, #0
 3842 1822 18BF     		it	ne
 3843 1824 0126     		movne	r6, #1
 3844 1826 0233     		adds	r3, r3, #2
 3845              		.loc 1 470 0
 3846 1828 6946     		mov	r1, sp
 3847 182a 2046     		mov	r0, r4
 3848              		.loc 1 468 0
 3849 182c 8DF83420 		strb	r2, [sp, #52]
 3850              		.loc 1 469 0
 3851 1830 0093     		str	r3, [sp]
 3852 1832 8DF83560 		strb	r6, [sp, #53]
 3853              		.loc 1 467 0
 3854 1836 CDED0C7A 		fsts	s15, [sp, #48]
 3855              		.loc 1 470 0
 3856 183a FFF7FEFF 		bl	buffer_get_int32
 3857              	.LVL381:
 3858 183e 07EE900A 		fmsr	s15, r0	@ int
 3859 1842 F8EEE77A 		fsitos	s15, s15
 3860              		.loc 1 471 0
 3861 1846 6946     		mov	r1, sp
 3862              		.loc 1 470 0
 3863 1848 C7EE887A 		fdivs	s15, s15, s16
 3864              		.loc 1 471 0
 3865 184c 2046     		mov	r0, r4
 3866              		.loc 1 470 0
 3867 184e CDED0E7A 		fsts	s15, [sp, #56]
 3868              		.loc 1 471 0
 3869 1852 FFF7FEFF 		bl	buffer_get_int32
 3870              	.LVL382:
 3871 1856 07EE900A 		fmsr	s15, r0	@ int
 3872 185a F8EEE77A 		fsitos	s15, s15
 3873              		.loc 1 472 0
 3874 185e 009B     		ldr	r3, [sp]
 3875              		.loc 1 471 0
 3876 1860 C7EE887A 		fdivs	s15, s15, s16
ARM GAS  /tmp/ccq8Pe5l.s 			page 69


 3877              		.loc 1 473 0
 3878 1864 E118     		adds	r1, r4, r3
 3879              		.loc 1 472 0
 3880 1866 E25C     		ldrb	r2, [r4, r3]	@ zero_extendqisi2
 3881              		.loc 1 473 0
 3882 1868 4E78     		ldrb	r6, [r1, #1]	@ zero_extendqisi2
 3883              		.loc 1 472 0
 3884 186a 0032     		adds	r2, r2, #0
 3885 186c 18BF     		it	ne
 3886 186e 0122     		movne	r2, #1
 3887              		.loc 1 473 0
 3888 1870 0036     		adds	r6, r6, #0
 3889 1872 18BF     		it	ne
 3890 1874 0126     		movne	r6, #1
 3891 1876 0233     		adds	r3, r3, #2
 3892              		.loc 1 474 0
 3893 1878 6946     		mov	r1, sp
 3894 187a 2046     		mov	r0, r4
 3895              		.loc 1 473 0
 3896 187c 8DF84160 		strb	r6, [sp, #65]
 3897              		.loc 1 472 0
 3898 1880 8DF84020 		strb	r2, [sp, #64]
 3899              		.loc 1 473 0
 3900 1884 0093     		str	r3, [sp]
 3901              		.loc 1 471 0
 3902 1886 CDED0F7A 		fsts	s15, [sp, #60]
 3903              		.loc 1 474 0
 3904 188a FFF7FEFF 		bl	buffer_get_int32
 3905              	.LVL383:
 3906 188e 07EE900A 		fmsr	s15, r0	@ int
 3907 1892 F8EEE77A 		fsitos	s15, s15
 3908              		.loc 1 476 0
 3909 1896 009B     		ldr	r3, [sp]
 3910              		.loc 1 474 0
 3911 1898 C7EE887A 		fdivs	s15, s15, s16
 3912              		.loc 1 476 0
 3913 189c 5A19     		adds	r2, r3, r5
 3914              		.loc 1 477 0
 3915 189e 6946     		mov	r1, sp
 3916              		.loc 1 476 0
 3917 18a0 E35C     		ldrb	r3, [r4, r3]	@ zero_extendqisi2
 3918 18a2 0092     		str	r2, [sp]
 3919              		.loc 1 477 0
 3920 18a4 2046     		mov	r0, r4
 3921              		.loc 1 476 0
 3922 18a6 8DF84830 		strb	r3, [sp, #72]
 3923              		.loc 1 474 0
 3924 18aa CDED117A 		fsts	s15, [sp, #68]
 3925              		.loc 1 477 0
 3926 18ae FFF7FEFF 		bl	buffer_get_int32
 3927              	.LVL384:
 3928 18b2 07EE900A 		fmsr	s15, r0	@ int
 3929 18b6 F8EEE77A 		fsitos	s15, s15
 3930              		.loc 1 478 0
 3931 18ba 6946     		mov	r1, sp
 3932              		.loc 1 477 0
 3933 18bc C7EE887A 		fdivs	s15, s15, s16
ARM GAS  /tmp/ccq8Pe5l.s 			page 70


 3934              		.loc 1 478 0
 3935 18c0 2046     		mov	r0, r4
 3936              		.loc 1 477 0
 3937 18c2 CDED137A 		fsts	s15, [sp, #76]
 3938              		.loc 1 478 0
 3939 18c6 FFF7FEFF 		bl	buffer_get_int32
 3940              	.LVL385:
 3941 18ca 07EE900A 		fmsr	s15, r0	@ int
 3942 18ce F8EEE77A 		fsitos	s15, s15
 3943              		.loc 1 479 0
 3944 18d2 6946     		mov	r1, sp
 3945              		.loc 1 478 0
 3946 18d4 C7EE887A 		fdivs	s15, s15, s16
 3947              		.loc 1 479 0
 3948 18d8 2046     		mov	r0, r4
 3949              		.loc 1 478 0
 3950 18da CDED147A 		fsts	s15, [sp, #80]
 3951              		.loc 1 479 0
 3952 18de FFF7FEFF 		bl	buffer_get_int32
 3953              	.LVL386:
 3954 18e2 07EE900A 		fmsr	s15, r0	@ int
 3955 18e6 F8EEE77A 		fsitos	s15, s15
 3956              		.loc 1 480 0
 3957 18ea 009B     		ldr	r3, [sp]
 3958              		.loc 1 479 0
 3959 18ec C7EE887A 		fdivs	s15, s15, s16
 3960              		.loc 1 481 0
 3961 18f0 E218     		adds	r2, r4, r3
 3962              		.loc 1 480 0
 3963 18f2 E15C     		ldrb	r1, [r4, r3]	@ zero_extendqisi2
 3964              		.loc 1 481 0
 3965 18f4 92F801C0 		ldrb	ip, [r2, #1]	@ zero_extendqisi2
 3966              		.loc 1 482 0
 3967 18f8 92F802E0 		ldrb	lr, [r2, #2]	@ zero_extendqisi2
 3968              		.loc 1 483 0
 3969 18fc D778     		ldrb	r7, [r2, #3]	@ zero_extendqisi2
 3970              		.loc 1 484 0
 3971 18fe 1679     		ldrb	r6, [r2, #4]	@ zero_extendqisi2
 3972              		.loc 1 481 0
 3973 1900 1CF1000C 		adds	ip, ip, #0
 3974 1904 18BF     		it	ne
 3975 1906 4FF0010C 		movne	ip, #1
 3976              		.loc 1 482 0
 3977 190a 1EF1000E 		adds	lr, lr, #0
 3978 190e 18BF     		it	ne
 3979 1910 4FF0010E 		movne	lr, #1
 3980              		.loc 1 483 0
 3981 1914 0037     		adds	r7, r7, #0
 3982 1916 18BF     		it	ne
 3983 1918 0127     		movne	r7, #1
 3984              		.loc 1 484 0
 3985 191a 0036     		adds	r6, r6, #0
 3986 191c 18BF     		it	ne
 3987 191e 0126     		movne	r6, #1
 3988              		.loc 1 480 0
 3989 1920 0A1C     		adds	r2, r1, #0
 3990 1922 18BF     		it	ne
ARM GAS  /tmp/ccq8Pe5l.s 			page 71


 3991 1924 0122     		movne	r2, #1
 3992              		.loc 1 484 0
 3993 1926 0533     		adds	r3, r3, #5
 3994              		.loc 1 485 0
 3995 1928 6946     		mov	r1, sp
 3996 192a 2046     		mov	r0, r4
 3997              		.loc 1 481 0
 3998 192c 8DF859C0 		strb	ip, [sp, #89]
 3999              		.loc 1 482 0
 4000 1930 8DF85AE0 		strb	lr, [sp, #90]
 4001              		.loc 1 480 0
 4002 1934 8DF85820 		strb	r2, [sp, #88]
 4003              		.loc 1 484 0
 4004 1938 0093     		str	r3, [sp]
 4005              		.loc 1 479 0
 4006 193a CDED157A 		fsts	s15, [sp, #84]
 4007              		.loc 1 483 0
 4008 193e 8DF85B70 		strb	r7, [sp, #91]
 4009              		.loc 1 484 0
 4010 1942 8DF85C60 		strb	r6, [sp, #92]
 4011              		.loc 1 485 0
 4012 1946 FFF7FEFF 		bl	buffer_get_int32
 4013              	.LVL387:
 4014 194a 07EE900A 		fmsr	s15, r0	@ int
 4015 194e F8EEE77A 		fsitos	s15, s15
 4016              		.loc 1 486 0
 4017 1952 6946     		mov	r1, sp
 4018              		.loc 1 485 0
 4019 1954 C7EE887A 		fdivs	s15, s15, s16
 4020              		.loc 1 486 0
 4021 1958 2046     		mov	r0, r4
 4022              		.loc 1 485 0
 4023 195a CDED187A 		fsts	s15, [sp, #96]
 4024              		.loc 1 486 0
 4025 195e FFF7FEFF 		bl	buffer_get_int32
 4026              	.LVL388:
 4027 1962 07EE900A 		fmsr	s15, r0	@ int
 4028 1966 F8EEE77A 		fsitos	s15, s15
 4029              		.loc 1 487 0
 4030 196a 009B     		ldr	r3, [sp]
 4031              		.loc 1 486 0
 4032 196c C7EE887A 		fdivs	s15, s15, s16
 4033              		.loc 1 488 0
 4034 1970 E118     		adds	r1, r4, r3
 4035              		.loc 1 487 0
 4036 1972 E25C     		ldrb	r2, [r4, r3]	@ zero_extendqisi2
 4037              		.loc 1 488 0
 4038 1974 4E78     		ldrb	r6, [r1, #1]	@ zero_extendqisi2
 4039              		.loc 1 487 0
 4040 1976 0032     		adds	r2, r2, #0
 4041 1978 18BF     		it	ne
 4042 197a 0122     		movne	r2, #1
 4043              		.loc 1 488 0
 4044 197c 0036     		adds	r6, r6, #0
 4045 197e 18BF     		it	ne
 4046 1980 0126     		movne	r6, #1
 4047 1982 0233     		adds	r3, r3, #2
ARM GAS  /tmp/ccq8Pe5l.s 			page 72


 4048              		.loc 1 489 0
 4049 1984 6946     		mov	r1, sp
 4050 1986 2046     		mov	r0, r4
 4051              		.loc 1 487 0
 4052 1988 8DF86820 		strb	r2, [sp, #104]
 4053              		.loc 1 488 0
 4054 198c 0093     		str	r3, [sp]
 4055 198e 8DF86960 		strb	r6, [sp, #105]
 4056              		.loc 1 486 0
 4057 1992 CDED197A 		fsts	s15, [sp, #100]
 4058              		.loc 1 489 0
 4059 1996 FFF7FEFF 		bl	buffer_get_int32
 4060              	.LVL389:
 4061 199a 07EE900A 		fmsr	s15, r0	@ int
 4062 199e F8EEE77A 		fsitos	s15, s15
 4063              		.loc 1 490 0
 4064 19a2 6946     		mov	r1, sp
 4065              		.loc 1 489 0
 4066 19a4 C7EE887A 		fdivs	s15, s15, s16
 4067              		.loc 1 490 0
 4068 19a8 2046     		mov	r0, r4
 4069              		.loc 1 489 0
 4070 19aa CDED1B7A 		fsts	s15, [sp, #108]
 4071              		.loc 1 490 0
 4072 19ae FFF7FEFF 		bl	buffer_get_uint16
 4073              	.LVL390:
 4074              		.loc 1 492 0
 4075 19b2 6946     		mov	r1, sp
 4076              		.loc 1 490 0
 4077 19b4 1C90     		str	r0, [sp, #112]
 4078              		.loc 1 492 0
 4079 19b6 2046     		mov	r0, r4
 4080 19b8 FFF7FEFF 		bl	buffer_get_uint32
 4081              	.LVL391:
 4082              		.loc 1 494 0
 4083 19bc 009B     		ldr	r3, [sp]
 4084              		.loc 1 492 0
 4085 19be 1D90     		str	r0, [sp, #116]
 4086              		.loc 1 494 0
 4087 19c0 5A19     		adds	r2, r3, r5
 4088              		.loc 1 495 0
 4089 19c2 2046     		mov	r0, r4
 4090              		.loc 1 494 0
 4091 19c4 E35C     		ldrb	r3, [r4, r3]	@ zero_extendqisi2
 4092 19c6 0092     		str	r2, [sp]
 4093              		.loc 1 495 0
 4094 19c8 6946     		mov	r1, sp
 4095 19ca B0EE480A 		fcpys	s0, s16
 4096              		.loc 1 494 0
 4097 19ce 8DF87830 		strb	r3, [sp, #120]
 4098              		.loc 1 495 0
 4099 19d2 FFF7FEFF 		bl	buffer_get_float32
 4100              	.LVL392:
 4101              		.loc 1 496 0
 4102 19d6 2046     		mov	r0, r4
 4103 19d8 6946     		mov	r1, sp
 4104              		.loc 1 495 0
ARM GAS  /tmp/ccq8Pe5l.s 			page 73


 4105 19da 8DED1F0A 		fsts	s0, [sp, #124]
 4106              		.loc 1 496 0
 4107 19de B0EE480A 		fcpys	s0, s16
 4108 19e2 FFF7FEFF 		bl	buffer_get_float32
 4109              	.LVL393:
 4110              		.loc 1 497 0
 4111 19e6 2046     		mov	r0, r4
 4112 19e8 6946     		mov	r1, sp
 4113              		.loc 1 496 0
 4114 19ea 8DED200A 		fsts	s0, [sp, #128]
 4115              		.loc 1 497 0
 4116 19ee B0EE480A 		fcpys	s0, s16
 4117 19f2 FFF7FEFF 		bl	buffer_get_float32
 4118              	.LVL394:
 4119              		.loc 1 498 0
 4120 19f6 2046     		mov	r0, r4
 4121 19f8 6946     		mov	r1, sp
 4122              		.loc 1 497 0
 4123 19fa 8DED210A 		fsts	s0, [sp, #132]
 4124              		.loc 1 498 0
 4125 19fe B0EE480A 		fcpys	s0, s16
 4126 1a02 FFF7FEFF 		bl	buffer_get_float32
 4127              	.LVL395:
 4128              		.loc 1 499 0
 4129 1a06 2046     		mov	r0, r4
 4130 1a08 6946     		mov	r1, sp
 4131              		.loc 1 498 0
 4132 1a0a 8DED220A 		fsts	s0, [sp, #136]
 4133              		.loc 1 499 0
 4134 1a0e B0EE480A 		fcpys	s0, s16
 4135 1a12 FFF7FEFF 		bl	buffer_get_float32
 4136              	.LVL396:
 4137              		.loc 1 500 0
 4138 1a16 2046     		mov	r0, r4
 4139 1a18 6946     		mov	r1, sp
 4140              		.loc 1 499 0
 4141 1a1a 8DED230A 		fsts	s0, [sp, #140]
 4142              		.loc 1 500 0
 4143 1a1e B0EE480A 		fcpys	s0, s16
 4144 1a22 FFF7FEFF 		bl	buffer_get_float32
 4145              	.LVL397:
 4146              		.loc 1 501 0
 4147 1a26 009B     		ldr	r3, [sp]
 4148              		.loc 1 500 0
 4149 1a28 8DED240A 		fsts	s0, [sp, #144]
 4150              		.loc 1 502 0
 4151 1a2c E118     		adds	r1, r4, r3
 4152              		.loc 1 501 0
 4153 1a2e E25C     		ldrb	r2, [r4, r3]	@ zero_extendqisi2
 4154              		.loc 1 502 0
 4155 1a30 4E78     		ldrb	r6, [r1, #1]	@ zero_extendqisi2
 4156 1a32 0036     		adds	r6, r6, #0
 4157 1a34 18BF     		it	ne
 4158 1a36 0126     		movne	r6, #1
 4159              		.loc 1 501 0
 4160 1a38 0032     		adds	r2, r2, #0
 4161 1a3a 18BF     		it	ne
ARM GAS  /tmp/ccq8Pe5l.s 			page 74


 4162 1a3c 0122     		movne	r2, #1
 4163              		.loc 1 502 0
 4164 1a3e 0233     		adds	r3, r3, #2
 4165              		.loc 1 503 0
 4166 1a40 2046     		mov	r0, r4
 4167 1a42 6946     		mov	r1, sp
 4168 1a44 B0EE480A 		fcpys	s0, s16
 4169              		.loc 1 502 0
 4170 1a48 8DF89560 		strb	r6, [sp, #149]
 4171              		.loc 1 501 0
 4172 1a4c 8DF89420 		strb	r2, [sp, #148]
 4173              		.loc 1 502 0
 4174 1a50 0093     		str	r3, [sp]
 4175              		.loc 1 503 0
 4176 1a52 FFF7FEFF 		bl	buffer_get_float32
 4177              	.LVL398:
 4178              		.loc 1 505 0
 4179 1a56 009A     		ldr	r2, [sp]
 4180              		.loc 1 503 0
 4181 1a58 8DED260A 		fsts	s0, [sp, #152]
 4182              		.loc 1 506 0
 4183 1a5c A318     		adds	r3, r4, r2
 4184              		.loc 1 511 0
 4185 1a5e 1946     		mov	r1, r3
 4186              		.loc 1 513 0
 4187 1a60 587A     		ldrb	r0, [r3, #9]	@ zero_extendqisi2
 4188              		.loc 1 511 0
 4189 1a62 31F806EF 		ldrh	lr, [r1, #6]!	@ unaligned
 4190              		.loc 1 506 0
 4191 1a66 93F801C0 		ldrb	ip, [r3, #1]	@ zero_extendqisi2
 4192              		.loc 1 505 0
 4193 1a6a 14F80290 		ldrb	r9, [r4, r2]	@ zero_extendqisi2
 4194              		.loc 1 511 0
 4195 1a6e 91F80280 		ldrb	r8, [r1, #2]	@ zero_extendqisi2
 4196              	.LVL399:
 4197              		.loc 1 507 0
 4198 1a72 9F78     		ldrb	r7, [r3, #2]	@ zero_extendqisi2
 4199              		.loc 1 510 0
 4200 1a74 5979     		ldrb	r1, [r3, #5]	@ zero_extendqisi2
 4201              		.loc 1 508 0
 4202 1a76 DE78     		ldrb	r6, [r3, #3]	@ zero_extendqisi2
 4203              		.loc 1 509 0
 4204 1a78 1C79     		ldrb	r4, [r3, #4]	@ zero_extendqisi2
 4205              	.LVL400:
 4206              		.loc 1 511 0
 4207 1a7a ADF8A2E0 		strh	lr, [sp, #162]	@ unaligned
 4208              		.loc 1 513 0
 4209 1a7e 031C     		adds	r3, r0, #0
 4210 1a80 02F10A02 		add	r2, r2, #10
 4211 1a84 18BF     		it	ne
 4212 1a86 0123     		movne	r3, #1
 4213              		.loc 1 515 0
 4214 1a88 02A8     		add	r0, sp, #8
 4215              		.loc 1 513 0
 4216 1a8a 0092     		str	r2, [sp]
 4217 1a8c 8DF8A530 		strb	r3, [sp, #165]
 4218              		.loc 1 506 0
ARM GAS  /tmp/ccq8Pe5l.s 			page 75


 4219 1a90 8DF89DC0 		strb	ip, [sp, #157]
 4220              		.loc 1 510 0
 4221 1a94 8DF8A110 		strb	r1, [sp, #161]
 4222              		.loc 1 505 0
 4223 1a98 8DF89C90 		strb	r9, [sp, #156]
 4224              		.loc 1 511 0
 4225 1a9c 8DF8A480 		strb	r8, [sp, #164]
 4226              		.loc 1 507 0
 4227 1aa0 8DF89E70 		strb	r7, [sp, #158]
 4228              		.loc 1 508 0
 4229 1aa4 8DF89F60 		strb	r6, [sp, #159]
 4230              		.loc 1 509 0
 4231 1aa8 8DF8A040 		strb	r4, [sp, #160]
 4232              		.loc 1 515 0
 4233 1aac FFF7FEFF 		bl	conf_general_store_app_configuration
 4234              	.LVL401:
 4235              		.loc 1 516 0
 4236 1ab0 02A8     		add	r0, sp, #8
 4237 1ab2 FFF7FEFF 		bl	app_set_configuration
 4238              	.LVL402:
 4239              		.loc 1 517 0
 4240 1ab6 0398     		ldr	r0, [sp, #12]
 4241 1ab8 9DED040A 		flds	s0, [sp, #16]
 4242 1abc FFF7FEFF 		bl	timeout_configure
 4243              	.LVL403:
 4244              	.LBB141:
 4245              	.LBB142:
 4246              		.loc 1 94 0
 4247 1ac0 154B     		ldr	r3, .L158
 4248              	.LBE142:
 4249              	.LBE141:
 4250              		.loc 1 520 0
 4251 1ac2 1648     		ldr	r0, .L158+4
 4252              	.LBB145:
 4253              	.LBB143:
 4254              		.loc 1 94 0
 4255 1ac4 1B68     		ldr	r3, [r3]
 4256              	.LBE143:
 4257              	.LBE145:
 4258              		.loc 1 520 0
 4259 1ac6 0095     		str	r5, [sp]
 4260 1ac8 0F22     		movs	r2, #15
 4261 1aca 0270     		strb	r2, [r0]
 4262              	.LVL404:
 4263              	.LBB146:
 4264              	.LBB144:
 4265              		.loc 1 94 0
 4266 1acc 002B     		cmp	r3, #0
 4267 1ace 3EF45EAC 		beq	.L24
 4268              	.LBE144:
 4269              	.LBE146:
 4270              		.loc 1 782 0
 4271 1ad2 2946     		mov	r1, r5
 4272 1ad4 FEF79EBE 		b	.L125
 4273              	.LVL405:
 4274              	.L138:
 4275 1ad8 9DED010A 		flds	s0, [sp, #4]
ARM GAS  /tmp/ccq8Pe5l.s 			page 76


 4276 1adc FFF717B8 		b	.L67
 4277              	.LVL406:
 4278              	.L137:
 4279 1ae0 9DED020A 		flds	s0, [sp, #8]
 4280 1ae4 FEF7BCBF 		b	.L70
 4281              	.LVL407:
 4282              	.L135:
 4283              		.loc 1 527 0
 4284 1ae8 FFF7FEFF 		bl	app_get_configuration
 4285              	.LVL408:
 4286 1aec A022     		movs	r2, #160
 4287 1aee 0146     		mov	r1, r0
 4288 1af0 02A8     		add	r0, sp, #8
 4289 1af2 FFF7FEFF 		bl	memcpy
 4290              	.LVL409:
 4291 1af6 FEF7C2BA 		b	.L65
 4292              	.LVL410:
 4293              	.L136:
 4294              		.loc 1 226 0
 4295 1afa FFF7FEFF 		bl	mc_interface_release_motor
 4296              	.LVL411:
 4297 1afe FEF762BC 		b	.L51
 4298              	.LVL412:
 4299              	.L139:
 4300              		.loc 1 355 0
 4301 1b02 FFF7FEFF 		bl	mc_interface_get_configuration
 4302              	.LVL413:
 4303 1b06 4FF49872 		mov	r2, #304
 4304 1b0a 0146     		mov	r1, r0
 4305 1b0c 0448     		ldr	r0, .L158+8
 4306 1b0e FFF7FEFF 		bl	memcpy
 4307              	.LVL414:
 4308 1b12 FFF72AB8 		b	.L63
 4309              	.L159:
 4310 1b16 00BF     		.align	2
 4311              	.L158:
 4312 1b18 00000000 		.word	.LANCHOR9
 4313 1b1c 00000000 		.word	.LANCHOR8
 4314 1b20 00000000 		.word	.LANCHOR11
 4315              		.cfi_endproc
 4316              	.LFE259:
 4317              		.size	commands_process_packet, .-commands_process_packet
 4318              		.section	.text.commands_printf,"ax",%progbits
 4319              		.align	2
 4320              		.p2align 4,,15
 4321              		.global	commands_printf
 4322              		.thumb
 4323              		.thumb_func
 4324              		.type	commands_printf, %function
 4325              	commands_printf:
 4326              	.LFB260:
 4327              		.loc 1 791 0
 4328              		.cfi_startproc
 4329              		@ args = 4, pretend = 16, frame = 8
 4330              		@ frame_needed = 0, uses_anonymous_args = 1
 4331              	.LVL415:
 4332 0000 0FB4     		push	{r0, r1, r2, r3}
ARM GAS  /tmp/ccq8Pe5l.s 			page 77


 4333              		.cfi_def_cfa_offset 16
 4334              		.cfi_offset 0, -16
 4335              		.cfi_offset 1, -12
 4336              		.cfi_offset 2, -8
 4337              		.cfi_offset 3, -4
 4338 0002 00B5     		push	{lr}
 4339              		.cfi_def_cfa_offset 20
 4340              		.cfi_offset 14, -20
 4341 0004 83B0     		sub	sp, sp, #12
 4342              		.cfi_def_cfa_offset 32
 4343              		.loc 1 791 0
 4344 0006 04AB     		add	r3, sp, #16
 4345              		.loc 1 797 0
 4346 0008 0C48     		ldr	r0, .L168
 4347              		.loc 1 791 0
 4348 000a 53F8042B 		ldr	r2, [r3], #4
 4349              		.loc 1 793 0
 4350 000e 0193     		str	r3, [sp, #4]
 4351              		.loc 1 797 0
 4352 0010 1421     		movs	r1, #20
 4353 0012 00F8011B 		strb	r1, [r0], #1
 4354              		.loc 1 798 0
 4355 0016 FE21     		movs	r1, #254
 4356 0018 FFF7FEFF 		bl	vsnprintf
 4357              	.LVL416:
 4358              		.loc 1 801 0
 4359 001c 0028     		cmp	r0, #0
 4360 001e 08DD     		ble	.L160
 4361              	.LVL417:
 4362              	.LBB147:
 4363              	.LBB148:
 4364              		.loc 1 94 0
 4365 0020 074B     		ldr	r3, .L168+4
 4366 0022 1B68     		ldr	r3, [r3]
 4367              	.LBE148:
 4368              	.LBE147:
 4369              		.loc 1 802 0
 4370 0024 FD28     		cmp	r0, #253
 4371 0026 D4BF     		ite	le
 4372 0028 411C     		addle	r1, r0, #1
 4373 002a FF21     		movgt	r1, #255
 4374              	.LVL418:
 4375              	.LBB150:
 4376              	.LBB149:
 4377              		.loc 1 94 0
 4378 002c 0BB1     		cbz	r3, .L160
 4379              		.loc 1 95 0
 4380 002e 0348     		ldr	r0, .L168
 4381              	.LVL419:
 4382 0030 9847     		blx	r3
 4383              	.LVL420:
 4384              	.L160:
 4385              	.LBE149:
 4386              	.LBE150:
 4387              		.loc 1 804 0
 4388 0032 03B0     		add	sp, sp, #12
 4389              		.cfi_def_cfa_offset 20
ARM GAS  /tmp/ccq8Pe5l.s 			page 78


 4390              		@ sp needed
 4391 0034 5DF804EB 		ldr	lr, [sp], #4
 4392              		.cfi_restore 14
 4393              		.cfi_def_cfa_offset 16
 4394 0038 04B0     		add	sp, sp, #16
 4395              		.cfi_restore 3
 4396              		.cfi_restore 2
 4397              		.cfi_restore 1
 4398              		.cfi_restore 0
 4399              		.cfi_def_cfa_offset 0
 4400 003a 7047     		bx	lr
 4401              	.L169:
 4402              		.align	2
 4403              	.L168:
 4404 003c 00000000 		.word	.LANCHOR15
 4405 0040 00000000 		.word	.LANCHOR9
 4406              		.cfi_endproc
 4407              	.LFE260:
 4408              		.size	commands_printf, .-commands_printf
 4409              		.section	.text.commands_send_samples,"ax",%progbits
 4410              		.align	2
 4411              		.p2align 4,,15
 4412              		.global	commands_send_samples
 4413              		.thumb
 4414              		.thumb_func
 4415              		.type	commands_send_samples, %function
 4416              	commands_send_samples:
 4417              	.LFB261:
 4418              		.loc 1 806 0
 4419              		.cfi_startproc
 4420              		@ args = 0, pretend = 0, frame = 0
 4421              		@ frame_needed = 1, uses_anonymous_args = 0
 4422              	.LVL421:
 4423 0000 F8B5     		push	{r3, r4, r5, r6, r7, lr}
 4424              		.cfi_def_cfa_offset 24
 4425              		.cfi_offset 3, -24
 4426              		.cfi_offset 4, -20
 4427              		.cfi_offset 5, -16
 4428              		.cfi_offset 6, -12
 4429              		.cfi_offset 7, -8
 4430              		.cfi_offset 14, -4
 4431              		.loc 1 807 0
 4432 0002 01F10803 		add	r3, r1, #8
 4433 0006 23F00703 		bic	r3, r3, #7
 4434              		.loc 1 806 0
 4435 000a 00AF     		add	r7, sp, #0
 4436              		.cfi_def_cfa_register 7
 4437              		.loc 1 807 0
 4438 000c ADEB030D 		sub	sp, sp, r3
 4439              	.LBB151:
 4440              		.loc 1 812 0
 4441 0010 0029     		cmp	r1, #0
 4442              	.LBE151:
 4443              		.loc 1 810 0
 4444 0012 4FF01203 		mov	r3, #18
 4445 0016 8DF80030 		strb	r3, [sp]
 4446              		.loc 1 807 0
ARM GAS  /tmp/ccq8Pe5l.s 			page 79


 4447 001a 6E46     		mov	r6, sp
 4448              	.LVL422:
 4449              	.LBB152:
 4450              		.loc 1 812 0
 4451 001c 11DD     		ble	.L174
 4452 001e 421E     		subs	r2, r0, #1
 4453 0020 6B46     		mov	r3, sp
 4454 0022 0DEB0105 		add	r5, sp, r1
 4455              	.LVL423:
 4456              	.L172:
 4457              		.loc 1 813 0 discriminator 3
 4458 0026 12F8014F 		ldrb	r4, [r2, #1]!	@ zero_extendqisi2
 4459              	.LVL424:
 4460 002a 03F8014F 		strb	r4, [r3, #1]!
 4461              	.LVL425:
 4462              		.loc 1 812 0 discriminator 3
 4463 002e AB42     		cmp	r3, r5
 4464 0030 F9D1     		bne	.L172
 4465 0032 0131     		adds	r1, r1, #1
 4466              	.LVL426:
 4467              	.L171:
 4468              	.LBE152:
 4469              	.LBB153:
 4470              	.LBB154:
 4471              		.loc 1 94 0
 4472 0034 044B     		ldr	r3, .L180
 4473 0036 1B68     		ldr	r3, [r3]
 4474 0038 0BB1     		cbz	r3, .L170
 4475 003a 3046     		mov	r0, r6
 4476              	.LVL427:
 4477              		.loc 1 95 0
 4478 003c 9847     		blx	r3
 4479              	.LVL428:
 4480              	.L170:
 4481              	.LBE154:
 4482              	.LBE153:
 4483              		.loc 1 817 0
 4484 003e BD46     		mov	sp, r7
 4485              		.cfi_remember_state
 4486              		.cfi_def_cfa_register 13
 4487              		@ sp needed
 4488 0040 F8BD     		pop	{r3, r4, r5, r6, r7, pc}
 4489              	.LVL429:
 4490              	.L174:
 4491              		.cfi_restore_state
 4492              	.LBB155:
 4493              		.loc 1 812 0
 4494 0042 0121     		movs	r1, #1
 4495              	.LVL430:
 4496 0044 F6E7     		b	.L171
 4497              	.L181:
 4498 0046 00BF     		.align	2
 4499              	.L180:
 4500 0048 00000000 		.word	.LANCHOR9
 4501              	.LBE155:
 4502              		.cfi_endproc
 4503              	.LFE261:
ARM GAS  /tmp/ccq8Pe5l.s 			page 80


 4504              		.size	commands_send_samples, .-commands_send_samples
 4505              		.section	.text.commands_send_rotor_pos,"ax",%progbits
 4506              		.align	2
 4507              		.p2align 4,,15
 4508              		.global	commands_send_rotor_pos
 4509              		.thumb
 4510              		.thumb_func
 4511              		.type	commands_send_rotor_pos, %function
 4512              	commands_send_rotor_pos:
 4513              	.LFB262:
 4514              		.loc 1 819 0
 4515              		.cfi_startproc
 4516              		@ args = 0, pretend = 0, frame = 16
 4517              		@ frame_needed = 0, uses_anonymous_args = 0
 4518              	.LVL431:
 4519 0000 10B5     		push	{r4, lr}
 4520              		.cfi_def_cfa_offset 8
 4521              		.cfi_offset 4, -8
 4522              		.cfi_offset 14, -4
 4523              		.loc 1 824 0
 4524 0002 DFED0D7A 		flds	s15, .L188
 4525              		.loc 1 819 0
 4526 0006 84B0     		sub	sp, sp, #16
 4527              		.cfi_def_cfa_offset 24
 4528              		.loc 1 823 0
 4529 0008 04AC     		add	r4, sp, #16
 4530              		.loc 1 824 0
 4531 000a 20EE270A 		fmuls	s0, s0, s15
 4532              	.LVL432:
 4533              		.loc 1 823 0
 4534 000e 1523     		movs	r3, #21
 4535 0010 04F8083D 		strb	r3, [r4, #-8]!
 4536              		.loc 1 824 0
 4537 0014 FDEEC07A 		ftosizs	s15, s0
 4538              		.loc 1 823 0
 4539 0018 0123     		movs	r3, #1
 4540              		.loc 1 824 0
 4541 001a 17EE901A 		fmrs	r1, s15	@ int
 4542 001e 2046     		mov	r0, r4
 4543 0020 01AA     		add	r2, sp, #4
 4544              		.loc 1 823 0
 4545 0022 0193     		str	r3, [sp, #4]
 4546              		.loc 1 824 0
 4547 0024 FFF7FEFF 		bl	buffer_append_int32
 4548              	.LVL433:
 4549              	.LBB156:
 4550              	.LBB157:
 4551              		.loc 1 94 0
 4552 0028 044B     		ldr	r3, .L188+4
 4553              	.LBE157:
 4554              	.LBE156:
 4555              		.loc 1 826 0
 4556 002a 0199     		ldr	r1, [sp, #4]
 4557              	.LVL434:
 4558              	.LBB159:
 4559              	.LBB158:
 4560              		.loc 1 94 0
ARM GAS  /tmp/ccq8Pe5l.s 			page 81


 4561 002c 1B68     		ldr	r3, [r3]
 4562 002e 0BB1     		cbz	r3, .L182
 4563              		.loc 1 95 0
 4564 0030 2046     		mov	r0, r4
 4565 0032 9847     		blx	r3
 4566              	.LVL435:
 4567              	.L182:
 4568              	.LBE158:
 4569              	.LBE159:
 4570              		.loc 1 827 0
 4571 0034 04B0     		add	sp, sp, #16
 4572              		.cfi_def_cfa_offset 8
 4573              		@ sp needed
 4574 0036 10BD     		pop	{r4, pc}
 4575              	.LVL436:
 4576              	.L189:
 4577              		.align	2
 4578              	.L188:
 4579 0038 0050C347 		.word	1203982336
 4580 003c 00000000 		.word	.LANCHOR9
 4581              		.cfi_endproc
 4582              	.LFE262:
 4583              		.size	commands_send_rotor_pos, .-commands_send_rotor_pos
 4584              		.section	.text.commands_send_experiment_samples,"ax",%progbits
 4585              		.align	2
 4586              		.p2align 4,,15
 4587              		.global	commands_send_experiment_samples
 4588              		.thumb
 4589              		.thumb_func
 4590              		.type	commands_send_experiment_samples, %function
 4591              	commands_send_experiment_samples:
 4592              	.LFB263:
 4593              		.loc 1 829 0
 4594              		.cfi_startproc
 4595              		@ args = 0, pretend = 0, frame = 8
 4596              		@ frame_needed = 1, uses_anonymous_args = 0
 4597              	.LVL437:
 4598              		.loc 1 830 0
 4599 0000 8B00     		lsls	r3, r1, #2
 4600 0002 FF2B     		cmp	r3, #255
 4601 0004 34DC     		bgt	.L202
 4602              	.LVL438:
 4603              		.loc 1 829 0
 4604 0006 2DE9F043 		push	{r4, r5, r6, r7, r8, r9, lr}
 4605              		.cfi_def_cfa_offset 28
 4606              		.cfi_offset 4, -28
 4607              		.cfi_offset 5, -24
 4608              		.cfi_offset 6, -20
 4609              		.cfi_offset 7, -16
 4610              		.cfi_offset 8, -12
 4611              		.cfi_offset 9, -8
 4612              		.cfi_offset 14, -4
 4613 000a 2DED028B 		fstmfdd	sp!, {d8}
 4614              		.cfi_def_cfa_offset 36
 4615              		.cfi_offset 80, -36
 4616              		.cfi_offset 81, -32
 4617              		.loc 1 834 0
ARM GAS  /tmp/ccq8Pe5l.s 			page 82


 4618 000e 0833     		adds	r3, r3, #8
 4619              	.LVL439:
 4620              		.loc 1 829 0
 4621 0010 83B0     		sub	sp, sp, #12
 4622              		.cfi_def_cfa_offset 48
 4623              		.loc 1 834 0
 4624 0012 23F00703 		bic	r3, r3, #7
 4625              	.LVL440:
 4626              		.loc 1 829 0
 4627 0016 0E46     		mov	r6, r1
 4628 0018 00AF     		add	r7, sp, #0
 4629              		.cfi_def_cfa_register 7
 4630 001a E946     		mov	r9, sp
 4631              		.loc 1 834 0
 4632 001c ADEB030D 		sub	sp, sp, r3
 4633              		.loc 1 837 0
 4634 0020 0121     		movs	r1, #1
 4635              	.LVL441:
 4636 0022 1623     		movs	r3, #22
 4637              	.LBB160:
 4638              		.loc 1 839 0
 4639 0024 002E     		cmp	r6, #0
 4640              	.LBE160:
 4641              		.loc 1 837 0
 4642 0026 8DF80030 		strb	r3, [sp]
 4643              		.loc 1 834 0
 4644 002a E846     		mov	r8, sp
 4645              	.LVL442:
 4646              		.loc 1 837 0
 4647 002c 7960     		str	r1, [r7, #4]
 4648              	.LBB161:
 4649              		.loc 1 839 0
 4650 002e 13DD     		ble	.L192
 4651              		.loc 1 840 0
 4652 0030 9FED108A 		flds	s16, .L203
 4653 0034 0546     		mov	r5, r0
 4654              		.loc 1 839 0
 4655 0036 0024     		movs	r4, #0
 4656              	.LVL443:
 4657              	.L193:
 4658              		.loc 1 840 0 discriminator 3
 4659 0038 F5EC017A 		fldmias	r5!, {s15}
 4660 003c 67EE887A 		fmuls	s15, s15, s16
 4661              		.loc 1 839 0 discriminator 3
 4662 0040 0134     		adds	r4, r4, #1
 4663              	.LVL444:
 4664              		.loc 1 840 0 discriminator 3
 4665 0042 FDEEE77A 		ftosizs	s15, s15
 4666 0046 4046     		mov	r0, r8
 4667 0048 17EE901A 		fmrs	r1, s15	@ int
 4668 004c 3A1D     		adds	r2, r7, #4
 4669 004e FFF7FEFF 		bl	buffer_append_int32
 4670              	.LVL445:
 4671              		.loc 1 839 0 discriminator 3
 4672 0052 B442     		cmp	r4, r6
 4673 0054 F0D1     		bne	.L193
 4674 0056 7968     		ldr	r1, [r7, #4]
ARM GAS  /tmp/ccq8Pe5l.s 			page 83


 4675              	.LVL446:
 4676              	.L192:
 4677              	.LBE161:
 4678              	.LBB162:
 4679              	.LBB163:
 4680              		.loc 1 94 0
 4681 0058 074B     		ldr	r3, .L203+4
 4682 005a 1B68     		ldr	r3, [r3]
 4683 005c 0BB1     		cbz	r3, .L194
 4684              		.loc 1 95 0
 4685 005e 4046     		mov	r0, r8
 4686 0060 9847     		blx	r3
 4687              	.LVL447:
 4688              	.L194:
 4689              	.LBE163:
 4690              	.LBE162:
 4691              		.loc 1 844 0
 4692 0062 0C37     		adds	r7, r7, #12
 4693              		.cfi_def_cfa_offset 36
 4694 0064 CD46     		mov	sp, r9
 4695 0066 BD46     		mov	sp, r7
 4696              		.cfi_def_cfa_register 13
 4697              		@ sp needed
 4698 0068 BDEC028B 		fldmfdd	sp!, {d8}
 4699              		.cfi_restore 80
 4700              		.cfi_restore 81
 4701              		.cfi_def_cfa_offset 28
 4702 006c BDE8F083 		pop	{r4, r5, r6, r7, r8, r9, pc}
 4703              	.LVL448:
 4704              	.L202:
 4705              		.cfi_def_cfa_offset 0
 4706              		.cfi_restore 4
 4707              		.cfi_restore 5
 4708              		.cfi_restore 6
 4709              		.cfi_restore 7
 4710              		.cfi_restore 8
 4711              		.cfi_restore 9
 4712              		.cfi_restore 14
 4713 0070 7047     		bx	lr
 4714              	.L204:
 4715 0072 00BF     		.align	2
 4716              	.L203:
 4717 0074 00401C46 		.word	1176256512
 4718 0078 00000000 		.word	.LANCHOR9
 4719              		.cfi_endproc
 4720              	.LFE263:
 4721              		.size	commands_send_experiment_samples, .-commands_send_experiment_samples
 4722              		.section	.text.commands_get_disp_pos_mode,"ax",%progbits
 4723              		.align	2
 4724              		.p2align 4,,15
 4725              		.global	commands_get_disp_pos_mode
 4726              		.thumb
 4727              		.thumb_func
 4728              		.type	commands_get_disp_pos_mode, %function
 4729              	commands_get_disp_pos_mode:
 4730              	.LFB264:
 4731              		.loc 1 846 0
ARM GAS  /tmp/ccq8Pe5l.s 			page 84


 4732              		.cfi_startproc
 4733              		@ args = 0, pretend = 0, frame = 0
 4734              		@ frame_needed = 0, uses_anonymous_args = 0
 4735              		@ link register save eliminated.
 4736              		.loc 1 847 0
 4737 0000 014B     		ldr	r3, .L206
 4738              		.loc 1 848 0
 4739 0002 1878     		ldrb	r0, [r3]	@ zero_extendqisi2
 4740 0004 7047     		bx	lr
 4741              	.L207:
 4742 0006 00BF     		.align	2
 4743              	.L206:
 4744 0008 00000000 		.word	.LANCHOR12
 4745              		.cfi_endproc
 4746              	.LFE264:
 4747              		.size	commands_get_disp_pos_mode, .-commands_get_disp_pos_mode
 4748              		.section	.text.commands_set_app_data_handler,"ax",%progbits
 4749              		.align	2
 4750              		.p2align 4,,15
 4751              		.global	commands_set_app_data_handler
 4752              		.thumb
 4753              		.thumb_func
 4754              		.type	commands_set_app_data_handler, %function
 4755              	commands_set_app_data_handler:
 4756              	.LFB265:
 4757              		.loc 1 850 0
 4758              		.cfi_startproc
 4759              		@ args = 0, pretend = 0, frame = 0
 4760              		@ frame_needed = 0, uses_anonymous_args = 0
 4761              		@ link register save eliminated.
 4762              	.LVL449:
 4763              		.loc 1 851 0
 4764 0000 014B     		ldr	r3, .L209
 4765 0002 1860     		str	r0, [r3]
 4766 0004 7047     		bx	lr
 4767              	.L210:
 4768 0006 00BF     		.align	2
 4769              	.L209:
 4770 0008 00000000 		.word	.LANCHOR14
 4771              		.cfi_endproc
 4772              	.LFE265:
 4773              		.size	commands_set_app_data_handler, .-commands_set_app_data_handler
 4774              		.section	.text.commands_send_app_data,"ax",%progbits
 4775              		.align	2
 4776              		.p2align 4,,15
 4777              		.global	commands_send_app_data
 4778              		.thumb
 4779              		.thumb_func
 4780              		.type	commands_send_app_data, %function
 4781              	commands_send_app_data:
 4782              	.LFB266:
 4783              		.loc 1 854 0
 4784              		.cfi_startproc
 4785              		@ args = 0, pretend = 0, frame = 0
 4786              		@ frame_needed = 0, uses_anonymous_args = 0
 4787              	.LVL450:
 4788 0000 70B5     		push	{r4, r5, r6, lr}
ARM GAS  /tmp/ccq8Pe5l.s 			page 85


 4789              		.cfi_def_cfa_offset 16
 4790              		.cfi_offset 4, -16
 4791              		.cfi_offset 5, -12
 4792              		.cfi_offset 6, -8
 4793              		.cfi_offset 14, -4
 4794              		.loc 1 857 0
 4795 0002 0A4D     		ldr	r5, .L214
 4796              		.loc 1 854 0
 4797 0004 0246     		mov	r2, r0
 4798              		.loc 1 857 0
 4799 0006 2846     		mov	r0, r5
 4800              	.LVL451:
 4801              		.loc 1 854 0
 4802 0008 0C46     		mov	r4, r1
 4803              		.loc 1 857 0
 4804 000a 2323     		movs	r3, #35
 4805              		.loc 1 858 0
 4806 000c 1146     		mov	r1, r2
 4807              	.LVL452:
 4808              		.loc 1 857 0
 4809 000e 00F8013B 		strb	r3, [r0], #1
 4810              		.loc 1 858 0
 4811 0012 2246     		mov	r2, r4
 4812              	.LVL453:
 4813 0014 FFF7FEFF 		bl	memcpy
 4814              	.LVL454:
 4815              	.LBB164:
 4816              	.LBB165:
 4817              		.loc 1 94 0
 4818 0018 054B     		ldr	r3, .L214+4
 4819 001a 1B68     		ldr	r3, [r3]
 4820              	.LBE165:
 4821              	.LBE164:
 4822              		.loc 1 859 0
 4823 001c 611C     		adds	r1, r4, #1
 4824              	.LVL455:
 4825              	.LBB168:
 4826              	.LBB166:
 4827              		.loc 1 94 0
 4828 001e 1BB1     		cbz	r3, .L211
 4829              		.loc 1 95 0
 4830 0020 2846     		mov	r0, r5
 4831              	.LBE166:
 4832              	.LBE168:
 4833              		.loc 1 862 0
 4834 0022 BDE87040 		pop	{r4, r5, r6, lr}
 4835              		.cfi_remember_state
 4836              		.cfi_restore 14
 4837              		.cfi_restore 6
 4838              		.cfi_restore 5
 4839              		.cfi_restore 4
 4840              		.cfi_def_cfa_offset 0
 4841              	.LVL456:
 4842              	.LBB169:
 4843              	.LBB167:
 4844              		.loc 1 95 0
 4845 0026 1847     		bx	r3	@ indirect register sibling call
ARM GAS  /tmp/ccq8Pe5l.s 			page 86


 4846              	.LVL457:
 4847              	.L211:
 4848              		.cfi_restore_state
 4849 0028 70BD     		pop	{r4, r5, r6, pc}
 4850              	.LVL458:
 4851              	.L215:
 4852 002a 00BF     		.align	2
 4853              	.L214:
 4854 002c 00000000 		.word	.LANCHOR8
 4855 0030 00000000 		.word	.LANCHOR9
 4856              	.LBE167:
 4857              	.LBE169:
 4858              		.cfi_endproc
 4859              	.LFE266:
 4860              		.size	commands_send_app_data, .-commands_send_app_data
 4861              		.section	.bss.send_func,"aw",%nobits
 4862              		.align	2
 4863              		.set	.LANCHOR9,. + 0
 4864              		.type	send_func, %object
 4865              		.size	send_func, 4
 4866              	send_func:
 4867 0000 00000000 		.space	4
 4868              		.section	.bss.detect_min_rpm,"aw",%nobits
 4869              		.align	2
 4870              		.set	.LANCHOR2,. + 0
 4871              		.type	detect_min_rpm, %object
 4872              		.size	detect_min_rpm, 4
 4873              	detect_min_rpm:
 4874 0000 00000000 		.space	4
 4875              		.section	.bss.appdata_func,"aw",%nobits
 4876              		.align	2
 4877              		.set	.LANCHOR14,. + 0
 4878              		.type	appdata_func, %object
 4879              		.size	appdata_func, 4
 4880              	appdata_func:
 4881 0000 00000000 		.space	4
 4882              		.section	.bss.detect_hall_table,"aw",%nobits
 4883              		.align	2
 4884              		.set	.LANCHOR6,. + 0
 4885              		.type	detect_hall_table, %object
 4886              		.size	detect_hall_table, 8
 4887              	detect_hall_table:
 4888 0000 00000000 		.space	8
 4888      00000000 
 4889              		.section	.bss.mcconf.11176,"aw",%nobits
 4890              		.align	2
 4891              		.set	.LANCHOR11,. + 0
 4892              		.type	mcconf.11176, %object
 4893              		.size	mcconf.11176, 304
 4894              	mcconf.11176:
 4895 0000 00000000 		.space	304
 4895      00000000 
 4895      00000000 
 4895      00000000 
 4895      00000000 
 4896              		.section	.bss.mcconf_old.11177,"aw",%nobits
 4897              		.align	2
ARM GAS  /tmp/ccq8Pe5l.s 			page 87


 4898              		.set	.LANCHOR13,. + 0
 4899              		.type	mcconf_old.11177, %object
 4900              		.size	mcconf_old.11177, 304
 4901              	mcconf_old.11177:
 4902 0000 00000000 		.space	304
 4902      00000000 
 4902      00000000 
 4902      00000000 
 4902      00000000 
 4903              		.section	.bss.detect_hall_res,"aw",%nobits
 4904              		.align	2
 4905              		.set	.LANCHOR7,. + 0
 4906              		.type	detect_hall_res, %object
 4907              		.size	detect_hall_res, 4
 4908              	detect_hall_res:
 4909 0000 00000000 		.space	4
 4910              		.section	.bss.detect_thread_wa,"aw",%nobits
 4911              		.align	3
 4912              		.set	.LANCHOR10,. + 0
 4913              		.type	detect_thread_wa, %object
 4914              		.size	detect_thread_wa, 2456
 4915              	detect_thread_wa:
 4916 0000 00000000 		.space	2456
 4916      00000000 
 4916      00000000 
 4916      00000000 
 4916      00000000 
 4917              		.section	.bss.send_buffer,"aw",%nobits
 4918              		.align	2
 4919              		.set	.LANCHOR8,. + 0
 4920              		.type	send_buffer, %object
 4921              		.size	send_buffer, 1024
 4922              	send_buffer:
 4923 0000 00000000 		.space	1024
 4923      00000000 
 4923      00000000 
 4923      00000000 
 4923      00000000 
 4924              		.section	.rodata.str1.4,"aMS",%progbits,1
 4925              		.align	2
 4926              	.LC0:
 4927 0000 44657465 		.ascii	"Detect\000"
 4927      637400
 4928              		.section	.bss.detect_tp,"aw",%nobits
 4929              		.align	2
 4930              		.set	.LANCHOR0,. + 0
 4931              		.type	detect_tp, %object
 4932              		.size	detect_tp, 4
 4933              	detect_tp:
 4934 0000 00000000 		.space	4
 4935              		.section	.bss.detect_low_duty,"aw",%nobits
 4936              		.align	2
 4937              		.set	.LANCHOR3,. + 0
 4938              		.type	detect_low_duty, %object
 4939              		.size	detect_low_duty, 4
 4940              	detect_low_duty:
 4941 0000 00000000 		.space	4
ARM GAS  /tmp/ccq8Pe5l.s 			page 88


 4942              		.section	.bss.print_buffer.11235,"aw",%nobits
 4943              		.align	2
 4944              		.set	.LANCHOR15,. + 0
 4945              		.type	print_buffer.11235, %object
 4946              		.size	print_buffer.11235, 255
 4947              	print_buffer.11235:
 4948 0000 00000000 		.space	255
 4948      00000000 
 4948      00000000 
 4948      00000000 
 4948      00000000 
 4949              		.section	.bss.detect_current,"aw",%nobits
 4950              		.align	2
 4951              		.set	.LANCHOR1,. + 0
 4952              		.type	detect_current, %object
 4953              		.size	detect_current, 4
 4954              	detect_current:
 4955 0000 00000000 		.space	4
 4956              		.section	.bss.detect_coupling_k,"aw",%nobits
 4957              		.align	2
 4958              		.set	.LANCHOR5,. + 0
 4959              		.type	detect_coupling_k, %object
 4960              		.size	detect_coupling_k, 4
 4961              	detect_coupling_k:
 4962 0000 00000000 		.space	4
 4963              		.section	.bss.detect_cycle_int_limit,"aw",%nobits
 4964              		.align	2
 4965              		.set	.LANCHOR4,. + 0
 4966              		.type	detect_cycle_int_limit, %object
 4967              		.size	detect_cycle_int_limit, 4
 4968              	detect_cycle_int_limit:
 4969 0000 00000000 		.space	4
 4970              		.section	.bss.display_position_mode,"aw",%nobits
 4971              		.set	.LANCHOR12,. + 0
 4972              		.type	display_position_mode, %object
 4973              		.size	display_position_mode, 1
 4974              	display_position_mode:
 4975 0000 00       		.space	1
 4976              		.text
 4977              	.Letext0:
 4978              		.file 4 "/usr/arm-none-eabi/include/machine/_default_types.h"
 4979              		.file 5 "/usr/arm-none-eabi/include/sys/_stdint.h"
 4980              		.file 6 "/usr/lib/gcc/arm-none-eabi/4.9.3/include/stddef.h"
 4981              		.file 7 "ChibiOS_3.0.2/os/rt/ports/ARMCMx/compilers/GCC/chtypes.h"
 4982              		.file 8 "ChibiOS_3.0.2/os/rt/include/chsystypes.h"
 4983              		.file 9 "ChibiOS_3.0.2/os/rt/include/chschd.h"
 4984              		.file 10 "ChibiOS_3.0.2/os/rt/ports/ARMCMx/chcore.h"
 4985              		.file 11 "ChibiOS_3.0.2/os/rt/ports/ARMCMx/chcore_v7m.h"
 4986              		.file 12 "ChibiOS_3.0.2/os/rt/include/chtm.h"
 4987              		.file 13 "ChibiOS_3.0.2/os/rt/include/chsem.h"
 4988              		.file 14 "ChibiOS_3.0.2/os/rt/include/chmtx.h"
 4989              		.file 15 "ChibiOS_3.0.2/os/rt/include/chthreads.h"
 4990              		.file 16 "datatypes.h"
 4991              		.file 17 "ChibiOS_3.0.2/ext/stdperiph_stm32f4/inc/stm32f4xx_flash.h"
 4992              		.file 18 "/usr/lib/gcc/arm-none-eabi/4.9.3/include/stdarg.h"
 4993              		.file 19 "<built-in>"
 4994              		.file 20 "ChibiOS_3.0.2/os/ext/CMSIS/include/core_cm4.h"
ARM GAS  /tmp/ccq8Pe5l.s 			page 89


 4995              		.file 21 "mc_interface.h"
 4996              		.file 22 "ChibiOS_3.0.2/os/rt/include/chevents.h"
 4997              		.file 23 "conf_general.h"
 4998              		.file 24 "buffer.h"
 4999              		.file 25 "mcpwm_foc.h"
 5000              		.file 26 "mcpwm.h"
 5001              		.file 27 "timeout.h"
 5002              		.file 28 "servo_dec.h"
 5003              		.file 29 "/usr/arm-none-eabi/include/math.h"
 5004              		.file 30 "flash_helper.h"
 5005              		.file 31 "applications/app.h"
 5006              		.file 32 "comm_can.h"
 5007              		.file 33 "terminal.h"
 5008              		.file 34 "/usr/arm-none-eabi/include/stdio.h"