ARM GAS  /tmp/ccMegAxQ.s 			page 1


   1              		.syntax unified
   2              		.cpu cortex-m4
   3              		.eabi_attribute 27, 1
   4              		.eabi_attribute 28, 1
   5              		.fpu fpv4-sp-d16
   6              		.eabi_attribute 20, 1
   7              		.eabi_attribute 21, 1
   8              		.eabi_attribute 23, 3
   9              		.eabi_attribute 24, 1
  10              		.eabi_attribute 25, 1
  11              		.eabi_attribute 26, 1
  12              		.eabi_attribute 30, 2
  13              		.eabi_attribute 34, 1
  14              		.eabi_attribute 18, 4
  15              		.thumb
  16              		.file	"comm_usb_serial.c"
  17              		.text
  18              	.Ltext0:
  19              		.cfi_sections	.debug_frame
  20              		.section	.text.get_descriptor,"ax",%progbits
  21              		.align	2
  22              		.p2align 4,,15
  23              		.thumb
  24              		.thumb_func
  25              		.type	get_descriptor, %function
  26              	get_descriptor:
  27              	.LFB256:
  28              		.file 1 "comm_usb_serial.c"
  29              		.loc 1 189 0
  30              		.cfi_startproc
  31              		@ args = 0, pretend = 0, frame = 0
  32              		@ frame_needed = 0, uses_anonymous_args = 0
  33              		@ link register save eliminated.
  34              	.LVL0:
  35              		.loc 1 193 0
  36 0000 0229     		cmp	r1, #2
  37 0002 06D0     		beq	.L3
  38 0004 0329     		cmp	r1, #3
  39 0006 06D0     		beq	.L4
  40 0008 0129     		cmp	r1, #1
  41              		.loc 1 202 0
  42 000a 0648     		ldr	r0, .L9
  43              	.LVL1:
  44 000c 18BF     		it	ne
  45 000e 0020     		movne	r0, #0
  46 0010 7047     		bx	lr
  47              	.LVL2:
  48              	.L3:
  49              		.loc 1 197 0
  50 0012 0548     		ldr	r0, .L9+4
  51              	.LVL3:
  52 0014 7047     		bx	lr
  53              	.LVL4:
  54              	.L4:
  55              		.loc 1 199 0
  56 0016 032A     		cmp	r2, #3
  57              		.loc 1 200 0
ARM GAS  /tmp/ccMegAxQ.s 			page 2


  58 0018 9ABF     		itte	ls
  59 001a 044B     		ldrls	r3, .L9+8
  60              	.LVL5:
  61 001c 03EBC200 		addls	r0, r3, r2, lsl #3
  62              	.LVL6:
  63              		.loc 1 202 0
  64 0020 0020     		movhi	r0, #0
  65              		.loc 1 203 0
  66 0022 7047     		bx	lr
  67              	.L10:
  68              		.align	2
  69              	.L9:
  70 0024 00000000 		.word	.LANCHOR0
  71 0028 00000000 		.word	.LANCHOR1
  72 002c 00000000 		.word	.LANCHOR2
  73              		.cfi_endproc
  74              	.LFE256:
  75              		.size	get_descriptor, .-get_descriptor
  76              		.section	.text.usb_event,"ax",%progbits
  77              		.align	2
  78              		.p2align 4,,15
  79              		.thumb
  80              		.thumb_func
  81              		.type	usb_event, %function
  82              	usb_event:
  83              	.LFB257:
  84              		.loc 1 255 0
  85              		.cfi_startproc
  86              		@ args = 0, pretend = 0, frame = 0
  87              		@ frame_needed = 0, uses_anonymous_args = 0
  88              	.LVL7:
  89              		.loc 1 257 0
  90 0000 0229     		cmp	r1, #2
  91 0002 15D1     		bne	.L15
  92              		.loc 1 255 0
  93 0004 38B5     		push	{r3, r4, r5, lr}
  94              		.cfi_def_cfa_offset 16
  95              		.cfi_offset 3, -16
  96              		.cfi_offset 4, -12
  97              		.cfi_offset 5, -8
  98              		.cfi_offset 14, -4
  99 0006 0546     		mov	r5, r0
 100 0008 0C46     		mov	r4, r1
 101              	.LVL8:
 102              	.LBB58:
 103              	.LBB59:
 104              	.LBB60:
 105              	.LBB61:
 106              	.LBB62:
 107              	.LBB63:
 108              	.LBB64:
 109              		.file 2 "ChibiOS_3.0.2/os/ext/CMSIS/include/core_cmFunc.h"
 110              		.loc 2 546 0
 111 000a 2023     		movs	r3, #32
 112              	@ 546 "ChibiOS_3.0.2/os/ext/CMSIS/include/core_cmFunc.h" 1
 113 000c 83F31188 		MSR basepri, r3
 114              	@ 0 "" 2
ARM GAS  /tmp/ccMegAxQ.s 			page 3


 115              		.thumb
 116              	.LBE64:
 117              	.LBE63:
 118              	.LBE62:
 119              	.LBE61:
 120              	.LBE60:
 121              		.loc 1 268 0
 122 0010 0121     		movs	r1, #1
 123              	.LVL9:
 124 0012 084A     		ldr	r2, .L16
 125 0014 FFF7FEFF 		bl	usbInitEndpointI
 126              	.LVL10:
 127              		.loc 1 269 0
 128 0018 2846     		mov	r0, r5
 129 001a 2146     		mov	r1, r4
 130 001c 064A     		ldr	r2, .L16+4
 131 001e FFF7FEFF 		bl	usbInitEndpointI
 132              	.LVL11:
 133              		.loc 1 272 0
 134 0022 0648     		ldr	r0, .L16+8
 135 0024 FFF7FEFF 		bl	sduConfigureHookI
 136              	.LVL12:
 137              	.LBB65:
 138              	.LBB66:
 139              	.LBB67:
 140              	.LBB68:
 141              	.LBB69:
 142              		.loc 2 546 0
 143 0028 0023     		movs	r3, #0
 144              	@ 546 "ChibiOS_3.0.2/os/ext/CMSIS/include/core_cmFunc.h" 1
 145 002a 83F31188 		MSR basepri, r3
 146              	@ 0 "" 2
 147              		.thumb
 148 002e 38BD     		pop	{r3, r4, r5, pc}
 149              	.LVL13:
 150              	.L15:
 151              		.cfi_def_cfa_offset 0
 152              		.cfi_restore 3
 153              		.cfi_restore 4
 154              		.cfi_restore 5
 155              		.cfi_restore 14
 156 0030 7047     		bx	lr
 157              	.L17:
 158 0032 00BF     		.align	2
 159              	.L16:
 160 0034 00000000 		.word	.LANCHOR3
 161 0038 00000000 		.word	.LANCHOR4
 162 003c 00000000 		.word	.LANCHOR5
 163              	.LBE69:
 164              	.LBE68:
 165              	.LBE67:
 166              	.LBE66:
 167              	.LBE65:
 168              	.LBE59:
 169              	.LBE58:
 170              		.cfi_endproc
 171              	.LFE257:
ARM GAS  /tmp/ccMegAxQ.s 			page 4


 172              		.size	usb_event, .-usb_event
 173              		.section	.text.comm_usb_serial_init,"ax",%progbits
 174              		.align	2
 175              		.p2align 4,,15
 176              		.global	comm_usb_serial_init
 177              		.thumb
 178              		.thumb_func
 179              		.type	comm_usb_serial_init, %function
 180              	comm_usb_serial_init:
 181              	.LFB258:
 182              		.loc 1 306 0
 183              		.cfi_startproc
 184              		@ args = 0, pretend = 0, frame = 0
 185              		@ frame_needed = 0, uses_anonymous_args = 0
 186 0000 38B5     		push	{r3, r4, r5, lr}
 187              		.cfi_def_cfa_offset 16
 188              		.cfi_offset 3, -16
 189              		.cfi_offset 4, -12
 190              		.cfi_offset 5, -8
 191              		.cfi_offset 14, -4
 192              		.loc 1 307 0
 193 0002 0E4D     		ldr	r5, .L20
 194              		.loc 1 315 0
 195 0004 0E4C     		ldr	r4, .L20+4
 196              		.loc 1 307 0
 197 0006 2846     		mov	r0, r5
 198 0008 FFF7FEFF 		bl	sduObjectInit
 199              	.LVL14:
 200              		.loc 1 308 0
 201 000c 0D49     		ldr	r1, .L20+8
 202 000e 2846     		mov	r0, r5
 203 0010 FFF7FEFF 		bl	sduStart
 204              	.LVL15:
 205              		.loc 1 315 0
 206 0014 226D     		ldr	r2, [r4, #80]
 207 0016 936B     		ldr	r3, [r2, #56]
 208 0018 23F40023 		bic	r3, r3, #524288
 209 001c 9363     		str	r3, [r2, #56]
 210              		.loc 1 316 0
 211 001e 43F69820 		movw	r0, #15000
 212 0022 FFF7FEFF 		bl	chThdSleep
 213              	.LVL16:
 214              		.loc 1 317 0
 215 0026 2046     		mov	r0, r4
 216 0028 0749     		ldr	r1, .L20+12
 217 002a FFF7FEFF 		bl	usbStart
 218              	.LVL17:
 219              		.loc 1 318 0
 220 002e 226D     		ldr	r2, [r4, #80]
 221 0030 936B     		ldr	r3, [r2, #56]
 222 0032 43F40023 		orr	r3, r3, #524288
 223 0036 9363     		str	r3, [r2, #56]
 224 0038 38BD     		pop	{r3, r4, r5, pc}
 225              	.L21:
 226 003a 00BF     		.align	2
 227              	.L20:
 228 003c 00000000 		.word	.LANCHOR5
ARM GAS  /tmp/ccMegAxQ.s 			page 5


 229 0040 00000000 		.word	USBD1
 230 0044 00000000 		.word	.LANCHOR6
 231 0048 00000000 		.word	.LANCHOR7
 232              		.cfi_endproc
 233              	.LFE258:
 234              		.size	comm_usb_serial_init, .-comm_usb_serial_init
 235              		.section	.text.comm_usb_serial_is_active,"ax",%progbits
 236              		.align	2
 237              		.p2align 4,,15
 238              		.global	comm_usb_serial_is_active
 239              		.thumb
 240              		.thumb_func
 241              		.type	comm_usb_serial_is_active, %function
 242              	comm_usb_serial_is_active:
 243              	.LFB259:
 244              		.loc 1 321 0
 245              		.cfi_startproc
 246              		@ args = 0, pretend = 0, frame = 0
 247              		@ frame_needed = 0, uses_anonymous_args = 0
 248              		@ link register save eliminated.
 249              		.loc 1 322 0
 250 0000 054B     		ldr	r3, .L23
 251 0002 D3F85432 		ldr	r3, [r3, #596]
 252 0006 1B68     		ldr	r3, [r3]
 253 0008 1878     		ldrb	r0, [r3]	@ zero_extendqisi2
 254              		.loc 1 323 0
 255 000a A0F10400 		sub	r0, #4
 256 000e B0FA80F0 		clz	r0, r0
 257 0012 4009     		lsrs	r0, r0, #5
 258 0014 7047     		bx	lr
 259              	.L24:
 260 0016 00BF     		.align	2
 261              	.L23:
 262 0018 00000000 		.word	.LANCHOR5
 263              		.cfi_endproc
 264              	.LFE259:
 265              		.size	comm_usb_serial_is_active, .-comm_usb_serial_is_active
 266              		.global	serusbcfg
 267              		.global	SDU1
 268              		.section	.rodata.ep1config,"a",%progbits
 269              		.align	2
 270              		.set	.LANCHOR3,. + 0
 271              		.type	ep1config, %object
 272              		.size	ep1config, 36
 273              	ep1config:
 274 0000 02000000 		.word	2
 275 0004 00000000 		.word	0
 276 0008 00000000 		.word	sduDataTransmitted
 277 000c 00000000 		.word	sduDataReceived
 278 0010 4000     		.short	64
 279 0012 4000     		.short	64
 280 0014 00000000 		.word	ep1instate
 281 0018 00000000 		.word	ep1outstate
 282 001c 0200     		.short	2
 283 001e 0000     		.space	2
 284 0020 00000000 		.word	0
 285              		.section	.bss.ep2instate,"aw",%nobits
ARM GAS  /tmp/ccMegAxQ.s 			page 6


 286              		.align	2
 287              		.type	ep2instate, %object
 288              		.size	ep2instate, 20
 289              	ep2instate:
 290 0000 00000000 		.space	20
 290      00000000 
 290      00000000 
 290      00000000 
 290      00000000 
 291              		.section	.bss.SDU1,"aw",%nobits
 292              		.align	2
 293              		.set	.LANCHOR5,. + 0
 294              		.type	SDU1, %object
 295              		.size	SDU1, 600
 296              	SDU1:
 297 0000 00000000 		.space	600
 297      00000000 
 297      00000000 
 297      00000000 
 297      00000000 
 298              		.section	.bss.ep1instate,"aw",%nobits
 299              		.align	2
 300              		.type	ep1instate, %object
 301              		.size	ep1instate, 20
 302              	ep1instate:
 303 0000 00000000 		.space	20
 303      00000000 
 303      00000000 
 303      00000000 
 303      00000000 
 304              		.section	.rodata.vcom_configuration_descriptor,"a",%progbits
 305              		.align	2
 306              		.set	.LANCHOR1,. + 0
 307              		.type	vcom_configuration_descriptor, %object
 308              		.size	vcom_configuration_descriptor, 8
 309              	vcom_configuration_descriptor:
 310 0000 43000000 		.word	67
 311 0004 00000000 		.word	vcom_configuration_descriptor_data
 312              		.section	.rodata.ep2config,"a",%progbits
 313              		.align	2
 314              		.set	.LANCHOR4,. + 0
 315              		.type	ep2config, %object
 316              		.size	ep2config, 36
 317              	ep2config:
 318 0000 03000000 		.word	3
 319 0004 00000000 		.word	0
 320 0008 00000000 		.word	sduInterruptTransmitted
 321 000c 00000000 		.word	0
 322 0010 1000     		.short	16
 323 0012 0000     		.short	0
 324 0014 00000000 		.word	ep2instate
 325 0018 00000000 		.word	0
 326 001c 0100     		.short	1
 327 001e 0000     		.space	2
 328 0020 00000000 		.word	0
 329              		.section	.rodata.usbcfg,"a",%progbits
 330              		.align	2
ARM GAS  /tmp/ccMegAxQ.s 			page 7


 331              		.set	.LANCHOR7,. + 0
 332              		.type	usbcfg, %object
 333              		.size	usbcfg, 16
 334              	usbcfg:
 335 0000 00000000 		.word	usb_event
 336 0004 00000000 		.word	get_descriptor
 337 0008 00000000 		.word	sduRequestsHook
 338 000c 00000000 		.word	0
 339              		.section	.rodata.vcom_configuration_descriptor_data,"a",%progbits
 340              		.align	2
 341              		.type	vcom_configuration_descriptor_data, %object
 342              		.size	vcom_configuration_descriptor_data, 67
 343              	vcom_configuration_descriptor_data:
 344 0000 09       		.byte	9
 345 0001 02       		.byte	2
 346 0002 43       		.byte	67
 347 0003 00       		.byte	0
 348 0004 02       		.byte	2
 349 0005 01       		.byte	1
 350 0006 00       		.byte	0
 351 0007 C0       		.byte	-64
 352 0008 32       		.byte	50
 353 0009 09       		.byte	9
 354 000a 04       		.byte	4
 355 000b 00       		.byte	0
 356 000c 00       		.byte	0
 357 000d 01       		.byte	1
 358 000e 02       		.byte	2
 359 000f 02       		.byte	2
 360 0010 01       		.byte	1
 361 0011 00       		.byte	0
 362 0012 05       		.byte	5
 363 0013 24       		.byte	36
 364 0014 00       		.byte	0
 365 0015 10       		.byte	16
 366 0016 01       		.byte	1
 367 0017 05       		.byte	5
 368 0018 24       		.byte	36
 369 0019 01       		.byte	1
 370 001a 00       		.byte	0
 371 001b 01       		.byte	1
 372 001c 04       		.byte	4
 373 001d 24       		.byte	36
 374 001e 02       		.byte	2
 375 001f 02       		.byte	2
 376 0020 05       		.byte	5
 377 0021 24       		.byte	36
 378 0022 06       		.byte	6
 379 0023 00       		.byte	0
 380 0024 01       		.byte	1
 381 0025 07       		.byte	7
 382 0026 05       		.byte	5
 383 0027 82       		.byte	-126
 384 0028 03       		.byte	3
 385 0029 08       		.byte	8
 386 002a 00       		.byte	0
 387 002b FF       		.byte	-1
ARM GAS  /tmp/ccMegAxQ.s 			page 8


 388 002c 09       		.byte	9
 389 002d 04       		.byte	4
 390 002e 01       		.byte	1
 391 002f 00       		.byte	0
 392 0030 02       		.byte	2
 393 0031 0A       		.byte	10
 394 0032 00       		.byte	0
 395 0033 00       		.byte	0
 396 0034 00       		.byte	0
 397 0035 07       		.byte	7
 398 0036 05       		.byte	5
 399 0037 01       		.byte	1
 400 0038 02       		.byte	2
 401 0039 40       		.byte	64
 402 003a 00       		.byte	0
 403 003b 00       		.byte	0
 404 003c 07       		.byte	7
 405 003d 05       		.byte	5
 406 003e 81       		.byte	-127
 407 003f 02       		.byte	2
 408 0040 40       		.byte	64
 409 0041 00       		.byte	0
 410 0042 00       		.byte	0
 411              		.section	.rodata.vcom_device_descriptor_data,"a",%progbits
 412              		.align	2
 413              		.type	vcom_device_descriptor_data, %object
 414              		.size	vcom_device_descriptor_data, 18
 415              	vcom_device_descriptor_data:
 416 0000 12       		.byte	18
 417 0001 01       		.byte	1
 418 0002 10       		.byte	16
 419 0003 01       		.byte	1
 420 0004 02       		.byte	2
 421 0005 00       		.byte	0
 422 0006 00       		.byte	0
 423 0007 40       		.byte	64
 424 0008 83       		.byte	-125
 425 0009 04       		.byte	4
 426 000a 40       		.byte	64
 427 000b 57       		.byte	87
 428 000c 00       		.byte	0
 429 000d 02       		.byte	2
 430 000e 01       		.byte	1
 431 000f 02       		.byte	2
 432 0010 03       		.byte	3
 433 0011 01       		.byte	1
 434              		.section	.bss.ep1outstate,"aw",%nobits
 435              		.align	2
 436              		.type	ep1outstate, %object
 437              		.size	ep1outstate, 20
 438              	ep1outstate:
 439 0000 00000000 		.space	20
 439      00000000 
 439      00000000 
 439      00000000 
 439      00000000 
 440              		.section	.rodata.vcom_string0,"a",%progbits
ARM GAS  /tmp/ccMegAxQ.s 			page 9


 441              		.align	2
 442              		.type	vcom_string0, %object
 443              		.size	vcom_string0, 4
 444              	vcom_string0:
 445 0000 04       		.byte	4
 446 0001 03       		.byte	3
 447 0002 09       		.byte	9
 448 0003 04       		.byte	4
 449              		.section	.rodata.vcom_string1,"a",%progbits
 450              		.align	2
 451              		.type	vcom_string1, %object
 452              		.size	vcom_string1, 38
 453              	vcom_string1:
 454 0000 26       		.byte	38
 455 0001 03       		.byte	3
 456 0002 53       		.byte	83
 457 0003 00       		.byte	0
 458 0004 54       		.byte	84
 459 0005 00       		.byte	0
 460 0006 4D       		.byte	77
 461 0007 00       		.byte	0
 462 0008 69       		.byte	105
 463 0009 00       		.byte	0
 464 000a 63       		.byte	99
 465 000b 00       		.byte	0
 466 000c 72       		.byte	114
 467 000d 00       		.byte	0
 468 000e 6F       		.byte	111
 469 000f 00       		.byte	0
 470 0010 65       		.byte	101
 471 0011 00       		.byte	0
 472 0012 6C       		.byte	108
 473 0013 00       		.byte	0
 474 0014 65       		.byte	101
 475 0015 00       		.byte	0
 476 0016 63       		.byte	99
 477 0017 00       		.byte	0
 478 0018 74       		.byte	116
 479 0019 00       		.byte	0
 480 001a 72       		.byte	114
 481 001b 00       		.byte	0
 482 001c 6F       		.byte	111
 483 001d 00       		.byte	0
 484 001e 6E       		.byte	110
 485 001f 00       		.byte	0
 486 0020 69       		.byte	105
 487 0021 00       		.byte	0
 488 0022 63       		.byte	99
 489 0023 00       		.byte	0
 490 0024 73       		.byte	115
 491 0025 00       		.byte	0
 492              		.section	.rodata.vcom_string2,"a",%progbits
 493              		.align	2
 494              		.type	vcom_string2, %object
 495              		.size	vcom_string2, 56
 496              	vcom_string2:
 497 0000 38       		.byte	56
ARM GAS  /tmp/ccMegAxQ.s 			page 10


 498 0001 03       		.byte	3
 499 0002 43       		.byte	67
 500 0003 00       		.byte	0
 501 0004 68       		.byte	104
 502 0005 00       		.byte	0
 503 0006 69       		.byte	105
 504 0007 00       		.byte	0
 505 0008 62       		.byte	98
 506 0009 00       		.byte	0
 507 000a 69       		.byte	105
 508 000b 00       		.byte	0
 509 000c 4F       		.byte	79
 510 000d 00       		.byte	0
 511 000e 53       		.byte	83
 512 000f 00       		.byte	0
 513 0010 2F       		.byte	47
 514 0011 00       		.byte	0
 515 0012 52       		.byte	82
 516 0013 00       		.byte	0
 517 0014 54       		.byte	84
 518 0015 00       		.byte	0
 519 0016 20       		.byte	32
 520 0017 00       		.byte	0
 521 0018 56       		.byte	86
 522 0019 00       		.byte	0
 523 001a 69       		.byte	105
 524 001b 00       		.byte	0
 525 001c 72       		.byte	114
 526 001d 00       		.byte	0
 527 001e 74       		.byte	116
 528 001f 00       		.byte	0
 529 0020 75       		.byte	117
 530 0021 00       		.byte	0
 531 0022 61       		.byte	97
 532 0023 00       		.byte	0
 533 0024 6C       		.byte	108
 534 0025 00       		.byte	0
 535 0026 20       		.byte	32
 536 0027 00       		.byte	0
 537 0028 43       		.byte	67
 538 0029 00       		.byte	0
 539 002a 4F       		.byte	79
 540 002b 00       		.byte	0
 541 002c 4D       		.byte	77
 542 002d 00       		.byte	0
 543 002e 20       		.byte	32
 544 002f 00       		.byte	0
 545 0030 50       		.byte	80
 546 0031 00       		.byte	0
 547 0032 6F       		.byte	111
 548 0033 00       		.byte	0
 549 0034 72       		.byte	114
 550 0035 00       		.byte	0
 551 0036 74       		.byte	116
 552 0037 00       		.byte	0
 553              		.section	.rodata.vcom_string3,"a",%progbits
 554              		.align	2
ARM GAS  /tmp/ccMegAxQ.s 			page 11


 555              		.type	vcom_string3, %object
 556              		.size	vcom_string3, 8
 557              	vcom_string3:
 558 0000 08       		.byte	8
 559 0001 03       		.byte	3
 560 0002 33       		.byte	51
 561 0003 00       		.byte	0
 562 0004 30       		.byte	48
 563 0005 00       		.byte	0
 564 0006 31       		.byte	49
 565 0007 00       		.byte	0
 566              		.section	.rodata.vcom_strings,"a",%progbits
 567              		.align	2
 568              		.set	.LANCHOR2,. + 0
 569              		.type	vcom_strings, %object
 570              		.size	vcom_strings, 32
 571              	vcom_strings:
 572 0000 04000000 		.word	4
 573 0004 00000000 		.word	vcom_string0
 574 0008 26000000 		.word	38
 575 000c 00000000 		.word	vcom_string1
 576 0010 38000000 		.word	56
 577 0014 00000000 		.word	vcom_string2
 578 0018 08000000 		.word	8
 579 001c 00000000 		.word	vcom_string3
 580              		.section	.rodata.serusbcfg,"a",%progbits
 581              		.align	2
 582              		.set	.LANCHOR6,. + 0
 583              		.type	serusbcfg, %object
 584              		.size	serusbcfg, 8
 585              	serusbcfg:
 586 0000 00000000 		.word	USBD1
 587 0004 01       		.byte	1
 588 0005 01       		.byte	1
 589 0006 02       		.byte	2
 590 0007 00       		.space	1
 591              		.section	.rodata.vcom_device_descriptor,"a",%progbits
 592              		.align	2
 593              		.set	.LANCHOR0,. + 0
 594              		.type	vcom_device_descriptor, %object
 595              		.size	vcom_device_descriptor, 8
 596              	vcom_device_descriptor:
 597 0000 12000000 		.word	18
 598 0004 00000000 		.word	vcom_device_descriptor_data
 599              		.text
 600              	.Letext0:
 601              		.file 3 "/usr/lib/gcc/arm-none-eabi/4.9.3/include/stddef.h"
 602              		.file 4 "/usr/arm-none-eabi/include/machine/_default_types.h"
 603              		.file 5 "/usr/arm-none-eabi/include/sys/_stdint.h"
 604              		.file 6 "ChibiOS_3.0.2/os/rt/ports/ARMCMx/compilers/GCC/chtypes.h"
 605              		.file 7 "ChibiOS_3.0.2/os/rt/include/chsystypes.h"
 606              		.file 8 "ChibiOS_3.0.2/os/rt/include/chschd.h"
 607              		.file 9 "ChibiOS_3.0.2/os/rt/ports/ARMCMx/chcore.h"
 608              		.file 10 "ChibiOS_3.0.2/os/rt/ports/ARMCMx/chcore_v7m.h"
 609              		.file 11 "ChibiOS_3.0.2/os/rt/include/chtm.h"
 610              		.file 12 "ChibiOS_3.0.2/os/rt/include/chsem.h"
 611              		.file 13 "ChibiOS_3.0.2/os/rt/include/chmtx.h"
ARM GAS  /tmp/ccMegAxQ.s 			page 12


 612              		.file 14 "ChibiOS_3.0.2/os/rt/include/chevents.h"
 613              		.file 15 "ChibiOS_3.0.2/os/rt/include/chqueues.h"
 614              		.file 16 "ChibiOS_3.0.2/os/hal/include/usb.h"
 615              		.file 17 "ChibiOS_3.0.2/os/hal/ports/STM32/LLD/OTGv1/usb_lld.h"
 616              		.file 18 "ChibiOS_3.0.2/os/hal/ports/STM32/LLD/OTGv1/stm32_otg.h"
 617              		.file 19 "ChibiOS_3.0.2/os/hal/include/serial_usb.h"
 618              		.file 20 "ChibiOS_3.0.2/os/rt/include/chsys.h"
 619              		.file 21 "ChibiOS_3.0.2/os/ext/CMSIS/include/core_cm4.h"
 620              		.file 22 "ChibiOS_3.0.2/os/rt/include/chthreads.h"