ARM GAS  /tmp/ccUitOsI.s 			page 1


   1              		.syntax unified
   2              		.cpu cortex-m4
   3              		.eabi_attribute 27, 1
   4              		.eabi_attribute 28, 1
   5              		.fpu fpv4-sp-d16
   6              		.eabi_attribute 20, 1
   7              		.eabi_attribute 21, 1
   8              		.eabi_attribute 23, 3
   9              		.eabi_attribute 24, 1
  10              		.eabi_attribute 25, 1
  11              		.eabi_attribute 26, 1
  12              		.eabi_attribute 30, 2
  13              		.eabi_attribute 34, 1
  14              		.eabi_attribute 18, 4
  15              		.thumb
  16              		.file	"comm_can.c"
  17              		.text
  18              	.Ltext0:
  19              		.cfi_sections	.debug_frame
  20              		.section	.text.cancom_read_thread,"ax",%progbits
  21              		.align	2
  22              		.p2align 4,,15
  23              		.thumb
  24              		.thumb_func
  25              		.type	cancom_read_thread, %function
  26              	cancom_read_thread:
  27              	.LFB257:
  28              		.file 1 "comm_can.c"
  29              		.loc 1 107 0
  30              		.cfi_startproc
  31              		@ args = 0, pretend = 0, frame = 40
  32              		@ frame_needed = 0, uses_anonymous_args = 0
  33              	.LVL0:
  34 0000 2DE9F043 		push	{r4, r5, r6, r7, r8, r9, lr}
  35              		.cfi_def_cfa_offset 28
  36              		.cfi_offset 4, -28
  37              		.cfi_offset 5, -24
  38              		.cfi_offset 6, -20
  39              		.cfi_offset 7, -16
  40              		.cfi_offset 8, -12
  41              		.cfi_offset 9, -8
  42              		.cfi_offset 14, -4
  43              	.LBB66:
  44              	.LBB67:
  45              		.file 2 "ChibiOS_3.0.2/os/rt/include/chregistry.h"
  46              		.loc 2 135 0
  47 0004 DFF8B880 		ldr	r8, .L16+20
  48 0008 284A     		ldr	r2, .L16
  49 000a D8F81830 		ldr	r3, [r8, #24]
  50              	.LBE67:
  51              	.LBE66:
  52              	.LBB69:
  53              	.LBB70:
  54              	.LBB71:
  55              		.file 3 "ChibiOS_3.0.2/os/rt/include/chevents.h"
  56              		.loc 3 193 0
  57 000e 2848     		ldr	r0, .L16+4
ARM GAS  /tmp/ccUitOsI.s 			page 2


  58              	.LVL1:
  59              	.LBE71:
  60              	.LBE70:
  61              	.LBE69:
  62              	.LBB74:
  63              	.LBB68:
  64              		.loc 2 135 0
  65 0010 9A61     		str	r2, [r3, #24]
  66              	.LVL2:
  67              	.LBE68:
  68              	.LBE74:
  69              		.loc 1 107 0
  70 0012 8BB0     		sub	sp, sp, #44
  71              		.cfi_def_cfa_offset 72
  72              	.LVL3:
  73              	.LBB75:
  74              	.LBB73:
  75              	.LBB72:
  76              		.loc 3 193 0
  77 0014 6946     		mov	r1, sp
  78 0016 0122     		movs	r2, #1
  79 0018 4FF0FF33 		mov	r3, #-1
  80 001c FFF7FEFF 		bl	chEvtRegisterMaskWithFlags
  81              	.LVL4:
  82 0020 DFF8A090 		ldr	r9, .L16+24
  83              	.L3:
  84              	.LBE72:
  85              	.LBE73:
  86              	.LBE75:
  87              	.LBB76:
  88              	.LBB77:
  89              		.file 4 "ChibiOS_3.0.2/os/rt/include/chthreads.h"
  90              		.loc 4 233 0
  91 0024 D8F81830 		ldr	r3, [r8, #24]
  92 0028 5B7F     		ldrb	r3, [r3, #29]	@ zero_extendqisi2
  93 002a 03F00403 		and	r3, r3, #4
  94              	.LBE77:
  95              	.LBE76:
  96              		.loc 1 116 0
  97 002e 03F0FF04 		and	r4, r3, #255
  98 0032 002B     		cmp	r3, #0
  99 0034 33D1     		bne	.L15
 100              	.LBB78:
 101              		.loc 1 117 0
 102 0036 4FF0FF30 		mov	r0, #-1
 103 003a 6421     		movs	r1, #100
 104 003c FFF7FEFF 		bl	chEvtWaitAnyTimeout
 105              	.LVL5:
 106 0040 0028     		cmp	r0, #0
 107 0042 EFD0     		beq	.L3
 108              		.loc 1 121 0
 109 0044 05AA     		add	r2, sp, #20
 110 0046 1B48     		ldr	r0, .L16+8
 111 0048 2146     		mov	r1, r4
 112 004a 2346     		mov	r3, r4
 113 004c FFF7FEFF 		bl	canReceive
 114              	.LVL6:
ARM GAS  /tmp/ccUitOsI.s 			page 3


 115              		.loc 1 123 0
 116 0050 0028     		cmp	r0, #0
 117 0052 E7D1     		bne	.L3
 118 0054 184F     		ldr	r7, .L16+12
 119 0056 194E     		ldr	r6, .L16+16
 120              	.L4:
 121              	.LVL7:
 122              		.loc 1 124 0
 123 0058 D9F80050 		ldr	r5, [r9]
 124 005c 05AC     		add	r4, sp, #20
 125 005e 0FCC     		ldmia	r4!, {r0, r1, r2, r3}
 126 0060 D4F800E0 		ldr	lr, [r4]
 127 0064 05EB8504 		add	r4, r5, r5, lsl #2
 128 0068 07EB8404 		add	r4, r7, r4, lsl #2
 129 006c 0FC4     		stmia	r4!, {r0, r1, r2, r3}
 130              		.loc 1 129 0
 131 006e 0121     		movs	r1, #1
 132              		.loc 1 124 0
 133 0070 0D44     		add	r5, r5, r1
 134              		.loc 1 125 0
 135 0072 642D     		cmp	r5, #100
 136              		.loc 1 126 0
 137 0074 08BF     		it	eq
 138 0076 0023     		moveq	r3, #0
 139              		.loc 1 129 0
 140 0078 3068     		ldr	r0, [r6]
 141              		.loc 1 124 0
 142 007a C9F80050 		str	r5, [r9]
 143 007e C4F800E0 		str	lr, [r4]
 144              		.loc 1 126 0
 145 0082 08BF     		it	eq
 146 0084 C9F80030 		streq	r3, [r9]
 147              		.loc 1 129 0
 148 0088 FFF7FEFF 		bl	chEvtSignal
 149              	.LVL8:
 150              		.loc 1 131 0
 151 008c 0021     		movs	r1, #0
 152 008e 0B46     		mov	r3, r1
 153 0090 0848     		ldr	r0, .L16+8
 154 0092 05AA     		add	r2, sp, #20
 155 0094 FFF7FEFF 		bl	canReceive
 156              	.LVL9:
 157              		.loc 1 123 0
 158 0098 0028     		cmp	r0, #0
 159 009a DDD0     		beq	.L4
 160 009c C2E7     		b	.L3
 161              	.LVL10:
 162              	.L15:
 163              	.LBE78:
 164              		.loc 1 135 0
 165 009e 6946     		mov	r1, sp
 166 00a0 0348     		ldr	r0, .L16+4
 167              	.LVL11:
 168 00a2 FFF7FEFF 		bl	chEvtUnregister
 169              	.LVL12:
 170              		.loc 1 136 0
 171 00a6 0BB0     		add	sp, sp, #44
ARM GAS  /tmp/ccUitOsI.s 			page 4


 172              		.cfi_def_cfa_offset 28
 173              	.LVL13:
 174              		@ sp needed
 175 00a8 BDE8F083 		pop	{r4, r5, r6, r7, r8, r9, pc}
 176              	.LVL14:
 177              	.L17:
 178              		.align	2
 179              	.L16:
 180 00ac 00000000 		.word	.LC0
 181 00b0 18000000 		.word	CAND1+24
 182 00b4 00000000 		.word	CAND1
 183 00b8 00000000 		.word	.LANCHOR1
 184 00bc 00000000 		.word	.LANCHOR2
 185 00c0 00000000 		.word	ch
 186 00c4 00000000 		.word	.LANCHOR0
 187              		.cfi_endproc
 188              	.LFE257:
 189              		.size	cancom_read_thread, .-cancom_read_thread
 190              		.section	.text.comm_can_init,"ax",%progbits
 191              		.align	2
 192              		.p2align 4,,15
 193              		.global	comm_can_init
 194              		.thumb
 195              		.thumb_func
 196              		.type	comm_can_init, %function
 197              	comm_can_init:
 198              	.LFB256:
 199              		.loc 1 78 0
 200              		.cfi_startproc
 201              		@ args = 0, pretend = 0, frame = 0
 202              		@ frame_needed = 0, uses_anonymous_args = 0
 203              	.LVL15:
 204 0000 1E49     		ldr	r1, .L22
 205 0002 0023     		movs	r3, #0
 206              	.LBB79:
 207              		.loc 1 80 0
 208 0004 4FF0FF32 		mov	r2, #-1
 209              	.LVL16:
 210              	.L19:
 211              		.loc 1 80 0 is_stmt 0 discriminator 3
 212 0008 CA50     		str	r2, [r1, r3]
 213 000a 1433     		adds	r3, r3, #20
 214              		.loc 1 79 0 is_stmt 1 discriminator 3
 215 000c C82B     		cmp	r3, #200
 216 000e FBD1     		bne	.L19
 217              	.LBE79:
 218              		.loc 1 78 0
 219 0010 10B5     		push	{r4, lr}
 220              		.cfi_def_cfa_offset 8
 221              		.cfi_offset 4, -8
 222              		.cfi_offset 14, -4
 223              		.loc 1 84 0
 224 0012 1B4B     		ldr	r3, .L22+4
 225              		.loc 1 83 0
 226 0014 1B4A     		ldr	r2, .L22+8
 227              		.loc 1 86 0
 228 0016 1C48     		ldr	r0, .L22+12
ARM GAS  /tmp/ccUitOsI.s 			page 5


 229              		.loc 1 78 0
 230 0018 82B0     		sub	sp, sp, #8
 231              		.cfi_def_cfa_offset 16
 232              		.loc 1 83 0
 233 001a 0024     		movs	r4, #0
 234              		.loc 1 84 0
 235 001c 1C60     		str	r4, [r3]
 236              		.loc 1 83 0
 237 001e 1460     		str	r4, [r2]
 238              		.loc 1 86 0
 239 0020 FFF7FEFF 		bl	chMtxObjectInit
 240              	.LVL17:
 241              		.loc 1 88 0
 242 0024 1948     		ldr	r0, .L22+16
 243 0026 4FF48071 		mov	r1, #256
 244 002a 40F28A42 		movw	r2, #1162
 245 002e FFF7FEFF 		bl	_pal_lld_setgroupmode
 246              	.LVL18:
 247              		.loc 1 92 0
 248 0032 40F28A42 		movw	r2, #1162
 249 0036 1548     		ldr	r0, .L22+16
 250 0038 4FF40071 		mov	r1, #512
 251 003c FFF7FEFF 		bl	_pal_lld_setgroupmode
 252              	.LVL19:
 253              		.loc 1 97 0
 254 0040 1348     		ldr	r0, .L22+20
 255 0042 1449     		ldr	r1, .L22+24
 256 0044 FFF7FEFF 		bl	canStart
 257              	.LVL20:
 258              		.loc 1 99 0
 259 0048 0094     		str	r4, [sp]
 260 004a 134B     		ldr	r3, .L22+28
 261 004c 1348     		ldr	r0, .L22+32
 262 004e 4FF46671 		mov	r1, #920
 263 0052 4122     		movs	r2, #65
 264 0054 FFF7FEFF 		bl	chThdCreateStatic
 265              	.LVL21:
 266              		.loc 1 101 0
 267 0058 0094     		str	r4, [sp]
 268 005a 114B     		ldr	r3, .L22+36
 269 005c 1148     		ldr	r0, .L22+40
 270 005e 4FF4B361 		mov	r1, #1432
 271 0062 4022     		movs	r2, #64
 272 0064 FFF7FEFF 		bl	chThdCreateStatic
 273              	.LVL22:
 274              		.loc 1 103 0
 275 0068 0094     		str	r4, [sp]
 276 006a 0F4B     		ldr	r3, .L22+44
 277 006c 0F48     		ldr	r0, .L22+48
 278 006e 41F29811 		movw	r1, #4504
 279 0072 4022     		movs	r2, #64
 280 0074 FFF7FEFF 		bl	chThdCreateStatic
 281              	.LVL23:
 282              		.loc 1 105 0
 283 0078 02B0     		add	sp, sp, #8
 284              		.cfi_def_cfa_offset 8
 285              		@ sp needed
ARM GAS  /tmp/ccUitOsI.s 			page 6


 286 007a 10BD     		pop	{r4, pc}
 287              	.L23:
 288              		.align	2
 289              	.L22:
 290 007c 00000000 		.word	.LANCHOR3
 291 0080 00000000 		.word	.LANCHOR0
 292 0084 00000000 		.word	.LANCHOR4
 293 0088 00000000 		.word	.LANCHOR5
 294 008c 00040240 		.word	1073873920
 295 0090 00000000 		.word	CAND1
 296 0094 00000000 		.word	.LANCHOR6
 297 0098 00000000 		.word	cancom_read_thread
 298 009c 00000000 		.word	.LANCHOR7
 299 00a0 00000000 		.word	cancom_status_thread
 300 00a4 00000000 		.word	.LANCHOR8
 301 00a8 00000000 		.word	cancom_process_thread
 302 00ac 00000000 		.word	.LANCHOR9
 303              		.cfi_endproc
 304              	.LFE256:
 305              		.size	comm_can_init, .-comm_can_init
 306              		.section	.text.comm_can_transmit,"ax",%progbits
 307              		.align	2
 308              		.p2align 4,,15
 309              		.global	comm_can_transmit
 310              		.thumb
 311              		.thumb_func
 312              		.type	comm_can_transmit, %function
 313              	comm_can_transmit:
 314              	.LFB260:
 315              		.loc 1 333 0
 316              		.cfi_startproc
 317              		@ args = 0, pretend = 0, frame = 16
 318              		@ frame_needed = 0, uses_anonymous_args = 0
 319              	.LVL24:
 320 0000 70B5     		push	{r4, r5, r6, lr}
 321              		.cfi_def_cfa_offset 16
 322              		.cfi_offset 4, -16
 323              		.cfi_offset 5, -12
 324              		.cfi_offset 6, -8
 325              		.cfi_offset 14, -4
 326 0002 84B0     		sub	sp, sp, #16
 327              		.cfi_def_cfa_offset 32
 328              		.loc 1 339 0
 329 0004 04AC     		add	r4, sp, #16
 330              		.loc 1 336 0
 331 0006 9DF80030 		ldrb	r3, [sp]	@ zero_extendqisi2
 332              		.loc 1 337 0
 333 000a 019E     		ldr	r6, [sp, #4]
 334              		.loc 1 342 0
 335 000c 0E4D     		ldr	r5, .L26
 336              		.loc 1 338 0
 337 000e 43F02003 		orr	r3, r3, #32
 338              		.loc 1 339 0
 339 0012 03F0EF03 		and	r3, r3, #239
 340 0016 62F30303 		bfi	r3, r2, #0, #4
 341 001a 04F8103D 		strb	r3, [r4, #-16]!
 342              		.loc 1 337 0
ARM GAS  /tmp/ccUitOsI.s 			page 7


 343 001e 60F31C06 		bfi	r6, r0, #0, #29
 344              		.loc 1 340 0
 345 0022 02A8     		add	r0, sp, #8
 346              	.LVL25:
 347              		.loc 1 337 0
 348 0024 0196     		str	r6, [sp, #4]
 349              		.loc 1 340 0
 350 0026 FFF7FEFF 		bl	memcpy
 351              	.LVL26:
 352              		.loc 1 342 0
 353 002a 2846     		mov	r0, r5
 354 002c FFF7FEFF 		bl	chMtxLock
 355              	.LVL27:
 356              		.loc 1 343 0
 357 0030 2246     		mov	r2, r4
 358 0032 0021     		movs	r1, #0
 359 0034 C823     		movs	r3, #200
 360 0036 0548     		ldr	r0, .L26+4
 361 0038 FFF7FEFF 		bl	canTransmit
 362              	.LVL28:
 363              		.loc 1 344 0
 364 003c 2846     		mov	r0, r5
 365 003e FFF7FEFF 		bl	chMtxUnlock
 366              	.LVL29:
 367              		.loc 1 351 0
 368 0042 04B0     		add	sp, sp, #16
 369              		.cfi_def_cfa_offset 16
 370              		@ sp needed
 371 0044 70BD     		pop	{r4, r5, r6, pc}
 372              	.L27:
 373 0046 00BF     		.align	2
 374              	.L26:
 375 0048 00000000 		.word	.LANCHOR5
 376 004c 00000000 		.word	CAND1
 377              		.cfi_endproc
 378              	.LFE260:
 379              		.size	comm_can_transmit, .-comm_can_transmit
 380              		.section	.text.cancom_status_thread,"ax",%progbits
 381              		.align	2
 382              		.p2align 4,,15
 383              		.thumb
 384              		.thumb_func
 385              		.type	cancom_status_thread, %function
 386              	cancom_status_thread:
 387              	.LFB259:
 388              		.loc 1 309 0
 389              		.cfi_startproc
 390              		@ args = 0, pretend = 0, frame = 24
 391              		@ frame_needed = 0, uses_anonymous_args = 0
 392              	.LVL30:
 393 0000 10B5     		push	{r4, lr}
 394              		.cfi_def_cfa_offset 8
 395              		.cfi_offset 4, -8
 396              		.cfi_offset 14, -4
 397              	.LBB80:
 398              	.LBB81:
 399              		.loc 2 135 0
ARM GAS  /tmp/ccUitOsI.s 			page 8


 400 0002 284B     		ldr	r3, .L36
 401 0004 284A     		ldr	r2, .L36+4
 402 0006 9B69     		ldr	r3, [r3, #24]
 403              	.LBE81:
 404              	.LBE80:
 405              		.loc 1 309 0
 406 0008 2DED028B 		fstmfdd	sp!, {d8}
 407              		.cfi_def_cfa_offset 16
 408              		.cfi_offset 80, -16
 409              		.cfi_offset 81, -12
 410              	.LBB83:
 411              	.LBB84:
 412              		.loc 1 316 0
 413 000c 0024     		movs	r4, #0
 414              	.LBE84:
 415              	.LBE83:
 416              		.loc 1 309 0
 417 000e 86B0     		sub	sp, sp, #24
 418              		.cfi_def_cfa_offset 40
 419              	.LBB88:
 420              	.LBB85:
 421              		.loc 1 320 0
 422 0010 DFED268A 		flds	s17, .L36+8
 423              	.LBE85:
 424              	.LBE88:
 425              	.LBB89:
 426              	.LBB82:
 427              		.loc 2 135 0
 428 0014 9A61     		str	r2, [r3, #24]
 429              	.LBE82:
 430              	.LBE89:
 431              	.LBB90:
 432              	.LBB86:
 433              		.loc 1 319 0
 434 0016 B2EE048A 		fconsts	s16, #36
 435 001a 0BE0     		b	.L31
 436              	.LVL31:
 437              	.L29:
 438              	.LBE86:
 439              		.loc 1 324 0
 440 001c FFF7FEFF 		bl	app_get_configuration
 441              	.LVL32:
 442 0020 42F21073 		movw	r3, #10000
 443 0024 0069     		ldr	r0, [r0, #16]
 444 0026 B3FBF0F0 		udiv	r0, r3, r0
 445              	.LVL33:
 446              		.loc 1 326 0
 447 002a 0028     		cmp	r0, #0
 448              	.LVL34:
 449              		.loc 1 329 0
 450 002c 08BF     		it	eq
 451 002e 0120     		moveq	r0, #1
 452              	.LVL35:
 453 0030 FFF7FEFF 		bl	chThdSleep
 454              	.LVL36:
 455              	.L31:
 456              		.loc 1 314 0
ARM GAS  /tmp/ccUitOsI.s 			page 9


 457 0034 FFF7FEFF 		bl	app_get_configuration
 458              	.LVL37:
 459 0038 037B     		ldrb	r3, [r0, #12]	@ zero_extendqisi2
 460 003a 002B     		cmp	r3, #0
 461 003c EED0     		beq	.L29
 462              	.LBB87:
 463              		.loc 1 316 0
 464 003e 0394     		str	r4, [sp, #12]
 465              		.loc 1 318 0
 466 0040 FFF7FEFF 		bl	mc_interface_get_rpm
 467              	.LVL38:
 468 0044 FDEEC07A 		ftosizs	s15, s0
 469 0048 04A8     		add	r0, sp, #16
 470 004a 17EE901A 		fmrs	r1, s15	@ int
 471 004e 03AA     		add	r2, sp, #12
 472 0050 FFF7FEFF 		bl	buffer_append_int32
 473              	.LVL39:
 474              		.loc 1 319 0
 475 0054 FFF7FEFF 		bl	mc_interface_get_tot_current
 476              	.LVL40:
 477 0058 20EE080A 		fmuls	s0, s0, s16
 478 005c 04A8     		add	r0, sp, #16
 479 005e BDEEC00A 		ftosizs	s0, s0
 480 0062 03AA     		add	r2, sp, #12
 481 0064 8DED010A 		fsts	s0, [sp, #4]	@ int
 482 0068 BDF90410 		ldrsh	r1, [sp, #4]
 483 006c FFF7FEFF 		bl	buffer_append_int16
 484              	.LVL41:
 485              		.loc 1 320 0
 486 0070 FFF7FEFF 		bl	mc_interface_get_duty_cycle_now
 487              	.LVL42:
 488 0074 20EE280A 		fmuls	s0, s0, s17
 489 0078 03AA     		add	r2, sp, #12
 490 007a BDEEC00A 		ftosizs	s0, s0
 491 007e 04A8     		add	r0, sp, #16
 492 0080 8DED010A 		fsts	s0, [sp, #4]	@ int
 493 0084 BDF90410 		ldrsh	r1, [sp, #4]
 494 0088 FFF7FEFF 		bl	buffer_append_int16
 495              	.LVL43:
 496              		.loc 1 321 0
 497 008c FFF7FEFF 		bl	app_get_configuration
 498              	.LVL44:
 499 0090 0078     		ldrb	r0, [r0]	@ zero_extendqisi2
 500 0092 9DF80C20 		ldrb	r2, [sp, #12]	@ zero_extendqisi2
 501 0096 40F41060 		orr	r0, r0, #2304
 502 009a 04A9     		add	r1, sp, #16
 503 009c FFF7FEFF 		bl	comm_can_transmit
 504              	.LVL45:
 505 00a0 BCE7     		b	.L29
 506              	.L37:
 507 00a2 00BF     		.align	2
 508              	.L36:
 509 00a4 00000000 		.word	ch
 510 00a8 04000000 		.word	.LC1
 511 00ac 00007A44 		.word	1148846080
 512              	.LBE87:
 513              	.LBE90:
ARM GAS  /tmp/ccUitOsI.s 			page 10


 514              		.cfi_endproc
 515              	.LFE259:
 516              		.size	cancom_status_thread, .-cancom_status_thread
 517              		.section	.text.comm_can_transmit_std_id,"ax",%progbits
 518              		.align	2
 519              		.p2align 4,,15
 520              		.global	comm_can_transmit_std_id
 521              		.thumb
 522              		.thumb_func
 523              		.type	comm_can_transmit_std_id, %function
 524              	comm_can_transmit_std_id:
 525              	.LFB261:
 526              		.loc 1 353 0
 527              		.cfi_startproc
 528              		@ args = 0, pretend = 0, frame = 16
 529              		@ frame_needed = 0, uses_anonymous_args = 0
 530              	.LVL46:
 531 0000 F0B5     		push	{r4, r5, r6, r7, lr}
 532              		.cfi_def_cfa_offset 20
 533              		.cfi_offset 4, -20
 534              		.cfi_offset 5, -16
 535              		.cfi_offset 6, -12
 536              		.cfi_offset 7, -8
 537              		.cfi_offset 14, -4
 538 0002 85B0     		sub	sp, sp, #20
 539              		.cfi_def_cfa_offset 40
 540              		.loc 1 360 0
 541 0004 04AC     		add	r4, sp, #16
 542              		.loc 1 357 0
 543 0006 019D     		ldr	r5, [sp, #4]
 544              		.loc 1 356 0
 545 0008 9DF80030 		ldrb	r3, [sp]	@ zero_extendqisi2
 546              		.loc 1 363 0
 547 000c 0F4E     		ldr	r6, .L40
 548              		.loc 1 357 0
 549 000e 6FF31C05 		bfc	r5, #0, #29
 550              		.loc 1 360 0
 551 0012 03F0CF03 		and	r3, r3, #207
 552 0016 62F30303 		bfi	r3, r2, #0, #4
 553              		.loc 1 358 0
 554 001a 2F46     		mov	r7, r5	@ movhi
 555              		.loc 1 360 0
 556 001c 04F8103D 		strb	r3, [r4, #-16]!
 557              		.loc 1 358 0
 558 0020 60F30A07 		bfi	r7, r0, #0, #11
 559              		.loc 1 361 0
 560 0024 02A8     		add	r0, sp, #8
 561              	.LVL47:
 562              		.loc 1 357 0
 563 0026 0195     		str	r5, [sp, #4]
 564              		.loc 1 358 0
 565 0028 ADF80470 		strh	r7, [sp, #4]	@ movhi
 566              		.loc 1 361 0
 567 002c FFF7FEFF 		bl	memcpy
 568              	.LVL48:
 569              		.loc 1 363 0
 570 0030 3046     		mov	r0, r6
ARM GAS  /tmp/ccUitOsI.s 			page 11


 571 0032 FFF7FEFF 		bl	chMtxLock
 572              	.LVL49:
 573              		.loc 1 364 0
 574 0036 2246     		mov	r2, r4
 575 0038 0021     		movs	r1, #0
 576 003a C823     		movs	r3, #200
 577 003c 0448     		ldr	r0, .L40+4
 578 003e FFF7FEFF 		bl	canTransmit
 579              	.LVL50:
 580              		.loc 1 365 0
 581 0042 3046     		mov	r0, r6
 582 0044 FFF7FEFF 		bl	chMtxUnlock
 583              	.LVL51:
 584              		.loc 1 372 0
 585 0048 05B0     		add	sp, sp, #20
 586              		.cfi_def_cfa_offset 20
 587              		@ sp needed
 588 004a F0BD     		pop	{r4, r5, r6, r7, pc}
 589              	.L41:
 590              		.align	2
 591              	.L40:
 592 004c 00000000 		.word	.LANCHOR5
 593 0050 00000000 		.word	CAND1
 594              		.cfi_endproc
 595              	.LFE261:
 596              		.size	comm_can_transmit_std_id, .-comm_can_transmit_std_id
 597              		.section	.text.cancom_process_thread,"ax",%progbits
 598              		.align	2
 599              		.p2align 4,,15
 600              		.thumb
 601              		.thumb_func
 602              		.type	cancom_process_thread, %function
 603              	cancom_process_thread:
 604              	.LFB258:
 605              		.loc 1 138 0
 606              		.cfi_startproc
 607              		@ args = 0, pretend = 0, frame = 32
 608              		@ frame_needed = 0, uses_anonymous_args = 0
 609              	.LVL52:
 610 0000 2DE9F04F 		push	{r4, r5, r6, r7, r8, r9, r10, fp, lr}
 611              		.cfi_def_cfa_offset 36
 612              		.cfi_offset 4, -36
 613              		.cfi_offset 5, -32
 614              		.cfi_offset 6, -28
 615              		.cfi_offset 7, -24
 616              		.cfi_offset 8, -20
 617              		.cfi_offset 9, -16
 618              		.cfi_offset 10, -12
 619              		.cfi_offset 11, -8
 620              		.cfi_offset 14, -4
 621              	.LBB91:
 622              	.LBB92:
 623              		.loc 2 135 0
 624 0004 DFF88483 		ldr	r8, .L84+68
 625 0008 CF4A     		ldr	r2, .L84
 626 000a D8F81830 		ldr	r3, [r8, #24]
 627              	.LBE92:
ARM GAS  /tmp/ccUitOsI.s 			page 12


 628              	.LBE91:
 629              		.loc 1 142 0
 630 000e CF49     		ldr	r1, .L84+4
 631 0010 CF4D     		ldr	r5, .L84+8
 632 0012 DFF87CB3 		ldr	fp, .L84+72
 633 0016 CF4F     		ldr	r7, .L84+12
 634 0018 DFF878A3 		ldr	r10, .L84+76
 635 001c CE4E     		ldr	r6, .L84+16
 636              		.loc 1 138 0
 637 001e 2DED068B 		fstmfdd	sp!, {d8, d9, d10}
 638              		.cfi_def_cfa_offset 60
 639              		.cfi_offset 80, -60
 640              		.cfi_offset 81, -56
 641              		.cfi_offset 82, -52
 642              		.cfi_offset 83, -48
 643              		.cfi_offset 84, -44
 644              		.cfi_offset 85, -40
 645 0022 89B0     		sub	sp, sp, #36
 646              		.cfi_def_cfa_offset 96
 647              	.LBB94:
 648              	.LBB93:
 649              		.loc 2 135 0
 650 0024 9A61     		str	r2, [r3, #24]
 651              	.LBE93:
 652              	.LBE94:
 653              	.LBB95:
 654              	.LBB96:
 655              	.LBB97:
 656              		.loc 1 291 0
 657 0026 9FEDCD8A 		flds	s16, .L84+20
 658              	.LBE97:
 659              	.LBB111:
 660              		.loc 1 270 0
 661 002a DFEDCDAA 		flds	s21, .L84+24
 662 002e DFEDCD9A 		flds	s19, .L84+28
 663 0032 9FEDCDAA 		flds	s20, .L84+32
 664              	.LBE111:
 665              	.LBE96:
 666              	.LBE95:
 667              		.loc 1 142 0
 668 0036 0B60     		str	r3, [r1]
 669              		.loc 1 144 0
 670 0038 0022     		movs	r2, #0
 671 003a 0292     		str	r2, [sp, #8]
 672              	.LVL53:
 673              	.L44:
 674              		.loc 1 152 0
 675 003c 0120     		movs	r0, #1
 676 003e FFF7FEFF 		bl	chEvtWaitAny
 677              	.LVL54:
 678              		.loc 1 154 0
 679 0042 D5F800E0 		ldr	lr, [r5]
 680 0046 DBF80030 		ldr	r3, [fp]
 681 004a 9E45     		cmp	lr, r3
 682 004c F6D0     		beq	.L44
 683              	.LBB121:
 684              	.LBB117:
ARM GAS  /tmp/ccUitOsI.s 			page 13


 685              	.LBB112:
 686              		.loc 1 270 0
 687 004e 9FEDC79A 		flds	s18, .L84+36
 688 0052 DFEDC78A 		flds	s17, .L84+40
 689              	.L73:
 690              	.LBE112:
 691              	.LBE117:
 692              		.loc 1 155 0
 693 0056 0EEB8E04 		add	r4, lr, lr, lsl #2
 694 005a 07EB8404 		add	r4, r7, r4, lsl #2
 695 005e 0FCC     		ldmia	r4!, {r0, r1, r2, r3}
 696 0060 0DF10C0C 		add	ip, sp, #12
 697 0064 ACE80F00 		stmia	ip!, {r0, r1, r2, r3}
 698              		.loc 1 157 0
 699 0068 9DF81020 		ldrb	r2, [sp, #16]	@ zero_extendqisi2
 700              		.loc 1 155 0
 701 006c 2368     		ldr	r3, [r4]
 702 006e CCF80030 		str	r3, [ip]
 703              		.loc 1 157 0
 704 0072 9206     		lsls	r2, r2, #26
 705              		.loc 1 155 0
 706 0074 0EF10103 		add	r3, lr, #1
 707 0078 2B60     		str	r3, [r5]
 708              		.loc 1 157 0
 709 007a 28D5     		bpl	.L75
 710              	.LBB118:
 711              		.loc 1 158 0
 712 007c 059B     		ldr	r3, [sp, #20]
 713 007e C3F31C03 		ubfx	r3, r3, #0, #29
 714 0082 DCB2     		uxtb	r4, r3
 715              	.LVL55:
 716              		.loc 1 162 0
 717 0084 FF2C     		cmp	r4, #255
 718              		.loc 1 159 0
 719 0086 4FEA2329 		asr	r9, r3, #8
 720              	.LVL56:
 721              		.loc 1 162 0
 722 008a 28D0     		beq	.L61
 723              		.loc 1 162 0 is_stmt 0 discriminator 1
 724 008c FFF7FEFF 		bl	app_get_configuration
 725              	.LVL57:
 726 0090 0378     		ldrb	r3, [r0]	@ zero_extendqisi2
 727 0092 A342     		cmp	r3, r4
 728 0094 23D0     		beq	.L61
 729 0096 5FFA89F3 		uxtb	r3, r9
 730              	.L47:
 731              		.loc 1 281 0 is_stmt 1
 732 009a 092B     		cmp	r3, #9
 733 009c 0DD1     		bne	.L63
 734 009e 0023     		movs	r3, #0
 735 00a0 1A46     		mov	r2, r3
 736              	.L71:
 737              	.LVL58:
 738              	.LBB113:
 739              		.loc 1 285 0
 740 00a2 F158     		ldr	r1, [r6, r3]
 741 00a4 8C42     		cmp	r4, r1
ARM GAS  /tmp/ccUitOsI.s 			page 14


 742 00a6 03F11403 		add	r3, r3, #20
 743 00aa 00F08A81 		beq	.L70
 744              		.loc 1 285 0 is_stmt 0 discriminator 1
 745 00ae 0131     		adds	r1, r1, #1
 746 00b0 00F08781 		beq	.L70
 747              		.loc 1 283 0 is_stmt 1 discriminator 2
 748 00b4 0132     		adds	r2, r2, #1
 749              	.LVL59:
 750 00b6 0A2A     		cmp	r2, #10
 751 00b8 F3D1     		bne	.L71
 752              	.LVL60:
 753              	.L63:
 754 00ba D5F800E0 		ldr	lr, [r5]
 755              	.L45:
 756              	.LBE113:
 757              	.LBE118:
 758              		.loc 1 302 0
 759 00be BEF1640F 		cmp	lr, #100
 760 00c2 08D0     		beq	.L83
 761              	.L72:
 762              	.LBE121:
 763              		.loc 1 154 0
 764 00c4 DBF80030 		ldr	r3, [fp]
 765 00c8 7345     		cmp	r3, lr
 766 00ca C4D1     		bne	.L73
 767 00cc B6E7     		b	.L44
 768              	.L75:
 769              	.LBB122:
 770              	.LBB119:
 771 00ce 9E46     		mov	lr, r3
 772              	.LBE119:
 773              		.loc 1 302 0
 774 00d0 BEF1640F 		cmp	lr, #100
 775 00d4 F6D1     		bne	.L72
 776              	.L83:
 777              		.loc 1 303 0
 778 00d6 0023     		movs	r3, #0
 779 00d8 2B60     		str	r3, [r5]
 780 00da 9E46     		mov	lr, r3
 781 00dc F2E7     		b	.L72
 782              	.LVL61:
 783              	.L61:
 784              	.LBB120:
 785              		.loc 1 163 0
 786 00de 5FFA89F3 		uxtb	r3, r9
 787 00e2 0C2B     		cmp	r3, #12
 788 00e4 D9D8     		bhi	.L47
 789 00e6 01A2     		adr	r2, .L49
 790 00e8 52F823F0 		ldr	pc, [r2, r3, lsl #2]
 791              		.p2align 2
 792              	.L49:
 793 00ec E1020000 		.word	.L48+1
 794 00f0 BF020000 		.word	.L50+1
 795 00f4 25030000 		.word	.L51+1
 796 00f8 07030000 		.word	.L52+1
 797 00fc 9D030000 		.word	.L53+1
 798 0100 A3020000 		.word	.L54+1
ARM GAS  /tmp/ccUitOsI.s 			page 15


 799 0104 77020000 		.word	.L55+1
 800 0108 1B020000 		.word	.L56+1
 801 010c F1010000 		.word	.L57+1
 802 0110 9B000000 		.word	.L47+1
 803 0114 C9010000 		.word	.L58+1
 804 0118 A1010000 		.word	.L59+1
 805 011c 21010000 		.word	.L60+1
 806              		.p2align 1
 807              	.L60:
 808              	.LBB114:
 809              		.loc 1 270 0
 810 0120 944B     		ldr	r3, .L84+44
 811 0122 5B89     		ldrh	r3, [r3, #10]
 812 0124 9BB2     		uxth	r3, r3
 813 0126 07EE903A 		fmsr	s15, r3	@ int
 814 012a B8EEE70A 		fsitos	s0, s15
 815              		.loc 1 268 0
 816 012e 0023     		movs	r3, #0
 817              		.loc 1 270 0
 818 0130 8AEE800A 		fdivs	s0, s21, s0
 819              		.loc 1 268 0
 820 0134 0293     		str	r3, [sp, #8]
 821              		.loc 1 270 0
 822 0136 30EE690A 		fsubs	s0, s0, s19
 823 013a 80EE290A 		fdivs	s0, s0, s19
 824 013e FFF7FEFF 		bl	logf
 825              	.LVL62:
 826 0142 02A9     		add	r1, sp, #8
 827 0144 8C48     		ldr	r0, .L84+48
 828 0146 80EE0A0A 		fdivs	s0, s0, s20
 829 014a B7EE007A 		fconsts	s14, #112
 830 014e 70EE097A 		fadds	s15, s0, s18
 831 0152 DFED820A 		flds	s1, .L84+20
 832 0156 87EE270A 		fdivs	s0, s14, s15
 833 015a 30EE680A 		fsubs	s0, s0, s17
 834 015e FFF7FEFF 		bl	buffer_append_float32
 835              	.LVL63:
 836              		.loc 1 271 0
 837 0162 844B     		ldr	r3, .L84+44
 838 0164 9FED857A 		flds	s14, .L84+52
 839 0168 1B8A     		ldrh	r3, [r3, #16]
 840 016a 9FED850A 		flds	s0, .L84+56
 841 016e DFED7B0A 		flds	s1, .L84+20
 842 0172 8148     		ldr	r0, .L84+48
 843 0174 9BB2     		uxth	r3, r3
 844 0176 07EE903A 		fmsr	s15, r3	@ int
 845 017a F8EE677A 		fuitos	s15, s15
 846 017e 02A9     		add	r1, sp, #8
 847 0180 67EE877A 		fmuls	s15, s15, s14
 848 0184 27EE800A 		fmuls	s0, s15, s0
 849 0188 FFF7FEFF 		bl	buffer_append_float32
 850              	.LVL64:
 851              		.loc 1 273 0
 852 018c FFF7FEFF 		bl	app_get_configuration
 853              	.LVL65:
 854 0190 0078     		ldrb	r0, [r0]	@ zero_extendqisi2
 855 0192 7949     		ldr	r1, .L84+48
ARM GAS  /tmp/ccUitOsI.s 			page 16


 856 0194 40F4A460 		orr	r0, r0, #1312
 857 0198 0822     		movs	r2, #8
 858 019a FFF7FEFF 		bl	comm_can_transmit_std_id
 859              	.LVL66:
 860              		.loc 1 274 0
 861 019e 8CE7     		b	.L63
 862              	.L59:
 863              		.loc 1 259 0
 864 01a0 0023     		movs	r3, #0
 865 01a2 0293     		str	r3, [sp, #8]
 866              		.loc 1 260 0
 867 01a4 FFF7FEFF 		bl	mc_interface_get_rpm
 868              	.LVL67:
 869 01a8 02A9     		add	r1, sp, #8
 870 01aa DFED6C0A 		flds	s1, .L84+20
 871 01ae 7248     		ldr	r0, .L84+48
 872 01b0 FFF7FEFF 		bl	buffer_append_float32
 873              	.LVL68:
 874              		.loc 1 261 0
 875 01b4 FFF7FEFF 		bl	app_get_configuration
 876              	.LVL69:
 877 01b8 0078     		ldrb	r0, [r0]	@ zero_extendqisi2
 878 01ba 6F49     		ldr	r1, .L84+48
 879 01bc 40F4A260 		orr	r0, r0, #1296
 880 01c0 0422     		movs	r2, #4
 881 01c2 FFF7FEFF 		bl	comm_can_transmit_std_id
 882              	.LVL70:
 883              		.loc 1 262 0
 884 01c6 78E7     		b	.L63
 885              	.L58:
 886              		.loc 1 250 0
 887 01c8 0023     		movs	r3, #0
 888 01ca 0293     		str	r3, [sp, #8]
 889              		.loc 1 251 0
 890 01cc FFF7FEFF 		bl	mc_interface_read_reset_avg_motor_current
 891              	.LVL71:
 892 01d0 02A9     		add	r1, sp, #8
 893 01d2 DFED620A 		flds	s1, .L84+20
 894 01d6 6848     		ldr	r0, .L84+48
 895 01d8 FFF7FEFF 		bl	buffer_append_float32
 896              	.LVL72:
 897              		.loc 1 252 0
 898 01dc FFF7FEFF 		bl	app_get_configuration
 899              	.LVL73:
 900 01e0 0078     		ldrb	r0, [r0]	@ zero_extendqisi2
 901 01e2 6549     		ldr	r1, .L84+48
 902 01e4 40F4A060 		orr	r0, r0, #1280
 903 01e8 0422     		movs	r2, #4
 904 01ea FFF7FEFF 		bl	comm_can_transmit_std_id
 905              	.LVL74:
 906              		.loc 1 253 0
 907 01ee 64E7     		b	.L63
 908              	.L57:
 909              		.loc 1 235 0
 910 01f0 9DF81820 		ldrb	r2, [sp, #24]	@ zero_extendqisi2
 911              		.loc 1 238 0
 912 01f4 9DF81930 		ldrb	r3, [sp, #25]	@ zero_extendqisi2
ARM GAS  /tmp/ccUitOsI.s 			page 17


 913              		.loc 1 235 0
 914 01f8 CAF80020 		str	r2, [r10]
 915              		.loc 1 236 0
 916 01fc 0222     		movs	r2, #2
 917 01fe 0292     		str	r2, [sp, #8]
 918              	.LVL75:
 919              		.loc 1 238 0
 920 0200 002B     		cmp	r3, #0
 921 0202 00F01581 		beq	.L66
 922              		.loc 1 239 0
 923 0206 9DF81010 		ldrb	r1, [sp, #16]	@ zero_extendqisi2
 924 020a 01F00F01 		and	r1, r1, #15
 925 020e 0239     		subs	r1, r1, #2
 926 0210 0DF11A00 		add	r0, sp, #26
 927 0214 FFF7FEFF 		bl	commands_send_packet
 928              	.LVL76:
 929 0218 4FE7     		b	.L63
 930              	.L56:
 931              		.loc 1 211 0
 932 021a 9DF81B30 		ldrb	r3, [sp, #27]	@ zero_extendqisi2
 933              		.loc 1 210 0
 934 021e 9DF81A40 		ldrb	r4, [sp, #26]	@ zero_extendqisi2
 935              	.LVL77:
 936              		.loc 1 208 0
 937 0222 9DF81820 		ldrb	r2, [sp, #24]	@ zero_extendqisi2
 938 0226 CAF80020 		str	r2, [r10]
 939              		.loc 1 211 0
 940 022a 43EA0424 		orr	r4, r3, r4, lsl #8
 941              		.loc 1 213 0
 942 022e B4F5806F 		cmp	r4, #1024
 943              		.loc 1 211 0
 944 0232 4FF00403 		mov	r3, #4
 945 0236 0293     		str	r3, [sp, #8]
 946              		.loc 1 209 0
 947 0238 9DF81930 		ldrb	r3, [sp, #25]	@ zero_extendqisi2
 948              	.LVL78:
 949              		.loc 1 213 0
 950 023c 3FF63DAF 		bhi	.L63
 951              		.loc 1 218 0
 952 0240 0622     		movs	r2, #6
 953 0242 0292     		str	r2, [sp, #8]
 954              		.loc 1 220 0
 955 0244 4F48     		ldr	r0, .L84+60
 956              		.loc 1 217 0
 957 0246 9DF81C20 		ldrb	r2, [sp, #28]	@ zero_extendqisi2
 958 024a 0193     		str	r3, [sp, #4]
 959              		.loc 1 220 0
 960 024c 2146     		mov	r1, r4
 961              		.loc 1 217 0
 962 024e 0092     		str	r2, [sp]
 963              	.LVL79:
 964              		.loc 1 218 0
 965 0250 9DF81D90 		ldrb	r9, [sp, #29]	@ zero_extendqisi2
 966              	.LVL80:
 967              		.loc 1 220 0
 968 0254 FFF7FEFF 		bl	crc16
 969              	.LVL81:
ARM GAS  /tmp/ccUitOsI.s 			page 18


 970              		.loc 1 222 0
 971 0258 009A     		ldr	r2, [sp]
 972              		.loc 1 220 0
 973 025a 019B     		ldr	r3, [sp, #4]
 974              		.loc 1 222 0
 975 025c 49EA0229 		orr	r9, r9, r2, lsl #8
 976              	.LVL82:
 977              		.loc 1 220 0
 978 0260 4845     		cmp	r0, r9
 979 0262 7FF42AAF 		bne	.L63
 980              		.loc 1 224 0
 981 0266 002B     		cmp	r3, #0
 982 0268 00F0F180 		beq	.L65
 983              		.loc 1 225 0
 984 026c 2146     		mov	r1, r4
 985 026e 4548     		ldr	r0, .L84+60
 986 0270 FFF7FEFF 		bl	commands_send_packet
 987              	.LVL83:
 988 0274 21E7     		b	.L63
 989              	.LVL84:
 990              	.L55:
 991              		.loc 1 199 0
 992 0276 9DF81800 		ldrb	r0, [sp, #24]	@ zero_extendqisi2
 993              	.LVL85:
 994              		.loc 1 200 0
 995 027a 9DF81930 		ldrb	r3, [sp, #25]	@ zero_extendqisi2
 996 027e 43EA0020 		orr	r0, r3, r0, lsl #8
 997              	.LVL86:
 998              		.loc 1 201 0
 999 0282 B0F5806F 		cmp	r0, #1024
 1000 0286 BFF418AF 		bcs	.L63
 1001              		.loc 1 202 0
 1002 028a 9DF81020 		ldrb	r2, [sp, #16]	@ zero_extendqisi2
 1003 028e 3D4B     		ldr	r3, .L84+60
 1004 0290 02F00F02 		and	r2, r2, #15
 1005 0294 1844     		add	r0, r0, r3
 1006              	.LVL87:
 1007 0296 023A     		subs	r2, r2, #2
 1008 0298 0DF11A01 		add	r1, sp, #26
 1009 029c FFF7FEFF 		bl	memcpy
 1010              	.LVL88:
 1011 02a0 0BE7     		b	.L63
 1012              	.L54:
 1013              		.loc 1 195 0
 1014 02a2 9DF81020 		ldrb	r2, [sp, #16]	@ zero_extendqisi2
 1015 02a6 9DF81800 		ldrb	r0, [sp, #24]	@ zero_extendqisi2
 1016 02aa 364B     		ldr	r3, .L84+60
 1017 02ac 02F00F02 		and	r2, r2, #15
 1018 02b0 013A     		subs	r2, r2, #1
 1019 02b2 1844     		add	r0, r0, r3
 1020 02b4 0DF11901 		add	r1, sp, #25
 1021 02b8 FFF7FEFF 		bl	memcpy
 1022              	.LVL89:
 1023              		.loc 1 196 0
 1024 02bc FDE6     		b	.L63
 1025              	.L50:
 1026              		.loc 1 171 0
ARM GAS  /tmp/ccUitOsI.s 			page 19


 1027 02be 0023     		movs	r3, #0
 1028              		.loc 1 172 0
 1029 02c0 02A9     		add	r1, sp, #8
 1030 02c2 06A8     		add	r0, sp, #24
 1031              		.loc 1 171 0
 1032 02c4 0293     		str	r3, [sp, #8]
 1033              		.loc 1 172 0
 1034 02c6 FFF7FEFF 		bl	buffer_get_int32
 1035              	.LVL90:
 1036 02ca 07EE900A 		fmsr	s15, r0	@ int
 1037 02ce B8EEE70A 		fsitos	s0, s15
 1038 02d2 80EE080A 		fdivs	s0, s0, s16
 1039 02d6 FFF7FEFF 		bl	mc_interface_set_current
 1040              	.LVL91:
 1041              		.loc 1 173 0
 1042 02da FFF7FEFF 		bl	timeout_reset
 1043              	.LVL92:
 1044              		.loc 1 174 0
 1045 02de ECE6     		b	.L63
 1046              	.L48:
 1047              		.loc 1 165 0
 1048 02e0 0023     		movs	r3, #0
 1049              		.loc 1 166 0
 1050 02e2 02A9     		add	r1, sp, #8
 1051 02e4 06A8     		add	r0, sp, #24
 1052              		.loc 1 165 0
 1053 02e6 0293     		str	r3, [sp, #8]
 1054              		.loc 1 166 0
 1055 02e8 FFF7FEFF 		bl	buffer_get_int32
 1056              	.LVL93:
 1057 02ec 07EE100A 		fmsr	s14, r0	@ int
 1058 02f0 DFED257A 		flds	s15, .L84+64
 1059 02f4 B8EEC70A 		fsitos	s0, s14
 1060 02f8 80EE270A 		fdivs	s0, s0, s15
 1061 02fc FFF7FEFF 		bl	mc_interface_set_duty
 1062              	.LVL94:
 1063              		.loc 1 167 0
 1064 0300 FFF7FEFF 		bl	timeout_reset
 1065              	.LVL95:
 1066              		.loc 1 168 0
 1067 0304 D9E6     		b	.L63
 1068              	.L52:
 1069              		.loc 1 183 0
 1070 0306 0023     		movs	r3, #0
 1071              		.loc 1 184 0
 1072 0308 02A9     		add	r1, sp, #8
 1073 030a 06A8     		add	r0, sp, #24
 1074              		.loc 1 183 0
 1075 030c 0293     		str	r3, [sp, #8]
 1076              		.loc 1 184 0
 1077 030e FFF7FEFF 		bl	buffer_get_int32
 1078              	.LVL96:
 1079 0312 07EE900A 		fmsr	s15, r0	@ int
 1080 0316 B8EEE70A 		fsitos	s0, s15
 1081 031a FFF7FEFF 		bl	mc_interface_set_pid_speed
 1082              	.LVL97:
 1083              		.loc 1 185 0
ARM GAS  /tmp/ccUitOsI.s 			page 20


 1084 031e FFF7FEFF 		bl	timeout_reset
 1085              	.LVL98:
 1086              		.loc 1 186 0
 1087 0322 CAE6     		b	.L63
 1088              	.L51:
 1089              		.loc 1 177 0
 1090 0324 0023     		movs	r3, #0
 1091              		.loc 1 178 0
 1092 0326 02A9     		add	r1, sp, #8
 1093 0328 06A8     		add	r0, sp, #24
 1094              		.loc 1 177 0
 1095 032a 0293     		str	r3, [sp, #8]
 1096              		.loc 1 178 0
 1097 032c FFF7FEFF 		bl	buffer_get_int32
 1098              	.LVL99:
 1099 0330 07EE900A 		fmsr	s15, r0	@ int
 1100 0334 B8EEE70A 		fsitos	s0, s15
 1101 0338 80EE080A 		fdivs	s0, s0, s16
 1102 033c FFF7FEFF 		bl	mc_interface_set_brake_current
 1103              	.LVL100:
 1104              		.loc 1 179 0
 1105 0340 FFF7FEFF 		bl	timeout_reset
 1106              	.LVL101:
 1107              		.loc 1 180 0
 1108 0344 B9E6     		b	.L63
 1109              	.L85:
 1110 0346 00BF     		.align	2
 1111              	.L84:
 1112 0348 10000000 		.word	.LC2
 1113 034c 00000000 		.word	.LANCHOR2
 1114 0350 00000000 		.word	.LANCHOR4
 1115 0354 00000000 		.word	.LANCHOR1
 1116 0358 00000000 		.word	.LANCHOR3
 1117 035c 00007A44 		.word	1148846080
 1118 0360 3C361C4C 		.word	1276917308
 1119 0364 00401C46 		.word	1176256512
 1120 0368 00A05645 		.word	1163304960
 1121 036c 0FCF5B3B 		.word	995872527
 1122 0370 33938843 		.word	1133024051
 1123 0374 00000000 		.word	ADC_Value
 1124 0378 00000000 		.word	.LANCHOR12
 1125 037c 6740533A 		.word	978534503
 1126 0380 74D19541 		.word	1100337524
 1127 0384 00000000 		.word	.LANCHOR10
 1128 0388 0050C347 		.word	1203982336
 1129 038c 00000000 		.word	ch
 1130 0390 00000000 		.word	.LANCHOR0
 1131 0394 00000000 		.word	.LANCHOR11
 1132 0398 00247449 		.word	1232348160
 1133              	.L53:
 1134              		.loc 1 189 0
 1135 039c 0023     		movs	r3, #0
 1136              		.loc 1 190 0
 1137 039e 02A9     		add	r1, sp, #8
 1138 03a0 06A8     		add	r0, sp, #24
 1139              		.loc 1 189 0
 1140 03a2 0293     		str	r3, [sp, #8]
ARM GAS  /tmp/ccUitOsI.s 			page 21


 1141              		.loc 1 190 0
 1142 03a4 FFF7FEFF 		bl	buffer_get_int32
 1143              	.LVL102:
 1144 03a8 07EE100A 		fmsr	s14, r0	@ int
 1145 03ac 5FED067A 		flds	s15, .L84+80
 1146 03b0 B8EEC70A 		fsitos	s0, s14
 1147 03b4 80EE270A 		fdivs	s0, s0, s15
 1148 03b8 FFF7FEFF 		bl	mc_interface_set_pid_pos
 1149              	.LVL103:
 1150              		.loc 1 191 0
 1151 03bc FFF7FEFF 		bl	timeout_reset
 1152              	.LVL104:
 1153              		.loc 1 192 0
 1154 03c0 7BE6     		b	.L63
 1155              	.LVL105:
 1156              	.L70:
 1157              	.LBE114:
 1158              	.LBB115:
 1159              		.loc 1 287 0
 1160 03c2 02EB8202 		add	r2, r2, r2, lsl #2
 1161              	.LVL106:
 1162              		.loc 1 286 0
 1163 03c6 0023     		movs	r3, #0
 1164              		.loc 1 287 0
 1165 03c8 46F82240 		str	r4, [r6, r2, lsl #2]
 1166              	.LVL107:
 1167              		.loc 1 286 0
 1168 03cc 0293     		str	r3, [sp, #8]
 1169              		.loc 1 287 0
 1170 03ce 06EB8204 		add	r4, r6, r2, lsl #2
 1171              	.LVL108:
 1172              	.LBB98:
 1173              	.LBB99:
 1174              	.LBB100:
 1175              	.LBB101:
 1176              	.LBB102:
 1177              	.LBB103:
 1178              		.file 5 "ChibiOS_3.0.2/os/ext/CMSIS/include/core_cmFunc.h"
 1179              		.loc 5 546 0
 1180 03d2 2022     		movs	r2, #32
 1181              	@ 546 "ChibiOS_3.0.2/os/ext/CMSIS/include/core_cmFunc.h" 1
 1182 03d4 82F31188 		MSR basepri, r2
 1183              	@ 0 "" 2
 1184              		.thumb
 1185              	.LBE103:
 1186              	.LBE102:
 1187              	.LBE101:
 1188              	.LBE100:
 1189              	.LBB104:
 1190              	.LBB105:
 1191              		.file 6 "ChibiOS_3.0.2/os/rt/include/chvt.h"
 1192              		.loc 6 231 0
 1193 03d8 D8F82820 		ldr	r2, [r8, #40]
 1194              	.LVL109:
 1195              	.LBE105:
 1196              	.LBE104:
 1197              	.LBB106:
ARM GAS  /tmp/ccUitOsI.s 			page 22


 1198              	.LBB107:
 1199              	.LBB108:
 1200              	.LBB109:
 1201              	.LBB110:
 1202              		.loc 5 546 0
 1203              	@ 546 "ChibiOS_3.0.2/os/ext/CMSIS/include/core_cmFunc.h" 1
 1204 03dc 83F31188 		MSR basepri, r3
 1205              	@ 0 "" 2
 1206              		.thumb
 1207              	.LBE110:
 1208              	.LBE109:
 1209              	.LBE108:
 1210              	.LBE107:
 1211              	.LBE106:
 1212              	.LBE99:
 1213              	.LBE98:
 1214              		.loc 1 288 0
 1215 03e0 6260     		str	r2, [r4, #4]
 1216              		.loc 1 289 0
 1217 03e2 02A9     		add	r1, sp, #8
 1218 03e4 06A8     		add	r0, sp, #24
 1219 03e6 FFF7FEFF 		bl	buffer_get_int32
 1220              	.LVL110:
 1221 03ea 07EE900A 		fmsr	s15, r0	@ int
 1222 03ee F8EEE77A 		fsitos	s15, s15
 1223              		.loc 1 290 0
 1224 03f2 02A9     		add	r1, sp, #8
 1225              		.loc 1 289 0
 1226 03f4 C4ED027A 		fsts	s15, [r4, #8]
 1227              		.loc 1 290 0
 1228 03f8 06A8     		add	r0, sp, #24
 1229 03fa FFF7FEFF 		bl	buffer_get_int16
 1230              	.LVL111:
 1231 03fe 07EE900A 		fmsr	s15, r0	@ int
 1232 0402 B8EEE77A 		fsitos	s14, s15
 1233 0406 F2EE047A 		fconsts	s15, #36
 1234 040a C7EE277A 		fdivs	s15, s14, s15
 1235              		.loc 1 291 0
 1236 040e 06A8     		add	r0, sp, #24
 1237 0410 02A9     		add	r1, sp, #8
 1238              		.loc 1 290 0
 1239 0412 C4ED037A 		fsts	s15, [r4, #12]
 1240              		.loc 1 291 0
 1241 0416 FFF7FEFF 		bl	buffer_get_int16
 1242              	.LVL112:
 1243 041a 07EE900A 		fmsr	s15, r0	@ int
 1244 041e F8EEE77A 		fsitos	s15, s15
 1245 0422 D5F800E0 		ldr	lr, [r5]
 1246 0426 C7EE887A 		fdivs	s15, s15, s16
 1247 042a C4ED047A 		fsts	s15, [r4, #16]
 1248              		.loc 1 292 0
 1249 042e 46E6     		b	.L45
 1250              	.LVL113:
 1251              	.L66:
 1252              	.LBE115:
 1253              	.LBB116:
 1254              		.loc 1 241 0
ARM GAS  /tmp/ccUitOsI.s 			page 23


 1255 0430 0B48     		ldr	r0, .L86
 1256 0432 FFF7FEFF 		bl	commands_set_send_func
 1257              	.LVL114:
 1258              		.loc 1 242 0
 1259 0436 0299     		ldr	r1, [sp, #8]
 1260 0438 9DF81030 		ldrb	r3, [sp, #16]	@ zero_extendqisi2
 1261 043c 03AA     		add	r2, sp, #12
 1262 043e 5018     		adds	r0, r2, r1
 1263 0440 03F00F03 		and	r3, r3, #15
 1264 0444 0C30     		adds	r0, r0, #12
 1265 0446 591A     		subs	r1, r3, r1
 1266 0448 FFF7FEFF 		bl	commands_process_packet
 1267              	.LVL115:
 1268 044c 35E6     		b	.L63
 1269              	.LVL116:
 1270              	.L65:
 1271              		.loc 1 227 0
 1272 044e 0448     		ldr	r0, .L86
 1273 0450 FFF7FEFF 		bl	commands_set_send_func
 1274              	.LVL117:
 1275              		.loc 1 228 0
 1276 0454 2146     		mov	r1, r4
 1277 0456 0348     		ldr	r0, .L86+4
 1278 0458 FFF7FEFF 		bl	commands_process_packet
 1279              	.LVL118:
 1280 045c 2DE6     		b	.L63
 1281              	.L87:
 1282 045e 00BF     		.align	2
 1283              	.L86:
 1284 0460 00000000 		.word	send_packet_wrapper
 1285 0464 00000000 		.word	.LANCHOR10
 1286              	.LBE116:
 1287              	.LBE120:
 1288              	.LBE122:
 1289              		.cfi_endproc
 1290              	.LFE258:
 1291              		.size	cancom_process_thread, .-cancom_process_thread
 1292              		.section	.text.comm_can_send_buffer,"ax",%progbits
 1293              		.align	2
 1294              		.p2align 4,,15
 1295              		.global	comm_can_send_buffer
 1296              		.thumb
 1297              		.thumb_func
 1298              		.type	comm_can_send_buffer, %function
 1299              	comm_can_send_buffer:
 1300              	.LFB262:
 1301              		.loc 1 392 0
 1302              		.cfi_startproc
 1303              		@ args = 0, pretend = 0, frame = 24
 1304              		@ frame_needed = 0, uses_anonymous_args = 0
 1305              	.LVL119:
 1306 0000 2DE9F04F 		push	{r4, r5, r6, r7, r8, r9, r10, fp, lr}
 1307              		.cfi_def_cfa_offset 36
 1308              		.cfi_offset 4, -36
 1309              		.cfi_offset 5, -32
 1310              		.cfi_offset 6, -28
 1311              		.cfi_offset 7, -24
ARM GAS  /tmp/ccUitOsI.s 			page 24


 1312              		.cfi_offset 8, -20
 1313              		.cfi_offset 9, -16
 1314              		.cfi_offset 10, -12
 1315              		.cfi_offset 11, -8
 1316              		.cfi_offset 14, -4
 1317 0004 87B0     		sub	sp, sp, #28
 1318              		.cfi_def_cfa_offset 64
 1319              		.loc 1 395 0
 1320 0006 062A     		cmp	r2, #6
 1321              		.loc 1 392 0
 1322 0008 1546     		mov	r5, r2
 1323 000a 8246     		mov	r10, r0
 1324 000c 0191     		str	r1, [sp, #4]
 1325 000e 0293     		str	r3, [sp, #8]
 1326              		.loc 1 395 0
 1327 0010 7FD9     		bls	.L89
 1328 0012 4FF0000B 		mov	fp, #0
 1329 0016 D3B2     		uxtb	r3, r2
 1330              	.LVL120:
 1331 0018 5C46     		mov	r4, fp
 1332 001a 40F4A066 		orr	r6, r0, #1280
 1333 001e 0393     		str	r3, [sp, #12]
 1334 0020 8846     		mov	r8, r1
 1335              	.LBB123:
 1336              	.LBB124:
 1337              	.LBB125:
 1338              		.loc 1 405 0
 1339 0022 40F20317 		movw	r7, #259
 1340 0026 01E0     		b	.L90
 1341              	.LVL121:
 1342              	.L95:
 1343 0028 BC42     		cmp	r4, r7
 1344 002a 41D0     		beq	.L92
 1345              	.LVL122:
 1346              	.L90:
 1347              		.loc 1 409 0
 1348 002c 0734     		adds	r4, r4, #7
 1349              	.LVL123:
 1350              		.loc 1 412 0
 1351 002e 5FFA8BF3 		uxtb	r3, fp
 1352              		.loc 1 414 0
 1353 0032 A542     		cmp	r5, r4
 1354              		.loc 1 412 0
 1355 0034 8DF81030 		strb	r3, [sp, #16]
 1356              		.loc 1 414 0
 1357 0038 C0F08480 		bcc	.L93
 1358              		.loc 1 415 0
 1359 003c D8F80030 		ldr	r3, [r8]	@ unaligned
 1360 0040 B8F80420 		ldrh	r2, [r8, #4]	@ unaligned
 1361 0044 CDF81130 		str	r3, [sp, #17]	@ unaligned
 1362 0048 98F80630 		ldrb	r3, [r8, #6]	@ zero_extendqisi2
 1363 004c ADF81520 		strh	r2, [sp, #21]	@ unaligned
 1364 0050 8DF81730 		strb	r3, [sp, #23]
 1365 0054 0822     		movs	r2, #8
 1366              	.LVL124:
 1367              	.L94:
 1368              		.loc 1 421 0 discriminator 2
ARM GAS  /tmp/ccUitOsI.s 			page 25


 1369 0056 3046     		mov	r0, r6
 1370 0058 04A9     		add	r1, sp, #16
 1371 005a FFF7FEFF 		bl	comm_can_transmit
 1372              	.LVL125:
 1373              	.LBE125:
 1374              		.loc 1 404 0 discriminator 2
 1375 005e A542     		cmp	r5, r4
 1376 0060 0BF1070B 		add	fp, fp, #7
 1377 0064 08F10708 		add	r8, r8, #7
 1378 0068 DED8     		bhi	.L95
 1379              	.LVL126:
 1380              	.L99:
 1381              	.LBE124:
 1382              		.loc 1 440 0
 1383 006a FFF7FEFF 		bl	app_get_configuration
 1384              	.LVL127:
 1385 006e 0278     		ldrb	r2, [r0]	@ zero_extendqisi2
 1386 0070 8DF81020 		strb	r2, [sp, #16]
 1387              	.LVL128:
 1388              		.loc 1 441 0
 1389 0074 9DF80820 		ldrb	r2, [sp, #8]	@ zero_extendqisi2
 1390 0078 8DF81120 		strb	r2, [sp, #17]
 1391              	.LVL129:
 1392              		.loc 1 442 0
 1393 007c 2B0A     		lsrs	r3, r5, #8
 1394              		.loc 1 443 0
 1395 007e 9DF80C20 		ldrb	r2, [sp, #12]	@ zero_extendqisi2
 1396              		.loc 1 444 0
 1397 0082 0198     		ldr	r0, [sp, #4]
 1398              		.loc 1 443 0
 1399 0084 8DF81320 		strb	r2, [sp, #19]
 1400              		.loc 1 444 0
 1401 0088 2946     		mov	r1, r5
 1402              		.loc 1 442 0
 1403 008a 8DF81230 		strb	r3, [sp, #18]
 1404              	.LVL130:
 1405              		.loc 1 444 0
 1406 008e FFF7FEFF 		bl	crc16
 1407              	.LVL131:
 1408              		.loc 1 448 0
 1409 0092 04A9     		add	r1, sp, #16
 1410              		.loc 1 444 0
 1411 0094 0346     		mov	r3, r0
 1412              	.LVL132:
 1413              		.loc 1 445 0
 1414 0096 040A     		lsrs	r4, r0, #8
 1415              		.loc 1 448 0
 1416 0098 0622     		movs	r2, #6
 1417 009a 4AF4E060 		orr	r0, r10, #1792
 1418              	.LVL133:
 1419              		.loc 1 446 0
 1420 009e 8DF81530 		strb	r3, [sp, #21]
 1421              		.loc 1 445 0
 1422 00a2 8DF81440 		strb	r4, [sp, #20]
 1423              	.LVL134:
 1424              		.loc 1 448 0
 1425 00a6 FFF7FEFF 		bl	comm_can_transmit
ARM GAS  /tmp/ccUitOsI.s 			page 26


 1426              	.LVL135:
 1427              	.LBE123:
 1428              		.loc 1 450 0
 1429 00aa 07B0     		add	sp, sp, #28
 1430              		.cfi_remember_state
 1431              		.cfi_def_cfa_offset 36
 1432              		@ sp needed
 1433 00ac BDE8F08F 		pop	{r4, r5, r6, r7, r8, r9, r10, fp, pc}
 1434              	.LVL136:
 1435              	.L92:
 1436              		.cfi_restore_state
 1437 00b0 019B     		ldr	r3, [sp, #4]
 1438 00b2 03F2031B 		addw	fp, r3, #259
 1439 00b6 039B     		ldr	r3, [sp, #12]
 1440 00b8 4AF4C067 		orr	r7, r10, #1536
 1441 00bc 9E1D     		adds	r6, r3, #6
 1442 00be 03F10808 		add	r8, r3, #8
 1443 00c2 10E0     		b	.L98
 1444              	.LVL137:
 1445              	.L102:
 1446              	.LBB131:
 1447              	.LBB127:
 1448              	.LBB128:
 1449              		.loc 1 430 0
 1450 00c4 DBF80020 		ldr	r2, [fp]	@ unaligned
 1451 00c8 BBF80430 		ldrh	r3, [fp, #4]	@ unaligned
 1452 00cc CDF81220 		str	r2, [sp, #18]	@ unaligned
 1453 00d0 ADF81630 		strh	r3, [sp, #22]	@ unaligned
 1454 00d4 0822     		movs	r2, #8
 1455              	.L97:
 1456              		.loc 1 436 0 discriminator 2
 1457 00d6 3846     		mov	r0, r7
 1458 00d8 04A9     		add	r1, sp, #16
 1459 00da FFF7FEFF 		bl	comm_can_transmit
 1460              	.LVL138:
 1461              	.LBE128:
 1462              		.loc 1 424 0 discriminator 2
 1463 00de A542     		cmp	r5, r4
 1464 00e0 0BF1060B 		add	fp, fp, #6
 1465 00e4 C1D9     		bls	.L99
 1466              	.LVL139:
 1467              	.L98:
 1468              	.LBB129:
 1469              		.loc 1 426 0
 1470 00e6 230A     		lsrs	r3, r4, #8
 1471              		.loc 1 427 0
 1472 00e8 8DF81140 		strb	r4, [sp, #17]
 1473              		.loc 1 429 0
 1474 00ec 0634     		adds	r4, r4, #6
 1475              	.LVL140:
 1476 00ee 5FFA84F9 		uxtb	r9, r4
 1477              	.LVL141:
 1478 00f2 A542     		cmp	r5, r4
 1479              		.loc 1 426 0
 1480 00f4 8DF81030 		strb	r3, [sp, #16]
 1481 00f8 C9EB0602 		rsb	r2, r9, r6
 1482              		.loc 1 429 0
ARM GAS  /tmp/ccUitOsI.s 			page 27


 1483 00fc E2D2     		bcs	.L102
 1484              		.loc 1 433 0
 1485 00fe D2B2     		uxtb	r2, r2
 1486 0100 0DF11200 		add	r0, sp, #18
 1487 0104 5946     		mov	r1, fp
 1488 0106 FFF7FEFF 		bl	memcpy
 1489              	.LVL142:
 1490 010a C9EB0802 		rsb	r2, r9, r8
 1491 010e D2B2     		uxtb	r2, r2
 1492 0110 E1E7     		b	.L97
 1493              	.LVL143:
 1494              	.L89:
 1495              	.LBE129:
 1496              	.LBE127:
 1497              	.LBE131:
 1498              	.LBB132:
 1499              		.loc 1 397 0
 1500 0112 FFF7FEFF 		bl	app_get_configuration
 1501              	.LVL144:
 1502 0116 0378     		ldrb	r3, [r0]	@ zero_extendqisi2
 1503              		.loc 1 399 0
 1504 0118 0199     		ldr	r1, [sp, #4]
 1505              		.loc 1 397 0
 1506 011a 8DF81030 		strb	r3, [sp, #16]
 1507              	.LVL145:
 1508              		.loc 1 399 0
 1509 011e 2A46     		mov	r2, r5
 1510              		.loc 1 398 0
 1511 0120 9DF80830 		ldrb	r3, [sp, #8]	@ zero_extendqisi2
 1512 0124 8DF81130 		strb	r3, [sp, #17]
 1513              		.loc 1 399 0
 1514 0128 0DF11200 		add	r0, sp, #18
 1515 012c FFF7FEFF 		bl	memcpy
 1516              	.LVL146:
 1517              		.loc 1 400 0
 1518 0130 AA1C     		adds	r2, r5, #2
 1519              	.LVL147:
 1520              		.loc 1 401 0
 1521 0132 D2B2     		uxtb	r2, r2
 1522              	.LVL148:
 1523 0134 4AF40060 		orr	r0, r10, #2048
 1524 0138 04A9     		add	r1, sp, #16
 1525 013a FFF7FEFF 		bl	comm_can_transmit
 1526              	.LVL149:
 1527              	.LBE132:
 1528              		.loc 1 450 0
 1529 013e 07B0     		add	sp, sp, #28
 1530              		.cfi_remember_state
 1531              		.cfi_def_cfa_offset 36
 1532              		@ sp needed
 1533 0140 BDE8F08F 		pop	{r4, r5, r6, r7, r8, r9, r10, fp, pc}
 1534              	.LVL150:
 1535              	.L93:
 1536              		.cfi_restore_state
 1537 0144 EA1A     		subs	r2, r5, r3
 1538              	.LBB133:
 1539              	.LBB130:
ARM GAS  /tmp/ccUitOsI.s 			page 28


 1540              	.LBB126:
 1541              		.loc 1 418 0
 1542 0146 D2B2     		uxtb	r2, r2
 1543 0148 0DF11100 		add	r0, sp, #17
 1544 014c 4146     		mov	r1, r8
 1545 014e FFF7FEFF 		bl	memcpy
 1546              	.LVL151:
 1547 0152 039B     		ldr	r3, [sp, #12]
 1548 0154 C4F10802 		rsb	r2, r4, #8
 1549 0158 1A44     		add	r2, r2, r3
 1550 015a D2B2     		uxtb	r2, r2
 1551 015c 7BE7     		b	.L94
 1552              	.LBE126:
 1553              	.LBE130:
 1554              	.LBE133:
 1555              		.cfi_endproc
 1556              	.LFE262:
 1557              		.size	comm_can_send_buffer, .-comm_can_send_buffer
 1558 015e 00BF     		.section	.text.send_packet_wrapper,"ax",%progbits
 1559              		.align	2
 1560              		.p2align 4,,15
 1561              		.thumb
 1562              		.thumb_func
 1563              		.type	send_packet_wrapper, %function
 1564              	send_packet_wrapper:
 1565              	.LFB270:
 1566              		.loc 1 523 0
 1567              		.cfi_startproc
 1568              		@ args = 0, pretend = 0, frame = 0
 1569              		@ frame_needed = 0, uses_anonymous_args = 0
 1570              		@ link register save eliminated.
 1571              	.LVL152:
 1572              		.loc 1 524 0
 1573 0000 034B     		ldr	r3, .L104
 1574              		.loc 1 523 0
 1575 0002 0A46     		mov	r2, r1
 1576              		.loc 1 524 0
 1577 0004 0146     		mov	r1, r0
 1578              	.LVL153:
 1579 0006 1878     		ldrb	r0, [r3]	@ zero_extendqisi2
 1580              	.LVL154:
 1581 0008 0123     		movs	r3, #1
 1582 000a FFF7FEBF 		b	comm_can_send_buffer
 1583              	.LVL155:
 1584              	.L105:
 1585 000e 00BF     		.align	2
 1586              	.L104:
 1587 0010 00000000 		.word	.LANCHOR11
 1588              		.cfi_endproc
 1589              	.LFE270:
 1590              		.size	send_packet_wrapper, .-send_packet_wrapper
 1591              		.section	.text.comm_can_set_duty,"ax",%progbits
 1592              		.align	2
 1593              		.p2align 4,,15
 1594              		.global	comm_can_set_duty
 1595              		.thumb
 1596              		.thumb_func
ARM GAS  /tmp/ccUitOsI.s 			page 29


 1597              		.type	comm_can_set_duty, %function
 1598              	comm_can_set_duty:
 1599              	.LFB263:
 1600              		.loc 1 452 0
 1601              		.cfi_startproc
 1602              		@ args = 0, pretend = 0, frame = 8
 1603              		@ frame_needed = 0, uses_anonymous_args = 0
 1604              	.LVL156:
 1605 0000 10B5     		push	{r4, lr}
 1606              		.cfi_def_cfa_offset 8
 1607              		.cfi_offset 4, -8
 1608              		.cfi_offset 14, -4
 1609              		.loc 1 455 0
 1610 0002 DFED0C7A 		flds	s15, .L108
 1611 0006 20EE270A 		fmuls	s0, s0, s15
 1612              	.LVL157:
 1613              		.loc 1 452 0
 1614 000a 82B0     		sub	sp, sp, #8
 1615              		.cfi_def_cfa_offset 16
 1616              		.loc 1 455 0
 1617 000c FDEEC07A 		ftosizs	s15, s0
 1618              		.loc 1 453 0
 1619 0010 0023     		movs	r3, #0
 1620              		.loc 1 455 0
 1621 0012 17EE901A 		fmrs	r1, s15	@ int
 1622              		.loc 1 452 0
 1623 0016 0446     		mov	r4, r0
 1624              		.loc 1 455 0
 1625 0018 6A46     		mov	r2, sp
 1626 001a 01A8     		add	r0, sp, #4
 1627              	.LVL158:
 1628              		.loc 1 453 0
 1629 001c 0093     		str	r3, [sp]
 1630              		.loc 1 455 0
 1631 001e FFF7FEFF 		bl	buffer_append_int32
 1632              	.LVL159:
 1633              		.loc 1 456 0
 1634 0022 2046     		mov	r0, r4
 1635 0024 01A9     		add	r1, sp, #4
 1636 0026 9DF80020 		ldrb	r2, [sp]	@ zero_extendqisi2
 1637 002a FFF7FEFF 		bl	comm_can_transmit
 1638              	.LVL160:
 1639              		.loc 1 457 0
 1640 002e 02B0     		add	sp, sp, #8
 1641              		.cfi_def_cfa_offset 8
 1642              		@ sp needed
 1643 0030 10BD     		pop	{r4, pc}
 1644              	.L109:
 1645 0032 00BF     		.align	2
 1646              	.L108:
 1647 0034 0050C347 		.word	1203982336
 1648              		.cfi_endproc
 1649              	.LFE263:
 1650              		.size	comm_can_set_duty, .-comm_can_set_duty
 1651              		.section	.text.comm_can_set_current,"ax",%progbits
 1652              		.align	2
 1653              		.p2align 4,,15
ARM GAS  /tmp/ccUitOsI.s 			page 30


 1654              		.global	comm_can_set_current
 1655              		.thumb
 1656              		.thumb_func
 1657              		.type	comm_can_set_current, %function
 1658              	comm_can_set_current:
 1659              	.LFB264:
 1660              		.loc 1 459 0
 1661              		.cfi_startproc
 1662              		@ args = 0, pretend = 0, frame = 8
 1663              		@ frame_needed = 0, uses_anonymous_args = 0
 1664              	.LVL161:
 1665 0000 10B5     		push	{r4, lr}
 1666              		.cfi_def_cfa_offset 8
 1667              		.cfi_offset 4, -8
 1668              		.cfi_offset 14, -4
 1669              		.loc 1 462 0
 1670 0002 DFED0C7A 		flds	s15, .L112
 1671 0006 20EE270A 		fmuls	s0, s0, s15
 1672              	.LVL162:
 1673              		.loc 1 459 0
 1674 000a 82B0     		sub	sp, sp, #8
 1675              		.cfi_def_cfa_offset 16
 1676              		.loc 1 462 0
 1677 000c FDEEC07A 		ftosizs	s15, s0
 1678              		.loc 1 460 0
 1679 0010 0023     		movs	r3, #0
 1680              		.loc 1 462 0
 1681 0012 17EE901A 		fmrs	r1, s15	@ int
 1682              		.loc 1 459 0
 1683 0016 0446     		mov	r4, r0
 1684              		.loc 1 462 0
 1685 0018 6A46     		mov	r2, sp
 1686 001a 01A8     		add	r0, sp, #4
 1687              	.LVL163:
 1688              		.loc 1 460 0
 1689 001c 0093     		str	r3, [sp]
 1690              		.loc 1 462 0
 1691 001e FFF7FEFF 		bl	buffer_append_int32
 1692              	.LVL164:
 1693              		.loc 1 463 0
 1694 0022 44F48070 		orr	r0, r4, #256
 1695 0026 01A9     		add	r1, sp, #4
 1696 0028 9DF80020 		ldrb	r2, [sp]	@ zero_extendqisi2
 1697 002c FFF7FEFF 		bl	comm_can_transmit
 1698              	.LVL165:
 1699              		.loc 1 464 0
 1700 0030 02B0     		add	sp, sp, #8
 1701              		.cfi_def_cfa_offset 8
 1702              		@ sp needed
 1703 0032 10BD     		pop	{r4, pc}
 1704              	.L113:
 1705              		.align	2
 1706              	.L112:
 1707 0034 00007A44 		.word	1148846080
 1708              		.cfi_endproc
 1709              	.LFE264:
 1710              		.size	comm_can_set_current, .-comm_can_set_current
ARM GAS  /tmp/ccUitOsI.s 			page 31


 1711              		.section	.text.comm_can_set_current_brake,"ax",%progbits
 1712              		.align	2
 1713              		.p2align 4,,15
 1714              		.global	comm_can_set_current_brake
 1715              		.thumb
 1716              		.thumb_func
 1717              		.type	comm_can_set_current_brake, %function
 1718              	comm_can_set_current_brake:
 1719              	.LFB265:
 1720              		.loc 1 466 0
 1721              		.cfi_startproc
 1722              		@ args = 0, pretend = 0, frame = 8
 1723              		@ frame_needed = 0, uses_anonymous_args = 0
 1724              	.LVL166:
 1725 0000 10B5     		push	{r4, lr}
 1726              		.cfi_def_cfa_offset 8
 1727              		.cfi_offset 4, -8
 1728              		.cfi_offset 14, -4
 1729              		.loc 1 469 0
 1730 0002 DFED0C7A 		flds	s15, .L116
 1731 0006 20EE270A 		fmuls	s0, s0, s15
 1732              	.LVL167:
 1733              		.loc 1 466 0
 1734 000a 82B0     		sub	sp, sp, #8
 1735              		.cfi_def_cfa_offset 16
 1736              		.loc 1 469 0
 1737 000c FDEEC07A 		ftosizs	s15, s0
 1738              		.loc 1 467 0
 1739 0010 0023     		movs	r3, #0
 1740              		.loc 1 469 0
 1741 0012 17EE901A 		fmrs	r1, s15	@ int
 1742              		.loc 1 466 0
 1743 0016 0446     		mov	r4, r0
 1744              		.loc 1 469 0
 1745 0018 6A46     		mov	r2, sp
 1746 001a 01A8     		add	r0, sp, #4
 1747              	.LVL168:
 1748              		.loc 1 467 0
 1749 001c 0093     		str	r3, [sp]
 1750              		.loc 1 469 0
 1751 001e FFF7FEFF 		bl	buffer_append_int32
 1752              	.LVL169:
 1753              		.loc 1 470 0
 1754 0022 44F40070 		orr	r0, r4, #512
 1755 0026 01A9     		add	r1, sp, #4
 1756 0028 9DF80020 		ldrb	r2, [sp]	@ zero_extendqisi2
 1757 002c FFF7FEFF 		bl	comm_can_transmit
 1758              	.LVL170:
 1759              		.loc 1 471 0
 1760 0030 02B0     		add	sp, sp, #8
 1761              		.cfi_def_cfa_offset 8
 1762              		@ sp needed
 1763 0032 10BD     		pop	{r4, pc}
 1764              	.L117:
 1765              		.align	2
 1766              	.L116:
 1767 0034 00007A44 		.word	1148846080
ARM GAS  /tmp/ccUitOsI.s 			page 32


 1768              		.cfi_endproc
 1769              	.LFE265:
 1770              		.size	comm_can_set_current_brake, .-comm_can_set_current_brake
 1771              		.section	.text.comm_can_set_rpm,"ax",%progbits
 1772              		.align	2
 1773              		.p2align 4,,15
 1774              		.global	comm_can_set_rpm
 1775              		.thumb
 1776              		.thumb_func
 1777              		.type	comm_can_set_rpm, %function
 1778              	comm_can_set_rpm:
 1779              	.LFB266:
 1780              		.loc 1 473 0
 1781              		.cfi_startproc
 1782              		@ args = 0, pretend = 0, frame = 8
 1783              		@ frame_needed = 0, uses_anonymous_args = 0
 1784              	.LVL171:
 1785 0000 10B5     		push	{r4, lr}
 1786              		.cfi_def_cfa_offset 8
 1787              		.cfi_offset 4, -8
 1788              		.cfi_offset 14, -4
 1789              		.loc 1 476 0
 1790 0002 FDEEC07A 		ftosizs	s15, s0
 1791              		.loc 1 473 0
 1792 0006 82B0     		sub	sp, sp, #8
 1793              		.cfi_def_cfa_offset 16
 1794              		.loc 1 474 0
 1795 0008 0023     		movs	r3, #0
 1796              		.loc 1 476 0
 1797 000a 17EE901A 		fmrs	r1, s15	@ int
 1798              		.loc 1 473 0
 1799 000e 0446     		mov	r4, r0
 1800              		.loc 1 476 0
 1801 0010 6A46     		mov	r2, sp
 1802 0012 01A8     		add	r0, sp, #4
 1803              	.LVL172:
 1804              		.loc 1 474 0
 1805 0014 0093     		str	r3, [sp]
 1806              		.loc 1 476 0
 1807 0016 FFF7FEFF 		bl	buffer_append_int32
 1808              	.LVL173:
 1809              		.loc 1 477 0
 1810 001a 44F44070 		orr	r0, r4, #768
 1811 001e 01A9     		add	r1, sp, #4
 1812 0020 9DF80020 		ldrb	r2, [sp]	@ zero_extendqisi2
 1813 0024 FFF7FEFF 		bl	comm_can_transmit
 1814              	.LVL174:
 1815              		.loc 1 478 0
 1816 0028 02B0     		add	sp, sp, #8
 1817              		.cfi_def_cfa_offset 8
 1818              		@ sp needed
 1819 002a 10BD     		pop	{r4, pc}
 1820              		.cfi_endproc
 1821              	.LFE266:
 1822              		.size	comm_can_set_rpm, .-comm_can_set_rpm
 1823              		.section	.text.comm_can_set_pos,"ax",%progbits
 1824              		.align	2
ARM GAS  /tmp/ccUitOsI.s 			page 33


 1825              		.p2align 4,,15
 1826              		.global	comm_can_set_pos
 1827              		.thumb
 1828              		.thumb_func
 1829              		.type	comm_can_set_pos, %function
 1830              	comm_can_set_pos:
 1831              	.LFB267:
 1832              		.loc 1 480 0
 1833              		.cfi_startproc
 1834              		@ args = 0, pretend = 0, frame = 8
 1835              		@ frame_needed = 0, uses_anonymous_args = 0
 1836              	.LVL175:
 1837 0000 10B5     		push	{r4, lr}
 1838              		.cfi_def_cfa_offset 8
 1839              		.cfi_offset 4, -8
 1840              		.cfi_offset 14, -4
 1841              		.loc 1 483 0
 1842 0002 DFED0C7A 		flds	s15, .L122
 1843 0006 20EE270A 		fmuls	s0, s0, s15
 1844              	.LVL176:
 1845              		.loc 1 480 0
 1846 000a 82B0     		sub	sp, sp, #8
 1847              		.cfi_def_cfa_offset 16
 1848              		.loc 1 483 0
 1849 000c FDEEC07A 		ftosizs	s15, s0
 1850              		.loc 1 481 0
 1851 0010 0023     		movs	r3, #0
 1852              		.loc 1 483 0
 1853 0012 17EE901A 		fmrs	r1, s15	@ int
 1854              		.loc 1 480 0
 1855 0016 0446     		mov	r4, r0
 1856              		.loc 1 483 0
 1857 0018 6A46     		mov	r2, sp
 1858 001a 01A8     		add	r0, sp, #4
 1859              	.LVL177:
 1860              		.loc 1 481 0
 1861 001c 0093     		str	r3, [sp]
 1862              		.loc 1 483 0
 1863 001e FFF7FEFF 		bl	buffer_append_int32
 1864              	.LVL178:
 1865              		.loc 1 484 0
 1866 0022 44F48060 		orr	r0, r4, #1024
 1867 0026 01A9     		add	r1, sp, #4
 1868 0028 9DF80020 		ldrb	r2, [sp]	@ zero_extendqisi2
 1869 002c FFF7FEFF 		bl	comm_can_transmit
 1870              	.LVL179:
 1871              		.loc 1 485 0
 1872 0030 02B0     		add	sp, sp, #8
 1873              		.cfi_def_cfa_offset 8
 1874              		@ sp needed
 1875 0032 10BD     		pop	{r4, pc}
 1876              	.L123:
 1877              		.align	2
 1878              	.L122:
 1879 0034 00247449 		.word	1232348160
 1880              		.cfi_endproc
 1881              	.LFE267:
ARM GAS  /tmp/ccUitOsI.s 			page 34


 1882              		.size	comm_can_set_pos, .-comm_can_set_pos
 1883              		.section	.text.comm_can_get_status_msg_index,"ax",%progbits
 1884              		.align	2
 1885              		.p2align 4,,15
 1886              		.global	comm_can_get_status_msg_index
 1887              		.thumb
 1888              		.thumb_func
 1889              		.type	comm_can_get_status_msg_index, %function
 1890              	comm_can_get_status_msg_index:
 1891              	.LFB268:
 1892              		.loc 1 496 0
 1893              		.cfi_startproc
 1894              		@ args = 0, pretend = 0, frame = 0
 1895              		@ frame_needed = 0, uses_anonymous_args = 0
 1896              		@ link register save eliminated.
 1897              	.LVL180:
 1898              		.loc 1 497 0
 1899 0000 0928     		cmp	r0, #9
 1900              		.loc 1 498 0
 1901 0002 DDBF     		ittte	le
 1902 0004 034B     		ldrle	r3, .L127
 1903 0006 00EB8000 		addle	r0, r0, r0, lsl #2
 1904              	.LVL181:
 1905 000a 03EB8000 		addle	r0, r3, r0, lsl #2
 1906              		.loc 1 500 0
 1907 000e 0020     		movgt	r0, #0
 1908              		.loc 1 502 0
 1909 0010 7047     		bx	lr
 1910              	.L128:
 1911 0012 00BF     		.align	2
 1912              	.L127:
 1913 0014 00000000 		.word	.LANCHOR3
 1914              		.cfi_endproc
 1915              	.LFE268:
 1916              		.size	comm_can_get_status_msg_index, .-comm_can_get_status_msg_index
 1917              		.section	.text.comm_can_get_status_msg_id,"ax",%progbits
 1918              		.align	2
 1919              		.p2align 4,,15
 1920              		.global	comm_can_get_status_msg_id
 1921              		.thumb
 1922              		.thumb_func
 1923              		.type	comm_can_get_status_msg_id, %function
 1924              	comm_can_get_status_msg_id:
 1925              	.LFB269:
 1926              		.loc 1 513 0
 1927              		.cfi_startproc
 1928              		@ args = 0, pretend = 0, frame = 0
 1929              		@ frame_needed = 0, uses_anonymous_args = 0
 1930              		@ link register save eliminated.
 1931              	.LVL182:
 1932 0000 30B4     		push	{r4, r5}
 1933              		.cfi_def_cfa_offset 8
 1934              		.cfi_offset 4, -8
 1935              		.cfi_offset 5, -4
 1936              		.loc 1 513 0
 1937 0002 0023     		movs	r3, #0
 1938 0004 094D     		ldr	r5, .L136
ARM GAS  /tmp/ccUitOsI.s 			page 35


 1939              	.LBB134:
 1940              		.loc 1 514 0
 1941 0006 1A46     		mov	r2, r3
 1942              	.LVL183:
 1943              	.L132:
 1944              		.loc 1 515 0
 1945 0008 E958     		ldr	r1, [r5, r3]
 1946 000a 084C     		ldr	r4, .L136
 1947 000c 8142     		cmp	r1, r0
 1948 000e 03F11403 		add	r3, r3, #20
 1949 0012 05D0     		beq	.L135
 1950              		.loc 1 514 0 discriminator 2
 1951 0014 0132     		adds	r2, r2, #1
 1952              	.LVL184:
 1953 0016 0A2A     		cmp	r2, #10
 1954 0018 F6D1     		bne	.L132
 1955              	.LBE134:
 1956              		.loc 1 520 0
 1957 001a 0020     		movs	r0, #0
 1958              	.LVL185:
 1959              		.loc 1 521 0
 1960 001c 30BC     		pop	{r4, r5}
 1961              		.cfi_remember_state
 1962              		.cfi_restore 5
 1963              		.cfi_restore 4
 1964              		.cfi_def_cfa_offset 0
 1965 001e 7047     		bx	lr
 1966              	.LVL186:
 1967              	.L135:
 1968              		.cfi_restore_state
 1969              	.LBB135:
 1970              		.loc 1 516 0
 1971 0020 02EB8202 		add	r2, r2, r2, lsl #2
 1972              	.LVL187:
 1973 0024 04EB8200 		add	r0, r4, r2, lsl #2
 1974              	.LVL188:
 1975              	.LBE135:
 1976              		.loc 1 521 0
 1977 0028 30BC     		pop	{r4, r5}
 1978              		.cfi_restore 4
 1979              		.cfi_restore 5
 1980              		.cfi_def_cfa_offset 0
 1981 002a 7047     		bx	lr
 1982              	.L137:
 1983              		.align	2
 1984              	.L136:
 1985 002c 00000000 		.word	.LANCHOR3
 1986              		.cfi_endproc
 1987              	.LFE269:
 1988              		.size	comm_can_get_status_msg_id, .-comm_can_get_status_msg_id
 1989              		.section	.bss.cancom_process_thread_wa,"aw",%nobits
 1990              		.align	3
 1991              		.set	.LANCHOR9,. + 0
 1992              		.type	cancom_process_thread_wa, %object
 1993              		.size	cancom_process_thread_wa, 4504
 1994              	cancom_process_thread_wa:
 1995 0000 00000000 		.space	4504
ARM GAS  /tmp/ccUitOsI.s 			page 36


 1995      00000000 
 1995      00000000 
 1995      00000000 
 1995      00000000 
 1996              		.section	.bss.rx_frame_read,"aw",%nobits
 1997              		.align	2
 1998              		.set	.LANCHOR4,. + 0
 1999              		.type	rx_frame_read, %object
 2000              		.size	rx_frame_read, 4
 2001              	rx_frame_read:
 2002 0000 00000000 		.space	4
 2003              		.section	.rodata.cancfg,"a",%progbits
 2004              		.align	2
 2005              		.set	.LANCHOR6,. + 0
 2006              		.type	cancfg, %object
 2007              		.size	cancfg, 8
 2008              	cancfg:
 2009 0000 64000000 		.word	100
 2010 0004 06001800 		.word	1572870
 2011              		.section	.bss.rx_buffer,"aw",%nobits
 2012              		.align	2
 2013              		.set	.LANCHOR10,. + 0
 2014              		.type	rx_buffer, %object
 2015              		.size	rx_buffer, 1024
 2016              	rx_buffer:
 2017 0000 00000000 		.space	1024
 2017      00000000 
 2017      00000000 
 2017      00000000 
 2017      00000000 
 2018              		.section	.bss.cancom_status_thread_wa,"aw",%nobits
 2019              		.align	3
 2020              		.set	.LANCHOR8,. + 0
 2021              		.type	cancom_status_thread_wa, %object
 2022              		.size	cancom_status_thread_wa, 1432
 2023              	cancom_status_thread_wa:
 2024 0000 00000000 		.space	1432
 2024      00000000 
 2024      00000000 
 2024      00000000 
 2024      00000000 
 2025              		.section	.bss.stat_msgs,"aw",%nobits
 2026              		.align	2
 2027              		.set	.LANCHOR3,. + 0
 2028              		.type	stat_msgs, %object
 2029              		.size	stat_msgs, 200
 2030              	stat_msgs:
 2031 0000 00000000 		.space	200
 2031      00000000 
 2031      00000000 
 2031      00000000 
 2031      00000000 
 2032              		.section	.bss.rx_frames,"aw",%nobits
 2033              		.align	2
 2034              		.set	.LANCHOR1,. + 0
 2035              		.type	rx_frames, %object
 2036              		.size	rx_frames, 2000
ARM GAS  /tmp/ccUitOsI.s 			page 37


 2037              	rx_frames:
 2038 0000 00000000 		.space	2000
 2038      00000000 
 2038      00000000 
 2038      00000000 
 2038      00000000 
 2039              		.section	.rodata.str1.4,"aMS",%progbits,1
 2040              		.align	2
 2041              	.LC0:
 2042 0000 43414E00 		.ascii	"CAN\000"
 2043              	.LC1:
 2044 0004 43414E20 		.ascii	"CAN status\000"
 2044      73746174 
 2044      757300
 2045 000f 00       		.space	1
 2046              	.LC2:
 2047 0010 43616E63 		.ascii	"Cancom process\000"
 2047      6F6D2070 
 2047      726F6365 
 2047      737300
 2048              		.section	.bss.transmit_buffer,"aw",%nobits
 2049              		.align	2
 2050              		.set	.LANCHOR12,. + 0
 2051              		.type	transmit_buffer, %object
 2052              		.size	transmit_buffer, 4
 2053              	transmit_buffer:
 2054 0000 00000000 		.space	4
 2055              		.section	.bss.can_mtx,"aw",%nobits
 2056              		.align	2
 2057              		.set	.LANCHOR5,. + 0
 2058              		.type	can_mtx, %object
 2059              		.size	can_mtx, 16
 2060              	can_mtx:
 2061 0000 00000000 		.space	16
 2061      00000000 
 2061      00000000 
 2061      00000000 
 2062              		.section	.bss.cancom_read_thread_wa,"aw",%nobits
 2063              		.align	3
 2064              		.set	.LANCHOR7,. + 0
 2065              		.type	cancom_read_thread_wa, %object
 2066              		.size	cancom_read_thread_wa, 920
 2067              	cancom_read_thread_wa:
 2068 0000 00000000 		.space	920
 2068      00000000 
 2068      00000000 
 2068      00000000 
 2068      00000000 
 2069              		.section	.bss.process_tp,"aw",%nobits
 2070              		.align	2
 2071              		.set	.LANCHOR2,. + 0
 2072              		.type	process_tp, %object
 2073              		.size	process_tp, 4
 2074              	process_tp:
 2075 0000 00000000 		.space	4
 2076              		.section	.bss.rx_buffer_last_id,"aw",%nobits
 2077              		.align	2
ARM GAS  /tmp/ccUitOsI.s 			page 38


 2078              		.set	.LANCHOR11,. + 0
 2079              		.type	rx_buffer_last_id, %object
 2080              		.size	rx_buffer_last_id, 4
 2081              	rx_buffer_last_id:
 2082 0000 00000000 		.space	4
 2083              		.section	.bss.rx_frame_write,"aw",%nobits
 2084              		.align	2
 2085              		.set	.LANCHOR0,. + 0
 2086              		.type	rx_frame_write, %object
 2087              		.size	rx_frame_write, 4
 2088              	rx_frame_write:
 2089 0000 00000000 		.space	4
 2090              		.text
 2091              	.Letext0:
 2092              		.file 7 "/usr/lib/gcc/arm-none-eabi/4.9.3/include/stddef.h"
 2093              		.file 8 "/usr/arm-none-eabi/include/machine/_default_types.h"
 2094              		.file 9 "/usr/arm-none-eabi/include/sys/_stdint.h"
 2095              		.file 10 "ChibiOS_3.0.2/os/rt/ports/ARMCMx/compilers/GCC/chtypes.h"
 2096              		.file 11 "ChibiOS_3.0.2/os/rt/include/chsystypes.h"
 2097              		.file 12 "ChibiOS_3.0.2/os/rt/include/chschd.h"
 2098              		.file 13 "ChibiOS_3.0.2/os/ext/CMSIS/ST/stm32f407xx.h"
 2099              		.file 14 "ChibiOS_3.0.2/os/rt/ports/ARMCMx/chcore.h"
 2100              		.file 15 "ChibiOS_3.0.2/os/rt/ports/ARMCMx/chcore_v7m.h"
 2101              		.file 16 "ChibiOS_3.0.2/os/rt/include/chtm.h"
 2102              		.file 17 "ChibiOS_3.0.2/os/rt/include/chsem.h"
 2103              		.file 18 "ChibiOS_3.0.2/os/rt/include/chmtx.h"
 2104              		.file 19 "datatypes.h"
 2105              		.file 20 "ChibiOS_3.0.2/os/hal/ports/STM32/LLD/GPIOv2/pal_lld.h"
 2106              		.file 21 "ChibiOS_3.0.2/os/hal/include/can.h"
 2107              		.file 22 "ChibiOS_3.0.2/os/hal/ports/STM32/LLD/can_lld.h"
 2108              		.file 23 "ChibiOS_3.0.2/os/rt/include/chsys.h"
 2109              		.file 24 "ChibiOS_3.0.2/os/ext/CMSIS/include/core_cm4.h"
 2110              		.file 25 "mc_interface.h"
 2111              		.file 26 "<built-in>"
 2112              		.file 27 "buffer.h"
 2113              		.file 28 "applications/app.h"
 2114              		.file 29 "commands.h"
 2115              		.file 30 "crc.h"
 2116              		.file 31 "timeout.h"