ARM GAS  /tmp/ccugl0ze.s 			page 1


   1              		.syntax unified
   2              		.cpu cortex-m4
   3              		.eabi_attribute 27, 1
   4              		.eabi_attribute 28, 1
   5              		.fpu fpv4-sp-d16
   6              		.eabi_attribute 20, 1
   7              		.eabi_attribute 21, 1
   8              		.eabi_attribute 23, 3
   9              		.eabi_attribute 24, 1
  10              		.eabi_attribute 25, 1
  11              		.eabi_attribute 26, 1
  12              		.eabi_attribute 30, 2
  13              		.eabi_attribute 34, 1
  14              		.eabi_attribute 18, 4
  15              		.thumb
  16              		.file	"conf_general.c"
  17              		.text
  18              	.Ltext0:
  19              		.cfi_sections	.debug_frame
  20              		.section	.text.conf_general_init,"ax",%progbits
  21              		.align	2
  22              		.p2align 4,,15
  23              		.global	conf_general_init
  24              		.thumb
  25              		.thumb_func
  26              		.type	conf_general_init, %function
  27              	conf_general_init:
  28              	.LFB219:
  29              		.file 1 "conf_general.c"
  30              		.loc 1 45 0
  31              		.cfi_startproc
  32              		@ args = 0, pretend = 0, frame = 0
  33              		@ frame_needed = 0, uses_anonymous_args = 0
  34 0000 08B5     		push	{r3, lr}
  35              		.cfi_def_cfa_offset 8
  36              		.cfi_offset 3, -8
  37              		.cfi_offset 14, -4
  38              		.loc 1 47 0
  39 0002 0021     		movs	r1, #0
  40 0004 4FF4A072 		mov	r2, #320
  41 0008 1048     		ldr	r0, .L8
  42 000a FFF7FEFF 		bl	memset
  43              	.LVL0:
  44 000e 104A     		ldr	r2, .L8+4
  45 0010 4FF47A73 		mov	r3, #1000
  46 0014 02F1A001 		add	r1, r2, #160
  47              	.LVL1:
  48              	.L2:
  49              	.LBB2:
  50              		.loc 1 51 0 discriminator 3
  51 0018 22F8023F 		strh	r3, [r2, #2]!	@ movhi
  52 001c 0133     		adds	r3, r3, #1
  53              		.loc 1 50 0 discriminator 3
  54 001e 8A42     		cmp	r2, r1
  55 0020 9BB2     		uxth	r3, r3
  56 0022 F9D1     		bne	.L2
  57 0024 0B4A     		ldr	r2, .L8+8
ARM GAS  /tmp/ccugl0ze.s 			page 2


  58              		.loc 1 50 0 is_stmt 0
  59 0026 4FF4FA63 		mov	r3, #2000
  60 002a 02F1A001 		add	r1, r2, #160
  61              	.L3:
  62              	.LBE2:
  63              	.LBB3:
  64              		.loc 1 55 0 is_stmt 1 discriminator 3
  65 002e 22F8023F 		strh	r3, [r2, #2]!	@ movhi
  66              	.LVL2:
  67 0032 0133     		adds	r3, r3, #1
  68              		.loc 1 54 0 discriminator 3
  69 0034 8A42     		cmp	r2, r1
  70 0036 9BB2     		uxth	r3, r3
  71 0038 F9D1     		bne	.L3
  72              	.LBE3:
  73              		.loc 1 58 0
  74 003a FFF7FEFF 		bl	FLASH_Unlock
  75              	.LVL3:
  76              		.loc 1 59 0
  77 003e F220     		movs	r0, #242
  78 0040 FFF7FEFF 		bl	FLASH_ClearFlag
  79              	.LVL4:
  80              		.loc 1 62 0
  81 0044 BDE80840 		pop	{r3, lr}
  82              		.cfi_restore 14
  83              		.cfi_restore 3
  84              		.cfi_def_cfa_offset 0
  85              		.loc 1 61 0
  86 0048 FFF7FEBF 		b	EE_Init
  87              	.LVL5:
  88              	.L9:
  89              		.align	2
  90              	.L8:
  91 004c 00000000 		.word	.LANCHOR0
  92 0050 FEFFFFFF 		.word	.LANCHOR0-2
  93 0054 9E000000 		.word	.LANCHOR0+158
  94              		.cfi_endproc
  95              	.LFE219:
  96              		.size	conf_general_init, .-conf_general_init
  97              		.section	.text.conf_general_get_default_app_configuration,"ax",%progbits
  98              		.align	2
  99              		.p2align 4,,15
 100              		.global	conf_general_get_default_app_configuration
 101              		.thumb
 102              		.thumb_func
 103              		.type	conf_general_get_default_app_configuration, %function
 104              	conf_general_get_default_app_configuration:
 105              	.LFB220:
 106              		.loc 1 70 0
 107              		.cfi_startproc
 108              		@ args = 0, pretend = 0, frame = 0
 109              		@ frame_needed = 0, uses_anonymous_args = 0
 110              	.LVL6:
 111 0000 2DE9F84F 		push	{r3, r4, r5, r6, r7, r8, r9, r10, fp, lr}
 112              		.cfi_def_cfa_offset 40
 113              		.cfi_offset 3, -40
 114              		.cfi_offset 4, -36
ARM GAS  /tmp/ccugl0ze.s 			page 3


 115              		.cfi_offset 5, -32
 116              		.cfi_offset 6, -28
 117              		.cfi_offset 7, -24
 118              		.cfi_offset 8, -20
 119              		.cfi_offset 9, -16
 120              		.cfi_offset 10, -12
 121              		.cfi_offset 11, -8
 122              		.cfi_offset 14, -4
 123              		.loc 1 71 0
 124 0004 0021     		movs	r1, #0
 125              		.loc 1 70 0
 126 0006 0446     		mov	r4, r0
 127              		.loc 1 71 0
 128 0008 A022     		movs	r2, #160
 129 000a FFF7FEFF 		bl	memset
 130              	.LVL7:
 131              		.loc 1 96 0
 132 000e DFF80891 		ldr	r9, .L12+20
 133              		.loc 1 81 0
 134 0012 3C4B     		ldr	r3, .L12
 135              		.loc 1 91 0
 136 0014 3C49     		ldr	r1, .L12+4
 137              		.loc 1 82 0
 138 0016 3D4F     		ldr	r7, .L12+8
 139              		.loc 1 87 0
 140 0018 3D4E     		ldr	r6, .L12+12
 141              		.loc 1 88 0
 142 001a 3E4D     		ldr	r5, .L12+16
 143              		.loc 1 95 0
 144 001c DFF8FCE0 		ldr	lr, .L12+24
 145              		.loc 1 81 0
 146 0020 E361     		str	r3, [r4, #28]	@ float
 147              		.loc 1 76 0
 148 0022 4FF4FA7C 		mov	ip, #500
 149              		.loc 1 73 0
 150 0026 4FF47A70 		mov	r0, #1000
 151              		.loc 1 83 0
 152 002a 4FF07E52 		mov	r2, #1065353216
 153              		.loc 1 109 0
 154 002e 4FF4E138 		mov	r8, #115200
 155              		.loc 1 72 0
 156 0032 0023     		movs	r3, #0
 157              		.loc 1 84 0
 158 0034 4FF0804A 		mov	r10, #1073741824
 159              		.loc 1 73 0
 160 0038 6060     		str	r0, [r4, #4]
 161              		.loc 1 83 0
 162 003a 6262     		str	r2, [r4, #36]	@ float
 163              		.loc 1 78 0
 164 003c 0320     		movs	r0, #3
 165              		.loc 1 85 0
 166 003e 0122     		movs	r2, #1
 167              		.loc 1 96 0
 168 0040 C4F84C90 		str	r9, [r4, #76]	@ float
 169              		.loc 1 109 0
 170 0044 C4F86C80 		str	r8, [r4, #108]
 171              		.loc 1 76 0
ARM GAS  /tmp/ccugl0ze.s 			page 4


 172 0048 C4F810C0 		str	ip, [r4, #16]
 173              		.loc 1 107 0
 174 004c C4F868C0 		str	ip, [r4, #104]
 175              		.loc 1 127 0
 176 0050 4FF04C09 		mov	r9, #76
 177              		.loc 1 128 0
 178 0054 4FF0C608 		mov	r8, #198
 179              		.loc 1 129 0
 180 0058 4FF0C70C 		mov	ip, #199
 181              		.loc 1 84 0
 182 005c C4F828A0 		str	r10, [r4, #40]	@ float
 183              		.loc 1 116 0
 184 0060 DFF8BCB0 		ldr	fp, .L12+28
 185              		.loc 1 72 0
 186 0064 2370     		strb	r3, [r4]
 187              		.loc 1 122 0
 188 0066 4FF0020A 		mov	r10, #2
 189              		.loc 1 75 0
 190 006a 2373     		strb	r3, [r4, #12]
 191              		.loc 1 80 0
 192 006c 2376     		strb	r3, [r4, #24]
 193              		.loc 1 89 0
 194 006e 84F83830 		strb	r3, [r4, #56]
 195              		.loc 1 90 0
 196 0072 84F83930 		strb	r3, [r4, #57]
 197              		.loc 1 93 0
 198 0076 84F84030 		strb	r3, [r4, #64]
 199              		.loc 1 99 0
 200 007a 84F85230 		strb	r3, [r4, #82]
 201              		.loc 1 100 0
 202 007e 84F85330 		strb	r3, [r4, #83]
 203              		.loc 1 101 0
 204 0082 84F85430 		strb	r3, [r4, #84]
 205              		.loc 1 104 0
 206 0086 84F86030 		strb	r3, [r4, #96]
 207              		.loc 1 105 0
 208 008a 84F86130 		strb	r3, [r4, #97]
 209              		.loc 1 78 0
 210 008e 2075     		strb	r0, [r4, #20]
 211              		.loc 1 82 0
 212 0090 2762     		str	r7, [r4, #32]	@ float
 213              		.loc 1 94 0
 214 0092 6764     		str	r7, [r4, #68]	@ float
 215              		.loc 1 85 0
 216 0094 84F82C20 		strb	r2, [r4, #44]
 217              		.loc 1 86 0
 218 0098 84F82D20 		strb	r2, [r4, #45]
 219              		.loc 1 97 0
 220 009c 84F85020 		strb	r2, [r4, #80]
 221              		.loc 1 98 0
 222 00a0 84F85120 		strb	r2, [r4, #81]
 223              		.loc 1 87 0
 224 00a4 2663     		str	r6, [r4, #48]	@ float
 225              		.loc 1 102 0
 226 00a6 A665     		str	r6, [r4, #88]	@ float
 227              		.loc 1 88 0
 228 00a8 6563     		str	r5, [r4, #52]	@ float
ARM GAS  /tmp/ccugl0ze.s 			page 5


 229              		.loc 1 103 0
 230 00aa E565     		str	r5, [r4, #92]	@ float
 231              		.loc 1 91 0
 232 00ac E163     		str	r1, [r4, #60]	@ float
 233              		.loc 1 106 0
 234 00ae 6166     		str	r1, [r4, #100]	@ float
 235              		.loc 1 95 0
 236 00b0 C4F848E0 		str	lr, [r4, #72]	@ float
 237              		.loc 1 111 0
 238 00b4 84F87020 		strb	r2, [r4, #112]
 239              		.loc 1 126 0
 240 00b8 84F89800 		strb	r0, [r4, #152]
 241              		.loc 1 130 0
 242 00bc 84F89C30 		strb	r3, [r4, #156]
 243              		.loc 1 127 0
 244 00c0 84F89990 		strb	r9, [r4, #153]
 245              		.loc 1 128 0
 246 00c4 84F89A80 		strb	r8, [r4, #154]
 247              		.loc 1 129 0
 248 00c8 84F89BC0 		strb	ip, [r4, #155]
 249              		.loc 1 112 0
 250 00cc 6767     		str	r7, [r4, #116]	@ float
 251              		.loc 1 113 0
 252 00ce A667     		str	r6, [r4, #120]	@ float
 253              		.loc 1 114 0
 254 00d0 E567     		str	r5, [r4, #124]	@ float
 255              		.loc 1 115 0
 256 00d2 C4F880E0 		str	lr, [r4, #128]	@ float
 257              		.loc 1 117 0
 258 00d6 C4F88810 		str	r1, [r4, #136]	@ float
 259              		.loc 1 118 0
 260 00da 84F88C30 		strb	r3, [r4, #140]
 261              		.loc 1 119 0
 262 00de 84F88D30 		strb	r3, [r4, #141]
 263              		.loc 1 120 0
 264 00e2 C4F89010 		str	r1, [r4, #144]	@ float
 265              		.loc 1 123 0
 266 00e6 84F89500 		strb	r0, [r4, #149]
 267              		.loc 1 124 0
 268 00ea 84F89620 		strb	r2, [r4, #150]
 269              		.loc 1 125 0
 270 00ee 84F89730 		strb	r3, [r4, #151]
 271              		.loc 1 131 0
 272 00f2 84F89D20 		strb	r2, [r4, #157]
 273              		.loc 1 116 0
 274 00f6 C4F884B0 		str	fp, [r4, #132]	@ float
 275              		.loc 1 122 0
 276 00fa 84F894A0 		strb	r10, [r4, #148]
 277              		.loc 1 129 0
 278 00fe BDE8F88F 		pop	{r3, r4, r5, r6, r7, r8, r9, r10, fp, pc}
 279              	.LVL8:
 280              	.L13:
 281 0102 00BF     		.align	2
 282              	.L12:
 283 0104 00606A46 		.word	1181376512
 284 0108 00803B45 		.word	1161527296
 285 010c 9A99193E 		.word	1041865114
ARM GAS  /tmp/ccugl0ze.s 			page 6


 286 0110 007C1248 		.word	1209170944
 287 0114 00504348 		.word	1212370944
 288 0118 00004040 		.word	1077936128
 289 011c 6666663F 		.word	1063675494
 290 0120 9A99993E 		.word	1050253722
 291              		.cfi_endproc
 292              	.LFE220:
 293              		.size	conf_general_get_default_app_configuration, .-conf_general_get_default_app_configuration
 294              		.section	.text.conf_general_get_default_mc_configuration,"ax",%progbits
 295              		.align	2
 296              		.p2align 4,,15
 297              		.global	conf_general_get_default_mc_configuration
 298              		.thumb
 299              		.thumb_func
 300              		.type	conf_general_get_default_mc_configuration, %function
 301              	conf_general_get_default_mc_configuration:
 302              	.LFB221:
 303              		.loc 1 140 0
 304              		.cfi_startproc
 305              		@ args = 0, pretend = 0, frame = 0
 306              		@ frame_needed = 0, uses_anonymous_args = 0
 307              	.LVL9:
 308 0000 2DE9F84F 		push	{r3, r4, r5, r6, r7, r8, r9, r10, fp, lr}
 309              		.cfi_def_cfa_offset 40
 310              		.cfi_offset 3, -40
 311              		.cfi_offset 4, -36
 312              		.cfi_offset 5, -32
 313              		.cfi_offset 6, -28
 314              		.cfi_offset 7, -24
 315              		.cfi_offset 8, -20
 316              		.cfi_offset 9, -16
 317              		.cfi_offset 10, -12
 318              		.cfi_offset 11, -8
 319              		.cfi_offset 14, -4
 320              		.loc 1 141 0
 321 0004 0021     		movs	r1, #0
 322              		.loc 1 140 0
 323 0006 0446     		mov	r4, r0
 324              		.loc 1 141 0
 325 0008 4FF49872 		mov	r2, #304
 326 000c FFF7FEFF 		bl	memset
 327              	.LVL10:
 328              		.loc 1 147 0
 329 0010 7449     		ldr	r1, .L16
 330              		.loc 1 148 0
 331 0012 7548     		ldr	r0, .L16+4
 332              		.loc 1 151 0
 333 0014 754E     		ldr	r6, .L16+8
 334              		.loc 1 152 0
 335 0016 764D     		ldr	r5, .L16+12
 336              		.loc 1 153 0
 337 0018 DFF824E2 		ldr	lr, .L16+92
 338              		.loc 1 176 0
 339 001c 754A     		ldr	r2, .L16+16
 340              		.loc 1 177 0
 341 001e 764B     		ldr	r3, .L16+20
 342              		.loc 1 147 0
ARM GAS  /tmp/ccugl0ze.s 			page 7


 343 0020 6160     		str	r1, [r4, #4]	@ float
 344              		.loc 1 149 0
 345 0022 E160     		str	r1, [r4, #12]	@ float
 346              		.loc 1 169 0
 347 0024 6165     		str	r1, [r4, #84]	@ float
 348              		.loc 1 171 0
 349 0026 E165     		str	r1, [r4, #92]	@ float
 350              		.loc 1 150 0
 351 0028 7449     		ldr	r1, .L16+24
 352              		.loc 1 154 0
 353 002a DFF818B2 		ldr	fp, .L16+96
 354              		.loc 1 155 0
 355 002e DFF818A2 		ldr	r10, .L16+100
 356              		.loc 1 157 0
 357 0032 DFF81892 		ldr	r9, .L16+104
 358              		.loc 1 166 0
 359 0036 DFF81882 		ldr	r8, .L16+108
 360              		.loc 1 167 0
 361 003a DFF818C2 		ldr	ip, .L16+112
 362              		.loc 1 174 0
 363 003e 704F     		ldr	r7, .L16+28
 364              		.loc 1 151 0
 365 0040 6661     		str	r6, [r4, #20]	@ float
 366              		.loc 1 152 0
 367 0042 A561     		str	r5, [r4, #24]	@ float
 368              		.loc 1 162 0
 369 0044 6F4E     		ldr	r6, .L16+32
 370              		.loc 1 163 0
 371 0046 704D     		ldr	r5, .L16+36
 372              		.loc 1 153 0
 373 0048 C4F81CE0 		str	lr, [r4, #28]	@ float
 374              		.loc 1 176 0
 375 004c A266     		str	r2, [r4, #104]	@ float
 376              		.loc 1 178 0
 377 004e DFF808E2 		ldr	lr, .L16+116
 378              		.loc 1 177 0
 379 0052 2367     		str	r3, [r4, #112]	@ float
 380              		.loc 1 142 0
 381 0054 0122     		movs	r2, #1
 382              		.loc 1 143 0
 383 0056 0023     		movs	r3, #0
 384              		.loc 1 148 0
 385 0058 A060     		str	r0, [r4, #8]	@ float
 386              		.loc 1 170 0
 387 005a A065     		str	r0, [r4, #88]	@ float
 388              		.loc 1 150 0
 389 005c 2161     		str	r1, [r4, #16]	@ float
 390              		.loc 1 158 0
 391 005e 6B48     		ldr	r0, .L16+40
 392              		.loc 1 172 0
 393 0060 2166     		str	r1, [r4, #96]	@ float
 394              		.loc 1 156 0
 395 0062 4FF08241 		mov	r1, #1090519040
 396              		.loc 1 154 0
 397 0066 C4F820B0 		str	fp, [r4, #32]	@ float
 398              		.loc 1 155 0
 399 006a C4F824A0 		str	r10, [r4, #36]	@ float
ARM GAS  /tmp/ccugl0ze.s 			page 8


 400              		.loc 1 157 0
 401 006e C4F82C90 		str	r9, [r4, #44]	@ float
 402              		.loc 1 166 0
 403 0072 C4F84C80 		str	r8, [r4, #76]	@ float
 404              		.loc 1 167 0
 405 0076 C4F850C0 		str	ip, [r4, #80]	@ float
 406              		.loc 1 174 0
 407 007a 6766     		str	r7, [r4, #100]	@ float
 408              		.loc 1 142 0
 409 007c 2270     		strb	r2, [r4]
 410              		.loc 1 160 0
 411 007e 84F83820 		strb	r2, [r4, #56]
 412              		.loc 1 161 0
 413 0082 84F83920 		strb	r2, [r4, #57]
 414              		.loc 1 143 0
 415 0086 6370     		strb	r3, [r4, #1]
 416              		.loc 1 144 0
 417 0088 A370     		strb	r3, [r4, #2]
 418              		.loc 1 145 0
 419 008a E370     		strb	r3, [r4, #3]
 420              		.loc 1 156 0
 421 008c A162     		str	r1, [r4, #40]	@ float
 422              		.loc 1 159 0
 423 008e 6163     		str	r1, [r4, #52]	@ float
 424              		.loc 1 158 0
 425 0090 2063     		str	r0, [r4, #48]	@ float
 426              		.loc 1 175 0
 427 0092 E066     		str	r0, [r4, #108]	@ float
 428              		.loc 1 162 0
 429 0094 E663     		str	r6, [r4, #60]	@ float
 430              		.loc 1 164 0
 431 0096 6664     		str	r6, [r4, #68]	@ float
 432              		.loc 1 163 0
 433 0098 2564     		str	r5, [r4, #64]	@ float
 434              		.loc 1 165 0
 435 009a A564     		str	r5, [r4, #72]	@ float
 436              		.loc 1 178 0
 437 009c C4F874E0 		str	lr, [r4, #116]	@ float
 438              		.loc 1 196 0
 439 00a0 84F8A030 		strb	r3, [r4, #160]
 440              		.loc 1 199 0
 441 00a4 84F8DC30 		strb	r3, [r4, #220]
 442              		.loc 1 184 0
 443 00a8 0323     		movs	r3, #3
 444 00aa 84F88230 		strb	r3, [r4, #130]
 445              		.loc 1 185 0
 446 00ae 0223     		movs	r3, #2
 447 00b0 84F88330 		strb	r3, [r4, #131]
 448              		.loc 1 186 0
 449 00b4 0523     		movs	r3, #5
 450 00b6 84F88430 		strb	r3, [r4, #132]
 451              		.loc 1 187 0
 452 00ba 0623     		movs	r3, #6
 453              		.loc 1 180 0
 454 00bc DFED547A 		flds	s15, .L16+44
 455              		.loc 1 187 0
 456 00c0 84F88530 		strb	r3, [r4, #133]
ARM GAS  /tmp/ccugl0ze.s 			page 9


 457              		.loc 1 188 0
 458 00c4 0423     		movs	r3, #4
 459              		.loc 1 183 0
 460 00c6 84F88120 		strb	r2, [r4, #129]
 461              		.loc 1 188 0
 462 00ca 84F88630 		strb	r3, [r4, #134]
 463              		.loc 1 194 0
 464 00ce 514A     		ldr	r2, .L16+48
 465              		.loc 1 198 0
 466 00d0 514B     		ldr	r3, .L16+52
 467              		.loc 1 179 0
 468 00d2 9FED527A 		flds	s14, .L16+56
 469              		.loc 1 190 0
 470 00d6 5249     		ldr	r1, .L16+60
 471              		.loc 1 193 0
 472 00d8 DFF880B1 		ldr	fp, .L16+120
 473              		.loc 1 195 0
 474 00dc DFF880A1 		ldr	r10, .L16+124
 475              		.loc 1 197 0
 476 00e0 DFF88091 		ldr	r9, .L16+128
 477              		.loc 1 202 0
 478 00e4 DFF88081 		ldr	r8, .L16+132
 479              		.loc 1 204 0
 480 00e8 DFF880C1 		ldr	ip, .L16+136
 481              		.loc 1 205 0
 482 00ec 4D4F     		ldr	r7, .L16+64
 483              		.loc 1 207 0
 484 00ee 4E4E     		ldr	r6, .L16+68
 485              		.loc 1 208 0
 486 00f0 DFF87CE1 		ldr	lr, .L16+140
 487              		.loc 1 192 0
 488 00f4 4D4D     		ldr	r5, .L16+72
 489              		.loc 1 206 0
 490 00f6 C4F8C000 		str	r0, [r4, #192]	@ float
 491              		.loc 1 180 0
 492 00fa C4ED1F7A 		fsts	s15, [r4, #124]
 493              		.loc 1 203 0
 494 00fe 4C48     		ldr	r0, .L16+76
 495              		.loc 1 198 0
 496 0100 C4F8A430 		str	r3, [r4, #164]	@ float
 497              		.loc 1 194 0
 498 0104 C4F89420 		str	r2, [r4, #148]	@ float
 499              		.loc 1 182 0
 500 0108 FF23     		movs	r3, #255
 501              		.loc 1 201 0
 502 010a C4F8BC20 		str	r2, [r4, #188]	@ float
 503              		.loc 1 223 0
 504 010e DFED497A 		flds	s15, .L16+80
 505              		.loc 1 193 0
 506 0112 C4F890B0 		str	fp, [r4, #144]	@ float
 507              		.loc 1 209 0
 508 0116 4FF07C52 		mov	r2, #1056964608
 509              		.loc 1 195 0
 510 011a C4F898A0 		str	r10, [r4, #152]	@ float
 511              		.loc 1 197 0
 512 011e C4F89C90 		str	r9, [r4, #156]	@ float
 513              		.loc 1 202 0
ARM GAS  /tmp/ccugl0ze.s 			page 10


 514 0122 C4F8A880 		str	r8, [r4, #168]	@ float
 515              		.loc 1 204 0
 516 0126 C4F8B0C0 		str	ip, [r4, #176]	@ float
 517              		.loc 1 205 0
 518 012a C4F8B470 		str	r7, [r4, #180]	@ float
 519              		.loc 1 207 0
 520 012e C4F8C460 		str	r6, [r4, #196]	@ float
 521              		.loc 1 208 0
 522 0132 C4F8C8E0 		str	lr, [r4, #200]	@ float
 523              		.loc 1 182 0
 524 0136 84F88030 		strb	r3, [r4, #128]
 525              		.loc 1 189 0
 526 013a 84F88730 		strb	r3, [r4, #135]
 527              		.loc 1 213 0
 528 013e 84F8DD30 		strb	r3, [r4, #221]
 529              		.loc 1 214 0
 530 0142 84F8DE30 		strb	r3, [r4, #222]
 531              		.loc 1 215 0
 532 0146 84F8DF30 		strb	r3, [r4, #223]
 533              		.loc 1 190 0
 534 014a C4F88810 		str	r1, [r4, #136]	@ float
 535              		.loc 1 200 0
 536 014e C4F8B810 		str	r1, [r4, #184]	@ float
 537              		.loc 1 179 0
 538 0152 84ED1E7A 		fsts	s14, [r4, #120]
 539              		.loc 1 226 0
 540 0156 DFF81CB1 		ldr	fp, .L16+144
 541              		.loc 1 230 0
 542 015a DFF81CA1 		ldr	r10, .L16+148
 543              		.loc 1 233 0
 544 015e DFF81C91 		ldr	r9, .L16+152
 545              		.loc 1 235 0
 546 0162 DFF81C81 		ldr	r8, .L16+156
 547              		.loc 1 236 0
 548 0166 DFF81CC1 		ldr	ip, .L16+160
 549              		.loc 1 239 0
 550 016a 334F     		ldr	r7, .L16+84
 551              		.loc 1 240 0
 552 016c 334E     		ldr	r6, .L16+88
 553              		.loc 1 192 0
 554 016e C4F88C50 		str	r5, [r4, #140]	@ float
 555              		.loc 1 203 0
 556 0172 C4F8AC00 		str	r0, [r4, #172]	@ float
 557              		.loc 1 209 0
 558 0176 C4F8CC20 		str	r2, [r4, #204]	@ float
 559              		.loc 1 210 0
 560 017a C4F8D020 		str	r2, [r4, #208]	@ float
 561              		.loc 1 238 0
 562 017e 40F6B83E 		movw	lr, #3000
 563              		.loc 1 216 0
 564 0182 84F8E030 		strb	r3, [r4, #224]
 565              		.loc 1 217 0
 566 0186 84F8E130 		strb	r3, [r4, #225]
 567              		.loc 1 218 0
 568 018a 84F8E230 		strb	r3, [r4, #226]
 569              		.loc 1 219 0
 570 018e 84F8E330 		strb	r3, [r4, #227]
ARM GAS  /tmp/ccugl0ze.s 			page 11


 571              		.loc 1 220 0
 572 0192 84F8E430 		strb	r3, [r4, #228]
 573              		.loc 1 221 0
 574 0196 C4F8E810 		str	r1, [r4, #232]	@ float
 575              		.loc 1 231 0
 576 019a 4FF07E53 		mov	r3, #1065353216
 577              		.loc 1 242 0
 578 019e 4FF40051 		mov	r1, #8192
 579              		.loc 1 224 0
 580 01a2 C4F8F000 		str	r0, [r4, #240]	@ float
 581              		.loc 1 228 0
 582 01a6 C4F8FC50 		str	r5, [r4, #252]	@ float
 583              		.loc 1 241 0
 584 01aa C4F82821 		str	r2, [r4, #296]	@ float
 585              		.loc 1 223 0
 586 01ae C4ED3B7A 		fsts	s15, [r4, #236]
 587              		.loc 1 226 0
 588 01b2 C4F8F8B0 		str	fp, [r4, #248]	@ float
 589              		.loc 1 230 0
 590 01b6 C4F804A1 		str	r10, [r4, #260]	@ float
 591              		.loc 1 233 0
 592 01ba C4F80C91 		str	r9, [r4, #268]	@ float
 593              		.loc 1 235 0
 594 01be C4F81481 		str	r8, [r4, #276]	@ float
 595              		.loc 1 236 0
 596 01c2 C4F818C1 		str	ip, [r4, #280]	@ float
 597              		.loc 1 238 0
 598 01c6 C4F81CE1 		str	lr, [r4, #284]
 599              		.loc 1 239 0
 600 01ca C4F82071 		str	r7, [r4, #288]	@ float
 601              		.loc 1 240 0
 602 01ce C4F82461 		str	r6, [r4, #292]	@ float
 603              		.loc 1 242 0
 604 01d2 C4F82C11 		str	r1, [r4, #300]
 605              		.loc 1 231 0
 606 01d6 C4F80831 		str	r3, [r4, #264]	@ float
 607              		.loc 1 234 0
 608 01da C4F81031 		str	r3, [r4, #272]	@ float
 609 01de BDE8F88F 		pop	{r3, r4, r5, r6, r7, r8, r9, r10, fp, pc}
 610              	.LVL11:
 611              	.L17:
 612 01e2 00BF     		.align	2
 613              	.L16:
 614 01e4 00007042 		.word	1114636288
 615 01e8 000070C2 		.word	-1032847360
 616 01ec 00000243 		.word	1124204544
 617 01f0 0050C3C7 		.word	-943501312
 618 01f4 00808944 		.word	1149861888
 619 01f8 00007842 		.word	1115160576
 620 01fc 0000A0C1 		.word	-1046478848
 621 0200 00001643 		.word	1125515264
 622 0204 0000A042 		.word	1117782016
 623 0208 0000C842 		.word	1120403456
 624 020c 00002041 		.word	1092616192
 625 0210 00001644 		.word	1142292480
 626 0214 00409C46 		.word	1184645120
 627 0218 0000E040 		.word	1088421888
ARM GAS  /tmp/ccugl0ze.s 			page 12


 628 021c 00409C47 		.word	1201422336
 629 0220 0000FA44 		.word	1157234688
 630 0224 50A9AB4C 		.word	1286318416
 631 0228 00004843 		.word	1128792064
 632 022c 8FC2F53C 		.word	1022739087
 633 0230 8FC2753C 		.word	1014350479
 634 0234 17B7D138 		.word	953267991
 635 0238 0AD7A33C 		.word	1017370378
 636 023c 6F12033A 		.word	973279855
 637 0240 0050C347 		.word	1203982336
 638 0244 00009643 		.word	1133903872
 639 0248 0080BB44 		.word	1153138688
 640 024c 00006442 		.word	1113849856
 641 0250 0AD7A33B 		.word	1000593162
 642 0254 3333733F 		.word	1064514355
 643 0258 CDCC4C3F 		.word	1061997773
 644 025c 00004842 		.word	1112014848
 645 0260 0AD7A33D 		.word	1034147594
 646 0264 00003443 		.word	1127481344
 647 0268 8BE1EA36 		.word	921362827
 648 026c 2E90203B 		.word	991989806
 649 0270 0000AF43 		.word	1135542272
 650 0274 00006144 		.word	1147207680
 651 0278 17B7D139 		.word	970045207
 652 027c 0AD7233C 		.word	1008981770
 653 0280 99BB963B 		.word	999734169
 654 0284 0AD7233D 		.word	1025758986
 655              		.cfi_endproc
 656              	.LFE221:
 657              		.size	conf_general_get_default_mc_configuration, .-conf_general_get_default_mc_configuration
 658              		.section	.text.conf_general_read_app_configuration,"ax",%progbits
 659              		.align	2
 660              		.p2align 4,,15
 661              		.global	conf_general_read_app_configuration
 662              		.thumb
 663              		.thumb_func
 664              		.type	conf_general_read_app_configuration, %function
 665              	conf_general_read_app_configuration:
 666              	.LFB222:
 667              		.loc 1 251 0
 668              		.cfi_startproc
 669              		@ args = 0, pretend = 0, frame = 8
 670              		@ frame_needed = 0, uses_anonymous_args = 0
 671              	.LVL12:
 672 0000 70B5     		push	{r4, r5, r6, lr}
 673              		.cfi_def_cfa_offset 16
 674              		.cfi_offset 4, -16
 675              		.cfi_offset 5, -12
 676              		.cfi_offset 6, -8
 677              		.cfi_offset 14, -4
 678 0002 0646     		mov	r6, r0
 679              	.LVL13:
 680 0004 82B0     		sub	sp, sp, #8
 681              		.cfi_def_cfa_offset 24
 682 0006 0546     		mov	r5, r0
 683              	.LBB4:
 684              		.loc 1 256 0
ARM GAS  /tmp/ccugl0ze.s 			page 13


 685 0008 0024     		movs	r4, #0
 686 000a 0AE0     		b	.L20
 687              	.LVL14:
 688              	.L24:
 689              		.loc 1 258 0
 690 000c BDF80630 		ldrh	r3, [sp, #6]
 691 0010 1A0A     		lsrs	r2, r3, #8
 692 0012 06F81420 		strb	r2, [r6, r4, lsl #1]
 693              		.loc 1 256 0
 694 0016 0134     		adds	r4, r4, #1
 695              	.LVL15:
 696 0018 502C     		cmp	r4, #80
 697              		.loc 1 259 0
 698 001a 6B70     		strb	r3, [r5, #1]
 699 001c 05F10205 		add	r5, r5, #2
 700              		.loc 1 256 0
 701 0020 0BD0     		beq	.L18
 702              	.LVL16:
 703              	.L20:
 704 0022 04F5FA60 		add	r0, r4, #2000
 705              		.loc 1 257 0
 706 0026 80B2     		uxth	r0, r0
 707 0028 0DF10601 		add	r1, sp, #6
 708 002c FFF7FEFF 		bl	EE_ReadVariable
 709              	.LVL17:
 710 0030 0028     		cmp	r0, #0
 711 0032 EBD0     		beq	.L24
 712              	.LVL18:
 713              	.LBE4:
 714              		.loc 1 268 0
 715 0034 3046     		mov	r0, r6
 716 0036 FFF7FEFF 		bl	conf_general_get_default_app_configuration
 717              	.LVL19:
 718              	.L18:
 719              		.loc 1 270 0
 720 003a 02B0     		add	sp, sp, #8
 721              		.cfi_def_cfa_offset 16
 722              		@ sp needed
 723 003c 70BD     		pop	{r4, r5, r6, pc}
 724              		.cfi_endproc
 725              	.LFE222:
 726              		.size	conf_general_read_app_configuration, .-conf_general_read_app_configuration
 727 003e 00BF     		.section	.text.conf_general_store_app_configuration,"ax",%progbits
 728              		.align	2
 729              		.p2align 4,,15
 730              		.global	conf_general_store_app_configuration
 731              		.thumb
 732              		.thumb_func
 733              		.type	conf_general_store_app_configuration, %function
 734              	conf_general_store_app_configuration:
 735              	.LFB223:
 736              		.loc 1 278 0
 737              		.cfi_startproc
 738              		@ args = 0, pretend = 0, frame = 0
 739              		@ frame_needed = 0, uses_anonymous_args = 0
 740              	.LVL20:
 741 0000 70B5     		push	{r4, r5, r6, lr}
ARM GAS  /tmp/ccugl0ze.s 			page 14


 742              		.cfi_def_cfa_offset 16
 743              		.cfi_offset 4, -16
 744              		.cfi_offset 5, -12
 745              		.cfi_offset 6, -8
 746              		.cfi_offset 14, -4
 747              		.loc 1 278 0
 748 0002 0646     		mov	r6, r0
 749              		.loc 1 279 0
 750 0004 FFF7FEFF 		bl	mc_interface_unlock
 751              	.LVL21:
 752              		.loc 1 280 0
 753 0008 FFF7FEFF 		bl	mc_interface_release_motor
 754              	.LVL22:
 755              		.loc 1 282 0
 756 000c FFF7FEFF 		bl	utils_sys_lock_cnt
 757              	.LVL23:
 758              		.loc 1 283 0
 759 0010 4FF40060 		mov	r0, #2048
 760 0014 0021     		movs	r1, #0
 761 0016 FFF7FEFF 		bl	RCC_APB1PeriphClockCmd
 762              	.LVL24:
 763              		.loc 1 289 0
 764 001a F220     		movs	r0, #242
 765 001c FFF7FEFF 		bl	FLASH_ClearFlag
 766              	.LVL25:
 767 0020 3546     		mov	r5, r6
 768              	.LBB5:
 769              		.loc 1 292 0
 770 0022 0024     		movs	r4, #0
 771 0024 01E0     		b	.L27
 772              	.LVL26:
 773              	.L32:
 774              		.loc 1 292 0 is_stmt 0 discriminator 2
 775 0026 502C     		cmp	r4, #80
 776 0028 19D0     		beq	.L31
 777              	.LVL27:
 778              	.L27:
 779              		.loc 1 293 0 is_stmt 1
 780 002a 16F81410 		ldrb	r1, [r6, r4, lsl #1]	@ zero_extendqisi2
 781              	.LVL28:
 782              		.loc 1 294 0
 783 002e 6B78     		ldrb	r3, [r5, #1]	@ zero_extendqisi2
 784 0030 04F5FA60 		add	r0, r4, #2000
 785              		.loc 1 296 0
 786 0034 43EA0121 		orr	r1, r3, r1, lsl #8
 787              	.LVL29:
 788 0038 80B2     		uxth	r0, r0
 789 003a FFF7FEFF 		bl	EE_WriteVariable
 790              	.LVL30:
 791 003e 0928     		cmp	r0, #9
 792              		.loc 1 292 0
 793 0040 04F10104 		add	r4, r4, #1
 794              	.LVL31:
 795 0044 05F10205 		add	r5, r5, #2
 796              		.loc 1 296 0
 797 0048 EDD0     		beq	.L32
 798              		.loc 1 297 0
ARM GAS  /tmp/ccugl0ze.s 			page 15


 799 004a 0024     		movs	r4, #0
 800              	.LVL32:
 801              	.L26:
 802              	.LBE5:
 803              		.loc 1 302 0
 804 004c 4FF40060 		mov	r0, #2048
 805 0050 0121     		movs	r1, #1
 806 0052 FFF7FEFF 		bl	RCC_APB1PeriphClockCmd
 807              	.LVL33:
 808              		.loc 1 303 0
 809 0056 FFF7FEFF 		bl	utils_sys_unlock_cnt
 810              	.LVL34:
 811              		.loc 1 306 0
 812 005a 2046     		mov	r0, r4
 813 005c 70BD     		pop	{r4, r5, r6, pc}
 814              	.LVL35:
 815              	.L31:
 816              		.loc 1 285 0
 817 005e 0124     		movs	r4, #1
 818              	.LVL36:
 819              	.LBB6:
 820 0060 F4E7     		b	.L26
 821              	.LBE6:
 822              		.cfi_endproc
 823              	.LFE223:
 824              		.size	conf_general_store_app_configuration, .-conf_general_store_app_configuration
 825 0062 00BF     		.section	.text.conf_general_read_mc_configuration,"ax",%progbits
 826              		.align	2
 827              		.p2align 4,,15
 828              		.global	conf_general_read_mc_configuration
 829              		.thumb
 830              		.thumb_func
 831              		.type	conf_general_read_mc_configuration, %function
 832              	conf_general_read_mc_configuration:
 833              	.LFB224:
 834              		.loc 1 314 0
 835              		.cfi_startproc
 836              		@ args = 0, pretend = 0, frame = 8
 837              		@ frame_needed = 0, uses_anonymous_args = 0
 838              	.LVL37:
 839 0000 70B5     		push	{r4, r5, r6, lr}
 840              		.cfi_def_cfa_offset 16
 841              		.cfi_offset 4, -16
 842              		.cfi_offset 5, -12
 843              		.cfi_offset 6, -8
 844              		.cfi_offset 14, -4
 845 0002 0646     		mov	r6, r0
 846              	.LVL38:
 847 0004 82B0     		sub	sp, sp, #8
 848              		.cfi_def_cfa_offset 24
 849 0006 0546     		mov	r5, r0
 850              	.LBB7:
 851              		.loc 1 319 0
 852 0008 0024     		movs	r4, #0
 853 000a 0AE0     		b	.L35
 854              	.LVL39:
 855              	.L39:
ARM GAS  /tmp/ccugl0ze.s 			page 16


 856              		.loc 1 321 0
 857 000c BDF80630 		ldrh	r3, [sp, #6]
 858 0010 1A0A     		lsrs	r2, r3, #8
 859 0012 06F81420 		strb	r2, [r6, r4, lsl #1]
 860              		.loc 1 319 0
 861 0016 0134     		adds	r4, r4, #1
 862              	.LVL40:
 863 0018 982C     		cmp	r4, #152
 864              		.loc 1 322 0
 865 001a 6B70     		strb	r3, [r5, #1]
 866 001c 05F10205 		add	r5, r5, #2
 867              		.loc 1 319 0
 868 0020 0BD0     		beq	.L33
 869              	.LVL41:
 870              	.L35:
 871 0022 04F57A70 		add	r0, r4, #1000
 872              		.loc 1 320 0
 873 0026 80B2     		uxth	r0, r0
 874 0028 0DF10601 		add	r1, sp, #6
 875 002c FFF7FEFF 		bl	EE_ReadVariable
 876              	.LVL42:
 877 0030 0028     		cmp	r0, #0
 878 0032 EBD0     		beq	.L39
 879              	.LVL43:
 880              	.LBE7:
 881              		.loc 1 330 0
 882 0034 3046     		mov	r0, r6
 883 0036 FFF7FEFF 		bl	conf_general_get_default_mc_configuration
 884              	.LVL44:
 885              	.L33:
 886              		.loc 1 332 0
 887 003a 02B0     		add	sp, sp, #8
 888              		.cfi_def_cfa_offset 16
 889              		@ sp needed
 890 003c 70BD     		pop	{r4, r5, r6, pc}
 891              		.cfi_endproc
 892              	.LFE224:
 893              		.size	conf_general_read_mc_configuration, .-conf_general_read_mc_configuration
 894 003e 00BF     		.section	.text.conf_general_store_mc_configuration,"ax",%progbits
 895              		.align	2
 896              		.p2align 4,,15
 897              		.global	conf_general_store_mc_configuration
 898              		.thumb
 899              		.thumb_func
 900              		.type	conf_general_store_mc_configuration, %function
 901              	conf_general_store_mc_configuration:
 902              	.LFB225:
 903              		.loc 1 340 0
 904              		.cfi_startproc
 905              		@ args = 0, pretend = 0, frame = 0
 906              		@ frame_needed = 0, uses_anonymous_args = 0
 907              	.LVL45:
 908 0000 70B5     		push	{r4, r5, r6, lr}
 909              		.cfi_def_cfa_offset 16
 910              		.cfi_offset 4, -16
 911              		.cfi_offset 5, -12
 912              		.cfi_offset 6, -8
ARM GAS  /tmp/ccugl0ze.s 			page 17


 913              		.cfi_offset 14, -4
 914              		.loc 1 340 0
 915 0002 0646     		mov	r6, r0
 916              		.loc 1 341 0
 917 0004 FFF7FEFF 		bl	mc_interface_unlock
 918              	.LVL46:
 919              		.loc 1 342 0
 920 0008 FFF7FEFF 		bl	mc_interface_release_motor
 921              	.LVL47:
 922              		.loc 1 344 0
 923 000c FFF7FEFF 		bl	utils_sys_lock_cnt
 924              	.LVL48:
 925              		.loc 1 345 0
 926 0010 4FF40060 		mov	r0, #2048
 927 0014 0021     		movs	r1, #0
 928 0016 FFF7FEFF 		bl	RCC_APB1PeriphClockCmd
 929              	.LVL49:
 930              		.loc 1 351 0
 931 001a F220     		movs	r0, #242
 932 001c FFF7FEFF 		bl	FLASH_ClearFlag
 933              	.LVL50:
 934 0020 3546     		mov	r5, r6
 935              	.LBB8:
 936              		.loc 1 354 0
 937 0022 0024     		movs	r4, #0
 938 0024 01E0     		b	.L42
 939              	.LVL51:
 940              	.L47:
 941              		.loc 1 354 0 is_stmt 0 discriminator 2
 942 0026 982C     		cmp	r4, #152
 943 0028 19D0     		beq	.L46
 944              	.LVL52:
 945              	.L42:
 946              		.loc 1 355 0 is_stmt 1
 947 002a 16F81410 		ldrb	r1, [r6, r4, lsl #1]	@ zero_extendqisi2
 948              	.LVL53:
 949              		.loc 1 356 0
 950 002e 6B78     		ldrb	r3, [r5, #1]	@ zero_extendqisi2
 951 0030 04F57A70 		add	r0, r4, #1000
 952              		.loc 1 358 0
 953 0034 43EA0121 		orr	r1, r3, r1, lsl #8
 954              	.LVL54:
 955 0038 80B2     		uxth	r0, r0
 956 003a FFF7FEFF 		bl	EE_WriteVariable
 957              	.LVL55:
 958 003e 0928     		cmp	r0, #9
 959              		.loc 1 354 0
 960 0040 04F10104 		add	r4, r4, #1
 961              	.LVL56:
 962 0044 05F10205 		add	r5, r5, #2
 963              		.loc 1 358 0
 964 0048 EDD0     		beq	.L47
 965              		.loc 1 359 0
 966 004a 0024     		movs	r4, #0
 967              	.LVL57:
 968              	.L41:
 969              	.LBE8:
ARM GAS  /tmp/ccugl0ze.s 			page 18


 970              		.loc 1 364 0
 971 004c 4FF40060 		mov	r0, #2048
 972 0050 0121     		movs	r1, #1
 973 0052 FFF7FEFF 		bl	RCC_APB1PeriphClockCmd
 974              	.LVL58:
 975              		.loc 1 365 0
 976 0056 FFF7FEFF 		bl	utils_sys_unlock_cnt
 977              	.LVL59:
 978              		.loc 1 368 0
 979 005a 2046     		mov	r0, r4
 980 005c 70BD     		pop	{r4, r5, r6, pc}
 981              	.LVL60:
 982              	.L46:
 983              		.loc 1 347 0
 984 005e 0124     		movs	r4, #1
 985              	.LVL61:
 986              	.LBB9:
 987 0060 F4E7     		b	.L41
 988              	.LBE9:
 989              		.cfi_endproc
 990              	.LFE225:
 991              		.size	conf_general_store_mc_configuration, .-conf_general_store_mc_configuration
 992 0062 00BF     		.section	.text.conf_general_detect_motor_param,"ax",%progbits
 993              		.align	2
 994              		.p2align 4,,15
 995              		.global	conf_general_detect_motor_param
 996              		.thumb
 997              		.thumb_func
 998              		.type	conf_general_detect_motor_param, %function
 999              	conf_general_detect_motor_param:
 1000              	.LFB226:
 1001              		.loc 1 371 0
 1002              		.cfi_startproc
 1003              		@ args = 0, pretend = 0, frame = 0
 1004              		@ frame_needed = 0, uses_anonymous_args = 0
 1005              	.LVL62:
 1006 0000 2DE9F047 		push	{r4, r5, r6, r7, r8, r9, r10, lr}
 1007              		.cfi_def_cfa_offset 32
 1008              		.cfi_offset 4, -32
 1009              		.cfi_offset 5, -28
 1010              		.cfi_offset 6, -24
 1011              		.cfi_offset 7, -20
 1012              		.cfi_offset 8, -16
 1013              		.cfi_offset 9, -12
 1014              		.cfi_offset 10, -8
 1015              		.cfi_offset 14, -4
 1016 0004 2DED048B 		fstmfdd	sp!, {d8, d9}
 1017              		.cfi_def_cfa_offset 48
 1018              		.cfi_offset 80, -48
 1019              		.cfi_offset 81, -44
 1020              		.cfi_offset 82, -40
 1021              		.cfi_offset 83, -36
 1022              		.loc 1 371 0
 1023 0008 9846     		mov	r8, r3
 1024 000a F0EE609A 		fcpys	s19, s1
 1025 000e B0EE409A 		fcpys	s18, s0
 1026 0012 B0EE418A 		fcpys	s16, s2
ARM GAS  /tmp/ccugl0ze.s 			page 19


 1027 0016 0F46     		mov	r7, r1
 1028 0018 9146     		mov	r9, r2
 1029 001a 0646     		mov	r6, r0
 1030              		.loc 1 376 0
 1031 001c FFF7FEFF 		bl	mc_interface_get_configuration
 1032              	.LVL63:
 1033 0020 6E4C     		ldr	r4, .L81
 1034              	.LBB10:
 1035              		.loc 1 393 0
 1036 0022 DFED6F8A 		flds	s17, .L81+4
 1037              	.LBE10:
 1038              		.loc 1 376 0
 1039 0026 0146     		mov	r1, r0
 1040 0028 4FF49872 		mov	r2, #304
 1041 002c 2046     		mov	r0, r4
 1042 002e FFF7FEFF 		bl	memcpy
 1043              	.LVL64:
 1044              		.loc 1 377 0
 1045 0032 2146     		mov	r1, r4
 1046 0034 4FF49872 		mov	r2, #304
 1047 0038 6A48     		ldr	r0, .L81+8
 1048 003a FFF7FEFF 		bl	memcpy
 1049              	.LVL65:
 1050              		.loc 1 379 0
 1051 003e 0023     		movs	r3, #0
 1052              		.loc 1 381 0
 1053 0040 0121     		movs	r1, #1
 1054              		.loc 1 382 0
 1055 0042 4FF07E52 		mov	r2, #1065353216
 1056              		.loc 1 384 0
 1057 0046 2046     		mov	r0, r4
 1058              		.loc 1 381 0
 1059 0048 6170     		strb	r1, [r4, #1]
 1060              		.loc 1 382 0
 1061 004a 6267     		str	r2, [r4, #116]	@ float
 1062              		.loc 1 379 0
 1063 004c A370     		strb	r3, [r4, #2]
 1064              		.loc 1 380 0
 1065 004e E370     		strb	r3, [r4, #3]
 1066              		.loc 1 383 0
 1067 0050 C4ED199A 		fsts	s19, [r4, #100]
 1068              		.loc 1 384 0
 1069 0054 FFF7FEFF 		bl	mc_interface_set_configuration
 1070              	.LVL66:
 1071              		.loc 1 386 0
 1072 0058 FFF7FEFF 		bl	mc_interface_lock
 1073              	.LVL67:
 1074              		.loc 1 388 0
 1075 005c FFF7FEFF 		bl	mc_interface_lock_override_once
 1076              	.LVL68:
 1077              		.loc 1 389 0
 1078 0060 B0EE490A 		fcpys	s0, s18
 1079 0064 FFF7FEFF 		bl	mc_interface_set_current
 1080              	.LVL69:
 1081 0068 41F28834 		movw	r4, #5000
 1082 006c 03E0     		b	.L51
 1083              	.LVL70:
ARM GAS  /tmp/ccugl0ze.s 			page 20


 1084              	.L76:
 1085              	.LBB11:
 1086              		.loc 1 394 0
 1087 006e FFF7FEFF 		bl	chThdSleep
 1088              	.LVL71:
 1089              		.loc 1 392 0
 1090 0072 013C     		subs	r4, r4, #1
 1091              	.LVL72:
 1092 0074 09D0     		beq	.L49
 1093              	.LVL73:
 1094              	.L51:
 1095              		.loc 1 393 0
 1096 0076 FFF7FEFF 		bl	mc_interface_get_duty_cycle_now
 1097              	.LVL74:
 1098 007a B4EEE80A 		fcmpes	s0, s17
 1099 007e F1EE10FA 		fmstat
 1100              		.loc 1 394 0
 1101 0082 4FF00A00 		mov	r0, #10
 1102              		.loc 1 393 0
 1103 0086 F2D4     		bmi	.L76
 1104              		.loc 1 396 0
 1105 0088 0124     		movs	r4, #1
 1106              	.LVL75:
 1107              	.L49:
 1108              	.LBE11:
 1109              		.loc 1 402 0
 1110 008a FFF7FEFF 		bl	mcpwm_reset_hall_detect_table
 1111              	.LVL76:
 1112              		.loc 1 405 0
 1113 008e FFF7FEFF 		bl	mc_interface_lock_override_once
 1114              	.LVL77:
 1115              		.loc 1 406 0
 1116 0092 9FED530A 		flds	s0, .L81+4
 1117 0096 FFF7FEFF 		bl	mc_interface_set_duty
 1118              	.LVL78:
 1119              		.loc 1 407 0
 1120 009a 4FF47A60 		mov	r0, #4000
 1121 009e FFF7FEFF 		bl	chThdSleep
 1122              	.LVL79:
 1123              		.loc 1 410 0
 1124 00a2 FFF7FEFF 		bl	mc_interface_lock_override_once
 1125              	.LVL80:
 1126              		.loc 1 411 0
 1127 00a6 9FED500A 		flds	s0, .L81+12
 1128 00aa FFF7FEFF 		bl	mc_interface_set_current
 1129              	.LVL81:
 1130              		.loc 1 412 0
 1131 00ae 0020     		movs	r0, #0
 1132 00b0 FFF7FEFF 		bl	mcpwm_get_tachometer_value
 1133              	.LVL82:
 1134 00b4 4FF4FA65 		mov	r5, #2000
 1135 00b8 8246     		mov	r10, r0
 1136              	.LVL83:
 1137 00ba 03E0     		b	.L53
 1138              	.LVL84:
 1139              	.L77:
 1140              	.LBB12:
ARM GAS  /tmp/ccugl0ze.s 			page 21


 1141              		.loc 1 415 0
 1142 00bc FFF7FEFF 		bl	chThdSleep
 1143              	.LVL85:
 1144              		.loc 1 413 0
 1145 00c0 013D     		subs	r5, r5, #1
 1146              	.LVL86:
 1147 00c2 09D0     		beq	.L54
 1148              	.LVL87:
 1149              	.L53:
 1150              		.loc 1 414 0
 1151 00c4 0020     		movs	r0, #0
 1152 00c6 FFF7FEFF 		bl	mcpwm_get_tachometer_value
 1153              	.LVL88:
 1154 00ca CAEB0003 		rsb	r3, r10, r0
 1155 00ce 022B     		cmp	r3, #2
 1156              		.loc 1 415 0
 1157 00d0 4FF00A00 		mov	r0, #10
 1158              		.loc 1 414 0
 1159 00d4 F2DD     		ble	.L77
 1160              		.loc 1 417 0
 1161 00d6 0134     		adds	r4, r4, #1
 1162              	.LVL89:
 1163              	.L54:
 1164              	.LBE12:
 1165              		.loc 1 423 0
 1166 00d8 FFF7FEFF 		bl	mcpwm_read_reset_avg_cycle_integrator
 1167              	.LVL90:
 1168              		.loc 1 424 0
 1169 00dc 0020     		movs	r0, #0
 1170 00de FFF7FEFF 		bl	mcpwm_get_tachometer_value
 1171              	.LVL91:
 1172 00e2 40F6B835 		movw	r5, #3000
 1173 00e6 8246     		mov	r10, r0
 1174              	.LVL92:
 1175 00e8 03E0     		b	.L56
 1176              	.LVL93:
 1177              	.L78:
 1178              	.LBB13:
 1179              		.loc 1 427 0
 1180 00ea FFF7FEFF 		bl	chThdSleep
 1181              	.LVL94:
 1182              		.loc 1 425 0
 1183 00ee 013D     		subs	r5, r5, #1
 1184              	.LVL95:
 1185 00f0 09D0     		beq	.L57
 1186              	.LVL96:
 1187              	.L56:
 1188              		.loc 1 426 0
 1189 00f2 0020     		movs	r0, #0
 1190 00f4 FFF7FEFF 		bl	mcpwm_get_tachometer_value
 1191              	.LVL97:
 1192 00f8 CAEB0003 		rsb	r3, r10, r0
 1193 00fc 312B     		cmp	r3, #49
 1194              		.loc 1 427 0
 1195 00fe 4FF00A00 		mov	r0, #10
 1196              		.loc 1 426 0
 1197 0102 F2DD     		ble	.L78
ARM GAS  /tmp/ccugl0ze.s 			page 22


 1198              		.loc 1 429 0
 1199 0104 0134     		adds	r4, r4, #1
 1200              	.LVL98:
 1201              	.L57:
 1202              	.LBE13:
 1203              		.loc 1 435 0
 1204 0106 4846     		mov	r0, r9
 1205 0108 FFF7FEFF 		bl	mcpwm_get_hall_detect_result
 1206              	.LVL99:
 1207 010c C8F80000 		str	r0, [r8]
 1208              		.loc 1 437 0
 1209 0110 FFF7FEFF 		bl	mcpwm_read_reset_avg_cycle_integrator
 1210              	.LVL100:
 1211 0114 41F28835 		movw	r5, #5000
 1212 0118 86ED000A 		fsts	s0, [r6]
 1213              	.LVL101:
 1214 011c 03E0     		b	.L60
 1215              	.LVL102:
 1216              	.L79:
 1217              	.LBB14:
 1218              		.loc 1 442 0
 1219 011e FFF7FEFF 		bl	chThdSleep
 1220              	.LVL103:
 1221              		.loc 1 440 0
 1222 0122 013D     		subs	r5, r5, #1
 1223              	.LVL104:
 1224 0124 09D0     		beq	.L61
 1225              	.LVL105:
 1226              	.L60:
 1227              		.loc 1 441 0
 1228 0126 FFF7FEFF 		bl	mc_interface_get_duty_cycle_now
 1229              	.LVL106:
 1230 012a B4EEC80A 		fcmpes	s0, s16
 1231 012e F1EE10FA 		fmstat
 1232              		.loc 1 442 0
 1233 0132 4FF00A00 		mov	r0, #10
 1234              		.loc 1 441 0
 1235 0136 F2DC     		bgt	.L79
 1236              		.loc 1 444 0
 1237 0138 0134     		adds	r4, r4, #1
 1238              	.LVL107:
 1239              	.L61:
 1240              	.LBE14:
 1241              		.loc 1 449 0
 1242 013a FFF7FEFF 		bl	mc_interface_lock_override_once
 1243              	.LVL108:
 1244              		.loc 1 450 0
 1245 013e B0EE480A 		fcpys	s0, s16
 1246 0142 FFF7FEFF 		bl	mc_interface_set_duty
 1247              	.LVL109:
 1248              		.loc 1 453 0
 1249 0146 FFF7FEFF 		bl	mcpwm_read_reset_avg_cycle_integrator
 1250              	.LVL110:
 1251              		.loc 1 454 0
 1252 014a 0020     		movs	r0, #0
 1253 014c FFF7FEFF 		bl	mcpwm_get_tachometer_value
 1254              	.LVL111:
ARM GAS  /tmp/ccugl0ze.s 			page 23


 1255              		.loc 1 456 0
 1256 0150 DFED258A 		flds	s17, .L81+12
 1257              		.loc 1 454 0
 1258 0154 8046     		mov	r8, r0
 1259              	.LVL112:
 1260              		.loc 1 455 0
 1261 0156 B0EE688A 		fcpys	s16, s17
 1262              	.LVL113:
 1263              		.loc 1 454 0
 1264 015a 40F6B835 		movw	r5, #3000
 1265              	.LBB15:
 1266              		.loc 1 460 0
 1267 015e B7EE009A 		fconsts	s18, #112
 1268              	.LVL114:
 1269 0162 0AE0     		b	.L63
 1270              	.LVL115:
 1271              	.L80:
 1272              		.loc 1 459 0
 1273 0164 FFF7FEFF 		bl	mc_interface_get_rpm
 1274              	.LVL116:
 1275              		.loc 1 461 0
 1276 0168 0A20     		movs	r0, #10
 1277              		.loc 1 459 0
 1278 016a 38EE008A 		fadds	s16, s16, s0
 1279              	.LVL117:
 1280              		.loc 1 461 0
 1281 016e FFF7FEFF 		bl	chThdSleep
 1282              	.LVL118:
 1283              		.loc 1 457 0
 1284 0172 013D     		subs	r5, r5, #1
 1285              	.LVL119:
 1286              		.loc 1 460 0
 1287 0174 78EE898A 		fadds	s17, s17, s18
 1288              	.LVL120:
 1289              		.loc 1 457 0
 1290 0178 07D0     		beq	.L64
 1291              	.LVL121:
 1292              	.L63:
 1293              		.loc 1 458 0
 1294 017a 0020     		movs	r0, #0
 1295 017c FFF7FEFF 		bl	mcpwm_get_tachometer_value
 1296              	.LVL122:
 1297 0180 C8EB0000 		rsb	r0, r8, r0
 1298 0184 6328     		cmp	r0, #99
 1299 0186 EDDD     		ble	.L80
 1300              		.loc 1 463 0
 1301 0188 0134     		adds	r4, r4, #1
 1302              	.LVL123:
 1303              	.L64:
 1304              	.LBE15:
 1305              		.loc 1 468 0
 1306 018a FFF7FEFF 		bl	mcpwm_read_reset_avg_cycle_integrator
 1307              	.LVL124:
 1308 018e B0EE409A 		fcpys	s18, s0
 1309              	.LVL125:
 1310              		.loc 1 471 0
 1311 0192 FFF7FEFF 		bl	mc_interface_lock_override_once
ARM GAS  /tmp/ccugl0ze.s 			page 24


 1312              	.LVL126:
 1313              		.loc 1 472 0
 1314 0196 FFF7FEFF 		bl	mc_interface_release_motor
 1315              	.LVL127:
 1316              		.loc 1 476 0
 1317 019a 144B     		ldr	r3, .L81+16
 1318              		.loc 1 475 0
 1319 019c D6ED007A 		flds	s15, [r6]
 1320              		.loc 1 476 0
 1321 01a0 1B8A     		ldrh	r3, [r3, #16]
 1322              		.loc 1 481 0
 1323 01a2 1048     		ldr	r0, .L81+8
 1324              		.loc 1 476 0
 1325 01a4 9BB2     		uxth	r3, r3
 1326 01a6 07EE103A 		fmsr	s14, r3	@ int
 1327              		.loc 1 475 0
 1328 01aa 79EE677A 		fsubs	s15, s18, s15
 1329              		.loc 1 476 0
 1330 01ae B8EE479A 		fuitos	s18, s14
 1331              	.LVL128:
 1332              		.loc 1 469 0
 1333 01b2 88EE288A 		fdivs	s16, s16, s17
 1334              	.LVL129:
 1335              		.loc 1 476 0
 1336 01b6 87EE899A 		fdivs	s18, s15, s18
 1337              	.LVL130:
 1338              		.loc 1 477 0
 1339 01ba 29EE088A 		fmuls	s16, s18, s16
 1340              	.LVL131:
 1341              		.loc 1 478 0
 1342 01be 87ED008A 		fsts	s16, [r7]
 1343              		.loc 1 481 0
 1344 01c2 FFF7FEFF 		bl	mc_interface_set_configuration
 1345              	.LVL132:
 1346              		.loc 1 483 0
 1347 01c6 FFF7FEFF 		bl	mc_interface_unlock
 1348              	.LVL133:
 1349              		.loc 1 486 0
 1350 01ca BDEC048B 		fldmfdd	sp!, {d8-d9}
 1351              		.cfi_restore 82
 1352              		.cfi_restore 83
 1353              		.cfi_restore 80
 1354              		.cfi_restore 81
 1355              		.cfi_def_cfa_offset 32
 1356              	.LVL134:
 1357 01ce A4F10500 		sub	r0, r4, #5
 1358 01d2 B0FA80F0 		clz	r0, r0
 1359 01d6 4009     		lsrs	r0, r0, #5
 1360 01d8 BDE8F087 		pop	{r4, r5, r6, r7, r8, r9, r10, pc}
 1361              	.LVL135:
 1362              	.L82:
 1363              		.align	2
 1364              	.L81:
 1365 01dc 00000000 		.word	.LANCHOR1
 1366 01e0 9A99193F 		.word	1058642330
 1367 01e4 00000000 		.word	.LANCHOR2
 1368 01e8 00000000 		.word	0
ARM GAS  /tmp/ccugl0ze.s 			page 25


 1369 01ec 00000000 		.word	ADC_Value
 1370              		.cfi_endproc
 1371              	.LFE226:
 1372              		.size	conf_general_detect_motor_param, .-conf_general_detect_motor_param
 1373              		.section	.text.conf_general_measure_flux_linkage,"ax",%progbits
 1374              		.align	2
 1375              		.p2align 4,,15
 1376              		.global	conf_general_measure_flux_linkage
 1377              		.thumb
 1378              		.thumb_func
 1379              		.type	conf_general_measure_flux_linkage, %function
 1380              	conf_general_measure_flux_linkage:
 1381              	.LFB227:
 1382              		.loc 1 510 0
 1383              		.cfi_startproc
 1384              		@ args = 0, pretend = 0, frame = 0
 1385              		@ frame_needed = 0, uses_anonymous_args = 0
 1386              	.LVL136:
 1387 0000 F8B5     		push	{r3, r4, r5, r6, r7, lr}
 1388              		.cfi_def_cfa_offset 24
 1389              		.cfi_offset 3, -24
 1390              		.cfi_offset 4, -20
 1391              		.cfi_offset 5, -16
 1392              		.cfi_offset 6, -12
 1393              		.cfi_offset 7, -8
 1394              		.cfi_offset 14, -4
 1395 0002 2DED088B 		fstmfdd	sp!, {d8, d9, d10, d11}
 1396              		.cfi_def_cfa_offset 56
 1397              		.cfi_offset 80, -56
 1398              		.cfi_offset 81, -52
 1399              		.cfi_offset 82, -48
 1400              		.cfi_offset 83, -44
 1401              		.cfi_offset 84, -40
 1402              		.cfi_offset 85, -36
 1403              		.cfi_offset 86, -32
 1404              		.cfi_offset 87, -28
 1405              		.loc 1 510 0
 1406 0006 0746     		mov	r7, r0
 1407 0008 B0EE419A 		fcpys	s18, s2
 1408 000c B0EE608A 		fcpys	s16, s1
 1409 0010 F0EE61BA 		fcpys	s23, s3
 1410 0014 F0EE408A 		fcpys	s17, s0
 1411              		.loc 1 511 0
 1412 0018 FFF7FEFF 		bl	mc_interface_get_configuration
 1413              	.LVL137:
 1414 001c 574C     		ldr	r4, .L92
 1415 001e 0146     		mov	r1, r0
 1416 0020 4FF49872 		mov	r2, #304
 1417 0024 2046     		mov	r0, r4
 1418 0026 FFF7FEFF 		bl	memcpy
 1419              	.LVL138:
 1420              		.loc 1 512 0
 1421 002a 2146     		mov	r1, r4
 1422 002c 4FF49872 		mov	r2, #304
 1423 0030 5348     		ldr	r0, .L92+4
 1424 0032 FFF7FEFF 		bl	memcpy
 1425              	.LVL139:
ARM GAS  /tmp/ccugl0ze.s 			page 26


 1426              		.loc 1 514 0
 1427 0036 0023     		movs	r3, #0
 1428              		.loc 1 516 0
 1429 0038 0121     		movs	r1, #1
 1430              		.loc 1 517 0
 1431 003a 4FF07E52 		mov	r2, #1065353216
 1432              		.loc 1 519 0
 1433 003e 2046     		mov	r0, r4
 1434              		.loc 1 516 0
 1435 0040 6170     		strb	r1, [r4, #1]
 1436              		.loc 1 517 0
 1437 0042 6267     		str	r2, [r4, #116]	@ float
 1438              		.loc 1 514 0
 1439 0044 A370     		strb	r3, [r4, #2]
 1440              		.loc 1 515 0
 1441 0046 E370     		strb	r3, [r4, #3]
 1442              		.loc 1 518 0
 1443 0048 84ED199A 		fsts	s18, [r4, #100]
 1444              		.loc 1 519 0
 1445 004c FFF7FEFF 		bl	mc_interface_set_configuration
 1446              	.LVL140:
 1447              		.loc 1 521 0
 1448 0050 42F21070 		movw	r0, #10000
 1449 0054 FFF7FEFF 		bl	chThdSleep
 1450              	.LVL141:
 1451              		.loc 1 524 0
 1452 0058 FFF7FEFF 		bl	timeout_get_timeout_msec
 1453              	.LVL142:
 1454 005c 0546     		mov	r5, r0
 1455              	.LVL143:
 1456              		.loc 1 525 0
 1457 005e FFF7FEFF 		bl	timeout_get_brake_current
 1458              	.LVL144:
 1459              		.loc 1 526 0
 1460 0062 4EF66020 		movw	r0, #60000
 1461              		.loc 1 525 0
 1462 0066 B0EE409A 		fcpys	s18, s0
 1463              	.LVL145:
 1464              		.loc 1 526 0
 1465 006a 9FED460A 		flds	s0, .L92+8
 1466              	.LVL146:
 1467 006e FFF7FEFF 		bl	timeout_configure
 1468              	.LVL147:
 1469              		.loc 1 528 0
 1470 0072 FFF7FEFF 		bl	mc_interface_lock
 1471              	.LVL148:
 1472              		.loc 1 530 0
 1473 0076 FFF7FEFF 		bl	mc_interface_lock_override_once
 1474              	.LVL149:
 1475              		.loc 1 531 0
 1476 007a B0EE680A 		fcpys	s0, s17
 1477 007e FFF7FEFF 		bl	mc_interface_set_current
 1478              	.LVL150:
 1479              		.loc 1 534 0
 1480 0082 41F28834 		movw	r4, #5000
 1481 0086 03E0     		b	.L84
 1482              	.LVL151:
ARM GAS  /tmp/ccugl0ze.s 			page 27


 1483              	.L86:
 1484              		.loc 1 535 0
 1485 0088 FFF7FEFF 		bl	chThdSleep
 1486              	.LVL152:
 1487              		.loc 1 537 0
 1488 008c 013C     		subs	r4, r4, #1
 1489              	.LVL153:
 1490 008e 63D0     		beq	.L91
 1491              	.LVL154:
 1492              	.L84:
 1493              		.loc 1 534 0
 1494 0090 FFF7FEFF 		bl	mc_interface_get_duty_cycle_now
 1495              	.LVL155:
 1496 0094 B4EEC80A 		fcmpes	s0, s16
 1497 0098 F1EE10FA 		fmstat
 1498              		.loc 1 535 0
 1499 009c 4FF00A00 		mov	r0, #10
 1500              		.loc 1 534 0
 1501 00a0 F2D4     		bmi	.L86
 1502              		.loc 1 546 0
 1503 00a2 FFF7FEFF 		bl	mc_interface_lock_override_once
 1504              	.LVL156:
 1505              		.loc 1 547 0
 1506 00a6 B0EE480A 		fcpys	s0, s16
 1507              		.loc 1 552 0
 1508 00aa DFED368A 		flds	s17, .L92+8
 1509              	.LVL157:
 1510 00ae 364E     		ldr	r6, .L92+12
 1511              	.LBB16:
 1512              		.loc 1 554 0
 1513 00b0 9FED36BA 		flds	s22, .L92+16
 1514 00b4 DFED36AA 		flds	s21, .L92+20
 1515              	.LBE16:
 1516              		.loc 1 547 0
 1517 00b8 FFF7FEFF 		bl	mc_interface_set_duty
 1518              	.LVL158:
 1519              		.loc 1 551 0
 1520 00bc F0EE689A 		fcpys	s19, s17
 1521              		.loc 1 550 0
 1522 00c0 B0EE689A 		fcpys	s18, s17
 1523              	.LVL159:
 1524              		.loc 1 549 0
 1525 00c4 B0EE688A 		fcpys	s16, s17
 1526              	.LVL160:
 1527              		.loc 1 547 0
 1528 00c8 4FF4FA65 		mov	r5, #2000
 1529              	.LVL161:
 1530              	.LBB17:
 1531              		.loc 1 557 0
 1532 00cc B7EE00AA 		fconsts	s20, #112
 1533              	.LVL162:
 1534              	.L87:
 1535              		.loc 1 554 0 discriminator 3
 1536 00d0 338A     		ldrh	r3, [r6, #16]
 1537 00d2 9CB2     		uxth	r4, r3
 1538 00d4 FFF7FEFF 		bl	mc_interface_get_duty_cycle_now
 1539              	.LVL163:
ARM GAS  /tmp/ccugl0ze.s 			page 28


 1540 00d8 07EE904A 		fmsr	s15, r4	@ int
 1541 00dc F8EE677A 		fuitos	s15, s15
 1542 00e0 67EE8B7A 		fmuls	s15, s15, s22
 1543 00e4 67EEAA7A 		fmuls	s15, s15, s21
 1544 00e8 A7EE808A 		vfma.f32	s16, s15, s0
 1545              	.LVL164:
 1546              		.loc 1 555 0 discriminator 3
 1547 00ec FFF7FEFF 		bl	mc_interface_get_rpm
 1548              	.LVL165:
 1549 00f0 39EE009A 		fadds	s18, s18, s0
 1550              	.LVL166:
 1551              		.loc 1 556 0 discriminator 3
 1552 00f4 FFF7FEFF 		bl	mc_interface_get_tot_current
 1553              	.LVL167:
 1554              		.loc 1 558 0 discriminator 3
 1555 00f8 0A20     		movs	r0, #10
 1556              		.loc 1 556 0 discriminator 3
 1557 00fa 79EE809A 		fadds	s19, s19, s0
 1558              	.LVL168:
 1559              		.loc 1 558 0 discriminator 3
 1560 00fe FFF7FEFF 		bl	chThdSleep
 1561              	.LVL169:
 1562              		.loc 1 553 0 discriminator 3
 1563 0102 013D     		subs	r5, r5, #1
 1564              	.LVL170:
 1565              		.loc 1 557 0 discriminator 3
 1566 0104 78EE8A8A 		fadds	s17, s17, s20
 1567              	.LVL171:
 1568              		.loc 1 553 0 discriminator 3
 1569 0108 E2D1     		bne	.L87
 1570              	.LBE17:
 1571              		.loc 1 561 0
 1572 010a 1D48     		ldr	r0, .L92+4
 1573 010c FFF7FEFF 		bl	mc_interface_set_configuration
 1574              	.LVL172:
 1575              		.loc 1 562 0
 1576 0110 FFF7FEFF 		bl	mc_interface_unlock
 1577              	.LVL173:
 1578              		.loc 1 563 0
 1579 0114 9FED1B0A 		flds	s0, .L92+8
 1580 0118 FFF7FEFF 		bl	mc_interface_set_current
 1581              	.LVL174:
 1582              		.loc 1 567 0
 1583 011c C9EEA89A 		fdivs	s19, s19, s17
 1584              	.LVL175:
 1585              		.loc 1 572 0
 1586 0120 0120     		movs	r0, #1
 1587              		.loc 1 565 0
 1588 0122 C8EE287A 		fdivs	s15, s16, s17
 1589              	.LVL176:
 1590              		.loc 1 566 0
 1591 0126 C9EE288A 		fdivs	s17, s18, s17
 1592              	.LVL177:
 1593 012a 6BEEE99A 		fnmuls	s19, s23, s19
 1594              		.loc 1 568 0
 1595 012e B0EE007A 		fconsts	s14, #0
 1596 0132 E9EE877A 		vfma.f32	s15, s19, s14
ARM GAS  /tmp/ccugl0ze.s 			page 29


 1597              		.loc 1 570 0
 1598 0136 9FED177A 		flds	s14, .L92+24
 1599              		.loc 1 568 0
 1600 013a B0EE678A 		fcpys	s16, s15
 1601              		.loc 1 570 0
 1602 013e DFED167A 		flds	s15, .L92+28
 1603 0142 28EE877A 		fmuls	s14, s17, s14
 1604 0146 68EE277A 		fmuls	s15, s16, s15
 1605              		.loc 1 573 0
 1606 014a BDEC088B 		fldmfdd	sp!, {d8-d11}
 1607              		.cfi_remember_state
 1608              		.cfi_restore 86
 1609              		.cfi_restore 87
 1610              		.cfi_restore 84
 1611              		.cfi_restore 85
 1612              		.cfi_restore 82
 1613              		.cfi_restore 83
 1614              		.cfi_restore 80
 1615              		.cfi_restore 81
 1616              		.cfi_def_cfa_offset 24
 1617              		.loc 1 570 0
 1618 014e C7EE877A 		fdivs	s15, s15, s14
 1619 0152 C7ED007A 		fsts	s15, [r7]
 1620              		.loc 1 573 0
 1621 0156 F8BD     		pop	{r3, r4, r5, r6, r7, pc}
 1622              	.LVL178:
 1623              	.L91:
 1624              		.cfi_restore_state
 1625              		.loc 1 538 0
 1626 0158 9FED0A0A 		flds	s0, .L92+8
 1627 015c FFF7FEFF 		bl	mc_interface_set_current
 1628              	.LVL179:
 1629              		.loc 1 539 0
 1630 0160 B0EE490A 		fcpys	s0, s18
 1631 0164 2846     		mov	r0, r5
 1632 0166 FFF7FEFF 		bl	timeout_configure
 1633              	.LVL180:
 1634              		.loc 1 540 0
 1635 016a 0548     		ldr	r0, .L92+4
 1636 016c FFF7FEFF 		bl	mc_interface_set_configuration
 1637              	.LVL181:
 1638              		.loc 1 541 0
 1639 0170 FFF7FEFF 		bl	mc_interface_unlock
 1640              	.LVL182:
 1641              		.loc 1 573 0
 1642 0174 BDEC088B 		fldmfdd	sp!, {d8-d11}
 1643              		.cfi_restore 80
 1644              		.cfi_restore 81
 1645              		.cfi_restore 82
 1646              		.cfi_restore 83
 1647              		.cfi_restore 84
 1648              		.cfi_restore 85
 1649              		.cfi_restore 86
 1650              		.cfi_restore 87
 1651              		.cfi_def_cfa_offset 24
 1652              	.LVL183:
 1653              		.loc 1 542 0
ARM GAS  /tmp/ccugl0ze.s 			page 30


 1654 0178 2046     		mov	r0, r4
 1655              		.loc 1 573 0
 1656 017a F8BD     		pop	{r3, r4, r5, r6, r7, pc}
 1657              	.LVL184:
 1658              	.L93:
 1659              		.align	2
 1660              	.L92:
 1661 017c 00000000 		.word	.LANCHOR1
 1662 0180 00000000 		.word	.LANCHOR2
 1663 0184 00000000 		.word	0
 1664 0188 00000000 		.word	ADC_Value
 1665 018c 6740533A 		.word	978534503
 1666 0190 74D19541 		.word	1100337524
 1667 0194 EF1F2E41 		.word	1093541871
 1668 0198 00007042 		.word	1114636288
 1669              		.cfi_endproc
 1670              	.LFE227:
 1671              		.size	conf_general_measure_flux_linkage, .-conf_general_measure_flux_linkage
 1672              		.global	mcconf_old
 1673              		.global	mcconf
 1674              		.global	VirtAddVarTab
 1675              		.section	.bss.mcconf,"aw",%nobits
 1676              		.align	2
 1677              		.set	.LANCHOR1,. + 0
 1678              		.type	mcconf, %object
 1679              		.size	mcconf, 304
 1680              	mcconf:
 1681 0000 00000000 		.space	304
 1681      00000000 
 1681      00000000 
 1681      00000000 
 1681      00000000 
 1682              		.section	.bss.mcconf_old,"aw",%nobits
 1683              		.align	2
 1684              		.set	.LANCHOR2,. + 0
 1685              		.type	mcconf_old, %object
 1686              		.size	mcconf_old, 304
 1687              	mcconf_old:
 1688 0000 00000000 		.space	304
 1688      00000000 
 1688      00000000 
 1688      00000000 
 1688      00000000 
 1689              		.section	.bss.VirtAddVarTab,"aw",%nobits
 1690              		.align	2
 1691              		.set	.LANCHOR0,. + 0
 1692              		.type	VirtAddVarTab, %object
 1693              		.size	VirtAddVarTab, 320
 1694              	VirtAddVarTab:
 1695 0000 00000000 		.space	320
 1695      00000000 
 1695      00000000 
 1695      00000000 
 1695      00000000 
 1696              		.text
 1697              	.Letext0:
 1698              		.file 2 "/usr/arm-none-eabi/include/machine/_default_types.h"
ARM GAS  /tmp/ccugl0ze.s 			page 31


 1699              		.file 3 "/usr/arm-none-eabi/include/sys/_stdint.h"
 1700              		.file 4 "/usr/lib/gcc/arm-none-eabi/4.9.3/include/stddef.h"
 1701              		.file 5 "ChibiOS_3.0.2/os/rt/ports/ARMCMx/compilers/GCC/chtypes.h"
 1702              		.file 6 "ChibiOS_3.0.2/os/rt/include/chsystypes.h"
 1703              		.file 7 "ChibiOS_3.0.2/os/rt/include/chschd.h"
 1704              		.file 8 "ChibiOS_3.0.2/os/ext/CMSIS/ST/stm32f4xx.h"
 1705              		.file 9 "ChibiOS_3.0.2/os/rt/ports/ARMCMx/chcore.h"
 1706              		.file 10 "ChibiOS_3.0.2/os/rt/ports/ARMCMx/chcore_v7m.h"
 1707              		.file 11 "ChibiOS_3.0.2/os/rt/include/chtm.h"
 1708              		.file 12 "ChibiOS_3.0.2/os/rt/include/chsem.h"
 1709              		.file 13 "ChibiOS_3.0.2/os/rt/include/chmtx.h"
 1710              		.file 14 "datatypes.h"
 1711              		.file 15 "ChibiOS_3.0.2/ext/stdperiph_stm32f4/inc/stm32f4xx_flash.h"
 1712              		.file 16 "ChibiOS_3.0.2/os/ext/CMSIS/include/core_cm4.h"
 1713              		.file 17 "mc_interface.h"
 1714              		.file 18 "eeprom.h"
 1715              		.file 19 "utils.h"
 1716              		.file 20 "ChibiOS_3.0.2/ext/stdperiph_stm32f4/inc/stm32f4xx_rcc.h"
 1717              		.file 21 "ChibiOS_3.0.2/os/rt/include/chthreads.h"
 1718              		.file 22 "mcpwm.h"
 1719              		.file 23 "timeout.h"