ARM GAS  /tmp/ccvmsHag.s 			page 1


   1              		.syntax unified
   2              		.cpu cortex-m4
   3              		.eabi_attribute 27, 1
   4              		.eabi_attribute 28, 1
   5              		.fpu fpv4-sp-d16
   6              		.eabi_attribute 20, 1
   7              		.eabi_attribute 21, 1
   8              		.eabi_attribute 23, 3
   9              		.eabi_attribute 24, 1
  10              		.eabi_attribute 25, 1
  11              		.eabi_attribute 26, 1
  12              		.eabi_attribute 30, 2
  13              		.eabi_attribute 34, 1
  14              		.eabi_attribute 18, 4
  15              		.thumb
  16              		.file	"eeprom.c"
  17              		.text
  18              	.Ltext0:
  19              		.cfi_sections	.debug_frame
  20              		.section	.text.EE_VerifyPageFullWriteVariable,"ax",%progbits
  21              		.align	2
  22              		.p2align 4,,15
  23              		.thumb
  24              		.thumb_func
  25              		.type	EE_VerifyPageFullWriteVariable, %function
  26              	EE_VerifyPageFullWriteVariable:
  27              	.LFB224:
  28              		.file 1 "eeprom.c"
  29              		.loc 1 465 0
  30              		.cfi_startproc
  31              		@ args = 0, pretend = 0, frame = 0
  32              		@ frame_needed = 0, uses_anonymous_args = 0
  33              	.LVL0:
  34 0000 38B5     		push	{r3, r4, r5, lr}
  35              		.cfi_def_cfa_offset 16
  36              		.cfi_offset 3, -16
  37              		.cfi_offset 4, -12
  38              		.cfi_offset 5, -8
  39              		.cfi_offset 14, -4
  40              	.LBB5:
  41              	.LBB6:
  42              		.loc 1 400 0
  43 0002 1B4A     		ldr	r2, .L23
  44              		.loc 1 397 0
  45 0004 1B4B     		ldr	r3, .L23+4
  46 0006 1B88     		ldrh	r3, [r3]
  47              		.loc 1 400 0
  48 0008 1288     		ldrh	r2, [r2]
  49 000a 92B2     		uxth	r2, r2
  50              		.loc 1 397 0
  51 000c 9BB2     		uxth	r3, r3
  52              	.LVL1:
  53              		.loc 1 406 0
  54 000e EAB9     		cbnz	r2, .L2
  55              		.loc 1 409 0
  56 0010 4EF6EE62 		movw	r2, #61166
  57              	.LVL2:
ARM GAS  /tmp/ccvmsHag.s 			page 2


  58              		.loc 1 423 0
  59 0014 9B1A     		subs	r3, r3, r2
  60              	.LVL3:
  61 0016 18BF     		it	ne
  62 0018 0123     		movne	r3, #1
  63              	.LVL4:
  64              	.L3:
  65              	.LBE6:
  66              	.LBE5:
  67              		.loc 1 480 0
  68 001a 03F50054 		add	r4, r3, #8192
  69              		.loc 1 483 0
  70 001e 164A     		ldr	r2, .L23+8
  71 0020 0133     		adds	r3, r3, #1
  72              		.loc 1 480 0
  73 0022 0134     		adds	r4, r4, #1
  74              		.loc 1 483 0
  75 0024 9B03     		lsls	r3, r3, #14
  76              		.loc 1 480 0
  77 0026 A403     		lsls	r4, r4, #14
  78              	.LVL5:
  79              		.loc 1 483 0
  80 0028 1A44     		add	r2, r2, r3
  81              	.LVL6:
  82              		.loc 1 486 0
  83 002a 9442     		cmp	r4, r2
  84 002c 03D3     		bcc	.L7
  85 002e 10E0     		b	.L11
  86              	.L5:
  87              		.loc 1 506 0
  88 0030 0434     		adds	r4, r4, #4
  89              	.LVL7:
  90              		.loc 1 486 0
  91 0032 A242     		cmp	r2, r4
  92 0034 0DD9     		bls	.L11
  93              	.L7:
  94              		.loc 1 489 0
  95 0036 2368     		ldr	r3, [r4]
  96 0038 0133     		adds	r3, r3, #1
  97 003a F9D1     		bne	.L5
  98 003c 0546     		mov	r5, r0
  99              		.loc 1 492 0
 100 003e 2046     		mov	r0, r4
 101              	.LVL8:
 102 0040 FFF7FEFF 		bl	FLASH_ProgramHalfWord
 103              	.LVL9:
 104              		.loc 1 494 0
 105 0044 0928     		cmp	r0, #9
 106 0046 0DD0     		beq	.L21
 107              	.LVL10:
 108              	.L19:
 109              		.loc 1 501 0
 110 0048 80B2     		uxth	r0, r0
 111              	.LVL11:
 112 004a 38BD     		pop	{r3, r4, r5, pc}
 113              	.LVL12:
 114              	.L2:
ARM GAS  /tmp/ccvmsHag.s 			page 3


 115              	.LBB9:
 116              	.LBB7:
 117              		.loc 1 418 0
 118 004c 1BB1     		cbz	r3, .L22
 119              	.LBE7:
 120              	.LBE9:
 121              		.loc 1 476 0
 122 004e AB20     		movs	r0, #171
 123              	.LVL13:
 124 0050 38BD     		pop	{r3, r4, r5, pc}
 125              	.LVL14:
 126              	.L11:
 127              		.loc 1 511 0
 128 0052 8020     		movs	r0, #128
 129              	.LVL15:
 130 0054 38BD     		pop	{r3, r4, r5, pc}
 131              	.LVL16:
 132              	.L22:
 133              	.LBB10:
 134              	.LBB8:
 135              		.loc 1 421 0
 136 0056 4EF6EE63 		movw	r3, #61166
 137              	.LVL17:
 138              		.loc 1 423 0
 139 005a D31A     		subs	r3, r2, r3
 140 005c B3FA83F3 		clz	r3, r3
 141 0060 5B09     		lsrs	r3, r3, #5
 142 0062 DAE7     		b	.L3
 143              	.LVL18:
 144              	.L21:
 145              	.LBE8:
 146              	.LBE10:
 147              		.loc 1 499 0
 148 0064 A01C     		adds	r0, r4, #2
 149              	.LVL19:
 150 0066 2946     		mov	r1, r5
 151 0068 FFF7FEFF 		bl	FLASH_ProgramHalfWord
 152              	.LVL20:
 153 006c ECE7     		b	.L19
 154              	.L24:
 155 006e 00BF     		.align	2
 156              	.L23:
 157 0070 00800008 		.word	134250496
 158 0074 00400008 		.word	134234112
 159 0078 FE3F0008 		.word	134234110
 160              		.cfi_endproc
 161              	.LFE224:
 162              		.size	EE_VerifyPageFullWriteVariable, .-EE_VerifyPageFullWriteVariable
 163              		.section	.text.EE_EraseSectorIfNotEmpty.constprop.1,"ax",%progbits
 164              		.align	2
 165              		.p2align 4,,15
 166              		.thumb
 167              		.thumb_func
 168              		.type	EE_EraseSectorIfNotEmpty.constprop.1, %function
 169              	EE_EraseSectorIfNotEmpty.constprop.1:
 170              	.LFB228:
 171              		.loc 1 618 0
ARM GAS  /tmp/ccvmsHag.s 			page 4


 172              		.cfi_startproc
 173              		@ args = 0, pretend = 0, frame = 0
 174              		@ frame_needed = 0, uses_anonymous_args = 0
 175              	.LVL21:
 176 0000 10B5     		push	{r4, lr}
 177              		.cfi_def_cfa_offset 8
 178              		.cfi_offset 4, -8
 179              		.cfi_offset 14, -4
 180              		.loc 1 618 0
 181 0002 0446     		mov	r4, r0
 182              		.loc 1 619 0
 183 0004 FFF7FEFF 		bl	flash_helper_get_sector_address
 184              	.LVL22:
 185 0008 00F57F52 		add	r2, r0, #16320
 186 000c 3F32     		adds	r2, r2, #63
 187 000e 0138     		subs	r0, r0, #1
 188              	.LVL23:
 189 0010 01E0     		b	.L28
 190              	.LVL24:
 191              	.L26:
 192              	.LBB11:
 193              		.loc 1 621 0
 194 0012 9042     		cmp	r0, r2
 195 0014 09D0     		beq	.L31
 196              	.LVL25:
 197              	.L28:
 198              		.loc 1 622 0
 199 0016 10F8013F 		ldrb	r3, [r0, #1]!	@ zero_extendqisi2
 200              	.LVL26:
 201 001a FF2B     		cmp	r3, #255
 202 001c F9D0     		beq	.L26
 203              		.loc 1 623 0
 204 001e 2046     		mov	r0, r4
 205              	.LVL27:
 206 0020 0221     		movs	r1, #2
 207 0022 FFF7FEFF 		bl	FLASH_EraseSector
 208              	.LVL28:
 209 0026 80B2     		uxth	r0, r0
 210 0028 10BD     		pop	{r4, pc}
 211              	.LVL29:
 212              	.L31:
 213              	.LBE11:
 214              		.loc 1 627 0
 215 002a 0920     		movs	r0, #9
 216              	.LVL30:
 217              		.loc 1 628 0
 218 002c 10BD     		pop	{r4, pc}
 219              		.cfi_endproc
 220              	.LFE228:
 221              		.size	EE_EraseSectorIfNotEmpty.constprop.1, .-EE_EraseSectorIfNotEmpty.constprop.1
 222 002e 00BF     		.section	.text.EE_Format,"ax",%progbits
 223              		.align	2
 224              		.p2align 4,,15
 225              		.thumb
 226              		.thumb_func
 227              		.type	EE_Format, %function
 228              	EE_Format:
ARM GAS  /tmp/ccvmsHag.s 			page 5


 229              	.LFB222:
 230              		.loc 1 355 0
 231              		.cfi_startproc
 232              		@ args = 0, pretend = 0, frame = 0
 233              		@ frame_needed = 0, uses_anonymous_args = 0
 234              	.LVL31:
 235 0000 08B5     		push	{r3, lr}
 236              		.cfi_def_cfa_offset 8
 237              		.cfi_offset 3, -8
 238              		.cfi_offset 14, -4
 239              		.loc 1 359 0
 240 0002 0820     		movs	r0, #8
 241 0004 FFF7FEFF 		bl	EE_EraseSectorIfNotEmpty.constprop.1
 242              	.LVL32:
 243 0008 C0B2     		uxtb	r0, r0
 244              	.LVL33:
 245              		.loc 1 362 0
 246 000a 0928     		cmp	r0, #9
 247 000c 00D0     		beq	.L37
 248              	.LVL34:
 249              	.L33:
 250              		.loc 1 381 0
 251 000e 08BD     		pop	{r3, pc}
 252              	.LVL35:
 253              	.L37:
 254              		.loc 1 368 0
 255 0010 0548     		ldr	r0, .L38
 256              	.LVL36:
 257 0012 0021     		movs	r1, #0
 258 0014 FFF7FEFF 		bl	FLASH_ProgramHalfWord
 259              	.LVL37:
 260              		.loc 1 371 0
 261 0018 0928     		cmp	r0, #9
 262 001a F8D1     		bne	.L33
 263              	.LBB14:
 264              		.loc 1 377 0
 265 001c 1020     		movs	r0, #16
 266              	.LVL38:
 267 001e FFF7FEFF 		bl	EE_EraseSectorIfNotEmpty.constprop.1
 268              	.LVL39:
 269 0022 C0B2     		uxtb	r0, r0
 270 0024 F3E7     		b	.L33
 271              	.L39:
 272 0026 00BF     		.align	2
 273              	.L38:
 274 0028 00400008 		.word	134234112
 275              	.LBE14:
 276              		.cfi_endproc
 277              	.LFE222:
 278              		.size	EE_Format, .-EE_Format
 279              		.section	.text.EE_ReadVariable,"ax",%progbits
 280              		.align	2
 281              		.p2align 4,,15
 282              		.global	EE_ReadVariable
 283              		.thumb
 284              		.thumb_func
 285              		.type	EE_ReadVariable, %function
ARM GAS  /tmp/ccvmsHag.s 			page 6


 286              	EE_ReadVariable:
 287              	.LFB220:
 288              		.loc 1 272 0
 289              		.cfi_startproc
 290              		@ args = 0, pretend = 0, frame = 0
 291              		@ frame_needed = 0, uses_anonymous_args = 0
 292              		@ link register save eliminated.
 293              	.LVL40:
 294              	.LBB17:
 295              	.LBB18:
 296              		.loc 1 397 0
 297 0000 154B     		ldr	r3, .L52
 298              		.loc 1 400 0
 299 0002 164A     		ldr	r2, .L52+4
 300              		.loc 1 397 0
 301 0004 1B88     		ldrh	r3, [r3]
 302              		.loc 1 400 0
 303 0006 1288     		ldrh	r2, [r2]
 304              		.loc 1 397 0
 305 0008 9BB2     		uxth	r3, r3
 306              	.LVL41:
 307              	.LBE18:
 308              	.LBE17:
 309              		.loc 1 272 0
 310 000a 10B4     		push	{r4}
 311              		.cfi_def_cfa_offset 4
 312              		.cfi_offset 4, -4
 313              	.LBB22:
 314              	.LBB19:
 315              		.loc 1 400 0
 316 000c 92B2     		uxth	r2, r2
 317              	.LVL42:
 318              		.loc 1 436 0
 319 000e BBB1     		cbz	r3, .L47
 320              		.loc 1 440 0
 321 0010 1AB1     		cbz	r2, .L48
 322              	.LBE19:
 323              	.LBE22:
 324              		.loc 1 283 0
 325 0012 AB20     		movs	r0, #171
 326              	.LVL43:
 327              		.loc 1 318 0
 328 0014 5DF8044B 		ldr	r4, [sp], #4
 329              		.cfi_remember_state
 330              		.cfi_restore 4
 331              		.cfi_def_cfa_offset 0
 332 0018 7047     		bx	lr
 333              	.LVL44:
 334              	.L48:
 335              		.cfi_restore_state
 336              	.LBB23:
 337              	.LBB20:
 338              		.loc 1 440 0
 339 001a 114B     		ldr	r3, .L52+8
 340              	.LVL45:
 341 001c 114C     		ldr	r4, .L52+12
 342 001e 1A46     		mov	r2, r3
ARM GAS  /tmp/ccvmsHag.s 			page 7


 343              	.LVL46:
 344              	.L41:
 345              	.LBE20:
 346              	.LBE23:
 347              		.loc 1 296 0
 348 0020 1288     		ldrh	r2, [r2]
 349 0022 92B2     		uxth	r2, r2
 350              	.LVL47:
 351              		.loc 1 299 0
 352 0024 8242     		cmp	r2, r0
 353 0026 04D1     		bne	.L43
 354 0028 0EE0     		b	.L45
 355              	.LVL48:
 356              	.L44:
 357              		.loc 1 296 0
 358 002a 1A88     		ldrh	r2, [r3]
 359 002c 92B2     		uxth	r2, r2
 360              	.LVL49:
 361              		.loc 1 299 0
 362 002e 8242     		cmp	r2, r0
 363 0030 0AD0     		beq	.L45
 364              	.LVL50:
 365              	.L43:
 366              		.loc 1 312 0
 367 0032 043B     		subs	r3, r3, #4
 368              	.LVL51:
 369              		.loc 1 293 0
 370 0034 9C42     		cmp	r4, r3
 371 0036 F8D3     		bcc	.L44
 372              		.loc 1 274 0
 373 0038 0120     		movs	r0, #1
 374              	.LVL52:
 375              		.loc 1 318 0
 376 003a 5DF8044B 		ldr	r4, [sp], #4
 377              		.cfi_remember_state
 378              		.cfi_restore 4
 379              		.cfi_def_cfa_offset 0
 380 003e 7047     		bx	lr
 381              	.LVL53:
 382              	.L47:
 383              		.cfi_restore_state
 384              	.LBB24:
 385              	.LBB21:
 386              		.loc 1 436 0
 387 0040 094B     		ldr	r3, .L52+16
 388              	.LVL54:
 389 0042 0A4C     		ldr	r4, .L52+20
 390 0044 1A46     		mov	r2, r3
 391              	.LVL55:
 392 0046 EBE7     		b	.L41
 393              	.LVL56:
 394              	.L45:
 395              	.LBE21:
 396              	.LBE24:
 397              		.loc 1 302 0
 398 0048 33F8023C 		ldrh	r3, [r3, #-2]
 399              	.LVL57:
ARM GAS  /tmp/ccvmsHag.s 			page 8


 400 004c 0B80     		strh	r3, [r1]	@ movhi
 401              	.LVL58:
 402              		.loc 1 305 0
 403 004e 0020     		movs	r0, #0
 404              	.LVL59:
 405              		.loc 1 318 0
 406 0050 5DF8044B 		ldr	r4, [sp], #4
 407              		.cfi_restore 4
 408              		.cfi_def_cfa_offset 0
 409 0054 7047     		bx	lr
 410              	.L53:
 411 0056 00BF     		.align	2
 412              	.L52:
 413 0058 00400008 		.word	134234112
 414 005c 00800008 		.word	134250496
 415 0060 FEBF0008 		.word	134266878
 416 0064 02800008 		.word	134250498
 417 0068 FE7F0008 		.word	134250494
 418 006c 02400008 		.word	134234114
 419              		.cfi_endproc
 420              	.LFE220:
 421              		.size	EE_ReadVariable, .-EE_ReadVariable
 422              		.section	.text.EE_Init,"ax",%progbits
 423              		.align	2
 424              		.p2align 4,,15
 425              		.global	EE_Init
 426              		.thumb
 427              		.thumb_func
 428              		.type	EE_Init, %function
 429              	EE_Init:
 430              	.LFB219:
 431              		.loc 1 57 0
 432              		.cfi_startproc
 433              		@ args = 0, pretend = 0, frame = 0
 434              		@ frame_needed = 0, uses_anonymous_args = 0
 435              	.LVL60:
 436 0000 2DE9F041 		push	{r4, r5, r6, r7, r8, lr}
 437              		.cfi_def_cfa_offset 24
 438              		.cfi_offset 4, -24
 439              		.cfi_offset 5, -20
 440              		.cfi_offset 6, -16
 441              		.cfi_offset 7, -12
 442              		.cfi_offset 8, -8
 443              		.cfi_offset 14, -4
 444              		.loc 1 65 0
 445 0004 484D     		ldr	r5, .L93
 446              		.loc 1 67 0
 447 0006 494E     		ldr	r6, .L93+4
 448              		.loc 1 65 0
 449 0008 2C88     		ldrh	r4, [r5]
 450              		.loc 1 67 0
 451 000a 3388     		ldrh	r3, [r6]
 452              		.loc 1 65 0
 453 000c A4B2     		uxth	r4, r4
 454              	.LVL61:
 455              		.loc 1 70 0
 456 000e 4EF6EE62 		movw	r2, #61166
ARM GAS  /tmp/ccvmsHag.s 			page 9


 457 0012 9442     		cmp	r4, r2
 458              		.loc 1 67 0
 459 0014 9BB2     		uxth	r3, r3
 460              	.LVL62:
 461              		.loc 1 70 0
 462 0016 48D0     		beq	.L56
 463 0018 4FF6FF78 		movw	r8, #65535
 464 001c 4445     		cmp	r4, r8
 465 001e 34D0     		beq	.L57
 466 0020 24B1     		cbz	r4, .L92
 467              	.L87:
 468              		.loc 1 249 0
 469 0022 FFF7FEFF 		bl	EE_Format
 470              	.LVL63:
 471 0026 80B2     		uxth	r0, r0
 472              	.LVL64:
 473              	.L61:
 474              		.loc 1 259 0
 475 0028 BDE8F081 		pop	{r4, r5, r6, r7, r8, pc}
 476              	.LVL65:
 477              	.L92:
 478              		.loc 1 184 0
 479 002c 002B     		cmp	r3, #0
 480 002e F8D0     		beq	.L87
 481              		.loc 1 194 0
 482 0030 4345     		cmp	r3, r8
 483 0032 64D0     		beq	.L90
 484 0034 3E4D     		ldr	r5, .L93+8
 485              		.loc 1 209 0
 486 0036 3F4E     		ldr	r6, .L93+12
 487              		.loc 1 216 0
 488 0038 3F4F     		ldr	r7, .L93+16
 489              	.LVL66:
 490              	.L69:
 491              		.loc 1 209 0
 492 003a 3388     		ldrh	r3, [r6]
 493 003c 35F8022F 		ldrh	r2, [r5, #2]!
 494              		.loc 1 216 0
 495 0040 3D49     		ldr	r1, .L93+16
 496              		.loc 1 209 0
 497 0042 9BB2     		uxth	r3, r3
 498 0044 9342     		cmp	r3, r2
 499              		.loc 1 211 0
 500 0046 08BF     		it	eq
 501 0048 1FFA84F8 		uxtheq	r8, r4
 502              	.LVL67:
 503              		.loc 1 213 0
 504 004c 0FFA88F3 		sxth	r3, r8
 505 0050 9C42     		cmp	r4, r3
 506              		.loc 1 216 0
 507 0052 1046     		mov	r0, r2
 508 0054 04F10104 		add	r4, r4, #1
 509              	.LVL68:
 510              		.loc 1 213 0
 511 0058 09D0     		beq	.L68
 512              		.loc 1 216 0
 513 005a FFF7FEFF 		bl	EE_ReadVariable
ARM GAS  /tmp/ccvmsHag.s 			page 10


 514              	.LVL69:
 515              		.loc 1 218 0
 516 005e 0128     		cmp	r0, #1
 517 0060 05D0     		beq	.L68
 518              		.loc 1 221 0
 519 0062 2888     		ldrh	r0, [r5]
 520              	.LVL70:
 521 0064 3988     		ldrh	r1, [r7]
 522 0066 FFF7FEFF 		bl	EE_VerifyPageFullWriteVariable
 523              	.LVL71:
 524              		.loc 1 223 0
 525 006a 0928     		cmp	r0, #9
 526 006c DCD1     		bne	.L61
 527              	.LVL72:
 528              	.L68:
 529              		.loc 1 207 0
 530 006e A02C     		cmp	r4, #160
 531 0070 E3D1     		bne	.L69
 532              		.loc 1 231 0
 533 0072 2E48     		ldr	r0, .L93+4
 534 0074 0021     		movs	r1, #0
 535 0076 FFF7FEFF 		bl	FLASH_ProgramHalfWord
 536              	.LVL73:
 537 007a 80B2     		uxth	r0, r0
 538              	.LVL74:
 539              		.loc 1 233 0
 540 007c 0928     		cmp	r0, #9
 541 007e D3D1     		bne	.L61
 542              	.LVL75:
 543              	.L89:
 544              		.loc 1 238 0
 545 0080 0820     		movs	r0, #8
 546              		.loc 1 259 0
 547 0082 BDE8F041 		pop	{r4, r5, r6, r7, r8, lr}
 548              		.cfi_remember_state
 549              		.cfi_restore 14
 550              		.cfi_restore 8
 551              		.cfi_restore 7
 552              		.cfi_restore 6
 553              		.cfi_restore 5
 554              		.cfi_restore 4
 555              		.cfi_def_cfa_offset 0
 556              		.loc 1 238 0
 557 0086 FFF7FEBF 		b	EE_EraseSectorIfNotEmpty.constprop.1
 558              	.LVL76:
 559              	.L57:
 560              		.cfi_restore_state
 561              		.loc 1 73 0
 562 008a 002B     		cmp	r3, #0
 563 008c F8D0     		beq	.L89
 564              		.loc 1 83 0
 565 008e 9342     		cmp	r3, r2
 566 0090 C7D1     		bne	.L87
 567              		.loc 1 86 0
 568 0092 0820     		movs	r0, #8
 569 0094 FFF7FEFF 		bl	EE_EraseSectorIfNotEmpty.constprop.1
 570              	.LVL77:
ARM GAS  /tmp/ccvmsHag.s 			page 11


 571              		.loc 1 88 0
 572 0098 0928     		cmp	r0, #9
 573 009a C5D1     		bne	.L61
 574              		.loc 1 93 0
 575 009c 3046     		mov	r0, r6
 576              	.LVL78:
 577 009e 0021     		movs	r1, #0
 578 00a0 FFF7FEFF 		bl	FLASH_ProgramHalfWord
 579              	.LVL79:
 580 00a4 80B2     		uxth	r0, r0
 581 00a6 BDE8F081 		pop	{r4, r5, r6, r7, r8, pc}
 582              	.LVL80:
 583              	.L56:
 584              		.loc 1 113 0
 585 00aa 6BBB     		cbnz	r3, .L62
 586 00ac 204D     		ldr	r5, .L93+8
 587              		.loc 1 118 0
 588 00ae 234E     		ldr	r6, .L93+20
 589              		.loc 1 125 0
 590 00b0 214F     		ldr	r7, .L93+16
 591              		.loc 1 113 0
 592 00b2 1C46     		mov	r4, r3
 593              	.LVL81:
 594 00b4 4FF6FF78 		movw	r8, #65535
 595              	.LVL82:
 596              	.L65:
 597              		.loc 1 118 0
 598 00b8 3388     		ldrh	r3, [r6]
 599 00ba 35F8022F 		ldrh	r2, [r5, #2]!
 600              		.loc 1 125 0
 601 00be 1E49     		ldr	r1, .L93+16
 602              		.loc 1 118 0
 603 00c0 9BB2     		uxth	r3, r3
 604 00c2 9342     		cmp	r3, r2
 605              		.loc 1 120 0
 606 00c4 08BF     		it	eq
 607 00c6 1FFA84F8 		uxtheq	r8, r4
 608              	.LVL83:
 609              		.loc 1 122 0
 610 00ca 0FFA88F3 		sxth	r3, r8
 611 00ce 9C42     		cmp	r4, r3
 612              		.loc 1 125 0
 613 00d0 1046     		mov	r0, r2
 614 00d2 04F10104 		add	r4, r4, #1
 615              	.LVL84:
 616              		.loc 1 122 0
 617 00d6 09D0     		beq	.L64
 618              		.loc 1 125 0
 619 00d8 FFF7FEFF 		bl	EE_ReadVariable
 620              	.LVL85:
 621              		.loc 1 127 0
 622 00dc 0128     		cmp	r0, #1
 623 00de 05D0     		beq	.L64
 624              		.loc 1 130 0
 625 00e0 2888     		ldrh	r0, [r5]
 626              	.LVL86:
 627 00e2 3988     		ldrh	r1, [r7]
ARM GAS  /tmp/ccvmsHag.s 			page 12


 628 00e4 FFF7FEFF 		bl	EE_VerifyPageFullWriteVariable
 629              	.LVL87:
 630              		.loc 1 132 0
 631 00e8 0928     		cmp	r0, #9
 632 00ea 9DD1     		bne	.L61
 633              	.LVL88:
 634              	.L64:
 635              		.loc 1 116 0
 636 00ec A02C     		cmp	r4, #160
 637 00ee E3D1     		bne	.L65
 638              		.loc 1 140 0
 639 00f0 0D48     		ldr	r0, .L93
 640 00f2 0021     		movs	r1, #0
 641 00f4 FFF7FEFF 		bl	FLASH_ProgramHalfWord
 642              	.LVL89:
 643 00f8 80B2     		uxth	r0, r0
 644              	.LVL90:
 645              		.loc 1 142 0
 646 00fa 0928     		cmp	r0, #9
 647 00fc 94D1     		bne	.L61
 648              	.LVL91:
 649              	.L90:
 650              		.loc 1 197 0
 651 00fe 1020     		movs	r0, #16
 652              		.loc 1 259 0
 653 0100 BDE8F041 		pop	{r4, r5, r6, r7, r8, lr}
 654              		.cfi_remember_state
 655              		.cfi_restore 14
 656              		.cfi_restore 8
 657              		.cfi_restore 7
 658              		.cfi_restore 6
 659              		.cfi_restore 5
 660              		.cfi_restore 4
 661              		.cfi_def_cfa_offset 0
 662              		.loc 1 197 0
 663 0104 FFF7FEBF 		b	EE_EraseSectorIfNotEmpty.constprop.1
 664              	.LVL92:
 665              	.L62:
 666              		.cfi_restore_state
 667              		.loc 1 154 0
 668 0108 4FF6FF72 		movw	r2, #65535
 669 010c 9342     		cmp	r3, r2
 670 010e 88D1     		bne	.L87
 671              		.loc 1 157 0
 672 0110 1020     		movs	r0, #16
 673 0112 FFF7FEFF 		bl	EE_EraseSectorIfNotEmpty.constprop.1
 674              	.LVL93:
 675              		.loc 1 159 0
 676 0116 0928     		cmp	r0, #9
 677 0118 86D1     		bne	.L61
 678              		.loc 1 164 0
 679 011a 2846     		mov	r0, r5
 680              	.LVL94:
 681 011c 0021     		movs	r1, #0
 682 011e FFF7FEFF 		bl	FLASH_ProgramHalfWord
 683              	.LVL95:
 684 0122 80B2     		uxth	r0, r0
ARM GAS  /tmp/ccvmsHag.s 			page 13


 685 0124 BDE8F081 		pop	{r4, r5, r6, r7, r8, pc}
 686              	.LVL96:
 687              	.L94:
 688              		.align	2
 689              	.L93:
 690 0128 00400008 		.word	134234112
 691 012c 00800008 		.word	134250496
 692 0130 FEFFFFFF 		.word	VirtAddVarTab-2
 693 0134 06800008 		.word	134250502
 694 0138 00000000 		.word	.LANCHOR0
 695 013c 06400008 		.word	134234118
 696              		.cfi_endproc
 697              	.LFE219:
 698              		.size	EE_Init, .-EE_Init
 699              		.section	.text.EE_WriteVariable,"ax",%progbits
 700              		.align	2
 701              		.p2align 4,,15
 702              		.global	EE_WriteVariable
 703              		.thumb
 704              		.thumb_func
 705              		.type	EE_WriteVariable, %function
 706              	EE_WriteVariable:
 707              	.LFB221:
 708              		.loc 1 331 0
 709              		.cfi_startproc
 710              		@ args = 0, pretend = 0, frame = 0
 711              		@ frame_needed = 0, uses_anonymous_args = 0
 712              	.LVL97:
 713 0000 2DE9F047 		push	{r4, r5, r6, r7, r8, r9, r10, lr}
 714              		.cfi_def_cfa_offset 32
 715              		.cfi_offset 4, -32
 716              		.cfi_offset 5, -28
 717              		.cfi_offset 6, -24
 718              		.cfi_offset 7, -20
 719              		.cfi_offset 8, -16
 720              		.cfi_offset 9, -12
 721              		.cfi_offset 10, -8
 722              		.cfi_offset 14, -4
 723              		.loc 1 331 0
 724 0004 0546     		mov	r5, r0
 725 0006 0E46     		mov	r6, r1
 726              		.loc 1 335 0
 727 0008 FFF7FEFF 		bl	EE_VerifyPageFullWriteVariable
 728              	.LVL98:
 729              		.loc 1 338 0
 730 000c 8028     		cmp	r0, #128
 731              		.loc 1 335 0
 732 000e 0446     		mov	r4, r0
 733              	.LVL99:
 734              		.loc 1 338 0
 735 0010 02D0     		beq	.L114
 736              	.LVL100:
 737              	.L96:
 738              		.loc 1 346 0
 739 0012 2046     		mov	r0, r4
 740 0014 BDE8F087 		pop	{r4, r5, r6, r7, r8, r9, r10, pc}
 741              	.LVL101:
ARM GAS  /tmp/ccvmsHag.s 			page 14


 742              	.L114:
 743              	.LBB29:
 744              	.LBB30:
 745              	.LBB31:
 746              	.LBB32:
 747              		.loc 1 397 0
 748 0018 2449     		ldr	r1, .L118
 749              		.loc 1 400 0
 750 001a 2548     		ldr	r0, .L118+4
 751              	.LVL102:
 752              		.loc 1 397 0
 753 001c 0B88     		ldrh	r3, [r1]
 754              		.loc 1 400 0
 755 001e 0288     		ldrh	r2, [r0]
 756              		.loc 1 397 0
 757 0020 9BB2     		uxth	r3, r3
 758              	.LVL103:
 759              		.loc 1 400 0
 760 0022 92B2     		uxth	r2, r2
 761              	.LVL104:
 762              		.loc 1 436 0
 763 0024 13B1     		cbz	r3, .L102
 764              		.loc 1 440 0
 765 0026 6AB1     		cbz	r2, .L115
 766              	.LBE32:
 767              	.LBE31:
 768              		.loc 1 554 0
 769 0028 AB24     		movs	r4, #171
 770 002a F2E7     		b	.L96
 771              	.L102:
 772              		.loc 1 547 0
 773 002c 0746     		mov	r7, r0
 774              		.loc 1 550 0
 775 002e 4FF00808 		mov	r8, #8
 776              	.L97:
 777              	.LVL105:
 778              		.loc 1 558 0
 779 0032 3846     		mov	r0, r7
 780 0034 4EF6EE61 		movw	r1, #61166
 781 0038 FFF7FEFF 		bl	FLASH_ProgramHalfWord
 782              	.LVL106:
 783              		.loc 1 560 0
 784 003c 0928     		cmp	r0, #9
 785 003e 05D0     		beq	.L116
 786              	.LVL107:
 787              	.L113:
 788              		.loc 1 607 0
 789 0040 84B2     		uxth	r4, r0
 790 0042 E6E7     		b	.L96
 791              	.LVL108:
 792              	.L115:
 793              		.loc 1 539 0
 794 0044 0F46     		mov	r7, r1
 795              		.loc 1 542 0
 796 0046 4FF01008 		mov	r8, #16
 797 004a F2E7     		b	.L97
 798              	.LVL109:
ARM GAS  /tmp/ccvmsHag.s 			page 15


 799              	.L116:
 800              		.loc 1 566 0
 801 004c 3146     		mov	r1, r6
 802 004e 2846     		mov	r0, r5
 803              	.LVL110:
 804 0050 FFF7FEFF 		bl	EE_VerifyPageFullWriteVariable
 805              	.LVL111:
 806              		.loc 1 568 0
 807 0054 0928     		cmp	r0, #9
 808              		.loc 1 566 0
 809 0056 0446     		mov	r4, r0
 810              	.LVL112:
 811              		.loc 1 568 0
 812 0058 DBD1     		bne	.L96
 813 005a 164E     		ldr	r6, .L118+8
 814              	.LVL113:
 815              		.loc 1 579 0
 816 005c DFF858A0 		ldr	r10, .L118+12
 817 0060 06F5A079 		add	r9, r6, #320
 818 0064 01E0     		b	.L100
 819              	.LVL114:
 820              	.L99:
 821              		.loc 1 574 0
 822 0066 4E45     		cmp	r6, r9
 823 0068 12D0     		beq	.L117
 824              	.L100:
 825              		.loc 1 576 0
 826 006a 36F8023F 		ldrh	r3, [r6, #2]!
 827              		.loc 1 579 0
 828 006e 1249     		ldr	r1, .L118+12
 829              		.loc 1 576 0
 830 0070 9D42     		cmp	r5, r3
 831              		.loc 1 579 0
 832 0072 1846     		mov	r0, r3
 833              		.loc 1 576 0
 834 0074 F7D0     		beq	.L99
 835              		.loc 1 579 0
 836 0076 FFF7FEFF 		bl	EE_ReadVariable
 837              	.LVL115:
 838              		.loc 1 581 0
 839 007a 0128     		cmp	r0, #1
 840 007c F3D0     		beq	.L99
 841              		.loc 1 584 0
 842 007e 3088     		ldrh	r0, [r6]
 843              	.LVL116:
 844 0080 BAF80010 		ldrh	r1, [r10]
 845 0084 FFF7FEFF 		bl	EE_VerifyPageFullWriteVariable
 846              	.LVL117:
 847              		.loc 1 586 0
 848 0088 0928     		cmp	r0, #9
 849 008a ECD0     		beq	.L99
 850 008c 0446     		mov	r4, r0
 851 008e C0E7     		b	.L96
 852              	.LVL118:
 853              	.L117:
 854              		.loc 1 595 0
 855 0090 4046     		mov	r0, r8
ARM GAS  /tmp/ccvmsHag.s 			page 16


 856 0092 FFF7FEFF 		bl	EE_EraseSectorIfNotEmpty.constprop.1
 857              	.LVL119:
 858              		.loc 1 597 0
 859 0096 C0B2     		uxtb	r0, r0
 860 0098 0928     		cmp	r0, #9
 861 009a D1D1     		bne	.L113
 862              		.loc 1 603 0
 863 009c 3846     		mov	r0, r7
 864              	.LVL120:
 865 009e 0021     		movs	r1, #0
 866 00a0 FFF7FEFF 		bl	FLASH_ProgramHalfWord
 867              	.LVL121:
 868              		.loc 1 605 0
 869 00a4 0928     		cmp	r0, #9
 870 00a6 CBD1     		bne	.L113
 871 00a8 B3E7     		b	.L96
 872              	.L119:
 873 00aa 00BF     		.align	2
 874              	.L118:
 875 00ac 00400008 		.word	134234112
 876 00b0 00800008 		.word	134250496
 877 00b4 FEFFFFFF 		.word	VirtAddVarTab-2
 878 00b8 00000000 		.word	.LANCHOR0
 879              	.LBE30:
 880              	.LBE29:
 881              		.cfi_endproc
 882              	.LFE221:
 883              		.size	EE_WriteVariable, .-EE_WriteVariable
 884              		.global	DataVar
 885              		.section	.bss.DataVar,"aw",%nobits
 886              		.align	1
 887              		.set	.LANCHOR0,. + 0
 888              		.type	DataVar, %object
 889              		.size	DataVar, 2
 890              	DataVar:
 891 0000 0000     		.space	2
 892              		.text
 893              	.Letext0:
 894              		.file 2 "/usr/arm-none-eabi/include/machine/_default_types.h"
 895              		.file 3 "/usr/arm-none-eabi/include/sys/_stdint.h"
 896              		.file 4 "ChibiOS_3.0.2/ext/stdperiph_stm32f4/inc/stm32f4xx_flash.h"
 897              		.file 5 "/usr/lib/gcc/arm-none-eabi/4.9.3/include/stddef.h"
 898              		.file 6 "ChibiOS_3.0.2/os/rt/ports/ARMCMx/compilers/GCC/chtypes.h"
 899              		.file 7 "ChibiOS_3.0.2/os/rt/include/chsystypes.h"
 900              		.file 8 "ChibiOS_3.0.2/os/rt/include/chschd.h"
 901              		.file 9 "ChibiOS_3.0.2/os/rt/ports/ARMCMx/chcore.h"
 902              		.file 10 "ChibiOS_3.0.2/os/rt/ports/ARMCMx/chcore_v7m.h"
 903              		.file 11 "ChibiOS_3.0.2/os/rt/include/chtm.h"
 904              		.file 12 "ChibiOS_3.0.2/os/rt/include/chsem.h"
 905              		.file 13 "ChibiOS_3.0.2/os/rt/include/chmtx.h"
 906              		.file 14 "ChibiOS_3.0.2/os/ext/CMSIS/include/core_cm4.h"
 907              		.file 15 "flash_helper.h"