ARM GAS  /tmp/ccjilQex.s 			page 1


   1              		.syntax unified
   2              		.cpu cortex-m4
   3              		.eabi_attribute 27, 1
   4              		.eabi_attribute 28, 1
   5              		.fpu fpv4-sp-d16
   6              		.eabi_attribute 20, 1
   7              		.eabi_attribute 21, 1
   8              		.eabi_attribute 23, 3
   9              		.eabi_attribute 24, 1
  10              		.eabi_attribute 25, 1
  11              		.eabi_attribute 26, 1
  12              		.eabi_attribute 30, 2
  13              		.eabi_attribute 34, 1
  14              		.eabi_attribute 18, 4
  15              		.thumb
  16              		.file	"encoder.c"
  17              		.text
  18              	.Ltext0:
  19              		.cfi_sections	.debug_frame
  20              		.section	.text.encoder_init,"ax",%progbits
  21              		.align	2
  22              		.p2align 4,,15
  23              		.global	encoder_init
  24              		.thumb
  25              		.thumb_func
  26              		.type	encoder_init, %function
  27              	encoder_init:
  28              	.LFB256:
  29              		.file 1 "encoder.c"
  30              		.loc 1 35 0
  31              		.cfi_startproc
  32              		@ args = 0, pretend = 0, frame = 16
  33              		@ frame_needed = 0, uses_anonymous_args = 0
  34              	.LVL0:
  35 0000 70B5     		push	{r4, r5, r6, lr}
  36              		.cfi_def_cfa_offset 16
  37              		.cfi_offset 4, -16
  38              		.cfi_offset 5, -12
  39              		.cfi_offset 6, -8
  40              		.cfi_offset 14, -4
  41              		.loc 1 41 0
  42 0002 274E     		ldr	r6, .L3
  43              		.loc 1 43 0
  44 0004 274D     		ldr	r5, .L3+4
  45              		.loc 1 40 0
  46 0006 284B     		ldr	r3, .L3+8
  47              		.loc 1 41 0
  48 0008 3060     		str	r0, [r6]
  49              		.loc 1 35 0
  50 000a 84B0     		sub	sp, sp, #16
  51              		.cfi_def_cfa_offset 32
  52              		.loc 1 40 0
  53 000c 0024     		movs	r4, #0
  54              		.loc 1 43 0
  55 000e 2846     		mov	r0, r5
  56              	.LVL1:
  57 0010 4021     		movs	r1, #64
ARM GAS  /tmp/ccjilQex.s 			page 2


  58 0012 4FF48D72 		mov	r2, #282
  59              		.loc 1 40 0
  60 0016 1C70     		strb	r4, [r3]
  61              		.loc 1 43 0
  62 0018 FFF7FEFF 		bl	_pal_lld_setgroupmode
  63              	.LVL2:
  64              		.loc 1 48 0
  65 001c 4FF48D72 		mov	r2, #282
  66 0020 2846     		mov	r0, r5
  67 0022 8021     		movs	r1, #128
  68 0024 FFF7FEFF 		bl	_pal_lld_setgroupmode
  69              	.LVL3:
  70              		.loc 1 54 0
  71 0028 0420     		movs	r0, #4
  72 002a 0121     		movs	r1, #1
  73 002c FFF7FEFF 		bl	RCC_APB1PeriphClockCmd
  74              	.LVL4:
  75              		.loc 1 59 0
  76 0030 A5F5FE35 		sub	r5, r5, #130048
  77              		.loc 1 57 0
  78 0034 4FF48040 		mov	r0, #16384
  79 0038 0121     		movs	r1, #1
  80 003a FFF7FEFF 		bl	RCC_APB2PeriphClockCmd
  81              	.LVL5:
  82              		.loc 1 59 0
  83 003e 2246     		mov	r2, r4
  84 0040 2346     		mov	r3, r4
  85 0042 2846     		mov	r0, r5
  86 0044 0321     		movs	r1, #3
  87 0046 FFF7FEFF 		bl	TIM_EncoderInterfaceConfig
  88              	.LVL6:
  89              		.loc 1 62 0
  90 004a 3168     		ldr	r1, [r6]
  91 004c 2846     		mov	r0, r5
  92 004e 0139     		subs	r1, r1, #1
  93 0050 FFF7FEFF 		bl	TIM_SetAutoreload
  94              	.LVL7:
  95              		.loc 1 64 0
  96 0054 2846     		mov	r0, r5
  97 0056 0121     		movs	r1, #1
  98 0058 FFF7FEFF 		bl	TIM_Cmd
  99              	.LVL8:
 100              		.loc 1 69 0
 101 005c 0B21     		movs	r1, #11
 102 005e 0220     		movs	r0, #2
 103 0060 FFF7FEFF 		bl	SYSCFG_EXTILineConfig
 104              	.LVL9:
 105              		.loc 1 74 0
 106 0064 0823     		movs	r3, #8
 107              		.loc 1 72 0
 108 0066 4FF40062 		mov	r2, #2048
 109              		.loc 1 76 0
 110 006a 0DEB0300 		add	r0, sp, r3
 111              		.loc 1 75 0
 112 006e 0125     		movs	r5, #1
 113              		.loc 1 72 0
 114 0070 0292     		str	r2, [sp, #8]
ARM GAS  /tmp/ccjilQex.s 			page 3


 115              		.loc 1 74 0
 116 0072 8DF80D30 		strb	r3, [sp, #13]
 117              		.loc 1 73 0
 118 0076 8DF80C40 		strb	r4, [sp, #12]
 119              		.loc 1 75 0
 120 007a 8DF80E50 		strb	r5, [sp, #14]
 121              		.loc 1 76 0
 122 007e FFF7FEFF 		bl	EXTI_Init
 123              	.LVL10:
 124              		.loc 1 79 0
 125 0082 2823     		movs	r3, #40
 126              		.loc 1 83 0
 127 0084 01A8     		add	r0, sp, #4
 128              		.loc 1 82 0
 129 0086 8DF80750 		strb	r5, [sp, #7]
 130              		.loc 1 80 0
 131 008a 8DF80540 		strb	r4, [sp, #5]
 132              		.loc 1 81 0
 133 008e 8DF80640 		strb	r4, [sp, #6]
 134              		.loc 1 79 0
 135 0092 8DF80430 		strb	r3, [sp, #4]
 136              		.loc 1 83 0
 137 0096 FFF7FEFF 		bl	NVIC_Init
 138              	.LVL11:
 139              		.loc 1 84 0
 140 009a 04B0     		add	sp, sp, #16
 141              		.cfi_def_cfa_offset 16
 142              		@ sp needed
 143 009c 70BD     		pop	{r4, r5, r6, pc}
 144              	.L4:
 145 009e 00BF     		.align	2
 146              	.L3:
 147 00a0 00000000 		.word	.LANCHOR1
 148 00a4 00040240 		.word	1073873920
 149 00a8 00000000 		.word	.LANCHOR0
 150              		.cfi_endproc
 151              	.LFE256:
 152              		.size	encoder_init, .-encoder_init
 153              		.section	.text.encoder_read_deg,"ax",%progbits
 154              		.align	2
 155              		.p2align 4,,15
 156              		.global	encoder_read_deg
 157              		.thumb
 158              		.thumb_func
 159              		.type	encoder_read_deg, %function
 160              	encoder_read_deg:
 161              	.LFB257:
 162              		.loc 1 86 0
 163              		.cfi_startproc
 164              		@ args = 0, pretend = 0, frame = 0
 165              		@ frame_needed = 0, uses_anonymous_args = 0
 166              		@ link register save eliminated.
 167              		.loc 1 87 0
 168 0000 084A     		ldr	r2, .L6
 169 0002 094B     		ldr	r3, .L6+4
 170 0004 D2ED097A 		flds	s15, [r2, #36]	@ int
 171 0008 9FED087A 		flds	s14, .L6+8
ARM GAS  /tmp/ccjilQex.s 			page 4


 172 000c 93ED000A 		flds	s0, [r3]	@ int
 173 0010 F8EE677A 		fuitos	s15, s15
 174 0014 B8EE400A 		fuitos	s0, s0
 175 0018 67EE877A 		fmuls	s15, s15, s14
 176              		.loc 1 88 0
 177 001c 87EE800A 		fdivs	s0, s15, s0
 178 0020 7047     		bx	lr
 179              	.L7:
 180 0022 00BF     		.align	2
 181              	.L6:
 182 0024 00080040 		.word	1073743872
 183 0028 00000000 		.word	.LANCHOR1
 184 002c 0000B443 		.word	1135869952
 185              		.cfi_endproc
 186              	.LFE257:
 187              		.size	encoder_read_deg, .-encoder_read_deg
 188              		.section	.text.encoder_reset,"ax",%progbits
 189              		.align	2
 190              		.p2align 4,,15
 191              		.global	encoder_reset
 192              		.thumb
 193              		.thumb_func
 194              		.type	encoder_reset, %function
 195              	encoder_reset:
 196              	.LFB258:
 197              		.loc 1 93 0
 198              		.cfi_startproc
 199              		@ args = 0, pretend = 0, frame = 0
 200              		@ frame_needed = 0, uses_anonymous_args = 0
 201              		@ link register save eliminated.
 202              		.loc 1 94 0
 203 0000 0349     		ldr	r1, .L9
 204              		.loc 1 95 0
 205 0002 044B     		ldr	r3, .L9+4
 206              		.loc 1 94 0
 207 0004 0020     		movs	r0, #0
 208              		.loc 1 95 0
 209 0006 0122     		movs	r2, #1
 210              		.loc 1 94 0
 211 0008 4862     		str	r0, [r1, #36]
 212              		.loc 1 95 0
 213 000a 1A70     		strb	r2, [r3]
 214 000c 7047     		bx	lr
 215              	.L10:
 216 000e 00BF     		.align	2
 217              	.L9:
 218 0010 00080040 		.word	1073743872
 219 0014 00000000 		.word	.LANCHOR0
 220              		.cfi_endproc
 221              	.LFE258:
 222              		.size	encoder_reset, .-encoder_reset
 223              		.section	.text.encoder_set_counts,"ax",%progbits
 224              		.align	2
 225              		.p2align 4,,15
 226              		.global	encoder_set_counts
 227              		.thumb
 228              		.thumb_func
ARM GAS  /tmp/ccjilQex.s 			page 5


 229              		.type	encoder_set_counts, %function
 230              	encoder_set_counts:
 231              	.LFB259:
 232              		.loc 1 104 0
 233              		.cfi_startproc
 234              		@ args = 0, pretend = 0, frame = 0
 235              		@ frame_needed = 0, uses_anonymous_args = 0
 236              	.LVL12:
 237              		.loc 1 105 0
 238 0000 074A     		ldr	r2, .L15
 239              		.loc 1 104 0
 240 0002 08B5     		push	{r3, lr}
 241              		.cfi_def_cfa_offset 8
 242              		.cfi_offset 3, -8
 243              		.cfi_offset 14, -4
 244              		.loc 1 105 0
 245 0004 1368     		ldr	r3, [r2]
 246 0006 9842     		cmp	r0, r3
 247 0008 08D0     		beq	.L11
 248 000a 0346     		mov	r3, r0
 249              		.loc 1 107 0
 250 000c 411E     		subs	r1, r0, #1
 251 000e 0548     		ldr	r0, .L15+4
 252              	.LVL13:
 253              		.loc 1 106 0
 254 0010 1360     		str	r3, [r2]
 255              		.loc 1 107 0
 256 0012 FFF7FEFF 		bl	TIM_SetAutoreload
 257              	.LVL14:
 258              		.loc 1 108 0
 259 0016 044B     		ldr	r3, .L15+8
 260 0018 0022     		movs	r2, #0
 261 001a 1A70     		strb	r2, [r3]
 262              	.L11:
 263 001c 08BD     		pop	{r3, pc}
 264              	.L16:
 265 001e 00BF     		.align	2
 266              	.L15:
 267 0020 00000000 		.word	.LANCHOR1
 268 0024 00080040 		.word	1073743872
 269 0028 00000000 		.word	.LANCHOR0
 270              		.cfi_endproc
 271              	.LFE259:
 272              		.size	encoder_set_counts, .-encoder_set_counts
 273              		.section	.text.encoder_index_found,"ax",%progbits
 274              		.align	2
 275              		.p2align 4,,15
 276              		.global	encoder_index_found
 277              		.thumb
 278              		.thumb_func
 279              		.type	encoder_index_found, %function
 280              	encoder_index_found:
 281              	.LFB260:
 282              		.loc 1 118 0
 283              		.cfi_startproc
 284              		@ args = 0, pretend = 0, frame = 0
 285              		@ frame_needed = 0, uses_anonymous_args = 0
ARM GAS  /tmp/ccjilQex.s 			page 6


 286              		@ link register save eliminated.
 287              		.loc 1 119 0
 288 0000 014B     		ldr	r3, .L18
 289              		.loc 1 120 0
 290 0002 1878     		ldrb	r0, [r3]	@ zero_extendqisi2
 291 0004 7047     		bx	lr
 292              	.L19:
 293 0006 00BF     		.align	2
 294              	.L18:
 295 0008 00000000 		.word	.LANCHOR0
 296              		.cfi_endproc
 297              	.LFE260:
 298              		.size	encoder_index_found, .-encoder_index_found
 299              		.section	.data.enc_counts,"aw",%progbits
 300              		.align	2
 301              		.set	.LANCHOR1,. + 0
 302              		.type	enc_counts, %object
 303              		.size	enc_counts, 4
 304              	enc_counts:
 305 0000 10270000 		.word	10000
 306              		.section	.bss.index_found,"aw",%nobits
 307              		.set	.LANCHOR0,. + 0
 308              		.type	index_found, %object
 309              		.size	index_found, 1
 310              	index_found:
 311 0000 00       		.space	1
 312              		.text
 313              	.Letext0:
 314              		.file 2 "/usr/arm-none-eabi/include/machine/_default_types.h"
 315              		.file 3 "/usr/arm-none-eabi/include/sys/_stdint.h"
 316              		.file 4 "/usr/lib/gcc/arm-none-eabi/4.9.3/include/stddef.h"
 317              		.file 5 "ChibiOS_3.0.2/os/rt/ports/ARMCMx/compilers/GCC/chtypes.h"
 318              		.file 6 "ChibiOS_3.0.2/os/rt/include/chsystypes.h"
 319              		.file 7 "ChibiOS_3.0.2/os/rt/include/chschd.h"
 320              		.file 8 "ChibiOS_3.0.2/os/ext/CMSIS/ST/stm32f407xx.h"
 321              		.file 9 "ChibiOS_3.0.2/os/ext/CMSIS/ST/stm32f4xx.h"
 322              		.file 10 "ChibiOS_3.0.2/os/rt/ports/ARMCMx/chcore.h"
 323              		.file 11 "ChibiOS_3.0.2/os/rt/ports/ARMCMx/chcore_v7m.h"
 324              		.file 12 "ChibiOS_3.0.2/os/rt/include/chtm.h"
 325              		.file 13 "ChibiOS_3.0.2/os/rt/include/chsem.h"
 326              		.file 14 "ChibiOS_3.0.2/os/rt/include/chmtx.h"
 327              		.file 15 "ChibiOS_3.0.2/os/hal/ports/STM32/LLD/GPIOv2/pal_lld.h"
 328              		.file 16 "ChibiOS_3.0.2/ext/stdperiph_stm32f4/inc/misc.h"
 329              		.file 17 "ChibiOS_3.0.2/ext/stdperiph_stm32f4/inc/stm32f4xx_exti.h"
 330              		.file 18 "ChibiOS_3.0.2/ext/stdperiph_stm32f4/inc/stm32f4xx_rcc.h"
 331              		.file 19 "ChibiOS_3.0.2/ext/stdperiph_stm32f4/inc/stm32f4xx_tim.h"
 332              		.file 20 "ChibiOS_3.0.2/ext/stdperiph_stm32f4/inc/stm32f4xx_syscfg.h"
 333              		.file 21 "ChibiOS_3.0.2/os/ext/CMSIS/include/core_cm4.h"