ARM GAS  /tmp/ccO5RPHd.s 			page 1


   1              		.syntax unified
   2              		.cpu cortex-m4
   3              		.eabi_attribute 27, 1
   4              		.eabi_attribute 28, 1
   5              		.fpu fpv4-sp-d16
   6              		.eabi_attribute 20, 1
   7              		.eabi_attribute 21, 1
   8              		.eabi_attribute 23, 3
   9              		.eabi_attribute 24, 1
  10              		.eabi_attribute 25, 1
  11              		.eabi_attribute 26, 1
  12              		.eabi_attribute 30, 2
  13              		.eabi_attribute 34, 1
  14              		.eabi_attribute 18, 4
  15              		.thumb
  16              		.file	"i2c.c"
  17              		.text
  18              	.Ltext0:
  19              		.cfi_sections	.debug_frame
  20              		.section	.text.i2cInit,"ax",%progbits
  21              		.align	2
  22              		.p2align 4,,15
  23              		.global	i2cInit
  24              		.thumb
  25              		.thumb_func
  26              		.type	i2cInit, %function
  27              	i2cInit:
  28              	.LFB256:
  29              		.file 1 "ChibiOS_3.0.2/os/hal/src/i2c.c"
  30              		.loc 1 59 0
  31              		.cfi_startproc
  32              		@ args = 0, pretend = 0, frame = 0
  33              		@ frame_needed = 0, uses_anonymous_args = 0
  34              		@ link register save eliminated.
  35              		.loc 1 61 0
  36 0000 FFF7FEBF 		b	i2c_lld_init
  37              	.LVL0:
  38              		.cfi_endproc
  39              	.LFE256:
  40              		.size	i2cInit, .-i2cInit
  41              		.section	.text.i2cObjectInit,"ax",%progbits
  42              		.align	2
  43              		.p2align 4,,15
  44              		.global	i2cObjectInit
  45              		.thumb
  46              		.thumb_func
  47              		.type	i2cObjectInit, %function
  48              	i2cObjectInit:
  49              	.LFB257:
  50              		.loc 1 71 0
  51              		.cfi_startproc
  52              		@ args = 0, pretend = 0, frame = 0
  53              		@ frame_needed = 0, uses_anonymous_args = 0
  54              		@ link register save eliminated.
  55              	.LVL1:
  56              		.loc 1 73 0
  57 0000 0122     		movs	r2, #1
ARM GAS  /tmp/ccO5RPHd.s 			page 2


  58              		.loc 1 74 0
  59 0002 0023     		movs	r3, #0
  60              		.loc 1 73 0
  61 0004 0270     		strb	r2, [r0]
  62              		.loc 1 74 0
  63 0006 4360     		str	r3, [r0, #4]
  64              	.LVL2:
  65              	.LBB82:
  66              	.LBB83:
  67              		.file 2 "ChibiOS_3.0.2/os/hal/osal/rt/osal.h"
  68              		.loc 2 887 0
  69 0008 0C30     		adds	r0, r0, #12
  70              	.LVL3:
  71 000a FFF7FEBF 		b	chMtxObjectInit
  72              	.LVL4:
  73              	.LBE83:
  74              	.LBE82:
  75              		.cfi_endproc
  76              	.LFE257:
  77              		.size	i2cObjectInit, .-i2cObjectInit
  78 000e 00BF     		.section	.text.i2cStart,"ax",%progbits
  79              		.align	2
  80              		.p2align 4,,15
  81              		.global	i2cStart
  82              		.thumb
  83              		.thumb_func
  84              		.type	i2cStart, %function
  85              	i2cStart:
  86              	.LFB258:
  87              		.loc 1 93 0
  88              		.cfi_startproc
  89              		@ args = 0, pretend = 0, frame = 0
  90              		@ frame_needed = 0, uses_anonymous_args = 0
  91              	.LVL5:
  92 0000 10B5     		push	{r4, lr}
  93              		.cfi_def_cfa_offset 8
  94              		.cfi_offset 4, -8
  95              		.cfi_offset 14, -4
  96              	.LBB84:
  97              	.LBB85:
  98              	.LBB86:
  99              	.LBB87:
 100              	.LBB88:
 101              		.file 3 "ChibiOS_3.0.2/os/ext/CMSIS/include/core_cmFunc.h"
 102              		.loc 3 546 0
 103 0002 2023     		movs	r3, #32
 104              	.LBE88:
 105              	.LBE87:
 106              	.LBE86:
 107              	.LBE85:
 108              	.LBE84:
 109              		.loc 1 93 0
 110 0004 0446     		mov	r4, r0
 111              	.LBB93:
 112              	.LBB92:
 113              	.LBB91:
 114              	.LBB90:
ARM GAS  /tmp/ccO5RPHd.s 			page 3


 115              	.LBB89:
 116              		.loc 3 546 0
 117              	@ 546 "ChibiOS_3.0.2/os/ext/CMSIS/include/core_cmFunc.h" 1
 118 0006 83F31188 		MSR basepri, r3
 119              	@ 0 "" 2
 120              		.thumb
 121              	.LBE89:
 122              	.LBE90:
 123              	.LBE91:
 124              	.LBE92:
 125              	.LBE93:
 126              		.loc 1 100 0
 127 000a 4160     		str	r1, [r0, #4]
 128              		.loc 1 101 0
 129 000c FFF7FEFF 		bl	i2c_lld_start
 130              	.LVL6:
 131              		.loc 1 102 0
 132 0010 0223     		movs	r3, #2
 133 0012 2370     		strb	r3, [r4]
 134              	.LVL7:
 135              	.LBB94:
 136              	.LBB95:
 137              	.LBB96:
 138              	.LBB97:
 139              	.LBB98:
 140              	.LBB99:
 141              		.loc 3 546 0
 142 0014 0023     		movs	r3, #0
 143              	@ 546 "ChibiOS_3.0.2/os/ext/CMSIS/include/core_cmFunc.h" 1
 144 0016 83F31188 		MSR basepri, r3
 145              	@ 0 "" 2
 146              		.thumb
 147 001a 10BD     		pop	{r4, pc}
 148              	.LBE99:
 149              	.LBE98:
 150              	.LBE97:
 151              	.LBE96:
 152              	.LBE95:
 153              	.LBE94:
 154              		.cfi_endproc
 155              	.LFE258:
 156              		.size	i2cStart, .-i2cStart
 157              		.section	.text.i2cStop,"ax",%progbits
 158              		.align	2
 159              		.p2align 4,,15
 160              		.global	i2cStop
 161              		.thumb
 162              		.thumb_func
 163              		.type	i2cStop, %function
 164              	i2cStop:
 165              	.LFB259:
 166              		.loc 1 113 0
 167              		.cfi_startproc
 168              		@ args = 0, pretend = 0, frame = 0
 169              		@ frame_needed = 0, uses_anonymous_args = 0
 170              	.LVL8:
 171 0000 10B5     		push	{r4, lr}
ARM GAS  /tmp/ccO5RPHd.s 			page 4


 172              		.cfi_def_cfa_offset 8
 173              		.cfi_offset 4, -8
 174              		.cfi_offset 14, -4
 175              	.LBB100:
 176              	.LBB101:
 177              	.LBB102:
 178              	.LBB103:
 179              	.LBB104:
 180              		.loc 3 546 0
 181 0002 2023     		movs	r3, #32
 182              	.LBE104:
 183              	.LBE103:
 184              	.LBE102:
 185              	.LBE101:
 186              	.LBE100:
 187              		.loc 1 113 0
 188 0004 0446     		mov	r4, r0
 189              	.LBB109:
 190              	.LBB108:
 191              	.LBB107:
 192              	.LBB106:
 193              	.LBB105:
 194              		.loc 3 546 0
 195              	@ 546 "ChibiOS_3.0.2/os/ext/CMSIS/include/core_cmFunc.h" 1
 196 0006 83F31188 		MSR basepri, r3
 197              	@ 0 "" 2
 198              		.thumb
 199              	.LBE105:
 200              	.LBE106:
 201              	.LBE107:
 202              	.LBE108:
 203              	.LBE109:
 204              		.loc 1 120 0
 205 000a FFF7FEFF 		bl	i2c_lld_stop
 206              	.LVL9:
 207              		.loc 1 121 0
 208 000e 0123     		movs	r3, #1
 209 0010 2370     		strb	r3, [r4]
 210              	.LVL10:
 211              	.LBB110:
 212              	.LBB111:
 213              	.LBB112:
 214              	.LBB113:
 215              	.LBB114:
 216              	.LBB115:
 217              		.loc 3 546 0
 218 0012 0023     		movs	r3, #0
 219              	@ 546 "ChibiOS_3.0.2/os/ext/CMSIS/include/core_cmFunc.h" 1
 220 0014 83F31188 		MSR basepri, r3
 221              	@ 0 "" 2
 222              		.thumb
 223 0018 10BD     		pop	{r4, pc}
 224              	.LBE115:
 225              	.LBE114:
 226              	.LBE113:
 227              	.LBE112:
 228              	.LBE111:
ARM GAS  /tmp/ccO5RPHd.s 			page 5


 229              	.LBE110:
 230              		.cfi_endproc
 231              	.LFE259:
 232              		.size	i2cStop, .-i2cStop
 233 001a 00BF     		.section	.text.i2cGetErrors,"ax",%progbits
 234              		.align	2
 235              		.p2align 4,,15
 236              		.global	i2cGetErrors
 237              		.thumb
 238              		.thumb_func
 239              		.type	i2cGetErrors, %function
 240              	i2cGetErrors:
 241              	.LFB260:
 242              		.loc 1 133 0
 243              		.cfi_startproc
 244              		@ args = 0, pretend = 0, frame = 0
 245              		@ frame_needed = 0, uses_anonymous_args = 0
 246              		@ link register save eliminated.
 247              	.LVL11:
 248              		.loc 1 138 0
 249 0000 8068     		ldr	r0, [r0, #8]
 250              	.LVL12:
 251 0002 7047     		bx	lr
 252              		.cfi_endproc
 253              	.LFE260:
 254              		.size	i2cGetErrors, .-i2cGetErrors
 255              		.section	.text.i2cMasterTransmitTimeout,"ax",%progbits
 256              		.align	2
 257              		.p2align 4,,15
 258              		.global	i2cMasterTransmitTimeout
 259              		.thumb
 260              		.thumb_func
 261              		.type	i2cMasterTransmitTimeout, %function
 262              	i2cMasterTransmitTimeout:
 263              	.LFB261:
 264              		.loc 1 172 0
 265              		.cfi_startproc
 266              		@ args = 12, pretend = 0, frame = 0
 267              		@ frame_needed = 0, uses_anonymous_args = 0
 268              	.LVL13:
 269 0000 F0B5     		push	{r4, r5, r6, r7, lr}
 270              		.cfi_def_cfa_offset 20
 271              		.cfi_offset 4, -20
 272              		.cfi_offset 5, -16
 273              		.cfi_offset 6, -12
 274              		.cfi_offset 7, -8
 275              		.cfi_offset 14, -4
 276 0002 85B0     		sub	sp, sp, #20
 277              		.cfi_def_cfa_offset 40
 278              		.loc 1 172 0
 279 0004 0446     		mov	r4, r0
 280 0006 0A9F     		ldr	r7, [sp, #40]
 281 0008 0B9E     		ldr	r6, [sp, #44]
 282              	.LBB116:
 283              	.LBB117:
 284              	.LBB118:
 285              	.LBB119:
ARM GAS  /tmp/ccO5RPHd.s 			page 6


 286              	.LBB120:
 287              		.loc 3 546 0
 288 000a 4FF0200E 		mov	lr, #32
 289              	@ 546 "ChibiOS_3.0.2/os/ext/CMSIS/include/core_cmFunc.h" 1
 290 000e 8EF31188 		MSR basepri, lr
 291              	@ 0 "" 2
 292              		.thumb
 293              	.LBE120:
 294              	.LBE119:
 295              	.LBE118:
 296              	.LBE117:
 297              	.LBE116:
 298              		.loc 1 184 0
 299 0012 4FF0030E 		mov	lr, #3
 300              		.loc 1 185 0
 301 0016 0196     		str	r6, [sp, #4]
 302              		.loc 1 183 0
 303 0018 0025     		movs	r5, #0
 304              		.loc 1 185 0
 305 001a 0C9E     		ldr	r6, [sp, #48]
 306 001c 0097     		str	r7, [sp]
 307 001e 0296     		str	r6, [sp, #8]
 308              		.loc 1 183 0
 309 0020 8560     		str	r5, [r0, #8]
 310              		.loc 1 184 0
 311 0022 80F800E0 		strb	lr, [r0]
 312              		.loc 1 185 0
 313 0026 FFF7FEFF 		bl	i2c_lld_master_transmit_timeout
 314              	.LVL14:
 315              		.loc 1 187 0
 316 002a 431C     		adds	r3, r0, #1
 317              		.loc 1 188 0
 318 002c 0CBF     		ite	eq
 319 002e 0523     		moveq	r3, #5
 320              		.loc 1 191 0
 321 0030 0223     		movne	r3, #2
 322 0032 2370     		strb	r3, [r4]
 323              	.LVL15:
 324              	.LBB121:
 325              	.LBB122:
 326              	.LBB123:
 327              	.LBB124:
 328              	.LBB125:
 329              	.LBB126:
 330              		.loc 3 546 0
 331 0034 0023     		movs	r3, #0
 332              	@ 546 "ChibiOS_3.0.2/os/ext/CMSIS/include/core_cmFunc.h" 1
 333 0036 83F31188 		MSR basepri, r3
 334              	@ 0 "" 2
 335              		.thumb
 336              	.LBE126:
 337              	.LBE125:
 338              	.LBE124:
 339              	.LBE123:
 340              	.LBE122:
 341              	.LBE121:
 342              		.loc 1 195 0
ARM GAS  /tmp/ccO5RPHd.s 			page 7


 343 003a 05B0     		add	sp, sp, #20
 344              		.cfi_def_cfa_offset 20
 345              		@ sp needed
 346 003c F0BD     		pop	{r4, r5, r6, r7, pc}
 347              		.cfi_endproc
 348              	.LFE261:
 349              		.size	i2cMasterTransmitTimeout, .-i2cMasterTransmitTimeout
 350 003e 00BF     		.section	.text.i2cMasterReceiveTimeout,"ax",%progbits
 351              		.align	2
 352              		.p2align 4,,15
 353              		.global	i2cMasterReceiveTimeout
 354              		.thumb
 355              		.thumb_func
 356              		.type	i2cMasterReceiveTimeout, %function
 357              	i2cMasterReceiveTimeout:
 358              	.LFB262:
 359              		.loc 1 221 0
 360              		.cfi_startproc
 361              		@ args = 4, pretend = 0, frame = 0
 362              		@ frame_needed = 0, uses_anonymous_args = 0
 363              	.LVL16:
 364 0000 F0B5     		push	{r4, r5, r6, r7, lr}
 365              		.cfi_def_cfa_offset 20
 366              		.cfi_offset 4, -20
 367              		.cfi_offset 5, -16
 368              		.cfi_offset 6, -12
 369              		.cfi_offset 7, -8
 370              		.cfi_offset 14, -4
 371 0002 83B0     		sub	sp, sp, #12
 372              		.cfi_def_cfa_offset 32
 373              		.loc 1 221 0
 374 0004 0446     		mov	r4, r0
 375 0006 089F     		ldr	r7, [sp, #32]
 376              	.LBB127:
 377              	.LBB128:
 378              	.LBB129:
 379              	.LBB130:
 380              	.LBB131:
 381              		.loc 3 546 0
 382 0008 2025     		movs	r5, #32
 383              	@ 546 "ChibiOS_3.0.2/os/ext/CMSIS/include/core_cmFunc.h" 1
 384 000a 85F31188 		MSR basepri, r5
 385              	@ 0 "" 2
 386              		.thumb
 387              	.LBE131:
 388              	.LBE130:
 389              	.LBE129:
 390              	.LBE128:
 391              	.LBE127:
 392              		.loc 1 232 0
 393 000e 0026     		movs	r6, #0
 394              		.loc 1 233 0
 395 0010 0425     		movs	r5, #4
 396              		.loc 1 234 0
 397 0012 0097     		str	r7, [sp]
 398              		.loc 1 232 0
 399 0014 8660     		str	r6, [r0, #8]
ARM GAS  /tmp/ccO5RPHd.s 			page 8


 400              		.loc 1 233 0
 401 0016 0570     		strb	r5, [r0]
 402              		.loc 1 234 0
 403 0018 FFF7FEFF 		bl	i2c_lld_master_receive_timeout
 404              	.LVL17:
 405              		.loc 1 235 0
 406 001c 431C     		adds	r3, r0, #1
 407              		.loc 1 236 0
 408 001e 0CBF     		ite	eq
 409 0020 0523     		moveq	r3, #5
 410              		.loc 1 239 0
 411 0022 0223     		movne	r3, #2
 412 0024 2370     		strb	r3, [r4]
 413              	.LVL18:
 414              	.LBB132:
 415              	.LBB133:
 416              	.LBB134:
 417              	.LBB135:
 418              	.LBB136:
 419              	.LBB137:
 420              		.loc 3 546 0
 421 0026 0023     		movs	r3, #0
 422              	@ 546 "ChibiOS_3.0.2/os/ext/CMSIS/include/core_cmFunc.h" 1
 423 0028 83F31188 		MSR basepri, r3
 424              	@ 0 "" 2
 425              		.thumb
 426              	.LBE137:
 427              	.LBE136:
 428              	.LBE135:
 429              	.LBE134:
 430              	.LBE133:
 431              	.LBE132:
 432              		.loc 1 243 0
 433 002c 03B0     		add	sp, sp, #12
 434              		.cfi_def_cfa_offset 20
 435              		@ sp needed
 436 002e F0BD     		pop	{r4, r5, r6, r7, pc}
 437              		.cfi_endproc
 438              	.LFE262:
 439              		.size	i2cMasterReceiveTimeout, .-i2cMasterReceiveTimeout
 440              		.section	.text.i2cAcquireBus,"ax",%progbits
 441              		.align	2
 442              		.p2align 4,,15
 443              		.global	i2cAcquireBus
 444              		.thumb
 445              		.thumb_func
 446              		.type	i2cAcquireBus, %function
 447              	i2cAcquireBus:
 448              	.LFB263:
 449              		.loc 1 257 0
 450              		.cfi_startproc
 451              		@ args = 0, pretend = 0, frame = 0
 452              		@ frame_needed = 0, uses_anonymous_args = 0
 453              		@ link register save eliminated.
 454              	.LVL19:
 455              	.LBB138:
 456              	.LBB139:
ARM GAS  /tmp/ccO5RPHd.s 			page 9


 457              		.loc 2 907 0
 458 0000 0C30     		adds	r0, r0, #12
 459              	.LVL20:
 460 0002 FFF7FEBF 		b	chMtxLock
 461              	.LVL21:
 462              	.LBE139:
 463              	.LBE138:
 464              		.cfi_endproc
 465              	.LFE263:
 466              		.size	i2cAcquireBus, .-i2cAcquireBus
 467 0006 00BF     		.section	.text.i2cReleaseBus,"ax",%progbits
 468              		.align	2
 469              		.p2align 4,,15
 470              		.global	i2cReleaseBus
 471              		.thumb
 472              		.thumb_func
 473              		.type	i2cReleaseBus, %function
 474              	i2cReleaseBus:
 475              	.LFB264:
 476              		.loc 1 273 0
 477              		.cfi_startproc
 478              		@ args = 0, pretend = 0, frame = 0
 479              		@ frame_needed = 0, uses_anonymous_args = 0
 480              		@ link register save eliminated.
 481              	.LVL22:
 482              	.LBB140:
 483              	.LBB141:
 484              		.loc 2 931 0
 485 0000 0C30     		adds	r0, r0, #12
 486              	.LVL23:
 487 0002 FFF7FEBF 		b	chMtxUnlock
 488              	.LVL24:
 489              	.LBE141:
 490              	.LBE140:
 491              		.cfi_endproc
 492              	.LFE264:
 493              		.size	i2cReleaseBus, .-i2cReleaseBus
 494 0006 00BF     		.text
 495              	.Letext0:
 496              		.file 4 "/usr/lib/gcc/arm-none-eabi/4.9.3/include/stddef.h"
 497              		.file 5 "/usr/arm-none-eabi/include/machine/_default_types.h"
 498              		.file 6 "/usr/arm-none-eabi/include/sys/_stdint.h"
 499              		.file 7 "ChibiOS_3.0.2/os/rt/ports/ARMCMx/compilers/GCC/chtypes.h"
 500              		.file 8 "ChibiOS_3.0.2/os/rt/include/chsystypes.h"
 501              		.file 9 "ChibiOS_3.0.2/os/rt/include/chschd.h"
 502              		.file 10 "ChibiOS_3.0.2/os/ext/CMSIS/ST/stm32f407xx.h"
 503              		.file 11 "ChibiOS_3.0.2/os/rt/ports/ARMCMx/chcore.h"
 504              		.file 12 "ChibiOS_3.0.2/os/rt/ports/ARMCMx/chcore_v7m.h"
 505              		.file 13 "ChibiOS_3.0.2/os/rt/include/chtm.h"
 506              		.file 14 "ChibiOS_3.0.2/os/rt/include/chsem.h"
 507              		.file 15 "ChibiOS_3.0.2/os/rt/include/chmtx.h"
 508              		.file 16 "ChibiOS_3.0.2/os/hal/ports/STM32/STM32F4xx/stm32_dma.h"
 509              		.file 17 "ChibiOS_3.0.2/os/hal/include/i2c.h"
 510              		.file 18 "ChibiOS_3.0.2/os/hal/ports/STM32/LLD/I2Cv1/i2c_lld.h"
 511              		.file 19 "ChibiOS_3.0.2/os/rt/include/chsys.h"
 512              		.file 20 "ChibiOS_3.0.2/os/ext/CMSIS/include/core_cm4.h"