ARM GAS  /tmp/ccO5RPHd.s 			page 1


   1              		.syntax unified
   2              		.cpu cortex-m4
   3              		.eabi_attribute 27, 1
   4              		.eabi_attribute 28, 1
   5              		.fpu fpv4-sp-d16
   6              		.eabi_attribute 20, 1
   7              		.eabi_attribute 21, 1
   8              		.eabi_attribute 23, 3
   9              		.eabi_attribute 24, 1
  10              		.eabi_attribute 25, 1
  11              		.eabi_attribute 26, 1
  12              		.eabi_attribute 30, 2
  13              		.eabi_attribute 34, 1
  14              		.eabi_attribute 18, 4
  15              		.thumb
  16              		.file	"i2c.c"
  17              		.text
  18              	.Ltext0:
  19              		.cfi_sections	.debug_frame
  20              		.section	.text.i2cInit,"ax",%progbits
  21              		.align	2
  22              		.p2align 4,,15
  23              		.global	i2cInit
  24              		.thumb
  25              		.thumb_func
  26              		.type	i2cInit, %function
  27              	i2cInit:
  28              	.LFB256:
  29              		.file 1 "ChibiOS_3.0.2/os/hal/src/i2c.c"
  30              		.loc 1 59 0
  31              		.cfi_startproc
  32              		@ args = 0, pretend = 0, frame = 0
  33              		@ frame_needed = 0, uses_anonymous_args = 0
  34              		@ link register save eliminated.
  35              		.loc 1 61 0
  36 0000 FFF7FEBF 		b	i2c_lld_init
  37              	.LVL0:
  38              		.cfi_endproc
  39              	.LFE256:
  40              		.size	i2cInit, .-i2cInit
  41              		.section	.text.i2cObjectInit,"ax",%progbits
  42              		.align	2
  43              		.p2align 4,,15
  44              		.global	i2cObjectInit
  45              		.thumb
  46              		.thumb_func
  47              		.type	i2cObjectInit, %function
  48              	i2cObjectInit:
  49              	.LFB257:
  50              		.loc 1 71 0
  51              		.cfi_startproc
  52              		@ args = 0, pretend = 0, frame = 0
  53              		@ frame_needed = 0, uses_anonymous_args = 0
  54              		@ link register save eliminated.
  55              	.LVL1:
  56              		.loc 1 73 0
  57 0000 0122     		movs	r2, #1
ARM GAS  /tmp/ccO5RPHd.s 			page 2


  58              		.loc 1 74 0
  59 0002 0023     		movs	r3, #0
  60              		.loc 1 73 0
  61 0004 0270     		strb	r2, [r0]
  62              		.loc 1 74 0
  63 0006 4360     		str	r3, [r0, #4]
  64              	.LVL2:
  65              	.LBB82:
  66              	.LBB83:
  67              		.file 2 "ChibiOS_3.0.2/os/hal/osal/rt/osal.h"
  68              		.loc 2 887 0
  69 0008 0C30     		adds	r0, r0, #12
  70              	.LVL3:
  71 000a FFF7FEBF 		b	chMtxObjectInit
  72              	.LVL4:
  73              	.LBE83:
  74              	.LBE82:
  75              		.cfi_endproc
  76              	.LFE257:
  77              		.size	i2cObjectInit, .-i2cObjectInit
  78 000e 00BF     		.section	.text.i2cStart,"ax",%progbits
  79              		.align	2
  80              		.p2align 4,,15
  81              		.global	i2cStart
  82              		.thumb
  83              		.thumb_func
  84              		.type	i2cStart, %function
  85              	i2cStart:
  86              	.LFB258:
  87              		.loc 1 93 0
  88              		.cfi_startproc
  89              		@ args = 0, pretend = 0, frame = 0
  90              		@ frame_needed = 0, uses_anonymous_args = 0
  91              	.LVL5:
  92 0000 10B5     		push	{r4, lr}
  93              		.cfi_def_cfa_offset 8
  94              		.cfi_offset 4, -8
  95              		.cfi_offset 14, -4
  96              	.LBB84:
  97              	.LBB85:
  98              	.LBB86:
  99              	.LBB87:
 100              	.LBB88:
 101              		.file 3 "ChibiOS_3.0.2/os/ext/CMSIS/include/core_cmFunc.h"
 102              		.loc 3 546 0
 103 0002 2023     		movs	r3, #32
 104              	.LBE88:
 105              	.LBE87:
 106              	.LBE86:
 107              	.LBE85:
 108              	.LBE84:
 109              		.loc 1 93 0
 110 0004 0446     		mov	r4, r0
 111              	.LBB93:
 112              	.LBB92:
 113              	.LBB91:
 114              	.LBB90:
ARM GAS  /tmp/ccO5RPHd.s 			page 3


 115              	.LBB89:
 116              		.loc 3 546 0
 117              	@ 546 "ChibiOS_3.0.2/os/ext/CMSIS/include/core_cmFunc.h" 1
 118 0006 83F31188 		MSR basepri, r3
 119              	@ 0 "" 2
 120              		.thumb
 121              	.LBE89:
 122              	.LBE90:
 123              	.LBE91:
 124              	.LBE92:
 125              	.LBE93:
 126              		.loc 1 100 0
 127 000a 4160     		str	r1, [r0, #4]
 128              		.loc 1 101 0
 129 000c FFF7FEFF 		bl	i2c_lld_start
 130              	.LVL6:
 131              		.loc 1 102 0
 132 0010 0223     		movs	r3, #2
 133 0012 2370     		strb	r3, [r4]
 134              	.LVL7:
 135              	.LBB94:
 136              	.LBB95:
 137              	.LBB96:
 138              	.LBB97:
 139              	.LBB98:
 140              	.LBB99:
 141              		.loc 3 546 0
 142 0014 0023     		movs	r3, #0
 143              	@ 546 "ChibiOS_3.0.2/os/ext/CMSIS/include/core_cmFunc.h" 1
 144 0016 83F31188 		MSR basepri, r3
 145              	@ 0 "" 2
 146              		.thumb
 147 001a 10BD     		pop	{r4, pc}
 148              	.LBE99:
 149              	.LBE98:
 150              	.LBE97:
 151              	.LBE96:
 152              	.LBE95:
 153              	.LBE94:
 154              		.cfi_endproc
 155              	.LFE258:
 156              		.size	i2cStart, .-i2cStart
 157              		.section	.text.i2cStop,"ax",%progbits
 158              		.align	2
 159              		.p2align 4,,15
 160              		.global	i2cStop
 161              		.thumb
 162              		.thumb_func
 163              		.type	i2cStop, %function
 164              	i2cStop:
 165              	.LFB259:
 166              		.loc 1 113 0
 167              		.cfi_startproc
 168              		@ args = 0, pretend = 0, frame = 0
 169              		@ frame_needed = 0, uses_anonymous_args = 0
 170              	.LVL8:
 171 0000 10B5     		push	{r4, lr}
ARM GAS  /tmp/ccO5RPHd.s 			page 4


 172              		.cfi_def_cfa_offset 8
 173              		.cfi_offset 4, -8
 174              		.cfi_offset 14, -4
 175              	.LBB100:
 176              	.LBB101:
 177              	.LBB102:
 178              	.LBB103:
 179              	.LBB104:
 180              		.loc 3 546 0
 181 0002 2023     		movs	r3, #32
 182              	.LBE104:
 183              	.LBE103:
 184              	.LBE102:
 185              	.LBE101:
 186              	.LBE100:
 187              		.loc 1 113 0
 188 0004 0446     		mov	r4, r0
 189              	.LBB109:
 190              	.LBB108:
 191              	.LBB107:
 192              	.LBB106:
 193              	.LBB105:
 194              		.loc 3 546 0
 195              	@ 546 "ChibiOS_3.0.2/os/ext/CMSIS/include/core_cmFunc.h" 1
 196 0006 83F31188 		MSR basepri, r3
 197              	@ 0 "" 2
 198              		.thumb
 199              	.LBE105:
 200              	.LBE106:
 201              	.LBE107:
 202              	.LBE108:
 203              	.LBE109:
 204              		.loc 1 120 0
 205 000a FFF7FEFF 		bl	i2c_lld_stop
 206              	.LVL9:
 207              		.loc 1 121 0
 208 000e 0123     		movs	r3, #1
 209 0010 2370     		strb	r3, [r4]
 210              	.LVL10:
 211              	.LBB110:
 212              	.LBB111:
 213              	.LBB112:
 214              	.LBB113:
 215              	.LBB114:
 216              	.LBB115:
 217              		.loc 3 546 0
 218 0012 0023     		movs	r3, #0
 219              	@ 546 "ChibiOS_3.0.2/os/ext/CMSIS/include/core_cmFunc.h" 1
 220 0014 83F31188 		MSR basepri, r3
 221              	@ 0 "" 2
 222              		.thumb
 223 0018 10BD     		pop	{r4, pc}
 224              	.LBE115:
 225              	.LBE114:
 226              	.LBE113:
 227              	.LBE112:
 228              	.LBE111:
ARM GAS  /tmp/ccO5RPHd.s 			page 5


 229              	.LBE110:
 230              		.cfi_endproc
 231              	.LFE259:
 232              		.size	i2cStop, .-i2cStop
 233 001a 00BF     		.section	.text.i2cGetErrors,"ax",%progbits
 234              		.align	2
 235              		.p2align 4,,15
 236              		.global	i2cGetErrors
 237              		.thumb
 238              		.thumb_func
 239              		.type	i2cGetErrors, %function
 240              	i2cGetErrors:
 241              	.LFB260:
 242              		.loc 1 133 0
 243              		.cfi_startproc
 244              		@ args = 0, pretend = 0, frame = 0
 245              		@ frame_needed = 0, uses_anonymous_args = 0
 246              		@ link register save eliminated.
 247              	.LVL11:
 248              		.loc 1 138 0
 249 0000 8068     		ldr	r0, [r0, #8]
 250              	.LVL12:
 251 0002 7047     		bx	lr
 252              		.cfi_endproc
 253              	.LFE260:
 254              		.size	i2cGetErrors, .-i2cGetErrors
 255              		.section	.text.i2cMasterTransmitTimeout,"ax",%progbits
 256              		.align	2
 257              		.p2align 4,,15
 258              		.global	i2cMasterTransmitTimeout
 259              		.thumb
 260              		.thumb_func
 261              		.type	i2cMasterTransmitTimeout, %function
 262              	i2cMasterTransmitTimeout:
 263              	.LFB261:
 264              		.loc 1 172 0
 265              		.cfi_startproc
 266              		@ args = 12, pretend = 0, frame = 0
 267              		@ frame_needed = 0, uses_anonymous_args = 0
 268              	.LVL13:
 269 0000 F0B5     		push	{r4, r5, r6, r7, lr}
 270              		.cfi_def_cfa_offset 20
 271              		.cfi_offset 4, -20
 272              		.cfi_offset 5, -16
 273              		.cfi_offset 6, -12
 274              		.cfi_offset 7, -8
 275              		.cfi_offset 14, -4
 276 0002 85B0     		sub	sp, sp, #20
 277              		.cfi_def_cfa_offset 40
 278              		.loc 1 172 0
 279 0004 0446     		mov	r4, r0
 280 0006 0A9F     		ldr	r7, [sp, #40]
 281 0008 0B9E     		ldr	r6, [sp, #44]
 282              	.LBB116:
 283              	.LBB117:
 284              	.LBB118:
 285              	.LBB119:
ARM GAS  /tmp/ccO5RPHd.s 			page 6


 286              	.LBB120:
 287              		.loc 3 546 0
 288 000a 4FF0200E 		mov	lr, #32
 289              	@ 546 "ChibiOS_3.0.2/os/ext/CMSIS/include/core_cmFunc.h" 1
 290 000e 8EF31188 		MSR basepri, lr
 291              	@ 0 "" 2
 292              		.thumb
 293              	.LBE120:
 294              	.LBE119:
 295              	.LBE118:
 296              	.LBE117:
 297              	.LBE116:
 298              		.loc 1 184 0
 299 0012 4FF0030E 		mov	lr, #3
 300              		.loc 1 185 0
 301 0016 0196     		str	r6, [sp, #4]
 302              		.loc 1 183 0
 303 0018 0025     		movs	r5, #0
 304              		.loc 1 185 0
 305 001a 0C9E     		ldr	r6, [sp, #48]
 306 001c 0097     		str	r7, [sp]
 307 001e 0296     		str	r6, [sp, #8]
 308              		.loc 1 183 0
 309 0020 8560     		str	r5, [r0, #8]
 310              		.loc 1 184 0
 311 0022 80F800E0 		strb	lr, [r0]
 312              		.loc 1 185 0
 313 0026 FFF7FEFF 		bl	i2c_lld_master_transmit_timeout
 314              	.LVL14:
 315              		.loc 1 187 0
 316 002a 431C     		adds	r3, r0, #1
 317              		.loc 1 188 0
 318 002c 0CBF     		ite	eq
 319 002e 0523     		moveq	r3, #5
 320              		.loc 1 191 0
 321 0030 0223     		movne	r3, #2
 322 0032 2370     		strb	r3, [r4]
 323              	.LVL15:
 324              	.LBB121:
 325              	.LBB122:
 326              	.LBB123:
 327              	.LBB124:
 328              	.LBB125:
 329              	.LBB126:
 330              		.loc 3 546 0
 331 0034 0023     		movs	r3, #0
 332              	@ 546 "ChibiOS_3.0.2/os/ext/CMSIS/include/core_cmFunc.h" 1
 333 0036 83F31188 		MSR basepri, r3
 334              	@ 0 "" 2
 335              		.thumb
 336              	.LBE126:
 337              	.LBE125:
 338              	.LBE124:
 339              	.LBE123:
 340              	.LBE122:
 341              	.LBE121:
 342              		.loc 1 195 0
ARM GAS  /tmp/ccO5RPHd.s 			page 7


 343 003a 05B0     		add	sp, sp, #20
 344              		.cfi_def_cfa_offset 20
 345              		@ sp needed
 346 003c F0BD     		pop	{r4, r5, r6, r7, pc}
 347              		.cfi_endproc
 348              	.LFE261:
 349              		.size	i2cMasterTransmitTimeout, .-i2cMasterTransmitTimeout
 350 003e 00BF     		.section	.text.i2cMasterReceiveTimeout,"ax",%progbits
 351              		.align	2
 352              		.p2align 4,,15
 353              		.global	i2cMasterReceiveTimeout
 354              		.thumb
 355              		.thumb_func
 356              		.type	i2cMasterReceiveTimeout, %function
 357              	i2cMasterReceiveTimeout:
 358              	.LFB262:
 359              		.loc 1 221 0
 360              		.cfi_startproc
 361              		@ args = 4, pretend = 0, frame = 0
 362              		@ frame_needed = 0, uses_anonymous_args = 0
 363              	.LVL16:
 364 0000 F0B5     		push	{r4, r5, r6, r7, lr}
 365              		.cfi_def_cfa_offset 20
 366              		.cfi_offset 4, -20
 367              		.cfi_offset 5, -16
 368              		.cfi_offset 6, -12
 369              		.cfi_offset 7, -8
 370              		.cfi_offset 14, -4
 371 0002 83B0     		sub	sp, sp, #12
 372              		.cfi_def_cfa_offset 32
 373              		.loc 1 221 0
 374 0004 0446     		mov	r4, r0
 375 0006 089F     		ldr	r7, [sp, #32]
 376              	.LBB127:
 377              	.LBB128:
 378              	.LBB129:
 379              	.LBB130:
 380              	.LBB131:
 381              		.loc 3 546 0
 382 0008 2025     		movs	r5, #32
 383              	@ 546 "ChibiOS_3.0.2/os/ext/CMSIS/include/core_cmFunc.h" 1
 384 000a 85F31188 		MSR basepri, r5
 385              	@ 0 "" 2
 386              		.thumb
 387              	.LBE131:
 388              	.LBE130:
 389              	.LBE129:
 390              	.LBE128:
 391              	.LBE127:
 392              		.loc 1 232 0
 393 000e 0026     		movs	r6, #0
 394              		.loc 1 233 0
 395 0010 0425     		movs	r5, #4
 396              		.loc 1 234 0
 397 0012 0097     		str	r7, [sp]
 398              		.loc 1 232 0
 399 0014 8660     		str	r6, [r0, #8]
ARM GAS  /tmp/ccO5RPHd.s 			page 8


 400              		.loc 1 233 0
 401 0016 0570     		strb	r5, [r0]
 402              		.loc 1 234 0
 403 0018 FFF7FEFF 		bl	i2c_lld_master_receive_timeout
 404              	.LVL17:
 405              		.loc 1 235 0
 406 001c 431C     		adds	r3, r0, #1
 407              		.loc 1 236 0
 408 001e 0CBF     		ite	eq
 409 0020 0523     		moveq	r3, #5
 410              		.loc 1 239 0
 411 0022 0223     		movne	r3, #2
 412 0024 2370     		strb	r3, [r4]
 413              	.LVL18:
 414              	.LBB132:
 415              	.LBB133:
 416              	.LBB134:
 417              	.LBB135:
 418              	.LBB136:
 419              	.LBB137:
 420              		.loc 3 546 0
 421 0026 0023     		movs	r3, #0
 422              	@ 546 "ChibiOS_3.0.2/os/ext/CMSIS/include/core_cmFunc.h" 1
 423 0028 83F31188 		MSR basepri, r3
 424              	@ 0 "" 2
 425              		.thumb
 426              	.LBE137:
 427              	.LBE136:
 428              	.LBE135:
 429              	.LBE134:
 430              	.LBE133:
 431              	.LBE132:
 432              		.loc 1 243 0
 433 002c 03B0     		add	sp, sp, #12
 434              		.cfi_def_cfa_offset 20
 435              		@ sp needed
 436 002e F0BD     		pop	{r4, r5, r6, r7, pc}
 437              		.cfi_endproc
 438              	.LFE262:
 439              		.size	i2cMasterReceiveTimeout, .-i2cMasterReceiveTimeout
 440              		.section	.text.i2cAcquireBus,"ax",%progbits
 441              		.align	2
 442              		.p2align 4,,15
 443              		.global	i2cAcquireBus
 444              		.thumb
 445              		.thumb_func
 446              		.type	i2cAcquireBus, %function
 447              	i2cAcquireBus:
 448              	.LFB263:
 449              		.loc 1 257 0
 450              		.cfi_startproc
 451              		@ args = 0, pretend = 0, frame = 0
 452              		@ frame_needed = 0, uses_anonymous_args = 0
 453              		@ link register save eliminated.
 454              	.LVL19:
 455              	.LBB138:
 456              	.LBB139:
ARM GAS  /tmp/ccO5RPHd.s 			page 9


 457              		.loc 2 907 0
 458 0000 0C30     		adds	r0, r0, #12
 459              	.LVL20:
 460 0002 FFF7FEBF 		b	chMtxLock
 461              	.LVL21:
 462              	.LBE139:
 463              	.LBE138:
 464              		.cfi_endproc
 465              	.LFE263:
 466              		.size	i2cAcquireBus, .-i2cAcquireBus
 467 0006 00BF     		.section	.text.i2cReleaseBus,"ax",%progbits
 468              		.align	2
 469              		.p2align 4,,15
 470              		.global	i2cReleaseBus
 471              		.thumb
 472              		.thumb_func
 473              		.type	i2cReleaseBus, %function
 474              	i2cReleaseBus:
 475              	.LFB264:
 476              		.loc 1 273 0
 477              		.cfi_startproc
 478              		@ args = 0, pretend = 0, frame = 0
 479              		@ frame_needed = 0, uses_anonymous_args = 0
 480              		@ link register save eliminated.
 481              	.LVL22:
 482              	.LBB140:
 483              	.LBB141:
 484              		.loc 2 931 0
 485 0000 0C30     		adds	r0, r0, #12
 486              	.LVL23:
 487 0002 FFF7FEBF 		b	chMtxUnlock
 488              	.LVL24:
 489              	.LBE141:
 490              	.LBE140:
 491              		.cfi_endproc
 492              	.LFE264:
 493              		.size	i2cReleaseBus, .-i2cReleaseBus
 494 0006 00BF     		.text
 495              	.Letext0:
 496              		.file 4 "/usr/lib/gcc/arm-none-eabi/4.9.3/include/stddef.h"
 497              		.file 5 "/usr/arm-none-eabi/include/machine/_default_types.h"
 498              		.file 6 "/usr/arm-none-eabi/include/sys/_stdint.h"
 499              		.file 7 "ChibiOS_3.0.2/os/rt/ports/ARMCMx/compilers/GCC/chtypes.h"
 500              		.file 8 "ChibiOS_3.0.2/os/rt/include/chsystypes.h"
 501              		.file 9 "ChibiOS_3.0.2/os/rt/include/chschd.h"
 502              		.file 10 "ChibiOS_3.0.2/os/ext/CMSIS/ST/stm32f407xx.h"
 503              		.file 11 "ChibiOS_3.0.2/os/rt/ports/ARMCMx/chcore.h"
 504              		.file 12 "ChibiOS_3.0.2/os/rt/ports/ARMCMx/chcore_v7m.h"
 505              		.file 13 "ChibiOS_3.0.2/os/rt/include/chtm.h"
 506              		.file 14 "ChibiOS_3.0.2/os/rt/include/chsem.h"
 507              		.file 15 "ChibiOS_3.0.2/os/rt/include/chmtx.h"
 508              		.file 16 "ChibiOS_3.0.2/os/hal/ports/STM32/STM32F4xx/stm32_dma.h"
 509              		.file 17 "ChibiOS_3.0.2/os/hal/include/i2c.h"
 510              		.file 18 "ChibiOS_3.0.2/os/hal/ports/STM32/LLD/I2Cv1/i2c_lld.h"
 511              		.file 19 "ChibiOS_3.0.2/os/rt/include/chsys.h"
 512              		.file 20 "ChibiOS_3.0.2/os/ext/CMSIS/include/core_cm4.h"
 513              		.section	.debug_info,"",%progbits
ARM GAS  /tmp/ccO5RPHd.s 			page 10


 514              	.Ldebug_info0:
 515 0000 2E120000 		.4byte	0x122e
 516 0004 0400     		.2byte	0x4
 517 0006 00000000 		.4byte	.Ldebug_abbrev0
 518 000a 04       		.byte	0x4
 519 000b 01       		.uleb128 0x1
 520 000c AD060000 		.4byte	.LASF189
 521 0010 01       		.byte	0x1
 522 0011 6C060000 		.4byte	.LASF190
 523 0015 A6050000 		.4byte	.LASF191
 524 0019 30000000 		.4byte	.Ldebug_ranges0+0x30
 525 001d 00000000 		.4byte	0
 526 0021 00000000 		.4byte	.Ldebug_line0
 527 0025 02       		.uleb128 0x2
 528 0026 04       		.byte	0x4
 529 0027 05       		.byte	0x5
 530 0028 696E7400 		.ascii	"int\000"
 531 002c 03       		.uleb128 0x3
 532 002d 27000000 		.4byte	.LASF2
 533 0031 04       		.byte	0x4
 534 0032 D4       		.byte	0xd4
 535 0033 37000000 		.4byte	0x37
 536 0037 04       		.uleb128 0x4
 537 0038 04       		.byte	0x4
 538 0039 07       		.byte	0x7
 539 003a 79020000 		.4byte	.LASF0
 540 003e 04       		.uleb128 0x4
 541 003f 01       		.byte	0x1
 542 0040 06       		.byte	0x6
 543 0041 58010000 		.4byte	.LASF1
 544 0045 03       		.uleb128 0x3
 545 0046 45000000 		.4byte	.LASF3
 546 004a 05       		.byte	0x5
 547 004b 1D       		.byte	0x1d
 548 004c 50000000 		.4byte	0x50
 549 0050 04       		.uleb128 0x4
 550 0051 01       		.byte	0x1
 551 0052 08       		.byte	0x8
 552 0053 2C050000 		.4byte	.LASF4
 553 0057 04       		.uleb128 0x4
 554 0058 02       		.byte	0x2
 555 0059 05       		.byte	0x5
 556 005a 64030000 		.4byte	.LASF5
 557 005e 03       		.uleb128 0x3
 558 005f A2060000 		.4byte	.LASF6
 559 0063 05       		.byte	0x5
 560 0064 2B       		.byte	0x2b
 561 0065 69000000 		.4byte	0x69
 562 0069 04       		.uleb128 0x4
 563 006a 02       		.byte	0x2
 564 006b 07       		.byte	0x7
 565 006c E6020000 		.4byte	.LASF7
 566 0070 03       		.uleb128 0x3
 567 0071 6E030000 		.4byte	.LASF8
 568 0075 05       		.byte	0x5
 569 0076 3F       		.byte	0x3f
 570 0077 7B000000 		.4byte	0x7b
ARM GAS  /tmp/ccO5RPHd.s 			page 11


 571 007b 04       		.uleb128 0x4
 572 007c 04       		.byte	0x4
 573 007d 05       		.byte	0x5
 574 007e DA010000 		.4byte	.LASF9
 575 0082 03       		.uleb128 0x3
 576 0083 F6070000 		.4byte	.LASF10
 577 0087 05       		.byte	0x5
 578 0088 41       		.byte	0x41
 579 0089 8D000000 		.4byte	0x8d
 580 008d 04       		.uleb128 0x4
 581 008e 04       		.byte	0x4
 582 008f 07       		.byte	0x7
 583 0090 55060000 		.4byte	.LASF11
 584 0094 04       		.uleb128 0x4
 585 0095 08       		.byte	0x8
 586 0096 05       		.byte	0x5
 587 0097 50020000 		.4byte	.LASF12
 588 009b 03       		.uleb128 0x3
 589 009c 6C040000 		.4byte	.LASF13
 590 00a0 05       		.byte	0x5
 591 00a1 5B       		.byte	0x5b
 592 00a2 A6000000 		.4byte	0xa6
 593 00a6 04       		.uleb128 0x4
 594 00a7 08       		.byte	0x8
 595 00a8 07       		.byte	0x7
 596 00a9 A9000000 		.4byte	.LASF14
 597 00ad 03       		.uleb128 0x3
 598 00ae CD080000 		.4byte	.LASF15
 599 00b2 06       		.byte	0x6
 600 00b3 14       		.byte	0x14
 601 00b4 45000000 		.4byte	0x45
 602 00b8 03       		.uleb128 0x3
 603 00b9 32030000 		.4byte	.LASF16
 604 00bd 06       		.byte	0x6
 605 00be 1A       		.byte	0x1a
 606 00bf 5E000000 		.4byte	0x5e
 607 00c3 03       		.uleb128 0x3
 608 00c4 24050000 		.4byte	.LASF17
 609 00c8 06       		.byte	0x6
 610 00c9 1F       		.byte	0x1f
 611 00ca 70000000 		.4byte	0x70
 612 00ce 03       		.uleb128 0x3
 613 00cf 1F060000 		.4byte	.LASF18
 614 00d3 06       		.byte	0x6
 615 00d4 20       		.byte	0x20
 616 00d5 82000000 		.4byte	0x82
 617 00d9 03       		.uleb128 0x3
 618 00da 35000000 		.4byte	.LASF19
 619 00de 06       		.byte	0x6
 620 00df 26       		.byte	0x26
 621 00e0 9B000000 		.4byte	0x9b
 622 00e4 05       		.uleb128 0x5
 623 00e5 C3000000 		.4byte	0xc3
 624 00e9 05       		.uleb128 0x5
 625 00ea CE000000 		.4byte	0xce
 626 00ee 03       		.uleb128 0x3
 627 00ef 72080000 		.4byte	.LASF20
ARM GAS  /tmp/ccO5RPHd.s 			page 12


 628 00f3 07       		.byte	0x7
 629 00f4 45       		.byte	0x45
 630 00f5 CE000000 		.4byte	0xce
 631 00f9 03       		.uleb128 0x3
 632 00fa 2A030000 		.4byte	.LASF21
 633 00fe 07       		.byte	0x7
 634 00ff 48       		.byte	0x48
 635 0100 AD000000 		.4byte	0xad
 636 0104 03       		.uleb128 0x3
 637 0105 E3010000 		.4byte	.LASF22
 638 0109 07       		.byte	0x7
 639 010a 49       		.byte	0x49
 640 010b AD000000 		.4byte	0xad
 641 010f 03       		.uleb128 0x3
 642 0110 77040000 		.4byte	.LASF23
 643 0114 07       		.byte	0x7
 644 0115 4A       		.byte	0x4a
 645 0116 AD000000 		.4byte	0xad
 646 011a 03       		.uleb128 0x3
 647 011b B6010000 		.4byte	.LASF24
 648 011f 07       		.byte	0x7
 649 0120 4B       		.byte	0x4b
 650 0121 AD000000 		.4byte	0xad
 651 0125 03       		.uleb128 0x3
 652 0126 D7040000 		.4byte	.LASF25
 653 012a 07       		.byte	0x7
 654 012b 4C       		.byte	0x4c
 655 012c CE000000 		.4byte	0xce
 656 0130 03       		.uleb128 0x3
 657 0131 18030000 		.4byte	.LASF26
 658 0135 07       		.byte	0x7
 659 0136 4D       		.byte	0x4d
 660 0137 C3000000 		.4byte	0xc3
 661 013b 03       		.uleb128 0x3
 662 013c 58030000 		.4byte	.LASF27
 663 0140 07       		.byte	0x7
 664 0141 4F       		.byte	0x4f
 665 0142 CE000000 		.4byte	0xce
 666 0146 03       		.uleb128 0x3
 667 0147 73020000 		.4byte	.LASF28
 668 014b 07       		.byte	0x7
 669 014c 51       		.byte	0x51
 670 014d C3000000 		.4byte	0xc3
 671 0151 03       		.uleb128 0x3
 672 0152 D8070000 		.4byte	.LASF29
 673 0156 08       		.byte	0x8
 674 0157 33       		.byte	0x33
 675 0158 CE000000 		.4byte	0xce
 676 015c 03       		.uleb128 0x3
 677 015d BE080000 		.4byte	.LASF30
 678 0161 08       		.byte	0x8
 679 0162 3F       		.byte	0x3f
 680 0163 67010000 		.4byte	0x167
 681 0167 06       		.uleb128 0x6
 682 0168 03030000 		.4byte	.LASF52
 683 016c 48       		.byte	0x48
 684 016d 09       		.byte	0x9
ARM GAS  /tmp/ccO5RPHd.s 			page 13


 685 016e C2       		.byte	0xc2
 686 016f 6C020000 		.4byte	0x26c
 687 0173 07       		.uleb128 0x7
 688 0174 84050000 		.4byte	.LASF31
 689 0178 09       		.byte	0x9
 690 0179 C3       		.byte	0xc3
 691 017a 77020000 		.4byte	0x277
 692 017e 00       		.byte	0
 693 017f 07       		.uleb128 0x7
 694 0180 AF040000 		.4byte	.LASF32
 695 0184 09       		.byte	0x9
 696 0185 C5       		.byte	0xc5
 697 0186 77020000 		.4byte	0x277
 698 018a 04       		.byte	0x4
 699 018b 07       		.uleb128 0x7
 700 018c 10010000 		.4byte	.LASF33
 701 0190 09       		.byte	0x9
 702 0191 C7       		.byte	0xc7
 703 0192 25010000 		.4byte	0x125
 704 0196 08       		.byte	0x8
 705 0197 07       		.uleb128 0x7
 706 0198 5F090000 		.4byte	.LASF34
 707 019c 09       		.byte	0x9
 708 019d C8       		.byte	0xc8
 709 019e A1050000 		.4byte	0x5a1
 710 01a2 0C       		.byte	0xc
 711 01a3 07       		.uleb128 0x7
 712 01a4 F1010000 		.4byte	.LASF35
 713 01a8 09       		.byte	0x9
 714 01a9 CA       		.byte	0xca
 715 01aa 77020000 		.4byte	0x277
 716 01ae 10       		.byte	0x10
 717 01af 07       		.uleb128 0x7
 718 01b0 0E040000 		.4byte	.LASF36
 719 01b4 09       		.byte	0x9
 720 01b5 CB       		.byte	0xcb
 721 01b6 77020000 		.4byte	0x277
 722 01ba 14       		.byte	0x14
 723 01bb 07       		.uleb128 0x7
 724 01bc FE080000 		.4byte	.LASF37
 725 01c0 09       		.byte	0x9
 726 01c1 D2       		.byte	0xd2
 727 01c2 E6070000 		.4byte	0x7e6
 728 01c6 18       		.byte	0x18
 729 01c7 07       		.uleb128 0x7
 730 01c8 57050000 		.4byte	.LASF38
 731 01cc 09       		.byte	0x9
 732 01cd DD       		.byte	0xdd
 733 01ce 04010000 		.4byte	0x104
 734 01d2 1C       		.byte	0x1c
 735 01d3 07       		.uleb128 0x7
 736 01d4 8B050000 		.4byte	.LASF39
 737 01d8 09       		.byte	0x9
 738 01d9 E1       		.byte	0xe1
 739 01da F9000000 		.4byte	0xf9
 740 01de 1D       		.byte	0x1d
 741 01df 07       		.uleb128 0x7
ARM GAS  /tmp/ccO5RPHd.s 			page 14


 742 01e0 B7080000 		.4byte	.LASF40
 743 01e4 09       		.byte	0x9
 744 01e5 E6       		.byte	0xe6
 745 01e6 0F010000 		.4byte	0x10f
 746 01ea 1E       		.byte	0x1e
 747 01eb 07       		.uleb128 0x7
 748 01ec 5F050000 		.4byte	.LASF41
 749 01f0 09       		.byte	0x9
 750 01f1 EC       		.byte	0xec
 751 01f2 1A010000 		.4byte	0x11a
 752 01f6 1F       		.byte	0x1f
 753 01f7 07       		.uleb128 0x7
 754 01f8 94020000 		.4byte	.LASF42
 755 01fc 09       		.byte	0x9
 756 01fd F3       		.byte	0xf3
 757 01fe F8070000 		.4byte	0x7f8
 758 0202 20       		.byte	0x20
 759 0203 08       		.uleb128 0x8
 760 0204 705F7500 		.ascii	"p_u\000"
 761 0208 09       		.byte	0x9
 762 0209 3101     		.2byte	0x131
 763 020b 21070000 		.4byte	0x721
 764 020f 24       		.byte	0x24
 765 0210 09       		.uleb128 0x9
 766 0211 9F030000 		.4byte	.LASF43
 767 0215 09       		.byte	0x9
 768 0216 3601     		.2byte	0x136
 769 0218 7D020000 		.4byte	0x27d
 770 021c 28       		.byte	0x28
 771 021d 09       		.uleb128 0x9
 772 021e B2020000 		.4byte	.LASF44
 773 0222 09       		.byte	0x9
 774 0223 3C01     		.2byte	0x13c
 775 0225 A1020000 		.4byte	0x2a1
 776 0229 2C       		.byte	0x2c
 777 022a 09       		.uleb128 0x9
 778 022b 24090000 		.4byte	.LASF45
 779 022f 09       		.byte	0x9
 780 0230 4001     		.2byte	0x140
 781 0232 30010000 		.4byte	0x130
 782 0236 34       		.byte	0x34
 783 0237 09       		.uleb128 0x9
 784 0238 0F060000 		.4byte	.LASF46
 785 023c 09       		.byte	0x9
 786 023d 4601     		.2byte	0x146
 787 023f 3B010000 		.4byte	0x13b
 788 0243 38       		.byte	0x38
 789 0244 09       		.uleb128 0x9
 790 0245 42050000 		.4byte	.LASF47
 791 0249 09       		.byte	0x9
 792 024a 4D01     		.2byte	0x14d
 793 024c E0070000 		.4byte	0x7e0
 794 0250 3C       		.byte	0x3c
 795 0251 09       		.uleb128 0x9
 796 0252 E2070000 		.4byte	.LASF48
 797 0256 09       		.byte	0x9
 798 0257 5101     		.2byte	0x151
ARM GAS  /tmp/ccO5RPHd.s 			page 15


 799 0259 25010000 		.4byte	0x125
 800 025d 40       		.byte	0x40
 801 025e 09       		.uleb128 0x9
 802 025f 70010000 		.4byte	.LASF49
 803 0263 09       		.byte	0x9
 804 0264 5801     		.2byte	0x158
 805 0266 54030000 		.4byte	0x354
 806 026a 44       		.byte	0x44
 807 026b 00       		.byte	0
 808 026c 03       		.uleb128 0x3
 809 026d C0030000 		.4byte	.LASF50
 810 0271 08       		.byte	0x8
 811 0272 44       		.byte	0x44
 812 0273 77020000 		.4byte	0x277
 813 0277 0A       		.uleb128 0xa
 814 0278 04       		.byte	0x4
 815 0279 5C010000 		.4byte	0x15c
 816 027d 03       		.uleb128 0x3
 817 027e 90030000 		.4byte	.LASF51
 818 0282 08       		.byte	0x8
 819 0283 49       		.byte	0x49
 820 0284 88020000 		.4byte	0x288
 821 0288 06       		.uleb128 0x6
 822 0289 37060000 		.4byte	.LASF53
 823 028d 04       		.byte	0x4
 824 028e 09       		.byte	0x9
 825 028f B0       		.byte	0xb0
 826 0290 A1020000 		.4byte	0x2a1
 827 0294 07       		.uleb128 0x7
 828 0295 84050000 		.4byte	.LASF31
 829 0299 09       		.byte	0x9
 830 029a B1       		.byte	0xb1
 831 029b 77020000 		.4byte	0x277
 832 029f 00       		.byte	0
 833 02a0 00       		.byte	0
 834 02a1 03       		.uleb128 0x3
 835 02a2 9A080000 		.4byte	.LASF54
 836 02a6 08       		.byte	0x8
 837 02a7 50       		.byte	0x50
 838 02a8 AC020000 		.4byte	0x2ac
 839 02ac 06       		.uleb128 0x6
 840 02ad FF000000 		.4byte	.LASF55
 841 02b1 08       		.byte	0x8
 842 02b2 09       		.byte	0x9
 843 02b3 B7       		.byte	0xb7
 844 02b4 D1020000 		.4byte	0x2d1
 845 02b8 07       		.uleb128 0x7
 846 02b9 84050000 		.4byte	.LASF31
 847 02bd 09       		.byte	0x9
 848 02be B8       		.byte	0xb8
 849 02bf 77020000 		.4byte	0x277
 850 02c3 00       		.byte	0
 851 02c4 07       		.uleb128 0x7
 852 02c5 AF040000 		.4byte	.LASF32
 853 02c9 09       		.byte	0x9
 854 02ca B9       		.byte	0xb9
 855 02cb 77020000 		.4byte	0x277
ARM GAS  /tmp/ccO5RPHd.s 			page 16


 856 02cf 04       		.byte	0x4
 857 02d0 00       		.byte	0
 858 02d1 03       		.uleb128 0x3
 859 02d2 15000000 		.4byte	.LASF56
 860 02d6 08       		.byte	0x8
 861 02d7 57       		.byte	0x57
 862 02d8 DC020000 		.4byte	0x2dc
 863 02dc 0B       		.uleb128 0xb
 864 02dd 4A030000 		.4byte	.LASF57
 865 02e1 1C       		.byte	0x1c
 866 02e2 09       		.byte	0x9
 867 02e3 9001     		.2byte	0x190
 868 02e5 38030000 		.4byte	0x338
 869 02e9 09       		.uleb128 0x9
 870 02ea 2F060000 		.4byte	.LASF58
 871 02ee 09       		.byte	0x9
 872 02ef 9101     		.2byte	0x191
 873 02f1 A1020000 		.4byte	0x2a1
 874 02f5 00       		.byte	0
 875 02f6 09       		.uleb128 0x9
 876 02f7 69050000 		.4byte	.LASF59
 877 02fb 09       		.byte	0x9
 878 02fc 9201     		.2byte	0x192
 879 02fe 25010000 		.4byte	0x125
 880 0302 08       		.byte	0x8
 881 0303 09       		.uleb128 0x9
 882 0304 26040000 		.4byte	.LASF60
 883 0308 09       		.byte	0x9
 884 0309 9401     		.2byte	0x194
 885 030b A1050000 		.4byte	0x5a1
 886 030f 0C       		.byte	0xc
 887 0310 09       		.uleb128 0x9
 888 0311 23020000 		.4byte	.LASF61
 889 0315 09       		.byte	0x9
 890 0316 9701     		.2byte	0x197
 891 0318 77020000 		.4byte	0x277
 892 031c 10       		.byte	0x10
 893 031d 09       		.uleb128 0x9
 894 031e 5C040000 		.4byte	.LASF62
 895 0322 09       		.byte	0x9
 896 0323 9801     		.2byte	0x198
 897 0325 77020000 		.4byte	0x277
 898 0329 14       		.byte	0x14
 899 032a 09       		.uleb128 0x9
 900 032b 52040000 		.4byte	.LASF63
 901 032f 09       		.byte	0x9
 902 0330 9B01     		.2byte	0x19b
 903 0332 77020000 		.4byte	0x277
 904 0336 18       		.byte	0x18
 905 0337 00       		.byte	0
 906 0338 03       		.uleb128 0x3
 907 0339 ED070000 		.4byte	.LASF64
 908 033d 08       		.byte	0x8
 909 033e 5C       		.byte	0x5c
 910 033f 43030000 		.4byte	0x343
 911 0343 0A       		.uleb128 0xa
 912 0344 04       		.byte	0x4
ARM GAS  /tmp/ccO5RPHd.s 			page 17


 913 0345 49030000 		.4byte	0x349
 914 0349 0C       		.uleb128 0xc
 915 034a 54030000 		.4byte	0x354
 916 034e 0D       		.uleb128 0xd
 917 034f 54030000 		.4byte	0x354
 918 0353 00       		.byte	0
 919 0354 0E       		.uleb128 0xe
 920 0355 04       		.byte	0x4
 921 0356 03       		.uleb128 0x3
 922 0357 9F040000 		.4byte	.LASF65
 923 035b 08       		.byte	0x8
 924 035c 61       		.byte	0x61
 925 035d 61030000 		.4byte	0x361
 926 0361 0B       		.uleb128 0xb
 927 0362 61080000 		.4byte	.LASF66
 928 0366 14       		.byte	0x14
 929 0367 09       		.byte	0x9
 930 0368 6B01     		.2byte	0x16b
 931 036a B0030000 		.4byte	0x3b0
 932 036e 09       		.uleb128 0x9
 933 036f 86020000 		.4byte	.LASF67
 934 0373 09       		.byte	0x9
 935 0374 6C01     		.2byte	0x16c
 936 0376 FD070000 		.4byte	0x7fd
 937 037a 00       		.byte	0
 938 037b 09       		.uleb128 0x9
 939 037c 34020000 		.4byte	.LASF68
 940 0380 09       		.byte	0x9
 941 0381 6D01     		.2byte	0x16d
 942 0383 FD070000 		.4byte	0x7fd
 943 0387 04       		.byte	0x4
 944 0388 09       		.uleb128 0x9
 945 0389 A9020000 		.4byte	.LASF69
 946 038d 09       		.byte	0x9
 947 038e 6E01     		.2byte	0x16e
 948 0390 51010000 		.4byte	0x151
 949 0394 08       		.byte	0x8
 950 0395 09       		.uleb128 0x9
 951 0396 65090000 		.4byte	.LASF70
 952 039a 09       		.byte	0x9
 953 039b 6F01     		.2byte	0x16f
 954 039d 38030000 		.4byte	0x338
 955 03a1 0C       		.byte	0xc
 956 03a2 09       		.uleb128 0x9
 957 03a3 89080000 		.4byte	.LASF71
 958 03a7 09       		.byte	0x9
 959 03a8 7101     		.2byte	0x171
 960 03aa 54030000 		.4byte	0x354
 961 03ae 10       		.byte	0x10
 962 03af 00       		.byte	0
 963 03b0 03       		.uleb128 0x3
 964 03b1 D7000000 		.4byte	.LASF72
 965 03b5 08       		.byte	0x8
 966 03b6 66       		.byte	0x66
 967 03b7 BB030000 		.4byte	0x3bb
 968 03bb 0B       		.uleb128 0xb
 969 03bc D3030000 		.4byte	.LASF73
ARM GAS  /tmp/ccO5RPHd.s 			page 18


 970 03c0 10       		.byte	0x10
 971 03c1 09       		.byte	0x9
 972 03c2 7B01     		.2byte	0x17b
 973 03c4 FD030000 		.4byte	0x3fd
 974 03c8 09       		.uleb128 0x9
 975 03c9 86020000 		.4byte	.LASF67
 976 03cd 09       		.byte	0x9
 977 03ce 7C01     		.2byte	0x17c
 978 03d0 FD070000 		.4byte	0x7fd
 979 03d4 00       		.byte	0
 980 03d5 09       		.uleb128 0x9
 981 03d6 34020000 		.4byte	.LASF68
 982 03da 09       		.byte	0x9
 983 03db 7E01     		.2byte	0x17e
 984 03dd FD070000 		.4byte	0x7fd
 985 03e1 04       		.byte	0x4
 986 03e2 09       		.uleb128 0x9
 987 03e3 A9020000 		.4byte	.LASF69
 988 03e7 09       		.byte	0x9
 989 03e8 8001     		.2byte	0x180
 990 03ea 51010000 		.4byte	0x151
 991 03ee 08       		.byte	0x8
 992 03ef 09       		.uleb128 0x9
 993 03f0 05090000 		.4byte	.LASF74
 994 03f4 09       		.byte	0x9
 995 03f5 8201     		.2byte	0x182
 996 03f7 F8070000 		.4byte	0x7f8
 997 03fb 0C       		.byte	0xc
 998 03fc 00       		.byte	0
 999 03fd 03       		.uleb128 0x3
 1000 03fe 64000000 		.4byte	.LASF75
 1001 0402 08       		.byte	0x8
 1002 0403 6B       		.byte	0x6b
 1003 0404 08040000 		.4byte	0x408
 1004 0408 0B       		.uleb128 0xb
 1005 0409 0E050000 		.4byte	.LASF76
 1006 040d 04       		.byte	0x4
 1007 040e 09       		.byte	0x9
 1008 040f A201     		.2byte	0x1a2
 1009 0411 23040000 		.4byte	0x423
 1010 0415 09       		.uleb128 0x9
 1011 0416 22080000 		.4byte	.LASF77
 1012 041a 09       		.byte	0x9
 1013 041b AA01     		.2byte	0x1aa
 1014 041d 03080000 		.4byte	0x803
 1015 0421 00       		.byte	0
 1016 0422 00       		.byte	0
 1017 0423 03       		.uleb128 0x3
 1018 0424 1E030000 		.4byte	.LASF78
 1019 0428 08       		.byte	0x8
 1020 0429 70       		.byte	0x70
 1021 042a 2E040000 		.4byte	0x42e
 1022 042e 0F       		.uleb128 0xf
 1023 042f D0010000 		.4byte	.LASF79
 1024 0433 5802     		.2byte	0x258
 1025 0435 09       		.byte	0x9
 1026 0436 C201     		.2byte	0x1c2
ARM GAS  /tmp/ccO5RPHd.s 			page 19


 1027 0438 8A040000 		.4byte	0x48a
 1028 043c 09       		.uleb128 0x9
 1029 043d C7080000 		.4byte	.LASF80
 1030 0441 09       		.byte	0x9
 1031 0442 C601     		.2byte	0x1c6
 1032 0444 D1020000 		.4byte	0x2d1
 1033 0448 00       		.byte	0
 1034 0449 09       		.uleb128 0x9
 1035 044a A3010000 		.4byte	.LASF81
 1036 044e 09       		.byte	0x9
 1037 044f CA01     		.2byte	0x1ca
 1038 0451 B0030000 		.4byte	0x3b0
 1039 0455 1C       		.byte	0x1c
 1040 0456 08       		.uleb128 0x8
 1041 0457 64626700 		.ascii	"dbg\000"
 1042 045b 09       		.byte	0x9
 1043 045c CE01     		.2byte	0x1ce
 1044 045e FD030000 		.4byte	0x3fd
 1045 0462 2C       		.byte	0x2c
 1046 0463 09       		.uleb128 0x9
 1047 0464 0D030000 		.4byte	.LASF82
 1048 0468 09       		.byte	0x9
 1049 0469 D201     		.2byte	0x1d2
 1050 046b 5C010000 		.4byte	0x15c
 1051 046f 30       		.byte	0x30
 1052 0470 08       		.uleb128 0x8
 1053 0471 746D00   		.ascii	"tm\000"
 1054 0474 09       		.byte	0x9
 1055 0475 D701     		.2byte	0x1d7
 1056 0477 16070000 		.4byte	0x716
 1057 047b 78       		.byte	0x78
 1058 047c 09       		.uleb128 0x9
 1059 047d 64020000 		.4byte	.LASF83
 1060 0481 09       		.byte	0x9
 1061 0482 E301     		.2byte	0x1e3
 1062 0484 08080000 		.4byte	0x808
 1063 0488 80       		.byte	0x80
 1064 0489 00       		.byte	0
 1065 048a 04       		.uleb128 0x4
 1066 048b 04       		.byte	0x4
 1067 048c 07       		.byte	0x7
 1068 048d B7030000 		.4byte	.LASF84
 1069 0491 10       		.uleb128 0x10
 1070 0492 18       		.byte	0x18
 1071 0493 0A       		.byte	0xa
 1072 0494 6B01     		.2byte	0x16b
 1073 0496 E8040000 		.4byte	0x4e8
 1074 049a 08       		.uleb128 0x8
 1075 049b 435200   		.ascii	"CR\000"
 1076 049e 0A       		.byte	0xa
 1077 049f 6D01     		.2byte	0x16d
 1078 04a1 E9000000 		.4byte	0xe9
 1079 04a5 00       		.byte	0
 1080 04a6 09       		.uleb128 0x9
 1081 04a7 1D080000 		.4byte	.LASF85
 1082 04ab 0A       		.byte	0xa
 1083 04ac 6E01     		.2byte	0x16e
ARM GAS  /tmp/ccO5RPHd.s 			page 20


 1084 04ae E9000000 		.4byte	0xe9
 1085 04b2 04       		.byte	0x4
 1086 04b3 08       		.uleb128 0x8
 1087 04b4 50415200 		.ascii	"PAR\000"
 1088 04b8 0A       		.byte	0xa
 1089 04b9 6F01     		.2byte	0x16f
 1090 04bb E9000000 		.4byte	0xe9
 1091 04bf 08       		.byte	0x8
 1092 04c0 09       		.uleb128 0x9
 1093 04c1 22000000 		.4byte	.LASF86
 1094 04c5 0A       		.byte	0xa
 1095 04c6 7001     		.2byte	0x170
 1096 04c8 E9000000 		.4byte	0xe9
 1097 04cc 0C       		.byte	0xc
 1098 04cd 09       		.uleb128 0x9
 1099 04ce 7A080000 		.4byte	.LASF87
 1100 04d2 0A       		.byte	0xa
 1101 04d3 7101     		.2byte	0x171
 1102 04d5 E9000000 		.4byte	0xe9
 1103 04d9 10       		.byte	0x10
 1104 04da 08       		.uleb128 0x8
 1105 04db 46435200 		.ascii	"FCR\000"
 1106 04df 0A       		.byte	0xa
 1107 04e0 7201     		.2byte	0x172
 1108 04e2 E9000000 		.4byte	0xe9
 1109 04e6 14       		.byte	0x14
 1110 04e7 00       		.byte	0
 1111 04e8 11       		.uleb128 0x11
 1112 04e9 3D080000 		.4byte	.LASF88
 1113 04ed 0A       		.byte	0xa
 1114 04ee 7301     		.2byte	0x173
 1115 04f0 91040000 		.4byte	0x491
 1116 04f4 10       		.uleb128 0x10
 1117 04f5 28       		.byte	0x28
 1118 04f6 0A       		.byte	0xa
 1119 04f7 3F02     		.2byte	0x23f
 1120 04f9 7F050000 		.4byte	0x57f
 1121 04fd 08       		.uleb128 0x8
 1122 04fe 43523100 		.ascii	"CR1\000"
 1123 0502 0A       		.byte	0xa
 1124 0503 4102     		.2byte	0x241
 1125 0505 E9000000 		.4byte	0xe9
 1126 0509 00       		.byte	0
 1127 050a 08       		.uleb128 0x8
 1128 050b 43523200 		.ascii	"CR2\000"
 1129 050f 0A       		.byte	0xa
 1130 0510 4202     		.2byte	0x242
 1131 0512 E9000000 		.4byte	0xe9
 1132 0516 04       		.byte	0x4
 1133 0517 09       		.uleb128 0x9
 1134 0518 D5080000 		.4byte	.LASF89
 1135 051c 0A       		.byte	0xa
 1136 051d 4302     		.2byte	0x243
 1137 051f E9000000 		.4byte	0xe9
 1138 0523 08       		.byte	0x8
 1139 0524 09       		.uleb128 0x9
 1140 0525 DA080000 		.4byte	.LASF90
ARM GAS  /tmp/ccO5RPHd.s 			page 21


 1141 0529 0A       		.byte	0xa
 1142 052a 4402     		.2byte	0x244
 1143 052c E9000000 		.4byte	0xe9
 1144 0530 0C       		.byte	0xc
 1145 0531 08       		.uleb128 0x8
 1146 0532 445200   		.ascii	"DR\000"
 1147 0535 0A       		.byte	0xa
 1148 0536 4502     		.2byte	0x245
 1149 0538 E9000000 		.4byte	0xe9
 1150 053c 10       		.byte	0x10
 1151 053d 08       		.uleb128 0x8
 1152 053e 53523100 		.ascii	"SR1\000"
 1153 0542 0A       		.byte	0xa
 1154 0543 4602     		.2byte	0x246
 1155 0545 E9000000 		.4byte	0xe9
 1156 0549 14       		.byte	0x14
 1157 054a 08       		.uleb128 0x8
 1158 054b 53523200 		.ascii	"SR2\000"
 1159 054f 0A       		.byte	0xa
 1160 0550 4702     		.2byte	0x247
 1161 0552 E9000000 		.4byte	0xe9
 1162 0556 18       		.byte	0x18
 1163 0557 08       		.uleb128 0x8
 1164 0558 43435200 		.ascii	"CCR\000"
 1165 055c 0A       		.byte	0xa
 1166 055d 4802     		.2byte	0x248
 1167 055f E9000000 		.4byte	0xe9
 1168 0563 1C       		.byte	0x1c
 1169 0564 09       		.uleb128 0x9
 1170 0565 92000000 		.4byte	.LASF91
 1171 0569 0A       		.byte	0xa
 1172 056a 4902     		.2byte	0x249
 1173 056c E9000000 		.4byte	0xe9
 1174 0570 20       		.byte	0x20
 1175 0571 09       		.uleb128 0x9
 1176 0572 EC010000 		.4byte	.LASF92
 1177 0576 0A       		.byte	0xa
 1178 0577 4A02     		.2byte	0x24a
 1179 0579 E9000000 		.4byte	0xe9
 1180 057d 24       		.byte	0x24
 1181 057e 00       		.byte	0
 1182 057f 11       		.uleb128 0x11
 1183 0580 2A090000 		.4byte	.LASF93
 1184 0584 0A       		.byte	0xa
 1185 0585 4B02     		.2byte	0x24b
 1186 0587 F4040000 		.4byte	0x4f4
 1187 058b 03       		.uleb128 0x3
 1188 058c 2B020000 		.4byte	.LASF94
 1189 0590 0B       		.byte	0xb
 1190 0591 65       		.byte	0x65
 1191 0592 54030000 		.4byte	0x354
 1192 0596 03       		.uleb128 0x3
 1193 0597 78030000 		.4byte	.LASF95
 1194 059b 0B       		.byte	0xb
 1195 059c 6D       		.byte	0x6d
 1196 059d D9000000 		.4byte	0xd9
 1197 05a1 06       		.uleb128 0x6
ARM GAS  /tmp/ccO5RPHd.s 			page 22


 1198 05a2 59080000 		.4byte	.LASF96
 1199 05a6 04       		.byte	0x4
 1200 05a7 0B       		.byte	0xb
 1201 05a8 89       		.byte	0x89
 1202 05a9 BA050000 		.4byte	0x5ba
 1203 05ad 12       		.uleb128 0x12
 1204 05ae 72313300 		.ascii	"r13\000"
 1205 05b2 0B       		.byte	0xb
 1206 05b3 8A       		.byte	0x8a
 1207 05b4 FB060000 		.4byte	0x6fb
 1208 05b8 00       		.byte	0
 1209 05b9 00       		.byte	0
 1210 05ba 06       		.uleb128 0x6
 1211 05bb 58000000 		.4byte	.LASF97
 1212 05bf 64       		.byte	0x64
 1213 05c0 0C       		.byte	0xc
 1214 05c1 F4       		.byte	0xf4
 1215 05c2 FB060000 		.4byte	0x6fb
 1216 05c6 12       		.uleb128 0x12
 1217 05c7 73313600 		.ascii	"s16\000"
 1218 05cb 0C       		.byte	0xc
 1219 05cc F6       		.byte	0xf6
 1220 05cd 8B050000 		.4byte	0x58b
 1221 05d1 00       		.byte	0
 1222 05d2 12       		.uleb128 0x12
 1223 05d3 73313700 		.ascii	"s17\000"
 1224 05d7 0C       		.byte	0xc
 1225 05d8 F7       		.byte	0xf7
 1226 05d9 8B050000 		.4byte	0x58b
 1227 05dd 04       		.byte	0x4
 1228 05de 12       		.uleb128 0x12
 1229 05df 73313800 		.ascii	"s18\000"
 1230 05e3 0C       		.byte	0xc
 1231 05e4 F8       		.byte	0xf8
 1232 05e5 8B050000 		.4byte	0x58b
 1233 05e9 08       		.byte	0x8
 1234 05ea 12       		.uleb128 0x12
 1235 05eb 73313900 		.ascii	"s19\000"
 1236 05ef 0C       		.byte	0xc
 1237 05f0 F9       		.byte	0xf9
 1238 05f1 8B050000 		.4byte	0x58b
 1239 05f5 0C       		.byte	0xc
 1240 05f6 12       		.uleb128 0x12
 1241 05f7 73323000 		.ascii	"s20\000"
 1242 05fb 0C       		.byte	0xc
 1243 05fc FA       		.byte	0xfa
 1244 05fd 8B050000 		.4byte	0x58b
 1245 0601 10       		.byte	0x10
 1246 0602 12       		.uleb128 0x12
 1247 0603 73323100 		.ascii	"s21\000"
 1248 0607 0C       		.byte	0xc
 1249 0608 FB       		.byte	0xfb
 1250 0609 8B050000 		.4byte	0x58b
 1251 060d 14       		.byte	0x14
 1252 060e 12       		.uleb128 0x12
 1253 060f 73323200 		.ascii	"s22\000"
 1254 0613 0C       		.byte	0xc
ARM GAS  /tmp/ccO5RPHd.s 			page 23


 1255 0614 FC       		.byte	0xfc
 1256 0615 8B050000 		.4byte	0x58b
 1257 0619 18       		.byte	0x18
 1258 061a 12       		.uleb128 0x12
 1259 061b 73323300 		.ascii	"s23\000"
 1260 061f 0C       		.byte	0xc
 1261 0620 FD       		.byte	0xfd
 1262 0621 8B050000 		.4byte	0x58b
 1263 0625 1C       		.byte	0x1c
 1264 0626 12       		.uleb128 0x12
 1265 0627 73323400 		.ascii	"s24\000"
 1266 062b 0C       		.byte	0xc
 1267 062c FE       		.byte	0xfe
 1268 062d 8B050000 		.4byte	0x58b
 1269 0631 20       		.byte	0x20
 1270 0632 12       		.uleb128 0x12
 1271 0633 73323500 		.ascii	"s25\000"
 1272 0637 0C       		.byte	0xc
 1273 0638 FF       		.byte	0xff
 1274 0639 8B050000 		.4byte	0x58b
 1275 063d 24       		.byte	0x24
 1276 063e 08       		.uleb128 0x8
 1277 063f 73323600 		.ascii	"s26\000"
 1278 0643 0C       		.byte	0xc
 1279 0644 0001     		.2byte	0x100
 1280 0646 8B050000 		.4byte	0x58b
 1281 064a 28       		.byte	0x28
 1282 064b 08       		.uleb128 0x8
 1283 064c 73323700 		.ascii	"s27\000"
 1284 0650 0C       		.byte	0xc
 1285 0651 0101     		.2byte	0x101
 1286 0653 8B050000 		.4byte	0x58b
 1287 0657 2C       		.byte	0x2c
 1288 0658 08       		.uleb128 0x8
 1289 0659 73323800 		.ascii	"s28\000"
 1290 065d 0C       		.byte	0xc
 1291 065e 0201     		.2byte	0x102
 1292 0660 8B050000 		.4byte	0x58b
 1293 0664 30       		.byte	0x30
 1294 0665 08       		.uleb128 0x8
 1295 0666 73323900 		.ascii	"s29\000"
 1296 066a 0C       		.byte	0xc
 1297 066b 0301     		.2byte	0x103
 1298 066d 8B050000 		.4byte	0x58b
 1299 0671 34       		.byte	0x34
 1300 0672 08       		.uleb128 0x8
 1301 0673 73333000 		.ascii	"s30\000"
 1302 0677 0C       		.byte	0xc
 1303 0678 0401     		.2byte	0x104
 1304 067a 8B050000 		.4byte	0x58b
 1305 067e 38       		.byte	0x38
 1306 067f 08       		.uleb128 0x8
 1307 0680 73333100 		.ascii	"s31\000"
 1308 0684 0C       		.byte	0xc
 1309 0685 0501     		.2byte	0x105
 1310 0687 8B050000 		.4byte	0x58b
 1311 068b 3C       		.byte	0x3c
ARM GAS  /tmp/ccO5RPHd.s 			page 24


 1312 068c 08       		.uleb128 0x8
 1313 068d 723400   		.ascii	"r4\000"
 1314 0690 0C       		.byte	0xc
 1315 0691 0701     		.2byte	0x107
 1316 0693 8B050000 		.4byte	0x58b
 1317 0697 40       		.byte	0x40
 1318 0698 08       		.uleb128 0x8
 1319 0699 723500   		.ascii	"r5\000"
 1320 069c 0C       		.byte	0xc
 1321 069d 0801     		.2byte	0x108
 1322 069f 8B050000 		.4byte	0x58b
 1323 06a3 44       		.byte	0x44
 1324 06a4 08       		.uleb128 0x8
 1325 06a5 723600   		.ascii	"r6\000"
 1326 06a8 0C       		.byte	0xc
 1327 06a9 0901     		.2byte	0x109
 1328 06ab 8B050000 		.4byte	0x58b
 1329 06af 48       		.byte	0x48
 1330 06b0 08       		.uleb128 0x8
 1331 06b1 723700   		.ascii	"r7\000"
 1332 06b4 0C       		.byte	0xc
 1333 06b5 0A01     		.2byte	0x10a
 1334 06b7 8B050000 		.4byte	0x58b
 1335 06bb 4C       		.byte	0x4c
 1336 06bc 08       		.uleb128 0x8
 1337 06bd 723800   		.ascii	"r8\000"
 1338 06c0 0C       		.byte	0xc
 1339 06c1 0B01     		.2byte	0x10b
 1340 06c3 8B050000 		.4byte	0x58b
 1341 06c7 50       		.byte	0x50
 1342 06c8 08       		.uleb128 0x8
 1343 06c9 723900   		.ascii	"r9\000"
 1344 06cc 0C       		.byte	0xc
 1345 06cd 0C01     		.2byte	0x10c
 1346 06cf 8B050000 		.4byte	0x58b
 1347 06d3 54       		.byte	0x54
 1348 06d4 08       		.uleb128 0x8
 1349 06d5 72313000 		.ascii	"r10\000"
 1350 06d9 0C       		.byte	0xc
 1351 06da 0D01     		.2byte	0x10d
 1352 06dc 8B050000 		.4byte	0x58b
 1353 06e0 58       		.byte	0x58
 1354 06e1 08       		.uleb128 0x8
 1355 06e2 72313100 		.ascii	"r11\000"
 1356 06e6 0C       		.byte	0xc
 1357 06e7 0E01     		.2byte	0x10e
 1358 06e9 8B050000 		.4byte	0x58b
 1359 06ed 5C       		.byte	0x5c
 1360 06ee 08       		.uleb128 0x8
 1361 06ef 6C7200   		.ascii	"lr\000"
 1362 06f2 0C       		.byte	0xc
 1363 06f3 0F01     		.2byte	0x10f
 1364 06f5 8B050000 		.4byte	0x58b
 1365 06f9 60       		.byte	0x60
 1366 06fa 00       		.byte	0
 1367 06fb 0A       		.uleb128 0xa
 1368 06fc 04       		.byte	0x4
ARM GAS  /tmp/ccO5RPHd.s 			page 25


 1369 06fd BA050000 		.4byte	0x5ba
 1370 0701 13       		.uleb128 0x13
 1371 0702 04       		.byte	0x4
 1372 0703 0D       		.byte	0xd
 1373 0704 38       		.byte	0x38
 1374 0705 16070000 		.4byte	0x716
 1375 0709 07       		.uleb128 0x7
 1376 070a 36080000 		.4byte	.LASF98
 1377 070e 0D       		.byte	0xd
 1378 070f 3C       		.byte	0x3c
 1379 0710 EE000000 		.4byte	0xee
 1380 0714 00       		.byte	0
 1381 0715 00       		.byte	0
 1382 0716 03       		.uleb128 0x3
 1383 0717 36040000 		.4byte	.LASF99
 1384 071b 0D       		.byte	0xd
 1385 071c 3D       		.byte	0x3d
 1386 071d 01070000 		.4byte	0x701
 1387 0721 14       		.uleb128 0x14
 1388 0722 04       		.byte	0x4
 1389 0723 09       		.byte	0x9
 1390 0724 FA       		.byte	0xfa
 1391 0725 7E070000 		.4byte	0x77e
 1392 0729 15       		.uleb128 0x15
 1393 072a 2E000000 		.4byte	.LASF100
 1394 072e 09       		.byte	0x9
 1395 072f 0101     		.2byte	0x101
 1396 0731 30010000 		.4byte	0x130
 1397 0735 15       		.uleb128 0x15
 1398 0736 C0000000 		.4byte	.LASF101
 1399 073a 09       		.byte	0x9
 1400 073b 0801     		.2byte	0x108
 1401 073d 30010000 		.4byte	0x130
 1402 0741 15       		.uleb128 0x15
 1403 0742 F7080000 		.4byte	.LASF102
 1404 0746 09       		.byte	0x9
 1405 0747 0F01     		.2byte	0x10f
 1406 0749 54030000 		.4byte	0x354
 1407 074d 15       		.uleb128 0x15
 1408 074e EA030000 		.4byte	.LASF103
 1409 0752 09       		.byte	0x9
 1410 0753 1601     		.2byte	0x116
 1411 0755 7E070000 		.4byte	0x77e
 1412 0759 15       		.uleb128 0x15
 1413 075a 9B020000 		.4byte	.LASF104
 1414 075e 09       		.byte	0x9
 1415 075f 1E01     		.2byte	0x11e
 1416 0761 A9070000 		.4byte	0x7a9
 1417 0765 15       		.uleb128 0x15
 1418 0766 28060000 		.4byte	.LASF105
 1419 076a 09       		.byte	0x9
 1420 076b 2701     		.2byte	0x127
 1421 076d E0070000 		.4byte	0x7e0
 1422 0771 15       		.uleb128 0x15
 1423 0772 7D050000 		.4byte	.LASF106
 1424 0776 09       		.byte	0x9
 1425 0777 2F01     		.2byte	0x12f
ARM GAS  /tmp/ccO5RPHd.s 			page 26


 1426 0779 3B010000 		.4byte	0x13b
 1427 077d 00       		.byte	0
 1428 077e 0A       		.uleb128 0xa
 1429 077f 04       		.byte	0x4
 1430 0780 6C020000 		.4byte	0x26c
 1431 0784 06       		.uleb128 0x6
 1432 0785 02060000 		.4byte	.LASF107
 1433 0789 0C       		.byte	0xc
 1434 078a 0E       		.byte	0xe
 1435 078b 34       		.byte	0x34
 1436 078c A9070000 		.4byte	0x7a9
 1437 0790 07       		.uleb128 0x7
 1438 0791 F9010000 		.4byte	.LASF108
 1439 0795 0E       		.byte	0xe
 1440 0796 35       		.byte	0x35
 1441 0797 A1020000 		.4byte	0x2a1
 1442 079b 00       		.byte	0
 1443 079c 07       		.uleb128 0x7
 1444 079d CC020000 		.4byte	.LASF109
 1445 07a1 0E       		.byte	0xe
 1446 07a2 37       		.byte	0x37
 1447 07a3 46010000 		.4byte	0x146
 1448 07a7 08       		.byte	0x8
 1449 07a8 00       		.byte	0
 1450 07a9 0A       		.uleb128 0xa
 1451 07aa 04       		.byte	0x4
 1452 07ab 84070000 		.4byte	0x784
 1453 07af 06       		.uleb128 0x6
 1454 07b0 50080000 		.4byte	.LASF110
 1455 07b4 10       		.byte	0x10
 1456 07b5 0F       		.byte	0xf
 1457 07b6 39       		.byte	0x39
 1458 07b7 E0070000 		.4byte	0x7e0
 1459 07bb 07       		.uleb128 0x7
 1460 07bc 3A050000 		.4byte	.LASF111
 1461 07c0 0F       		.byte	0xf
 1462 07c1 3A       		.byte	0x3a
 1463 07c2 A1020000 		.4byte	0x2a1
 1464 07c6 00       		.byte	0
 1465 07c7 07       		.uleb128 0x7
 1466 07c8 57090000 		.4byte	.LASF112
 1467 07cc 0F       		.byte	0xf
 1468 07cd 3C       		.byte	0x3c
 1469 07ce 77020000 		.4byte	0x277
 1470 07d2 08       		.byte	0x8
 1471 07d3 07       		.uleb128 0x7
 1472 07d4 D1070000 		.4byte	.LASF113
 1473 07d8 0F       		.byte	0xf
 1474 07d9 3E       		.byte	0x3e
 1475 07da 23080000 		.4byte	0x823
 1476 07de 0C       		.byte	0xc
 1477 07df 00       		.byte	0
 1478 07e0 0A       		.uleb128 0xa
 1479 07e1 04       		.byte	0x4
 1480 07e2 AF070000 		.4byte	0x7af
 1481 07e6 0A       		.uleb128 0xa
 1482 07e7 04       		.byte	0x4
ARM GAS  /tmp/ccO5RPHd.s 			page 27


 1483 07e8 EC070000 		.4byte	0x7ec
 1484 07ec 16       		.uleb128 0x16
 1485 07ed F1070000 		.4byte	0x7f1
 1486 07f1 04       		.uleb128 0x4
 1487 07f2 01       		.byte	0x1
 1488 07f3 08       		.byte	0x8
 1489 07f4 67060000 		.4byte	.LASF114
 1490 07f8 05       		.uleb128 0x5
 1491 07f9 51010000 		.4byte	0x151
 1492 07fd 0A       		.uleb128 0xa
 1493 07fe 04       		.byte	0x4
 1494 07ff 56030000 		.4byte	0x356
 1495 0803 05       		.uleb128 0x5
 1496 0804 E6070000 		.4byte	0x7e6
 1497 0808 17       		.uleb128 0x17
 1498 0809 96050000 		.4byte	0x596
 1499 080d 18080000 		.4byte	0x818
 1500 0811 18       		.uleb128 0x18
 1501 0812 8A040000 		.4byte	0x48a
 1502 0816 3A       		.byte	0x3a
 1503 0817 00       		.byte	0
 1504 0818 03       		.uleb128 0x3
 1505 0819 44010000 		.4byte	.LASF115
 1506 081d 0F       		.byte	0xf
 1507 081e 34       		.byte	0x34
 1508 081f AF070000 		.4byte	0x7af
 1509 0823 0A       		.uleb128 0xa
 1510 0824 04       		.byte	0x4
 1511 0825 18080000 		.4byte	0x818
 1512 0829 0A       		.uleb128 0xa
 1513 082a 04       		.byte	0x4
 1514 082b AD000000 		.4byte	0xad
 1515 082f 0A       		.uleb128 0xa
 1516 0830 04       		.byte	0x4
 1517 0831 35080000 		.4byte	0x835
 1518 0835 16       		.uleb128 0x16
 1519 0836 AD000000 		.4byte	0xad
 1520 083a 13       		.uleb128 0x13
 1521 083b 0C       		.byte	0xc
 1522 083c 10       		.byte	0x10
 1523 083d DA       		.byte	0xda
 1524 083e 7F080000 		.4byte	0x87f
 1525 0842 07       		.uleb128 0x7
 1526 0843 98000000 		.4byte	.LASF116
 1527 0847 10       		.byte	0x10
 1528 0848 DB       		.byte	0xdb
 1529 0849 7F080000 		.4byte	0x87f
 1530 084d 00       		.byte	0
 1531 084e 07       		.uleb128 0x7
 1532 084f 1A060000 		.4byte	.LASF117
 1533 0853 10       		.byte	0x10
 1534 0854 DC       		.byte	0xdc
 1535 0855 85080000 		.4byte	0x885
 1536 0859 04       		.byte	0x4
 1537 085a 07       		.uleb128 0x7
 1538 085b C5020000 		.4byte	.LASF118
 1539 085f 10       		.byte	0x10
ARM GAS  /tmp/ccO5RPHd.s 			page 28


 1540 0860 DD       		.byte	0xdd
 1541 0861 AD000000 		.4byte	0xad
 1542 0865 08       		.byte	0x8
 1543 0866 07       		.uleb128 0x7
 1544 0867 7F080000 		.4byte	.LASF119
 1545 086b 10       		.byte	0x10
 1546 086c DF       		.byte	0xdf
 1547 086d AD000000 		.4byte	0xad
 1548 0871 09       		.byte	0x9
 1549 0872 07       		.uleb128 0x7
 1550 0873 3E000000 		.4byte	.LASF120
 1551 0877 10       		.byte	0x10
 1552 0878 E0       		.byte	0xe0
 1553 0879 AD000000 		.4byte	0xad
 1554 087d 0A       		.byte	0xa
 1555 087e 00       		.byte	0
 1556 087f 0A       		.uleb128 0xa
 1557 0880 04       		.byte	0x4
 1558 0881 E8040000 		.4byte	0x4e8
 1559 0885 0A       		.uleb128 0xa
 1560 0886 04       		.byte	0x4
 1561 0887 E9000000 		.4byte	0xe9
 1562 088b 03       		.uleb128 0x3
 1563 088c B6040000 		.4byte	.LASF121
 1564 0890 10       		.byte	0x10
 1565 0891 E1       		.byte	0xe1
 1566 0892 3A080000 		.4byte	0x83a
 1567 0896 04       		.uleb128 0x4
 1568 0897 01       		.byte	0x1
 1569 0898 02       		.byte	0x2
 1570 0899 1E050000 		.4byte	.LASF122
 1571 089d 19       		.uleb128 0x19
 1572 089e 01       		.byte	0x1
 1573 089f 11       		.byte	0x11
 1574 08a0 4C       		.byte	0x4c
 1575 08a1 CA080000 		.4byte	0x8ca
 1576 08a5 1A       		.uleb128 0x1a
 1577 08a6 4C050000 		.4byte	.LASF123
 1578 08aa 00       		.sleb128 0
 1579 08ab 1A       		.uleb128 0x1a
 1580 08ac 4F000000 		.4byte	.LASF124
 1581 08b0 01       		.sleb128 1
 1582 08b1 1A       		.uleb128 0x1a
 1583 08b2 2C080000 		.4byte	.LASF125
 1584 08b6 02       		.sleb128 2
 1585 08b7 1A       		.uleb128 0x1a
 1586 08b8 DF040000 		.4byte	.LASF126
 1587 08bc 03       		.sleb128 3
 1588 08bd 1A       		.uleb128 0x1a
 1589 08be 47060000 		.4byte	.LASF127
 1590 08c2 04       		.sleb128 4
 1591 08c3 1A       		.uleb128 0x1a
 1592 08c4 F7050000 		.4byte	.LASF128
 1593 08c8 05       		.sleb128 5
 1594 08c9 00       		.byte	0
 1595 08ca 03       		.uleb128 0x3
 1596 08cb 7F040000 		.4byte	.LASF129
ARM GAS  /tmp/ccO5RPHd.s 			page 29


 1597 08cf 11       		.byte	0x11
 1598 08d0 53       		.byte	0x53
 1599 08d1 9D080000 		.4byte	0x89d
 1600 08d5 11       		.uleb128 0x11
 1601 08d6 C0010000 		.4byte	.LASF130
 1602 08da 12       		.byte	0x12
 1603 08db 6A01     		.2byte	0x16a
 1604 08dd B8000000 		.4byte	0xb8
 1605 08e1 11       		.uleb128 0x11
 1606 08e2 ED040000 		.4byte	.LASF131
 1607 08e6 12       		.byte	0x12
 1608 08e7 6F01     		.2byte	0x16f
 1609 08e9 CE000000 		.4byte	0xce
 1610 08ed 1B       		.uleb128 0x1b
 1611 08ee 01       		.byte	0x1
 1612 08ef 12       		.byte	0x12
 1613 08f0 7401     		.2byte	0x174
 1614 08f2 09090000 		.4byte	0x909
 1615 08f6 1A       		.uleb128 0x1a
 1616 08f7 47040000 		.4byte	.LASF132
 1617 08fb 01       		.sleb128 1
 1618 08fc 1A       		.uleb128 0x1a
 1619 08fd D2020000 		.4byte	.LASF133
 1620 0901 02       		.sleb128 2
 1621 0902 1A       		.uleb128 0x1a
 1622 0903 11020000 		.4byte	.LASF134
 1623 0907 03       		.sleb128 3
 1624 0908 00       		.byte	0
 1625 0909 11       		.uleb128 0x11
 1626 090a 36090000 		.4byte	.LASF135
 1627 090e 12       		.byte	0x12
 1628 090f 7801     		.2byte	0x178
 1629 0911 ED080000 		.4byte	0x8ed
 1630 0915 1B       		.uleb128 0x1b
 1631 0916 01       		.byte	0x1
 1632 0917 12       		.byte	0x12
 1633 0918 7D01     		.2byte	0x17d
 1634 091a 31090000 		.4byte	0x931
 1635 091e 1A       		.uleb128 0x1a
 1636 091f 3B030000 		.4byte	.LASF136
 1637 0923 01       		.sleb128 1
 1638 0924 1A       		.uleb128 0x1a
 1639 0925 E5050000 		.4byte	.LASF137
 1640 0929 02       		.sleb128 2
 1641 092a 1A       		.uleb128 0x1a
 1642 092b 8A040000 		.4byte	.LASF138
 1643 092f 03       		.sleb128 3
 1644 0930 00       		.byte	0
 1645 0931 11       		.uleb128 0x11
 1646 0932 06000000 		.4byte	.LASF139
 1647 0936 12       		.byte	0x12
 1648 0937 8101     		.2byte	0x181
 1649 0939 15090000 		.4byte	0x915
 1650 093d 10       		.uleb128 0x10
 1651 093e 0C       		.byte	0xc
 1652 093f 12       		.byte	0x12
 1653 0940 8601     		.2byte	0x186
ARM GAS  /tmp/ccO5RPHd.s 			page 30


 1654 0942 6E090000 		.4byte	0x96e
 1655 0946 09       		.uleb128 0x9
 1656 0947 3C020000 		.4byte	.LASF140
 1657 094b 12       		.byte	0x12
 1658 094c 8801     		.2byte	0x188
 1659 094e 09090000 		.4byte	0x909
 1660 0952 00       		.byte	0
 1661 0953 09       		.uleb128 0x9
 1662 0954 64010000 		.4byte	.LASF141
 1663 0958 12       		.byte	0x12
 1664 0959 8901     		.2byte	0x189
 1665 095b CE000000 		.4byte	0xce
 1666 095f 04       		.byte	0x4
 1667 0960 09       		.uleb128 0x9
 1668 0961 F9030000 		.4byte	.LASF142
 1669 0965 12       		.byte	0x12
 1670 0966 8C01     		.2byte	0x18c
 1671 0968 31090000 		.4byte	0x931
 1672 096c 08       		.byte	0x8
 1673 096d 00       		.byte	0
 1674 096e 11       		.uleb128 0x11
 1675 096f 90080000 		.4byte	.LASF143
 1676 0973 12       		.byte	0x12
 1677 0974 8E01     		.2byte	0x18e
 1678 0976 3D090000 		.4byte	0x93d
 1679 097a 11       		.uleb128 0x11
 1680 097b F9020000 		.4byte	.LASF144
 1681 097f 12       		.byte	0x12
 1682 0980 9301     		.2byte	0x193
 1683 0982 86090000 		.4byte	0x986
 1684 0986 0B       		.uleb128 0xb
 1685 0987 F9020000 		.4byte	.LASF144
 1686 098b 38       		.byte	0x38
 1687 098c 12       		.byte	0x12
 1688 098d 9801     		.2byte	0x198
 1689 098f 230A0000 		.4byte	0xa23
 1690 0993 09       		.uleb128 0x9
 1691 0994 CA010000 		.4byte	.LASF145
 1692 0998 12       		.byte	0x12
 1693 0999 9C01     		.2byte	0x19c
 1694 099b CA080000 		.4byte	0x8ca
 1695 099f 00       		.byte	0
 1696 09a0 09       		.uleb128 0x9
 1697 09a1 8B060000 		.4byte	.LASF146
 1698 09a5 12       		.byte	0x12
 1699 09a6 A001     		.2byte	0x1a0
 1700 09a8 230A0000 		.4byte	0xa23
 1701 09ac 04       		.byte	0x4
 1702 09ad 09       		.uleb128 0x9
 1703 09ae A2020000 		.4byte	.LASF147
 1704 09b2 12       		.byte	0x12
 1705 09b3 A401     		.2byte	0x1a4
 1706 09b5 E1080000 		.4byte	0x8e1
 1707 09b9 08       		.byte	0x8
 1708 09ba 09       		.uleb128 0x9
 1709 09bb F8040000 		.4byte	.LASF148
 1710 09bf 12       		.byte	0x12
ARM GAS  /tmp/ccO5RPHd.s 			page 31


 1711 09c0 A901     		.2byte	0x1a9
 1712 09c2 18080000 		.4byte	0x818
 1713 09c6 0C       		.byte	0xc
 1714 09c7 09       		.uleb128 0x9
 1715 09c8 42090000 		.4byte	.LASF149
 1716 09cc 12       		.byte	0x12
 1717 09cd B201     		.2byte	0x1b2
 1718 09cf 6C020000 		.4byte	0x26c
 1719 09d3 1C       		.byte	0x1c
 1720 09d4 09       		.uleb128 0x9
 1721 09d5 7E010000 		.4byte	.LASF150
 1722 09d9 12       		.byte	0x12
 1723 09da B601     		.2byte	0x1b6
 1724 09dc D5080000 		.4byte	0x8d5
 1725 09e0 20       		.byte	0x20
 1726 09e1 09       		.uleb128 0x9
 1727 09e2 01020000 		.4byte	.LASF151
 1728 09e6 12       		.byte	0x12
 1729 09e7 BA01     		.2byte	0x1ba
 1730 09e9 CE000000 		.4byte	0xce
 1731 09ed 24       		.byte	0x24
 1732 09ee 09       		.uleb128 0x9
 1733 09ef 2C040000 		.4byte	.LASF152
 1734 09f3 12       		.byte	0x12
 1735 09f4 BE01     		.2byte	0x1be
 1736 09f6 CE000000 		.4byte	0xce
 1737 09fa 28       		.byte	0x28
 1738 09fb 09       		.uleb128 0x9
 1739 09fc 00000000 		.4byte	.LASF153
 1740 0a00 12       		.byte	0x12
 1741 0a01 C201     		.2byte	0x1c2
 1742 0a03 2E0A0000 		.4byte	0xa2e
 1743 0a07 2C       		.byte	0x2c
 1744 0a08 09       		.uleb128 0x9
 1745 0a09 0B020000 		.4byte	.LASF154
 1746 0a0d 12       		.byte	0x12
 1747 0a0e C601     		.2byte	0x1c6
 1748 0a10 2E0A0000 		.4byte	0xa2e
 1749 0a14 30       		.byte	0x30
 1750 0a15 08       		.uleb128 0x8
 1751 0a16 69326300 		.ascii	"i2c\000"
 1752 0a1a 12       		.byte	0x12
 1753 0a1b CA01     		.2byte	0x1ca
 1754 0a1d 390A0000 		.4byte	0xa39
 1755 0a21 34       		.byte	0x34
 1756 0a22 00       		.byte	0
 1757 0a23 0A       		.uleb128 0xa
 1758 0a24 04       		.byte	0x4
 1759 0a25 290A0000 		.4byte	0xa29
 1760 0a29 16       		.uleb128 0x16
 1761 0a2a 6E090000 		.4byte	0x96e
 1762 0a2e 0A       		.uleb128 0xa
 1763 0a2f 04       		.byte	0x4
 1764 0a30 340A0000 		.4byte	0xa34
 1765 0a34 16       		.uleb128 0x16
 1766 0a35 8B080000 		.4byte	0x88b
 1767 0a39 0A       		.uleb128 0xa
ARM GAS  /tmp/ccO5RPHd.s 			page 32


 1768 0a3a 04       		.byte	0x4
 1769 0a3b 7F050000 		.4byte	0x57f
 1770 0a3f 1C       		.uleb128 0x1c
 1771 0a40 01080000 		.4byte	.LASF158
 1772 0a44 03       		.byte	0x3
 1773 0a45 2002     		.2byte	0x220
 1774 0a47 03       		.byte	0x3
 1775 0a48 590A0000 		.4byte	0xa59
 1776 0a4c 1D       		.uleb128 0x1d
 1777 0a4d 5E020000 		.4byte	.LASF161
 1778 0a51 03       		.byte	0x3
 1779 0a52 2002     		.2byte	0x220
 1780 0a54 CE000000 		.4byte	0xce
 1781 0a58 00       		.byte	0
 1782 0a59 1E       		.uleb128 0x1e
 1783 0a5a 9F000000 		.4byte	.LASF155
 1784 0a5e 0C       		.byte	0xc
 1785 0a5f BC01     		.2byte	0x1bc
 1786 0a61 03       		.byte	0x3
 1787 0a62 1E       		.uleb128 0x1e
 1788 0a63 AA010000 		.4byte	.LASF156
 1789 0a67 0C       		.byte	0xc
 1790 0a68 CA01     		.2byte	0x1ca
 1791 0a6a 03       		.byte	0x3
 1792 0a6b 1E       		.uleb128 0x1e
 1793 0a6c 9C050000 		.4byte	.LASF157
 1794 0a70 13       		.byte	0x13
 1795 0a71 5A01     		.2byte	0x15a
 1796 0a73 03       		.byte	0x3
 1797 0a74 1C       		.uleb128 0x1c
 1798 0a75 18090000 		.4byte	.LASF159
 1799 0a79 13       		.byte	0x13
 1800 0a7a 6601     		.2byte	0x166
 1801 0a7c 03       		.byte	0x3
 1802 0a7d 8F0A0000 		.4byte	0xa8f
 1803 0a81 1F       		.uleb128 0x1f
 1804 0a82 93050000 		.4byte	.LASF171
 1805 0a86 9F0A0000 		.4byte	0xa9f
 1806 0a8a 18090000 		.4byte	.LASF159
 1807 0a8e 00       		.byte	0
 1808 0a8f 17       		.uleb128 0x17
 1809 0a90 F1070000 		.4byte	0x7f1
 1810 0a94 9F0A0000 		.4byte	0xa9f
 1811 0a98 18       		.uleb128 0x18
 1812 0a99 8A040000 		.4byte	0x48a
 1813 0a9d 0B       		.byte	0xb
 1814 0a9e 00       		.byte	0
 1815 0a9f 16       		.uleb128 0x16
 1816 0aa0 8F0A0000 		.4byte	0xa8f
 1817 0aa4 1C       		.uleb128 0x1c
 1818 0aa5 30010000 		.4byte	.LASF160
 1819 0aa9 02       		.byte	0x2
 1820 0aaa 7403     		.2byte	0x374
 1821 0aac 03       		.byte	0x3
 1822 0aad BD0A0000 		.4byte	0xabd
 1823 0ab1 20       		.uleb128 0x20
 1824 0ab2 6D7000   		.ascii	"mp\000"
ARM GAS  /tmp/ccO5RPHd.s 			page 33


 1825 0ab5 02       		.byte	0x2
 1826 0ab6 7403     		.2byte	0x374
 1827 0ab8 23080000 		.4byte	0x823
 1828 0abc 00       		.byte	0
 1829 0abd 1E       		.uleb128 0x1e
 1830 0abe 44020000 		.4byte	.LASF162
 1831 0ac2 02       		.byte	0x2
 1832 0ac3 EB01     		.2byte	0x1eb
 1833 0ac5 03       		.byte	0x3
 1834 0ac6 1E       		.uleb128 0x1e
 1835 0ac7 D7050000 		.4byte	.LASF163
 1836 0acb 02       		.byte	0x2
 1837 0acc F601     		.2byte	0x1f6
 1838 0ace 03       		.byte	0x3
 1839 0acf 1C       		.uleb128 0x1c
 1840 0ad0 0F080000 		.4byte	.LASF164
 1841 0ad4 02       		.byte	0x2
 1842 0ad5 8803     		.2byte	0x388
 1843 0ad7 03       		.byte	0x3
 1844 0ad8 E80A0000 		.4byte	0xae8
 1845 0adc 20       		.uleb128 0x20
 1846 0add 6D7000   		.ascii	"mp\000"
 1847 0ae0 02       		.byte	0x2
 1848 0ae1 8803     		.2byte	0x388
 1849 0ae3 23080000 		.4byte	0x823
 1850 0ae7 00       		.byte	0
 1851 0ae8 1C       		.uleb128 0x1c
 1852 0ae9 92060000 		.4byte	.LASF165
 1853 0aed 02       		.byte	0x2
 1854 0aee A003     		.2byte	0x3a0
 1855 0af0 03       		.byte	0x3
 1856 0af1 010B0000 		.4byte	0xb01
 1857 0af5 20       		.uleb128 0x20
 1858 0af6 6D7000   		.ascii	"mp\000"
 1859 0af9 02       		.byte	0x2
 1860 0afa A003     		.2byte	0x3a0
 1861 0afc 23080000 		.4byte	0x823
 1862 0b00 00       		.byte	0
 1863 0b01 21       		.uleb128 0x21
 1864 0b02 10090000 		.4byte	.LASF166
 1865 0b06 01       		.byte	0x1
 1866 0b07 3B       		.byte	0x3b
 1867 0b08 00000000 		.4byte	.LFB256
 1868 0b0c 04000000 		.4byte	.LFE256-.LFB256
 1869 0b10 01       		.uleb128 0x1
 1870 0b11 9C       		.byte	0x9c
 1871 0b12 200B0000 		.4byte	0xb20
 1872 0b16 22       		.uleb128 0x22
 1873 0b17 04000000 		.4byte	.LVL0
 1874 0b1b 78110000 		.4byte	0x1178
 1875 0b1f 00       		.byte	0
 1876 0b20 21       		.uleb128 0x21
 1877 0b21 49090000 		.4byte	.LASF167
 1878 0b25 01       		.byte	0x1
 1879 0b26 47       		.byte	0x47
 1880 0b27 00000000 		.4byte	.LFB257
 1881 0b2b 0E000000 		.4byte	.LFE257-.LFB257
ARM GAS  /tmp/ccO5RPHd.s 			page 34


 1882 0b2f 01       		.uleb128 0x1
 1883 0b30 9C       		.byte	0x9c
 1884 0b31 710B0000 		.4byte	0xb71
 1885 0b35 23       		.uleb128 0x23
 1886 0b36 FA000000 		.4byte	.LASF169
 1887 0b3a 01       		.byte	0x1
 1888 0b3b 47       		.byte	0x47
 1889 0b3c 710B0000 		.4byte	0xb71
 1890 0b40 00000000 		.4byte	.LLST0
 1891 0b44 24       		.uleb128 0x24
 1892 0b45 A40A0000 		.4byte	0xaa4
 1893 0b49 08000000 		.4byte	.LBB82
 1894 0b4d 06000000 		.4byte	.LBE82-.LBB82
 1895 0b51 01       		.byte	0x1
 1896 0b52 4D       		.byte	0x4d
 1897 0b53 25       		.uleb128 0x25
 1898 0b54 B10A0000 		.4byte	0xab1
 1899 0b58 2E000000 		.4byte	.LLST1
 1900 0b5c 26       		.uleb128 0x26
 1901 0b5d 0E000000 		.4byte	.LVL4
 1902 0b61 80110000 		.4byte	0x1180
 1903 0b65 27       		.uleb128 0x27
 1904 0b66 01       		.uleb128 0x1
 1905 0b67 50       		.byte	0x50
 1906 0b68 05       		.uleb128 0x5
 1907 0b69 F3       		.byte	0xf3
 1908 0b6a 01       		.uleb128 0x1
 1909 0b6b 50       		.byte	0x50
 1910 0b6c 23       		.byte	0x23
 1911 0b6d 0C       		.uleb128 0xc
 1912 0b6e 00       		.byte	0
 1913 0b6f 00       		.byte	0
 1914 0b70 00       		.byte	0
 1915 0b71 0A       		.uleb128 0xa
 1916 0b72 04       		.byte	0x4
 1917 0b73 7A090000 		.4byte	0x97a
 1918 0b77 21       		.uleb128 0x21
 1919 0b78 F0030000 		.4byte	.LASF168
 1920 0b7c 01       		.byte	0x1
 1921 0b7d 5D       		.byte	0x5d
 1922 0b7e 00000000 		.4byte	.LFB258
 1923 0b82 1C000000 		.4byte	.LFE258-.LFB258
 1924 0b86 01       		.uleb128 0x1
 1925 0b87 9C       		.byte	0x9c
 1926 0b88 6D0C0000 		.4byte	0xc6d
 1927 0b8c 23       		.uleb128 0x23
 1928 0b8d FA000000 		.4byte	.LASF169
 1929 0b91 01       		.byte	0x1
 1930 0b92 5D       		.byte	0x5d
 1931 0b93 710B0000 		.4byte	0xb71
 1932 0b97 5E000000 		.4byte	.LLST2
 1933 0b9b 23       		.uleb128 0x23
 1934 0b9c 8B060000 		.4byte	.LASF146
 1935 0ba0 01       		.byte	0x1
 1936 0ba1 5D       		.byte	0x5d
 1937 0ba2 230A0000 		.4byte	0xa23
 1938 0ba6 7C000000 		.4byte	.LLST3
ARM GAS  /tmp/ccO5RPHd.s 			page 35


 1939 0baa 28       		.uleb128 0x28
 1940 0bab 93050000 		.4byte	.LASF171
 1941 0baf 7D0C0000 		.4byte	0xc7d
 1942 0bb3 29       		.uleb128 0x29
 1943 0bb4 BD0A0000 		.4byte	0xabd
 1944 0bb8 02000000 		.4byte	.LBB84
 1945 0bbc 00000000 		.4byte	.Ldebug_ranges0+0
 1946 0bc0 01       		.byte	0x1
 1947 0bc1 63       		.byte	0x63
 1948 0bc2 000C0000 		.4byte	0xc00
 1949 0bc6 2A       		.uleb128 0x2a
 1950 0bc7 6B0A0000 		.4byte	0xa6b
 1951 0bcb 02000000 		.4byte	.LBB85
 1952 0bcf 00000000 		.4byte	.Ldebug_ranges0+0
 1953 0bd3 02       		.byte	0x2
 1954 0bd4 ED01     		.2byte	0x1ed
 1955 0bd6 2A       		.uleb128 0x2a
 1956 0bd7 590A0000 		.4byte	0xa59
 1957 0bdb 02000000 		.4byte	.LBB86
 1958 0bdf 00000000 		.4byte	.Ldebug_ranges0+0
 1959 0be3 13       		.byte	0x13
 1960 0be4 5C01     		.2byte	0x15c
 1961 0be6 2A       		.uleb128 0x2a
 1962 0be7 3F0A0000 		.4byte	0xa3f
 1963 0beb 02000000 		.4byte	.LBB87
 1964 0bef 00000000 		.4byte	.Ldebug_ranges0+0
 1965 0bf3 0C       		.byte	0xc
 1966 0bf4 BF01     		.2byte	0x1bf
 1967 0bf6 2B       		.uleb128 0x2b
 1968 0bf7 4C0A0000 		.4byte	0xa4c
 1969 0bfb 20       		.byte	0x20
 1970 0bfc 00       		.byte	0
 1971 0bfd 00       		.byte	0
 1972 0bfe 00       		.byte	0
 1973 0bff 00       		.byte	0
 1974 0c00 2C       		.uleb128 0x2c
 1975 0c01 C60A0000 		.4byte	0xac6
 1976 0c05 14000000 		.4byte	.LBB94
 1977 0c09 08000000 		.4byte	.LBE94-.LBB94
 1978 0c0d 01       		.byte	0x1
 1979 0c0e 67       		.byte	0x67
 1980 0c0f 5C0C0000 		.4byte	0xc5c
 1981 0c13 2D       		.uleb128 0x2d
 1982 0c14 740A0000 		.4byte	0xa74
 1983 0c18 14000000 		.4byte	.LBB95
 1984 0c1c 08000000 		.4byte	.LBE95-.LBB95
 1985 0c20 02       		.byte	0x2
 1986 0c21 F801     		.2byte	0x1f8
 1987 0c23 2E       		.uleb128 0x2e
 1988 0c24 14000000 		.4byte	.LBB96
 1989 0c28 08000000 		.4byte	.LBE96-.LBB96
 1990 0c2c 2F       		.uleb128 0x2f
 1991 0c2d 810A0000 		.4byte	0xa81
 1992 0c31 2D       		.uleb128 0x2d
 1993 0c32 620A0000 		.4byte	0xa62
 1994 0c36 14000000 		.4byte	.LBB97
 1995 0c3a 08000000 		.4byte	.LBE97-.LBB97
ARM GAS  /tmp/ccO5RPHd.s 			page 36


 1996 0c3e 13       		.byte	0x13
 1997 0c3f 7301     		.2byte	0x173
 1998 0c41 2D       		.uleb128 0x2d
 1999 0c42 3F0A0000 		.4byte	0xa3f
 2000 0c46 14000000 		.4byte	.LBB98
 2001 0c4a 08000000 		.4byte	.LBE98-.LBB98
 2002 0c4e 0C       		.byte	0xc
 2003 0c4f CD01     		.2byte	0x1cd
 2004 0c51 2B       		.uleb128 0x2b
 2005 0c52 4C0A0000 		.4byte	0xa4c
 2006 0c56 00       		.byte	0
 2007 0c57 00       		.byte	0
 2008 0c58 00       		.byte	0
 2009 0c59 00       		.byte	0
 2010 0c5a 00       		.byte	0
 2011 0c5b 00       		.byte	0
 2012 0c5c 30       		.uleb128 0x30
 2013 0c5d 10000000 		.4byte	.LVL6
 2014 0c61 91110000 		.4byte	0x1191
 2015 0c65 27       		.uleb128 0x27
 2016 0c66 01       		.uleb128 0x1
 2017 0c67 50       		.byte	0x50
 2018 0c68 02       		.uleb128 0x2
 2019 0c69 74       		.byte	0x74
 2020 0c6a 00       		.sleb128 0
 2021 0c6b 00       		.byte	0
 2022 0c6c 00       		.byte	0
 2023 0c6d 17       		.uleb128 0x17
 2024 0c6e F1070000 		.4byte	0x7f1
 2025 0c72 7D0C0000 		.4byte	0xc7d
 2026 0c76 18       		.uleb128 0x18
 2027 0c77 8A040000 		.4byte	0x48a
 2028 0c7b 08       		.byte	0x8
 2029 0c7c 00       		.byte	0
 2030 0c7d 16       		.uleb128 0x16
 2031 0c7e 6D0C0000 		.4byte	0xc6d
 2032 0c82 21       		.uleb128 0x21
 2033 0c83 1E040000 		.4byte	.LASF170
 2034 0c87 01       		.byte	0x1
 2035 0c88 71       		.byte	0x71
 2036 0c89 00000000 		.4byte	.LFB259
 2037 0c8d 1A000000 		.4byte	.LFE259-.LFB259
 2038 0c91 01       		.uleb128 0x1
 2039 0c92 9C       		.byte	0x9c
 2040 0c93 690D0000 		.4byte	0xd69
 2041 0c97 23       		.uleb128 0x23
 2042 0c98 FA000000 		.4byte	.LASF169
 2043 0c9c 01       		.byte	0x1
 2044 0c9d 71       		.byte	0x71
 2045 0c9e 710B0000 		.4byte	0xb71
 2046 0ca2 9D000000 		.4byte	.LLST4
 2047 0ca6 28       		.uleb128 0x28
 2048 0ca7 93050000 		.4byte	.LASF171
 2049 0cab 790D0000 		.4byte	0xd79
 2050 0caf 29       		.uleb128 0x29
 2051 0cb0 BD0A0000 		.4byte	0xabd
 2052 0cb4 02000000 		.4byte	.LBB100
ARM GAS  /tmp/ccO5RPHd.s 			page 37


 2053 0cb8 18000000 		.4byte	.Ldebug_ranges0+0x18
 2054 0cbc 01       		.byte	0x1
 2055 0cbd 77       		.byte	0x77
 2056 0cbe FC0C0000 		.4byte	0xcfc
 2057 0cc2 2A       		.uleb128 0x2a
 2058 0cc3 6B0A0000 		.4byte	0xa6b
 2059 0cc7 02000000 		.4byte	.LBB101
 2060 0ccb 18000000 		.4byte	.Ldebug_ranges0+0x18
 2061 0ccf 02       		.byte	0x2
 2062 0cd0 ED01     		.2byte	0x1ed
 2063 0cd2 2A       		.uleb128 0x2a
 2064 0cd3 590A0000 		.4byte	0xa59
 2065 0cd7 02000000 		.4byte	.LBB102
 2066 0cdb 18000000 		.4byte	.Ldebug_ranges0+0x18
 2067 0cdf 13       		.byte	0x13
 2068 0ce0 5C01     		.2byte	0x15c
 2069 0ce2 2A       		.uleb128 0x2a
 2070 0ce3 3F0A0000 		.4byte	0xa3f
 2071 0ce7 02000000 		.4byte	.LBB103
 2072 0ceb 18000000 		.4byte	.Ldebug_ranges0+0x18
 2073 0cef 0C       		.byte	0xc
 2074 0cf0 BF01     		.2byte	0x1bf
 2075 0cf2 2B       		.uleb128 0x2b
 2076 0cf3 4C0A0000 		.4byte	0xa4c
 2077 0cf7 20       		.byte	0x20
 2078 0cf8 00       		.byte	0
 2079 0cf9 00       		.byte	0
 2080 0cfa 00       		.byte	0
 2081 0cfb 00       		.byte	0
 2082 0cfc 2C       		.uleb128 0x2c
 2083 0cfd C60A0000 		.4byte	0xac6
 2084 0d01 12000000 		.4byte	.LBB110
 2085 0d05 08000000 		.4byte	.LBE110-.LBB110
 2086 0d09 01       		.byte	0x1
 2087 0d0a 7A       		.byte	0x7a
 2088 0d0b 580D0000 		.4byte	0xd58
 2089 0d0f 2D       		.uleb128 0x2d
 2090 0d10 740A0000 		.4byte	0xa74
 2091 0d14 12000000 		.4byte	.LBB111
 2092 0d18 08000000 		.4byte	.LBE111-.LBB111
 2093 0d1c 02       		.byte	0x2
 2094 0d1d F801     		.2byte	0x1f8
 2095 0d1f 2E       		.uleb128 0x2e
 2096 0d20 12000000 		.4byte	.LBB112
 2097 0d24 08000000 		.4byte	.LBE112-.LBB112
 2098 0d28 2F       		.uleb128 0x2f
 2099 0d29 810A0000 		.4byte	0xa81
 2100 0d2d 2D       		.uleb128 0x2d
 2101 0d2e 620A0000 		.4byte	0xa62
 2102 0d32 12000000 		.4byte	.LBB113
 2103 0d36 08000000 		.4byte	.LBE113-.LBB113
 2104 0d3a 13       		.byte	0x13
 2105 0d3b 7301     		.2byte	0x173
 2106 0d3d 2D       		.uleb128 0x2d
 2107 0d3e 3F0A0000 		.4byte	0xa3f
 2108 0d42 12000000 		.4byte	.LBB114
 2109 0d46 08000000 		.4byte	.LBE114-.LBB114
ARM GAS  /tmp/ccO5RPHd.s 			page 38


 2110 0d4a 0C       		.byte	0xc
 2111 0d4b CD01     		.2byte	0x1cd
 2112 0d4d 2B       		.uleb128 0x2b
 2113 0d4e 4C0A0000 		.4byte	0xa4c
 2114 0d52 00       		.byte	0
 2115 0d53 00       		.byte	0
 2116 0d54 00       		.byte	0
 2117 0d55 00       		.byte	0
 2118 0d56 00       		.byte	0
 2119 0d57 00       		.byte	0
 2120 0d58 30       		.uleb128 0x30
 2121 0d59 0E000000 		.4byte	.LVL9
 2122 0d5d A3110000 		.4byte	0x11a3
 2123 0d61 27       		.uleb128 0x27
 2124 0d62 01       		.uleb128 0x1
 2125 0d63 50       		.byte	0x50
 2126 0d64 02       		.uleb128 0x2
 2127 0d65 74       		.byte	0x74
 2128 0d66 00       		.sleb128 0
 2129 0d67 00       		.byte	0
 2130 0d68 00       		.byte	0
 2131 0d69 17       		.uleb128 0x17
 2132 0d6a F1070000 		.4byte	0x7f1
 2133 0d6e 790D0000 		.4byte	0xd79
 2134 0d72 18       		.uleb128 0x18
 2135 0d73 8A040000 		.4byte	0x48a
 2136 0d77 07       		.byte	0x7
 2137 0d78 00       		.byte	0
 2138 0d79 16       		.uleb128 0x16
 2139 0d7a 690D0000 		.4byte	0xd69
 2140 0d7e 31       		.uleb128 0x31
 2141 0d7f 70050000 		.4byte	.LASF172
 2142 0d83 01       		.byte	0x1
 2143 0d84 85       		.byte	0x85
 2144 0d85 E1080000 		.4byte	0x8e1
 2145 0d89 00000000 		.4byte	.LFB260
 2146 0d8d 04000000 		.4byte	.LFE260-.LFB260
 2147 0d91 01       		.uleb128 0x1
 2148 0d92 9C       		.byte	0x9c
 2149 0d93 B00D0000 		.4byte	0xdb0
 2150 0d97 23       		.uleb128 0x23
 2151 0d98 FA000000 		.4byte	.LASF169
 2152 0d9c 01       		.byte	0x1
 2153 0d9d 85       		.byte	0x85
 2154 0d9e 710B0000 		.4byte	0xb71
 2155 0da2 BB000000 		.4byte	.LLST5
 2156 0da6 28       		.uleb128 0x28
 2157 0da7 93050000 		.4byte	.LASF171
 2158 0dab C00D0000 		.4byte	0xdc0
 2159 0daf 00       		.byte	0
 2160 0db0 17       		.uleb128 0x17
 2161 0db1 F1070000 		.4byte	0x7f1
 2162 0db5 C00D0000 		.4byte	0xdc0
 2163 0db9 18       		.uleb128 0x18
 2164 0dba 8A040000 		.4byte	0x48a
 2165 0dbe 0C       		.byte	0xc
 2166 0dbf 00       		.byte	0
ARM GAS  /tmp/ccO5RPHd.s 			page 39


 2167 0dc0 16       		.uleb128 0x16
 2168 0dc1 B00D0000 		.4byte	0xdb0
 2169 0dc5 31       		.uleb128 0x31
 2170 0dc6 17010000 		.4byte	.LASF173
 2171 0dca 01       		.byte	0x1
 2172 0dcb A6       		.byte	0xa6
 2173 0dcc 30010000 		.4byte	0x130
 2174 0dd0 00000000 		.4byte	.LFB261
 2175 0dd4 3E000000 		.4byte	.LFE261-.LFB261
 2176 0dd8 01       		.uleb128 0x1
 2177 0dd9 9C       		.byte	0x9c
 2178 0dda 220F0000 		.4byte	0xf22
 2179 0dde 23       		.uleb128 0x23
 2180 0ddf FA000000 		.4byte	.LASF169
 2181 0de3 01       		.byte	0x1
 2182 0de4 A6       		.byte	0xa6
 2183 0de5 710B0000 		.4byte	0xb71
 2184 0de9 DC000000 		.4byte	.LLST6
 2185 0ded 23       		.uleb128 0x23
 2186 0dee 7E010000 		.4byte	.LASF150
 2187 0df2 01       		.byte	0x1
 2188 0df3 A7       		.byte	0xa7
 2189 0df4 D5080000 		.4byte	0x8d5
 2190 0df8 FA000000 		.4byte	.LLST7
 2191 0dfc 23       		.uleb128 0x23
 2192 0dfd 8E020000 		.4byte	.LASF174
 2193 0e01 01       		.byte	0x1
 2194 0e02 A8       		.byte	0xa8
 2195 0e03 2F080000 		.4byte	0x82f
 2196 0e07 1B010000 		.4byte	.LLST8
 2197 0e0b 23       		.uleb128 0x23
 2198 0e0c 64040000 		.4byte	.LASF175
 2199 0e10 01       		.byte	0x1
 2200 0e11 A9       		.byte	0xa9
 2201 0e12 2C000000 		.4byte	0x2c
 2202 0e16 3C010000 		.4byte	.LLST9
 2203 0e1a 32       		.uleb128 0x32
 2204 0e1b 78010000 		.4byte	.LASF176
 2205 0e1f 01       		.byte	0x1
 2206 0e20 AA       		.byte	0xaa
 2207 0e21 29080000 		.4byte	0x829
 2208 0e25 02       		.uleb128 0x2
 2209 0e26 91       		.byte	0x91
 2210 0e27 00       		.sleb128 0
 2211 0e28 32       		.uleb128 0x32
 2212 0e29 16040000 		.4byte	.LASF177
 2213 0e2d 01       		.byte	0x1
 2214 0e2e AB       		.byte	0xab
 2215 0e2f 2C000000 		.4byte	0x2c
 2216 0e33 02       		.uleb128 0x2
 2217 0e34 91       		.byte	0x91
 2218 0e35 04       		.sleb128 4
 2219 0e36 32       		.uleb128 0x32
 2220 0e37 BD020000 		.4byte	.LASF178
 2221 0e3b 01       		.byte	0x1
 2222 0e3c AC       		.byte	0xac
 2223 0e3d 51010000 		.4byte	0x151
ARM GAS  /tmp/ccO5RPHd.s 			page 40


 2224 0e41 02       		.uleb128 0x2
 2225 0e42 91       		.byte	0x91
 2226 0e43 08       		.sleb128 8
 2227 0e44 33       		.uleb128 0x33
 2228 0e45 2E000000 		.4byte	.LASF100
 2229 0e49 01       		.byte	0x1
 2230 0e4a AD       		.byte	0xad
 2231 0e4b 30010000 		.4byte	0x130
 2232 0e4f 01       		.uleb128 0x1
 2233 0e50 50       		.byte	0x50
 2234 0e51 28       		.uleb128 0x28
 2235 0e52 93050000 		.4byte	.LASF171
 2236 0e56 320F0000 		.4byte	0xf32
 2237 0e5a 2C       		.uleb128 0x2c
 2238 0e5b BD0A0000 		.4byte	0xabd
 2239 0e5f 0A000000 		.4byte	.LBB116
 2240 0e63 08000000 		.4byte	.LBE116-.LBB116
 2241 0e67 01       		.byte	0x1
 2242 0e68 B6       		.byte	0xb6
 2243 0e69 A70E0000 		.4byte	0xea7
 2244 0e6d 2D       		.uleb128 0x2d
 2245 0e6e 6B0A0000 		.4byte	0xa6b
 2246 0e72 0A000000 		.4byte	.LBB117
 2247 0e76 08000000 		.4byte	.LBE117-.LBB117
 2248 0e7a 02       		.byte	0x2
 2249 0e7b ED01     		.2byte	0x1ed
 2250 0e7d 2D       		.uleb128 0x2d
 2251 0e7e 590A0000 		.4byte	0xa59
 2252 0e82 0A000000 		.4byte	.LBB118
 2253 0e86 08000000 		.4byte	.LBE118-.LBB118
 2254 0e8a 13       		.byte	0x13
 2255 0e8b 5C01     		.2byte	0x15c
 2256 0e8d 2D       		.uleb128 0x2d
 2257 0e8e 3F0A0000 		.4byte	0xa3f
 2258 0e92 0A000000 		.4byte	.LBB119
 2259 0e96 08000000 		.4byte	.LBE119-.LBB119
 2260 0e9a 0C       		.byte	0xc
 2261 0e9b BF01     		.2byte	0x1bf
 2262 0e9d 2B       		.uleb128 0x2b
 2263 0e9e 4C0A0000 		.4byte	0xa4c
 2264 0ea2 20       		.byte	0x20
 2265 0ea3 00       		.byte	0
 2266 0ea4 00       		.byte	0
 2267 0ea5 00       		.byte	0
 2268 0ea6 00       		.byte	0
 2269 0ea7 2C       		.uleb128 0x2c
 2270 0ea8 C60A0000 		.4byte	0xac6
 2271 0eac 34000000 		.4byte	.LBB121
 2272 0eb0 06000000 		.4byte	.LBE121-.LBB121
 2273 0eb4 01       		.byte	0x1
 2274 0eb5 C1       		.byte	0xc1
 2275 0eb6 030F0000 		.4byte	0xf03
 2276 0eba 2D       		.uleb128 0x2d
 2277 0ebb 740A0000 		.4byte	0xa74
 2278 0ebf 34000000 		.4byte	.LBB122
 2279 0ec3 06000000 		.4byte	.LBE122-.LBB122
 2280 0ec7 02       		.byte	0x2
ARM GAS  /tmp/ccO5RPHd.s 			page 41


 2281 0ec8 F801     		.2byte	0x1f8
 2282 0eca 2E       		.uleb128 0x2e
 2283 0ecb 34000000 		.4byte	.LBB123
 2284 0ecf 06000000 		.4byte	.LBE123-.LBB123
 2285 0ed3 2F       		.uleb128 0x2f
 2286 0ed4 810A0000 		.4byte	0xa81
 2287 0ed8 2D       		.uleb128 0x2d
 2288 0ed9 620A0000 		.4byte	0xa62
 2289 0edd 34000000 		.4byte	.LBB124
 2290 0ee1 06000000 		.4byte	.LBE124-.LBB124
 2291 0ee5 13       		.byte	0x13
 2292 0ee6 7301     		.2byte	0x173
 2293 0ee8 2D       		.uleb128 0x2d
 2294 0ee9 3F0A0000 		.4byte	0xa3f
 2295 0eed 34000000 		.4byte	.LBB125
 2296 0ef1 06000000 		.4byte	.LBE125-.LBB125
 2297 0ef5 0C       		.byte	0xc
 2298 0ef6 CD01     		.2byte	0x1cd
 2299 0ef8 2B       		.uleb128 0x2b
 2300 0ef9 4C0A0000 		.4byte	0xa4c
 2301 0efd 00       		.byte	0
 2302 0efe 00       		.byte	0
 2303 0eff 00       		.byte	0
 2304 0f00 00       		.byte	0
 2305 0f01 00       		.byte	0
 2306 0f02 00       		.byte	0
 2307 0f03 30       		.uleb128 0x30
 2308 0f04 2A000000 		.4byte	.LVL14
 2309 0f08 B5110000 		.4byte	0x11b5
 2310 0f0c 27       		.uleb128 0x27
 2311 0f0d 01       		.uleb128 0x1
 2312 0f0e 53       		.byte	0x53
 2313 0f0f 03       		.uleb128 0x3
 2314 0f10 F3       		.byte	0xf3
 2315 0f11 01       		.uleb128 0x1
 2316 0f12 53       		.byte	0x53
 2317 0f13 27       		.uleb128 0x27
 2318 0f14 01       		.uleb128 0x1
 2319 0f15 52       		.byte	0x52
 2320 0f16 03       		.uleb128 0x3
 2321 0f17 F3       		.byte	0xf3
 2322 0f18 01       		.uleb128 0x1
 2323 0f19 52       		.byte	0x52
 2324 0f1a 27       		.uleb128 0x27
 2325 0f1b 01       		.uleb128 0x1
 2326 0f1c 50       		.byte	0x50
 2327 0f1d 02       		.uleb128 0x2
 2328 0f1e 74       		.byte	0x74
 2329 0f1f 00       		.sleb128 0
 2330 0f20 00       		.byte	0
 2331 0f21 00       		.byte	0
 2332 0f22 17       		.uleb128 0x17
 2333 0f23 F1070000 		.4byte	0x7f1
 2334 0f27 320F0000 		.4byte	0xf32
 2335 0f2b 18       		.uleb128 0x18
 2336 0f2c 8A040000 		.4byte	0x48a
 2337 0f30 18       		.byte	0x18
ARM GAS  /tmp/ccO5RPHd.s 			page 42


 2338 0f31 00       		.byte	0
 2339 0f32 16       		.uleb128 0x16
 2340 0f33 220F0000 		.4byte	0xf22
 2341 0f37 31       		.uleb128 0x31
 2342 0f38 DF080000 		.4byte	.LASF179
 2343 0f3c 01       		.byte	0x1
 2344 0f3d D9       		.byte	0xd9
 2345 0f3e 30010000 		.4byte	0x130
 2346 0f42 00000000 		.4byte	.LFB262
 2347 0f46 30000000 		.4byte	.LFE262-.LFB262
 2348 0f4a 01       		.uleb128 0x1
 2349 0f4b 9C       		.byte	0x9c
 2350 0f4c 78100000 		.4byte	0x1078
 2351 0f50 23       		.uleb128 0x23
 2352 0f51 FA000000 		.4byte	.LASF169
 2353 0f55 01       		.byte	0x1
 2354 0f56 D9       		.byte	0xd9
 2355 0f57 710B0000 		.4byte	0xb71
 2356 0f5b 5D010000 		.4byte	.LLST10
 2357 0f5f 23       		.uleb128 0x23
 2358 0f60 7E010000 		.4byte	.LASF150
 2359 0f64 01       		.byte	0x1
 2360 0f65 DA       		.byte	0xda
 2361 0f66 D5080000 		.4byte	0x8d5
 2362 0f6a 7B010000 		.4byte	.LLST11
 2363 0f6e 23       		.uleb128 0x23
 2364 0f6f 78010000 		.4byte	.LASF176
 2365 0f73 01       		.byte	0x1
 2366 0f74 DB       		.byte	0xdb
 2367 0f75 29080000 		.4byte	0x829
 2368 0f79 9C010000 		.4byte	.LLST12
 2369 0f7d 23       		.uleb128 0x23
 2370 0f7e 16040000 		.4byte	.LASF177
 2371 0f82 01       		.byte	0x1
 2372 0f83 DC       		.byte	0xdc
 2373 0f84 2C000000 		.4byte	0x2c
 2374 0f88 BD010000 		.4byte	.LLST13
 2375 0f8c 32       		.uleb128 0x32
 2376 0f8d BD020000 		.4byte	.LASF178
 2377 0f91 01       		.byte	0x1
 2378 0f92 DD       		.byte	0xdd
 2379 0f93 51010000 		.4byte	0x151
 2380 0f97 02       		.uleb128 0x2
 2381 0f98 91       		.byte	0x91
 2382 0f99 00       		.sleb128 0
 2383 0f9a 33       		.uleb128 0x33
 2384 0f9b 2E000000 		.4byte	.LASF100
 2385 0f9f 01       		.byte	0x1
 2386 0fa0 DF       		.byte	0xdf
 2387 0fa1 30010000 		.4byte	0x130
 2388 0fa5 01       		.uleb128 0x1
 2389 0fa6 50       		.byte	0x50
 2390 0fa7 28       		.uleb128 0x28
 2391 0fa8 93050000 		.4byte	.LASF171
 2392 0fac 88100000 		.4byte	0x1088
 2393 0fb0 2C       		.uleb128 0x2c
 2394 0fb1 BD0A0000 		.4byte	0xabd
ARM GAS  /tmp/ccO5RPHd.s 			page 43


 2395 0fb5 08000000 		.4byte	.LBB127
 2396 0fb9 06000000 		.4byte	.LBE127-.LBB127
 2397 0fbd 01       		.byte	0x1
 2398 0fbe E7       		.byte	0xe7
 2399 0fbf FD0F0000 		.4byte	0xffd
 2400 0fc3 2D       		.uleb128 0x2d
 2401 0fc4 6B0A0000 		.4byte	0xa6b
 2402 0fc8 08000000 		.4byte	.LBB128
 2403 0fcc 06000000 		.4byte	.LBE128-.LBB128
 2404 0fd0 02       		.byte	0x2
 2405 0fd1 ED01     		.2byte	0x1ed
 2406 0fd3 2D       		.uleb128 0x2d
 2407 0fd4 590A0000 		.4byte	0xa59
 2408 0fd8 08000000 		.4byte	.LBB129
 2409 0fdc 06000000 		.4byte	.LBE129-.LBB129
 2410 0fe0 13       		.byte	0x13
 2411 0fe1 5C01     		.2byte	0x15c
 2412 0fe3 2D       		.uleb128 0x2d
 2413 0fe4 3F0A0000 		.4byte	0xa3f
 2414 0fe8 08000000 		.4byte	.LBB130
 2415 0fec 06000000 		.4byte	.LBE130-.LBB130
 2416 0ff0 0C       		.byte	0xc
 2417 0ff1 BF01     		.2byte	0x1bf
 2418 0ff3 2B       		.uleb128 0x2b
 2419 0ff4 4C0A0000 		.4byte	0xa4c
 2420 0ff8 20       		.byte	0x20
 2421 0ff9 00       		.byte	0
 2422 0ffa 00       		.byte	0
 2423 0ffb 00       		.byte	0
 2424 0ffc 00       		.byte	0
 2425 0ffd 2C       		.uleb128 0x2c
 2426 0ffe C60A0000 		.4byte	0xac6
 2427 1002 26000000 		.4byte	.LBB132
 2428 1006 06000000 		.4byte	.LBE132-.LBB132
 2429 100a 01       		.byte	0x1
 2430 100b F1       		.byte	0xf1
 2431 100c 59100000 		.4byte	0x1059
 2432 1010 2D       		.uleb128 0x2d
 2433 1011 740A0000 		.4byte	0xa74
 2434 1015 26000000 		.4byte	.LBB133
 2435 1019 06000000 		.4byte	.LBE133-.LBB133
 2436 101d 02       		.byte	0x2
 2437 101e F801     		.2byte	0x1f8
 2438 1020 2E       		.uleb128 0x2e
 2439 1021 26000000 		.4byte	.LBB134
 2440 1025 06000000 		.4byte	.LBE134-.LBB134
 2441 1029 2F       		.uleb128 0x2f
 2442 102a 810A0000 		.4byte	0xa81
 2443 102e 2D       		.uleb128 0x2d
 2444 102f 620A0000 		.4byte	0xa62
 2445 1033 26000000 		.4byte	.LBB135
 2446 1037 06000000 		.4byte	.LBE135-.LBB135
 2447 103b 13       		.byte	0x13
 2448 103c 7301     		.2byte	0x173
 2449 103e 2D       		.uleb128 0x2d
 2450 103f 3F0A0000 		.4byte	0xa3f
 2451 1043 26000000 		.4byte	.LBB136
ARM GAS  /tmp/ccO5RPHd.s 			page 44


 2452 1047 06000000 		.4byte	.LBE136-.LBB136
 2453 104b 0C       		.byte	0xc
 2454 104c CD01     		.2byte	0x1cd
 2455 104e 2B       		.uleb128 0x2b
 2456 104f 4C0A0000 		.4byte	0xa4c
 2457 1053 00       		.byte	0
 2458 1054 00       		.byte	0
 2459 1055 00       		.byte	0
 2460 1056 00       		.byte	0
 2461 1057 00       		.byte	0
 2462 1058 00       		.byte	0
 2463 1059 30       		.uleb128 0x30
 2464 105a 1C000000 		.4byte	.LVL17
 2465 105e E9110000 		.4byte	0x11e9
 2466 1062 27       		.uleb128 0x27
 2467 1063 01       		.uleb128 0x1
 2468 1064 53       		.byte	0x53
 2469 1065 03       		.uleb128 0x3
 2470 1066 F3       		.byte	0xf3
 2471 1067 01       		.uleb128 0x1
 2472 1068 53       		.byte	0x53
 2473 1069 27       		.uleb128 0x27
 2474 106a 01       		.uleb128 0x1
 2475 106b 52       		.byte	0x52
 2476 106c 03       		.uleb128 0x3
 2477 106d F3       		.byte	0xf3
 2478 106e 01       		.uleb128 0x1
 2479 106f 52       		.byte	0x52
 2480 1070 27       		.uleb128 0x27
 2481 1071 01       		.uleb128 0x1
 2482 1072 50       		.byte	0x50
 2483 1073 02       		.uleb128 0x2
 2484 1074 74       		.byte	0x74
 2485 1075 00       		.sleb128 0
 2486 1076 00       		.byte	0
 2487 1077 00       		.byte	0
 2488 1078 17       		.uleb128 0x17
 2489 1079 F1070000 		.4byte	0x7f1
 2490 107d 88100000 		.4byte	0x1088
 2491 1081 18       		.uleb128 0x18
 2492 1082 8A040000 		.4byte	0x48a
 2493 1086 17       		.byte	0x17
 2494 1087 00       		.byte	0
 2495 1088 16       		.uleb128 0x16
 2496 1089 78100000 		.4byte	0x1078
 2497 108d 34       		.uleb128 0x34
 2498 108e C9040000 		.4byte	.LASF180
 2499 1092 01       		.byte	0x1
 2500 1093 0101     		.2byte	0x101
 2501 1095 00000000 		.4byte	.LFB263
 2502 1099 06000000 		.4byte	.LFE263-.LFB263
 2503 109d 01       		.uleb128 0x1
 2504 109e 9C       		.byte	0x9c
 2505 109f EA100000 		.4byte	0x10ea
 2506 10a3 35       		.uleb128 0x35
 2507 10a4 FA000000 		.4byte	.LASF169
 2508 10a8 01       		.byte	0x1
ARM GAS  /tmp/ccO5RPHd.s 			page 45


 2509 10a9 0101     		.2byte	0x101
 2510 10ab 710B0000 		.4byte	0xb71
 2511 10af DE010000 		.4byte	.LLST14
 2512 10b3 28       		.uleb128 0x28
 2513 10b4 93050000 		.4byte	.LASF171
 2514 10b8 FA100000 		.4byte	0x10fa
 2515 10bc 2D       		.uleb128 0x2d
 2516 10bd CF0A0000 		.4byte	0xacf
 2517 10c1 00000000 		.4byte	.LBB138
 2518 10c5 06000000 		.4byte	.LBE138-.LBB138
 2519 10c9 01       		.byte	0x1
 2520 10ca 0501     		.2byte	0x105
 2521 10cc 25       		.uleb128 0x25
 2522 10cd DC0A0000 		.4byte	0xadc
 2523 10d1 0C020000 		.4byte	.LLST15
 2524 10d5 26       		.uleb128 0x26
 2525 10d6 06000000 		.4byte	.LVL21
 2526 10da 13120000 		.4byte	0x1213
 2527 10de 27       		.uleb128 0x27
 2528 10df 01       		.uleb128 0x1
 2529 10e0 50       		.byte	0x50
 2530 10e1 05       		.uleb128 0x5
 2531 10e2 F3       		.byte	0xf3
 2532 10e3 01       		.uleb128 0x1
 2533 10e4 50       		.byte	0x50
 2534 10e5 23       		.byte	0x23
 2535 10e6 0C       		.uleb128 0xc
 2536 10e7 00       		.byte	0
 2537 10e8 00       		.byte	0
 2538 10e9 00       		.byte	0
 2539 10ea 17       		.uleb128 0x17
 2540 10eb F1070000 		.4byte	0x7f1
 2541 10ef FA100000 		.4byte	0x10fa
 2542 10f3 18       		.uleb128 0x18
 2543 10f4 8A040000 		.4byte	0x48a
 2544 10f8 0D       		.byte	0xd
 2545 10f9 00       		.byte	0
 2546 10fa 16       		.uleb128 0x16
 2547 10fb EA100000 		.4byte	0x10ea
 2548 10ff 34       		.uleb128 0x34
 2549 1100 C9000000 		.4byte	.LASF181
 2550 1104 01       		.byte	0x1
 2551 1105 1101     		.2byte	0x111
 2552 1107 00000000 		.4byte	.LFB264
 2553 110b 06000000 		.4byte	.LFE264-.LFB264
 2554 110f 01       		.uleb128 0x1
 2555 1110 9C       		.byte	0x9c
 2556 1111 5C110000 		.4byte	0x115c
 2557 1115 35       		.uleb128 0x35
 2558 1116 FA000000 		.4byte	.LASF169
 2559 111a 01       		.byte	0x1
 2560 111b 1101     		.2byte	0x111
 2561 111d 710B0000 		.4byte	0xb71
 2562 1121 3C020000 		.4byte	.LLST16
 2563 1125 28       		.uleb128 0x28
 2564 1126 93050000 		.4byte	.LASF171
 2565 112a 5C110000 		.4byte	0x115c
ARM GAS  /tmp/ccO5RPHd.s 			page 46


 2566 112e 2D       		.uleb128 0x2d
 2567 112f E80A0000 		.4byte	0xae8
 2568 1133 00000000 		.4byte	.LBB140
 2569 1137 06000000 		.4byte	.LBE140-.LBB140
 2570 113b 01       		.byte	0x1
 2571 113c 1501     		.2byte	0x115
 2572 113e 25       		.uleb128 0x25
 2573 113f F50A0000 		.4byte	0xaf5
 2574 1143 6A020000 		.4byte	.LLST17
 2575 1147 26       		.uleb128 0x26
 2576 1148 06000000 		.4byte	.LVL24
 2577 114c 24120000 		.4byte	0x1224
 2578 1150 27       		.uleb128 0x27
 2579 1151 01       		.uleb128 0x1
 2580 1152 50       		.byte	0x50
 2581 1153 05       		.uleb128 0x5
 2582 1154 F3       		.byte	0xf3
 2583 1155 01       		.uleb128 0x1
 2584 1156 50       		.byte	0x50
 2585 1157 23       		.byte	0x23
 2586 1158 0C       		.uleb128 0xc
 2587 1159 00       		.byte	0
 2588 115a 00       		.byte	0
 2589 115b 00       		.byte	0
 2590 115c 16       		.uleb128 0x16
 2591 115d EA100000 		.4byte	0x10ea
 2592 1161 36       		.uleb128 0x36
 2593 1162 ED000000 		.4byte	.LASF182
 2594 1166 14       		.byte	0x14
 2595 1167 A706     		.2byte	0x6a7
 2596 1169 E4000000 		.4byte	0xe4
 2597 116d 37       		.uleb128 0x37
 2598 116e 636800   		.ascii	"ch\000"
 2599 1171 09       		.byte	0x9
 2600 1172 0902     		.2byte	0x209
 2601 1174 23040000 		.4byte	0x423
 2602 1178 38       		.uleb128 0x38
 2603 1179 AA080000 		.4byte	.LASF192
 2604 117d 12       		.byte	0x12
 2605 117e EF01     		.2byte	0x1ef
 2606 1180 39       		.uleb128 0x39
 2607 1181 FE040000 		.4byte	.LASF183
 2608 1185 0F       		.byte	0xf
 2609 1186 67       		.byte	0x67
 2610 1187 91110000 		.4byte	0x1191
 2611 118b 0D       		.uleb128 0xd
 2612 118c 23080000 		.4byte	0x823
 2613 1190 00       		.byte	0
 2614 1191 3A       		.uleb128 0x3a
 2615 1192 A9030000 		.4byte	.LASF184
 2616 1196 12       		.byte	0x12
 2617 1197 F001     		.2byte	0x1f0
 2618 1199 A3110000 		.4byte	0x11a3
 2619 119d 0D       		.uleb128 0xd
 2620 119e 710B0000 		.4byte	0xb71
 2621 11a2 00       		.byte	0
 2622 11a3 3A       		.uleb128 0x3a
ARM GAS  /tmp/ccO5RPHd.s 			page 47


 2623 11a4 83030000 		.4byte	.LASF185
 2624 11a8 12       		.byte	0x12
 2625 11a9 F101     		.2byte	0x1f1
 2626 11ab B5110000 		.4byte	0x11b5
 2627 11af 0D       		.uleb128 0xd
 2628 11b0 710B0000 		.4byte	0xb71
 2629 11b4 00       		.byte	0
 2630 11b5 3B       		.uleb128 0x3b
 2631 11b6 83010000 		.4byte	.LASF186
 2632 11ba 12       		.byte	0x12
 2633 11bb F201     		.2byte	0x1f2
 2634 11bd 30010000 		.4byte	0x130
 2635 11c1 E9110000 		.4byte	0x11e9
 2636 11c5 0D       		.uleb128 0xd
 2637 11c6 710B0000 		.4byte	0xb71
 2638 11ca 0D       		.uleb128 0xd
 2639 11cb D5080000 		.4byte	0x8d5
 2640 11cf 0D       		.uleb128 0xd
 2641 11d0 2F080000 		.4byte	0x82f
 2642 11d4 0D       		.uleb128 0xd
 2643 11d5 2C000000 		.4byte	0x2c
 2644 11d9 0D       		.uleb128 0xd
 2645 11da 29080000 		.4byte	0x829
 2646 11de 0D       		.uleb128 0xd
 2647 11df 2C000000 		.4byte	0x2c
 2648 11e3 0D       		.uleb128 0xd
 2649 11e4 51010000 		.4byte	0x151
 2650 11e8 00       		.byte	0
 2651 11e9 3B       		.uleb128 0x3b
 2652 11ea 73000000 		.4byte	.LASF187
 2653 11ee 12       		.byte	0x12
 2654 11ef F601     		.2byte	0x1f6
 2655 11f1 30010000 		.4byte	0x130
 2656 11f5 13120000 		.4byte	0x1213
 2657 11f9 0D       		.uleb128 0xd
 2658 11fa 710B0000 		.4byte	0xb71
 2659 11fe 0D       		.uleb128 0xd
 2660 11ff D5080000 		.4byte	0x8d5
 2661 1203 0D       		.uleb128 0xd
 2662 1204 29080000 		.4byte	0x829
 2663 1208 0D       		.uleb128 0xd
 2664 1209 2C000000 		.4byte	0x2c
 2665 120d 0D       		.uleb128 0xd
 2666 120e 51010000 		.4byte	0x151
 2667 1212 00       		.byte	0
 2668 1213 39       		.uleb128 0x39
 2669 1214 04040000 		.4byte	.LASF188
 2670 1218 0F       		.byte	0xf
 2671 1219 68       		.byte	0x68
 2672 121a 24120000 		.4byte	0x1224
 2673 121e 0D       		.uleb128 0xd
 2674 121f 23080000 		.4byte	0x823
 2675 1223 00       		.byte	0
 2676 1224 3C       		.uleb128 0x3c
 2677 1225 4C010000 		.4byte	.LASF193
 2678 1229 0F       		.byte	0xf
 2679 122a 6C       		.byte	0x6c
ARM GAS  /tmp/ccO5RPHd.s 			page 48


 2680 122b 0D       		.uleb128 0xd
 2681 122c 23080000 		.4byte	0x823
 2682 1230 00       		.byte	0
 2683 1231 00       		.byte	0
 2684              		.section	.debug_abbrev,"",%progbits
 2685              	.Ldebug_abbrev0:
 2686 0000 01       		.uleb128 0x1
 2687 0001 11       		.uleb128 0x11
 2688 0002 01       		.byte	0x1
 2689 0003 25       		.uleb128 0x25
 2690 0004 0E       		.uleb128 0xe
 2691 0005 13       		.uleb128 0x13
 2692 0006 0B       		.uleb128 0xb
 2693 0007 03       		.uleb128 0x3
 2694 0008 0E       		.uleb128 0xe
 2695 0009 1B       		.uleb128 0x1b
 2696 000a 0E       		.uleb128 0xe
 2697 000b 55       		.uleb128 0x55
 2698 000c 17       		.uleb128 0x17
 2699 000d 11       		.uleb128 0x11
 2700 000e 01       		.uleb128 0x1
 2701 000f 10       		.uleb128 0x10
 2702 0010 17       		.uleb128 0x17
 2703 0011 00       		.byte	0
 2704 0012 00       		.byte	0
 2705 0013 02       		.uleb128 0x2
 2706 0014 24       		.uleb128 0x24
 2707 0015 00       		.byte	0
 2708 0016 0B       		.uleb128 0xb
 2709 0017 0B       		.uleb128 0xb
 2710 0018 3E       		.uleb128 0x3e
 2711 0019 0B       		.uleb128 0xb
 2712 001a 03       		.uleb128 0x3
 2713 001b 08       		.uleb128 0x8
 2714 001c 00       		.byte	0
 2715 001d 00       		.byte	0
 2716 001e 03       		.uleb128 0x3
 2717 001f 16       		.uleb128 0x16
 2718 0020 00       		.byte	0
 2719 0021 03       		.uleb128 0x3
 2720 0022 0E       		.uleb128 0xe
 2721 0023 3A       		.uleb128 0x3a
 2722 0024 0B       		.uleb128 0xb
 2723 0025 3B       		.uleb128 0x3b
 2724 0026 0B       		.uleb128 0xb
 2725 0027 49       		.uleb128 0x49
 2726 0028 13       		.uleb128 0x13
 2727 0029 00       		.byte	0
 2728 002a 00       		.byte	0
 2729 002b 04       		.uleb128 0x4
 2730 002c 24       		.uleb128 0x24
 2731 002d 00       		.byte	0
 2732 002e 0B       		.uleb128 0xb
 2733 002f 0B       		.uleb128 0xb
 2734 0030 3E       		.uleb128 0x3e
 2735 0031 0B       		.uleb128 0xb
 2736 0032 03       		.uleb128 0x3
ARM GAS  /tmp/ccO5RPHd.s 			page 49


 2737 0033 0E       		.uleb128 0xe
 2738 0034 00       		.byte	0
 2739 0035 00       		.byte	0
 2740 0036 05       		.uleb128 0x5
 2741 0037 35       		.uleb128 0x35
 2742 0038 00       		.byte	0
 2743 0039 49       		.uleb128 0x49
 2744 003a 13       		.uleb128 0x13
 2745 003b 00       		.byte	0
 2746 003c 00       		.byte	0
 2747 003d 06       		.uleb128 0x6
 2748 003e 13       		.uleb128 0x13
 2749 003f 01       		.byte	0x1
 2750 0040 03       		.uleb128 0x3
 2751 0041 0E       		.uleb128 0xe
 2752 0042 0B       		.uleb128 0xb
 2753 0043 0B       		.uleb128 0xb
 2754 0044 3A       		.uleb128 0x3a
 2755 0045 0B       		.uleb128 0xb
 2756 0046 3B       		.uleb128 0x3b
 2757 0047 0B       		.uleb128 0xb
 2758 0048 01       		.uleb128 0x1
 2759 0049 13       		.uleb128 0x13
 2760 004a 00       		.byte	0
 2761 004b 00       		.byte	0
 2762 004c 07       		.uleb128 0x7
 2763 004d 0D       		.uleb128 0xd
 2764 004e 00       		.byte	0
 2765 004f 03       		.uleb128 0x3
 2766 0050 0E       		.uleb128 0xe
 2767 0051 3A       		.uleb128 0x3a
 2768 0052 0B       		.uleb128 0xb
 2769 0053 3B       		.uleb128 0x3b
 2770 0054 0B       		.uleb128 0xb
 2771 0055 49       		.uleb128 0x49
 2772 0056 13       		.uleb128 0x13
 2773 0057 38       		.uleb128 0x38
 2774 0058 0B       		.uleb128 0xb
 2775 0059 00       		.byte	0
 2776 005a 00       		.byte	0
 2777 005b 08       		.uleb128 0x8
 2778 005c 0D       		.uleb128 0xd
 2779 005d 00       		.byte	0
 2780 005e 03       		.uleb128 0x3
 2781 005f 08       		.uleb128 0x8
 2782 0060 3A       		.uleb128 0x3a
 2783 0061 0B       		.uleb128 0xb
 2784 0062 3B       		.uleb128 0x3b
 2785 0063 05       		.uleb128 0x5
 2786 0064 49       		.uleb128 0x49
 2787 0065 13       		.uleb128 0x13
 2788 0066 38       		.uleb128 0x38
 2789 0067 0B       		.uleb128 0xb
 2790 0068 00       		.byte	0
 2791 0069 00       		.byte	0
 2792 006a 09       		.uleb128 0x9
 2793 006b 0D       		.uleb128 0xd
ARM GAS  /tmp/ccO5RPHd.s 			page 50


 2794 006c 00       		.byte	0
 2795 006d 03       		.uleb128 0x3
 2796 006e 0E       		.uleb128 0xe
 2797 006f 3A       		.uleb128 0x3a
 2798 0070 0B       		.uleb128 0xb
 2799 0071 3B       		.uleb128 0x3b
 2800 0072 05       		.uleb128 0x5
 2801 0073 49       		.uleb128 0x49
 2802 0074 13       		.uleb128 0x13
 2803 0075 38       		.uleb128 0x38
 2804 0076 0B       		.uleb128 0xb
 2805 0077 00       		.byte	0
 2806 0078 00       		.byte	0
 2807 0079 0A       		.uleb128 0xa
 2808 007a 0F       		.uleb128 0xf
 2809 007b 00       		.byte	0
 2810 007c 0B       		.uleb128 0xb
 2811 007d 0B       		.uleb128 0xb
 2812 007e 49       		.uleb128 0x49
 2813 007f 13       		.uleb128 0x13
 2814 0080 00       		.byte	0
 2815 0081 00       		.byte	0
 2816 0082 0B       		.uleb128 0xb
 2817 0083 13       		.uleb128 0x13
 2818 0084 01       		.byte	0x1
 2819 0085 03       		.uleb128 0x3
 2820 0086 0E       		.uleb128 0xe
 2821 0087 0B       		.uleb128 0xb
 2822 0088 0B       		.uleb128 0xb
 2823 0089 3A       		.uleb128 0x3a
 2824 008a 0B       		.uleb128 0xb
 2825 008b 3B       		.uleb128 0x3b
 2826 008c 05       		.uleb128 0x5
 2827 008d 01       		.uleb128 0x1
 2828 008e 13       		.uleb128 0x13
 2829 008f 00       		.byte	0
 2830 0090 00       		.byte	0
 2831 0091 0C       		.uleb128 0xc
 2832 0092 15       		.uleb128 0x15
 2833 0093 01       		.byte	0x1
 2834 0094 27       		.uleb128 0x27
 2835 0095 19       		.uleb128 0x19
 2836 0096 01       		.uleb128 0x1
 2837 0097 13       		.uleb128 0x13
 2838 0098 00       		.byte	0
 2839 0099 00       		.byte	0
 2840 009a 0D       		.uleb128 0xd
 2841 009b 05       		.uleb128 0x5
 2842 009c 00       		.byte	0
 2843 009d 49       		.uleb128 0x49
 2844 009e 13       		.uleb128 0x13
 2845 009f 00       		.byte	0
 2846 00a0 00       		.byte	0
 2847 00a1 0E       		.uleb128 0xe
 2848 00a2 0F       		.uleb128 0xf
 2849 00a3 00       		.byte	0
 2850 00a4 0B       		.uleb128 0xb
ARM GAS  /tmp/ccO5RPHd.s 			page 51


 2851 00a5 0B       		.uleb128 0xb
 2852 00a6 00       		.byte	0
 2853 00a7 00       		.byte	0
 2854 00a8 0F       		.uleb128 0xf
 2855 00a9 13       		.uleb128 0x13
 2856 00aa 01       		.byte	0x1
 2857 00ab 03       		.uleb128 0x3
 2858 00ac 0E       		.uleb128 0xe
 2859 00ad 0B       		.uleb128 0xb
 2860 00ae 05       		.uleb128 0x5
 2861 00af 3A       		.uleb128 0x3a
 2862 00b0 0B       		.uleb128 0xb
 2863 00b1 3B       		.uleb128 0x3b
 2864 00b2 05       		.uleb128 0x5
 2865 00b3 01       		.uleb128 0x1
 2866 00b4 13       		.uleb128 0x13
 2867 00b5 00       		.byte	0
 2868 00b6 00       		.byte	0
 2869 00b7 10       		.uleb128 0x10
 2870 00b8 13       		.uleb128 0x13
 2871 00b9 01       		.byte	0x1
 2872 00ba 0B       		.uleb128 0xb
 2873 00bb 0B       		.uleb128 0xb
 2874 00bc 3A       		.uleb128 0x3a
 2875 00bd 0B       		.uleb128 0xb
 2876 00be 3B       		.uleb128 0x3b
 2877 00bf 05       		.uleb128 0x5
 2878 00c0 01       		.uleb128 0x1
 2879 00c1 13       		.uleb128 0x13
 2880 00c2 00       		.byte	0
 2881 00c3 00       		.byte	0
 2882 00c4 11       		.uleb128 0x11
 2883 00c5 16       		.uleb128 0x16
 2884 00c6 00       		.byte	0
 2885 00c7 03       		.uleb128 0x3
 2886 00c8 0E       		.uleb128 0xe
 2887 00c9 3A       		.uleb128 0x3a
 2888 00ca 0B       		.uleb128 0xb
 2889 00cb 3B       		.uleb128 0x3b
 2890 00cc 05       		.uleb128 0x5
 2891 00cd 49       		.uleb128 0x49
 2892 00ce 13       		.uleb128 0x13
 2893 00cf 00       		.byte	0
 2894 00d0 00       		.byte	0
 2895 00d1 12       		.uleb128 0x12
 2896 00d2 0D       		.uleb128 0xd
 2897 00d3 00       		.byte	0
 2898 00d4 03       		.uleb128 0x3
 2899 00d5 08       		.uleb128 0x8
 2900 00d6 3A       		.uleb128 0x3a
 2901 00d7 0B       		.uleb128 0xb
 2902 00d8 3B       		.uleb128 0x3b
 2903 00d9 0B       		.uleb128 0xb
 2904 00da 49       		.uleb128 0x49
 2905 00db 13       		.uleb128 0x13
 2906 00dc 38       		.uleb128 0x38
 2907 00dd 0B       		.uleb128 0xb
ARM GAS  /tmp/ccO5RPHd.s 			page 52


 2908 00de 00       		.byte	0
 2909 00df 00       		.byte	0
 2910 00e0 13       		.uleb128 0x13
 2911 00e1 13       		.uleb128 0x13
 2912 00e2 01       		.byte	0x1
 2913 00e3 0B       		.uleb128 0xb
 2914 00e4 0B       		.uleb128 0xb
 2915 00e5 3A       		.uleb128 0x3a
 2916 00e6 0B       		.uleb128 0xb
 2917 00e7 3B       		.uleb128 0x3b
 2918 00e8 0B       		.uleb128 0xb
 2919 00e9 01       		.uleb128 0x1
 2920 00ea 13       		.uleb128 0x13
 2921 00eb 00       		.byte	0
 2922 00ec 00       		.byte	0
 2923 00ed 14       		.uleb128 0x14
 2924 00ee 17       		.uleb128 0x17
 2925 00ef 01       		.byte	0x1
 2926 00f0 0B       		.uleb128 0xb
 2927 00f1 0B       		.uleb128 0xb
 2928 00f2 3A       		.uleb128 0x3a
 2929 00f3 0B       		.uleb128 0xb
 2930 00f4 3B       		.uleb128 0x3b
 2931 00f5 0B       		.uleb128 0xb
 2932 00f6 01       		.uleb128 0x1
 2933 00f7 13       		.uleb128 0x13
 2934 00f8 00       		.byte	0
 2935 00f9 00       		.byte	0
 2936 00fa 15       		.uleb128 0x15
 2937 00fb 0D       		.uleb128 0xd
 2938 00fc 00       		.byte	0
 2939 00fd 03       		.uleb128 0x3
 2940 00fe 0E       		.uleb128 0xe
 2941 00ff 3A       		.uleb128 0x3a
 2942 0100 0B       		.uleb128 0xb
 2943 0101 3B       		.uleb128 0x3b
 2944 0102 05       		.uleb128 0x5
 2945 0103 49       		.uleb128 0x49
 2946 0104 13       		.uleb128 0x13
 2947 0105 00       		.byte	0
 2948 0106 00       		.byte	0
 2949 0107 16       		.uleb128 0x16
 2950 0108 26       		.uleb128 0x26
 2951 0109 00       		.byte	0
 2952 010a 49       		.uleb128 0x49
 2953 010b 13       		.uleb128 0x13
 2954 010c 00       		.byte	0
 2955 010d 00       		.byte	0
 2956 010e 17       		.uleb128 0x17
 2957 010f 01       		.uleb128 0x1
 2958 0110 01       		.byte	0x1
 2959 0111 49       		.uleb128 0x49
 2960 0112 13       		.uleb128 0x13
 2961 0113 01       		.uleb128 0x1
 2962 0114 13       		.uleb128 0x13
 2963 0115 00       		.byte	0
 2964 0116 00       		.byte	0
ARM GAS  /tmp/ccO5RPHd.s 			page 53


 2965 0117 18       		.uleb128 0x18
 2966 0118 21       		.uleb128 0x21
 2967 0119 00       		.byte	0
 2968 011a 49       		.uleb128 0x49
 2969 011b 13       		.uleb128 0x13
 2970 011c 2F       		.uleb128 0x2f
 2971 011d 0B       		.uleb128 0xb
 2972 011e 00       		.byte	0
 2973 011f 00       		.byte	0
 2974 0120 19       		.uleb128 0x19
 2975 0121 04       		.uleb128 0x4
 2976 0122 01       		.byte	0x1
 2977 0123 0B       		.uleb128 0xb
 2978 0124 0B       		.uleb128 0xb
 2979 0125 3A       		.uleb128 0x3a
 2980 0126 0B       		.uleb128 0xb
 2981 0127 3B       		.uleb128 0x3b
 2982 0128 0B       		.uleb128 0xb
 2983 0129 01       		.uleb128 0x1
 2984 012a 13       		.uleb128 0x13
 2985 012b 00       		.byte	0
 2986 012c 00       		.byte	0
 2987 012d 1A       		.uleb128 0x1a
 2988 012e 28       		.uleb128 0x28
 2989 012f 00       		.byte	0
 2990 0130 03       		.uleb128 0x3
 2991 0131 0E       		.uleb128 0xe
 2992 0132 1C       		.uleb128 0x1c
 2993 0133 0D       		.uleb128 0xd
 2994 0134 00       		.byte	0
 2995 0135 00       		.byte	0
 2996 0136 1B       		.uleb128 0x1b
 2997 0137 04       		.uleb128 0x4
 2998 0138 01       		.byte	0x1
 2999 0139 0B       		.uleb128 0xb
 3000 013a 0B       		.uleb128 0xb
 3001 013b 3A       		.uleb128 0x3a
 3002 013c 0B       		.uleb128 0xb
 3003 013d 3B       		.uleb128 0x3b
 3004 013e 05       		.uleb128 0x5
 3005 013f 01       		.uleb128 0x1
 3006 0140 13       		.uleb128 0x13
 3007 0141 00       		.byte	0
 3008 0142 00       		.byte	0
 3009 0143 1C       		.uleb128 0x1c
 3010 0144 2E       		.uleb128 0x2e
 3011 0145 01       		.byte	0x1
 3012 0146 03       		.uleb128 0x3
 3013 0147 0E       		.uleb128 0xe
 3014 0148 3A       		.uleb128 0x3a
 3015 0149 0B       		.uleb128 0xb
 3016 014a 3B       		.uleb128 0x3b
 3017 014b 05       		.uleb128 0x5
 3018 014c 27       		.uleb128 0x27
 3019 014d 19       		.uleb128 0x19
 3020 014e 20       		.uleb128 0x20
 3021 014f 0B       		.uleb128 0xb
ARM GAS  /tmp/ccO5RPHd.s 			page 54


 3022 0150 01       		.uleb128 0x1
 3023 0151 13       		.uleb128 0x13
 3024 0152 00       		.byte	0
 3025 0153 00       		.byte	0
 3026 0154 1D       		.uleb128 0x1d
 3027 0155 05       		.uleb128 0x5
 3028 0156 00       		.byte	0
 3029 0157 03       		.uleb128 0x3
 3030 0158 0E       		.uleb128 0xe
 3031 0159 3A       		.uleb128 0x3a
 3032 015a 0B       		.uleb128 0xb
 3033 015b 3B       		.uleb128 0x3b
 3034 015c 05       		.uleb128 0x5
 3035 015d 49       		.uleb128 0x49
 3036 015e 13       		.uleb128 0x13
 3037 015f 00       		.byte	0
 3038 0160 00       		.byte	0
 3039 0161 1E       		.uleb128 0x1e
 3040 0162 2E       		.uleb128 0x2e
 3041 0163 00       		.byte	0
 3042 0164 03       		.uleb128 0x3
 3043 0165 0E       		.uleb128 0xe
 3044 0166 3A       		.uleb128 0x3a
 3045 0167 0B       		.uleb128 0xb
 3046 0168 3B       		.uleb128 0x3b
 3047 0169 05       		.uleb128 0x5
 3048 016a 27       		.uleb128 0x27
 3049 016b 19       		.uleb128 0x19
 3050 016c 20       		.uleb128 0x20
 3051 016d 0B       		.uleb128 0xb
 3052 016e 00       		.byte	0
 3053 016f 00       		.byte	0
 3054 0170 1F       		.uleb128 0x1f
 3055 0171 34       		.uleb128 0x34
 3056 0172 00       		.byte	0
 3057 0173 03       		.uleb128 0x3
 3058 0174 0E       		.uleb128 0xe
 3059 0175 49       		.uleb128 0x49
 3060 0176 13       		.uleb128 0x13
 3061 0177 34       		.uleb128 0x34
 3062 0178 19       		.uleb128 0x19
 3063 0179 1C       		.uleb128 0x1c
 3064 017a 0E       		.uleb128 0xe
 3065 017b 00       		.byte	0
 3066 017c 00       		.byte	0
 3067 017d 20       		.uleb128 0x20
 3068 017e 05       		.uleb128 0x5
 3069 017f 00       		.byte	0
 3070 0180 03       		.uleb128 0x3
 3071 0181 08       		.uleb128 0x8
 3072 0182 3A       		.uleb128 0x3a
 3073 0183 0B       		.uleb128 0xb
 3074 0184 3B       		.uleb128 0x3b
 3075 0185 05       		.uleb128 0x5
 3076 0186 49       		.uleb128 0x49
 3077 0187 13       		.uleb128 0x13
 3078 0188 00       		.byte	0
ARM GAS  /tmp/ccO5RPHd.s 			page 55


 3079 0189 00       		.byte	0
 3080 018a 21       		.uleb128 0x21
 3081 018b 2E       		.uleb128 0x2e
 3082 018c 01       		.byte	0x1
 3083 018d 3F       		.uleb128 0x3f
 3084 018e 19       		.uleb128 0x19
 3085 018f 03       		.uleb128 0x3
 3086 0190 0E       		.uleb128 0xe
 3087 0191 3A       		.uleb128 0x3a
 3088 0192 0B       		.uleb128 0xb
 3089 0193 3B       		.uleb128 0x3b
 3090 0194 0B       		.uleb128 0xb
 3091 0195 27       		.uleb128 0x27
 3092 0196 19       		.uleb128 0x19
 3093 0197 11       		.uleb128 0x11
 3094 0198 01       		.uleb128 0x1
 3095 0199 12       		.uleb128 0x12
 3096 019a 06       		.uleb128 0x6
 3097 019b 40       		.uleb128 0x40
 3098 019c 18       		.uleb128 0x18
 3099 019d 9742     		.uleb128 0x2117
 3100 019f 19       		.uleb128 0x19
 3101 01a0 01       		.uleb128 0x1
 3102 01a1 13       		.uleb128 0x13
 3103 01a2 00       		.byte	0
 3104 01a3 00       		.byte	0
 3105 01a4 22       		.uleb128 0x22
 3106 01a5 898201   		.uleb128 0x4109
 3107 01a8 00       		.byte	0
 3108 01a9 11       		.uleb128 0x11
 3109 01aa 01       		.uleb128 0x1
 3110 01ab 9542     		.uleb128 0x2115
 3111 01ad 19       		.uleb128 0x19
 3112 01ae 31       		.uleb128 0x31
 3113 01af 13       		.uleb128 0x13
 3114 01b0 00       		.byte	0
 3115 01b1 00       		.byte	0
 3116 01b2 23       		.uleb128 0x23
 3117 01b3 05       		.uleb128 0x5
 3118 01b4 00       		.byte	0
 3119 01b5 03       		.uleb128 0x3
 3120 01b6 0E       		.uleb128 0xe
 3121 01b7 3A       		.uleb128 0x3a
 3122 01b8 0B       		.uleb128 0xb
 3123 01b9 3B       		.uleb128 0x3b
 3124 01ba 0B       		.uleb128 0xb
 3125 01bb 49       		.uleb128 0x49
 3126 01bc 13       		.uleb128 0x13
 3127 01bd 02       		.uleb128 0x2
 3128 01be 17       		.uleb128 0x17
 3129 01bf 00       		.byte	0
 3130 01c0 00       		.byte	0
 3131 01c1 24       		.uleb128 0x24
 3132 01c2 1D       		.uleb128 0x1d
 3133 01c3 01       		.byte	0x1
 3134 01c4 31       		.uleb128 0x31
 3135 01c5 13       		.uleb128 0x13
ARM GAS  /tmp/ccO5RPHd.s 			page 56


 3136 01c6 11       		.uleb128 0x11
 3137 01c7 01       		.uleb128 0x1
 3138 01c8 12       		.uleb128 0x12
 3139 01c9 06       		.uleb128 0x6
 3140 01ca 58       		.uleb128 0x58
 3141 01cb 0B       		.uleb128 0xb
 3142 01cc 59       		.uleb128 0x59
 3143 01cd 0B       		.uleb128 0xb
 3144 01ce 00       		.byte	0
 3145 01cf 00       		.byte	0
 3146 01d0 25       		.uleb128 0x25
 3147 01d1 05       		.uleb128 0x5
 3148 01d2 00       		.byte	0
 3149 01d3 31       		.uleb128 0x31
 3150 01d4 13       		.uleb128 0x13
 3151 01d5 02       		.uleb128 0x2
 3152 01d6 17       		.uleb128 0x17
 3153 01d7 00       		.byte	0
 3154 01d8 00       		.byte	0
 3155 01d9 26       		.uleb128 0x26
 3156 01da 898201   		.uleb128 0x4109
 3157 01dd 01       		.byte	0x1
 3158 01de 11       		.uleb128 0x11
 3159 01df 01       		.uleb128 0x1
 3160 01e0 9542     		.uleb128 0x2115
 3161 01e2 19       		.uleb128 0x19
 3162 01e3 31       		.uleb128 0x31
 3163 01e4 13       		.uleb128 0x13
 3164 01e5 00       		.byte	0
 3165 01e6 00       		.byte	0
 3166 01e7 27       		.uleb128 0x27
 3167 01e8 8A8201   		.uleb128 0x410a
 3168 01eb 00       		.byte	0
 3169 01ec 02       		.uleb128 0x2
 3170 01ed 18       		.uleb128 0x18
 3171 01ee 9142     		.uleb128 0x2111
 3172 01f0 18       		.uleb128 0x18
 3173 01f1 00       		.byte	0
 3174 01f2 00       		.byte	0
 3175 01f3 28       		.uleb128 0x28
 3176 01f4 34       		.uleb128 0x34
 3177 01f5 00       		.byte	0
 3178 01f6 03       		.uleb128 0x3
 3179 01f7 0E       		.uleb128 0xe
 3180 01f8 49       		.uleb128 0x49
 3181 01f9 13       		.uleb128 0x13
 3182 01fa 34       		.uleb128 0x34
 3183 01fb 19       		.uleb128 0x19
 3184 01fc 00       		.byte	0
 3185 01fd 00       		.byte	0
 3186 01fe 29       		.uleb128 0x29
 3187 01ff 1D       		.uleb128 0x1d
 3188 0200 01       		.byte	0x1
 3189 0201 31       		.uleb128 0x31
 3190 0202 13       		.uleb128 0x13
 3191 0203 52       		.uleb128 0x52
 3192 0204 01       		.uleb128 0x1
ARM GAS  /tmp/ccO5RPHd.s 			page 57


 3193 0205 55       		.uleb128 0x55
 3194 0206 17       		.uleb128 0x17
 3195 0207 58       		.uleb128 0x58
 3196 0208 0B       		.uleb128 0xb
 3197 0209 59       		.uleb128 0x59
 3198 020a 0B       		.uleb128 0xb
 3199 020b 01       		.uleb128 0x1
 3200 020c 13       		.uleb128 0x13
 3201 020d 00       		.byte	0
 3202 020e 00       		.byte	0
 3203 020f 2A       		.uleb128 0x2a
 3204 0210 1D       		.uleb128 0x1d
 3205 0211 01       		.byte	0x1
 3206 0212 31       		.uleb128 0x31
 3207 0213 13       		.uleb128 0x13
 3208 0214 52       		.uleb128 0x52
 3209 0215 01       		.uleb128 0x1
 3210 0216 55       		.uleb128 0x55
 3211 0217 17       		.uleb128 0x17
 3212 0218 58       		.uleb128 0x58
 3213 0219 0B       		.uleb128 0xb
 3214 021a 59       		.uleb128 0x59
 3215 021b 05       		.uleb128 0x5
 3216 021c 00       		.byte	0
 3217 021d 00       		.byte	0
 3218 021e 2B       		.uleb128 0x2b
 3219 021f 05       		.uleb128 0x5
 3220 0220 00       		.byte	0
 3221 0221 31       		.uleb128 0x31
 3222 0222 13       		.uleb128 0x13
 3223 0223 1C       		.uleb128 0x1c
 3224 0224 0B       		.uleb128 0xb
 3225 0225 00       		.byte	0
 3226 0226 00       		.byte	0
 3227 0227 2C       		.uleb128 0x2c
 3228 0228 1D       		.uleb128 0x1d
 3229 0229 01       		.byte	0x1
 3230 022a 31       		.uleb128 0x31
 3231 022b 13       		.uleb128 0x13
 3232 022c 11       		.uleb128 0x11
 3233 022d 01       		.uleb128 0x1
 3234 022e 12       		.uleb128 0x12
 3235 022f 06       		.uleb128 0x6
 3236 0230 58       		.uleb128 0x58
 3237 0231 0B       		.uleb128 0xb
 3238 0232 59       		.uleb128 0x59
 3239 0233 0B       		.uleb128 0xb
 3240 0234 01       		.uleb128 0x1
 3241 0235 13       		.uleb128 0x13
 3242 0236 00       		.byte	0
 3243 0237 00       		.byte	0
 3244 0238 2D       		.uleb128 0x2d
 3245 0239 1D       		.uleb128 0x1d
 3246 023a 01       		.byte	0x1
 3247 023b 31       		.uleb128 0x31
 3248 023c 13       		.uleb128 0x13
 3249 023d 11       		.uleb128 0x11
ARM GAS  /tmp/ccO5RPHd.s 			page 58


 3250 023e 01       		.uleb128 0x1
 3251 023f 12       		.uleb128 0x12
 3252 0240 06       		.uleb128 0x6
 3253 0241 58       		.uleb128 0x58
 3254 0242 0B       		.uleb128 0xb
 3255 0243 59       		.uleb128 0x59
 3256 0244 05       		.uleb128 0x5
 3257 0245 00       		.byte	0
 3258 0246 00       		.byte	0
 3259 0247 2E       		.uleb128 0x2e
 3260 0248 0B       		.uleb128 0xb
 3261 0249 01       		.byte	0x1
 3262 024a 11       		.uleb128 0x11
 3263 024b 01       		.uleb128 0x1
 3264 024c 12       		.uleb128 0x12
 3265 024d 06       		.uleb128 0x6
 3266 024e 00       		.byte	0
 3267 024f 00       		.byte	0
 3268 0250 2F       		.uleb128 0x2f
 3269 0251 34       		.uleb128 0x34
 3270 0252 00       		.byte	0
 3271 0253 31       		.uleb128 0x31
 3272 0254 13       		.uleb128 0x13
 3273 0255 00       		.byte	0
 3274 0256 00       		.byte	0
 3275 0257 30       		.uleb128 0x30
 3276 0258 898201   		.uleb128 0x4109
 3277 025b 01       		.byte	0x1
 3278 025c 11       		.uleb128 0x11
 3279 025d 01       		.uleb128 0x1
 3280 025e 31       		.uleb128 0x31
 3281 025f 13       		.uleb128 0x13
 3282 0260 00       		.byte	0
 3283 0261 00       		.byte	0
 3284 0262 31       		.uleb128 0x31
 3285 0263 2E       		.uleb128 0x2e
 3286 0264 01       		.byte	0x1
 3287 0265 3F       		.uleb128 0x3f
 3288 0266 19       		.uleb128 0x19
 3289 0267 03       		.uleb128 0x3
 3290 0268 0E       		.uleb128 0xe
 3291 0269 3A       		.uleb128 0x3a
 3292 026a 0B       		.uleb128 0xb
 3293 026b 3B       		.uleb128 0x3b
 3294 026c 0B       		.uleb128 0xb
 3295 026d 27       		.uleb128 0x27
 3296 026e 19       		.uleb128 0x19
 3297 026f 49       		.uleb128 0x49
 3298 0270 13       		.uleb128 0x13
 3299 0271 11       		.uleb128 0x11
 3300 0272 01       		.uleb128 0x1
 3301 0273 12       		.uleb128 0x12
 3302 0274 06       		.uleb128 0x6
 3303 0275 40       		.uleb128 0x40
 3304 0276 18       		.uleb128 0x18
 3305 0277 9742     		.uleb128 0x2117
 3306 0279 19       		.uleb128 0x19
ARM GAS  /tmp/ccO5RPHd.s 			page 59


 3307 027a 01       		.uleb128 0x1
 3308 027b 13       		.uleb128 0x13
 3309 027c 00       		.byte	0
 3310 027d 00       		.byte	0
 3311 027e 32       		.uleb128 0x32
 3312 027f 05       		.uleb128 0x5
 3313 0280 00       		.byte	0
 3314 0281 03       		.uleb128 0x3
 3315 0282 0E       		.uleb128 0xe
 3316 0283 3A       		.uleb128 0x3a
 3317 0284 0B       		.uleb128 0xb
 3318 0285 3B       		.uleb128 0x3b
 3319 0286 0B       		.uleb128 0xb
 3320 0287 49       		.uleb128 0x49
 3321 0288 13       		.uleb128 0x13
 3322 0289 02       		.uleb128 0x2
 3323 028a 18       		.uleb128 0x18
 3324 028b 00       		.byte	0
 3325 028c 00       		.byte	0
 3326 028d 33       		.uleb128 0x33
 3327 028e 34       		.uleb128 0x34
 3328 028f 00       		.byte	0
 3329 0290 03       		.uleb128 0x3
 3330 0291 0E       		.uleb128 0xe
 3331 0292 3A       		.uleb128 0x3a
 3332 0293 0B       		.uleb128 0xb
 3333 0294 3B       		.uleb128 0x3b
 3334 0295 0B       		.uleb128 0xb
 3335 0296 49       		.uleb128 0x49
 3336 0297 13       		.uleb128 0x13
 3337 0298 02       		.uleb128 0x2
 3338 0299 18       		.uleb128 0x18
 3339 029a 00       		.byte	0
 3340 029b 00       		.byte	0
 3341 029c 34       		.uleb128 0x34
 3342 029d 2E       		.uleb128 0x2e
 3343 029e 01       		.byte	0x1
 3344 029f 3F       		.uleb128 0x3f
 3345 02a0 19       		.uleb128 0x19
 3346 02a1 03       		.uleb128 0x3
 3347 02a2 0E       		.uleb128 0xe
 3348 02a3 3A       		.uleb128 0x3a
 3349 02a4 0B       		.uleb128 0xb
 3350 02a5 3B       		.uleb128 0x3b
 3351 02a6 05       		.uleb128 0x5
 3352 02a7 27       		.uleb128 0x27
 3353 02a8 19       		.uleb128 0x19
 3354 02a9 11       		.uleb128 0x11
 3355 02aa 01       		.uleb128 0x1
 3356 02ab 12       		.uleb128 0x12
 3357 02ac 06       		.uleb128 0x6
 3358 02ad 40       		.uleb128 0x40
 3359 02ae 18       		.uleb128 0x18
 3360 02af 9742     		.uleb128 0x2117
 3361 02b1 19       		.uleb128 0x19
 3362 02b2 01       		.uleb128 0x1
 3363 02b3 13       		.uleb128 0x13
ARM GAS  /tmp/ccO5RPHd.s 			page 60


 3364 02b4 00       		.byte	0
 3365 02b5 00       		.byte	0
 3366 02b6 35       		.uleb128 0x35
 3367 02b7 05       		.uleb128 0x5
 3368 02b8 00       		.byte	0
 3369 02b9 03       		.uleb128 0x3
 3370 02ba 0E       		.uleb128 0xe
 3371 02bb 3A       		.uleb128 0x3a
 3372 02bc 0B       		.uleb128 0xb
 3373 02bd 3B       		.uleb128 0x3b
 3374 02be 05       		.uleb128 0x5
 3375 02bf 49       		.uleb128 0x49
 3376 02c0 13       		.uleb128 0x13
 3377 02c1 02       		.uleb128 0x2
 3378 02c2 17       		.uleb128 0x17
 3379 02c3 00       		.byte	0
 3380 02c4 00       		.byte	0
 3381 02c5 36       		.uleb128 0x36
 3382 02c6 34       		.uleb128 0x34
 3383 02c7 00       		.byte	0
 3384 02c8 03       		.uleb128 0x3
 3385 02c9 0E       		.uleb128 0xe
 3386 02ca 3A       		.uleb128 0x3a
 3387 02cb 0B       		.uleb128 0xb
 3388 02cc 3B       		.uleb128 0x3b
 3389 02cd 05       		.uleb128 0x5
 3390 02ce 49       		.uleb128 0x49
 3391 02cf 13       		.uleb128 0x13
 3392 02d0 3F       		.uleb128 0x3f
 3393 02d1 19       		.uleb128 0x19
 3394 02d2 3C       		.uleb128 0x3c
 3395 02d3 19       		.uleb128 0x19
 3396 02d4 00       		.byte	0
 3397 02d5 00       		.byte	0
 3398 02d6 37       		.uleb128 0x37
 3399 02d7 34       		.uleb128 0x34
 3400 02d8 00       		.byte	0
 3401 02d9 03       		.uleb128 0x3
 3402 02da 08       		.uleb128 0x8
 3403 02db 3A       		.uleb128 0x3a
 3404 02dc 0B       		.uleb128 0xb
 3405 02dd 3B       		.uleb128 0x3b
 3406 02de 05       		.uleb128 0x5
 3407 02df 49       		.uleb128 0x49
 3408 02e0 13       		.uleb128 0x13
 3409 02e1 3F       		.uleb128 0x3f
 3410 02e2 19       		.uleb128 0x19
 3411 02e3 3C       		.uleb128 0x3c
 3412 02e4 19       		.uleb128 0x19
 3413 02e5 00       		.byte	0
 3414 02e6 00       		.byte	0
 3415 02e7 38       		.uleb128 0x38
 3416 02e8 2E       		.uleb128 0x2e
 3417 02e9 00       		.byte	0
 3418 02ea 3F       		.uleb128 0x3f
 3419 02eb 19       		.uleb128 0x19
 3420 02ec 03       		.uleb128 0x3
ARM GAS  /tmp/ccO5RPHd.s 			page 61


 3421 02ed 0E       		.uleb128 0xe
 3422 02ee 3A       		.uleb128 0x3a
 3423 02ef 0B       		.uleb128 0xb
 3424 02f0 3B       		.uleb128 0x3b
 3425 02f1 05       		.uleb128 0x5
 3426 02f2 27       		.uleb128 0x27
 3427 02f3 19       		.uleb128 0x19
 3428 02f4 3C       		.uleb128 0x3c
 3429 02f5 19       		.uleb128 0x19
 3430 02f6 00       		.byte	0
 3431 02f7 00       		.byte	0
 3432 02f8 39       		.uleb128 0x39
 3433 02f9 2E       		.uleb128 0x2e
 3434 02fa 01       		.byte	0x1
 3435 02fb 3F       		.uleb128 0x3f
 3436 02fc 19       		.uleb128 0x19
 3437 02fd 03       		.uleb128 0x3
 3438 02fe 0E       		.uleb128 0xe
 3439 02ff 3A       		.uleb128 0x3a
 3440 0300 0B       		.uleb128 0xb
 3441 0301 3B       		.uleb128 0x3b
 3442 0302 0B       		.uleb128 0xb
 3443 0303 27       		.uleb128 0x27
 3444 0304 19       		.uleb128 0x19
 3445 0305 3C       		.uleb128 0x3c
 3446 0306 19       		.uleb128 0x19
 3447 0307 01       		.uleb128 0x1
 3448 0308 13       		.uleb128 0x13
 3449 0309 00       		.byte	0
 3450 030a 00       		.byte	0
 3451 030b 3A       		.uleb128 0x3a
 3452 030c 2E       		.uleb128 0x2e
 3453 030d 01       		.byte	0x1
 3454 030e 3F       		.uleb128 0x3f
 3455 030f 19       		.uleb128 0x19
 3456 0310 03       		.uleb128 0x3
 3457 0311 0E       		.uleb128 0xe
 3458 0312 3A       		.uleb128 0x3a
 3459 0313 0B       		.uleb128 0xb
 3460 0314 3B       		.uleb128 0x3b
 3461 0315 05       		.uleb128 0x5
 3462 0316 27       		.uleb128 0x27
 3463 0317 19       		.uleb128 0x19
 3464 0318 3C       		.uleb128 0x3c
 3465 0319 19       		.uleb128 0x19
 3466 031a 01       		.uleb128 0x1
 3467 031b 13       		.uleb128 0x13
 3468 031c 00       		.byte	0
 3469 031d 00       		.byte	0
 3470 031e 3B       		.uleb128 0x3b
 3471 031f 2E       		.uleb128 0x2e
 3472 0320 01       		.byte	0x1
 3473 0321 3F       		.uleb128 0x3f
 3474 0322 19       		.uleb128 0x19
 3475 0323 03       		.uleb128 0x3
 3476 0324 0E       		.uleb128 0xe
 3477 0325 3A       		.uleb128 0x3a
ARM GAS  /tmp/ccO5RPHd.s 			page 62


 3478 0326 0B       		.uleb128 0xb
 3479 0327 3B       		.uleb128 0x3b
 3480 0328 05       		.uleb128 0x5
 3481 0329 27       		.uleb128 0x27
 3482 032a 19       		.uleb128 0x19
 3483 032b 49       		.uleb128 0x49
 3484 032c 13       		.uleb128 0x13
 3485 032d 3C       		.uleb128 0x3c
 3486 032e 19       		.uleb128 0x19
 3487 032f 01       		.uleb128 0x1
 3488 0330 13       		.uleb128 0x13
 3489 0331 00       		.byte	0
 3490 0332 00       		.byte	0
 3491 0333 3C       		.uleb128 0x3c
 3492 0334 2E       		.uleb128 0x2e
 3493 0335 01       		.byte	0x1
 3494 0336 3F       		.uleb128 0x3f
 3495 0337 19       		.uleb128 0x19
 3496 0338 03       		.uleb128 0x3
 3497 0339 0E       		.uleb128 0xe
 3498 033a 3A       		.uleb128 0x3a
 3499 033b 0B       		.uleb128 0xb
 3500 033c 3B       		.uleb128 0x3b
 3501 033d 0B       		.uleb128 0xb
 3502 033e 27       		.uleb128 0x27
 3503 033f 19       		.uleb128 0x19
 3504 0340 3C       		.uleb128 0x3c
 3505 0341 19       		.uleb128 0x19
 3506 0342 00       		.byte	0
 3507 0343 00       		.byte	0
 3508 0344 00       		.byte	0
 3509              		.section	.debug_loc,"",%progbits
 3510              	.Ldebug_loc0:
 3511              	.LLST0:
 3512 0000 00000000 		.4byte	.LVL1
 3513 0004 0A000000 		.4byte	.LVL3
 3514 0008 0100     		.2byte	0x1
 3515 000a 50       		.byte	0x50
 3516 000b 0A000000 		.4byte	.LVL3
 3517 000f 0D000000 		.4byte	.LVL4-1
 3518 0013 0300     		.2byte	0x3
 3519 0015 70       		.byte	0x70
 3520 0016 74       		.sleb128 -12
 3521 0017 9F       		.byte	0x9f
 3522 0018 0D000000 		.4byte	.LVL4-1
 3523 001c 0E000000 		.4byte	.LFE257
 3524 0020 0400     		.2byte	0x4
 3525 0022 F3       		.byte	0xf3
 3526 0023 01       		.uleb128 0x1
 3527 0024 50       		.byte	0x50
 3528 0025 9F       		.byte	0x9f
 3529 0026 00000000 		.4byte	0
 3530 002a 00000000 		.4byte	0
 3531              	.LLST1:
 3532 002e 08000000 		.4byte	.LVL2
 3533 0032 0A000000 		.4byte	.LVL3
 3534 0036 0300     		.2byte	0x3
ARM GAS  /tmp/ccO5RPHd.s 			page 63


 3535 0038 70       		.byte	0x70
 3536 0039 0C       		.sleb128 12
 3537 003a 9F       		.byte	0x9f
 3538 003b 0A000000 		.4byte	.LVL3
 3539 003f 0D000000 		.4byte	.LVL4-1
 3540 0043 0100     		.2byte	0x1
 3541 0045 50       		.byte	0x50
 3542 0046 0D000000 		.4byte	.LVL4-1
 3543 004a 0E000000 		.4byte	.LFE257
 3544 004e 0600     		.2byte	0x6
 3545 0050 F3       		.byte	0xf3
 3546 0051 01       		.uleb128 0x1
 3547 0052 50       		.byte	0x50
 3548 0053 23       		.byte	0x23
 3549 0054 0C       		.uleb128 0xc
 3550 0055 9F       		.byte	0x9f
 3551 0056 00000000 		.4byte	0
 3552 005a 00000000 		.4byte	0
 3553              	.LLST2:
 3554 005e 00000000 		.4byte	.LVL5
 3555 0062 0F000000 		.4byte	.LVL6-1
 3556 0066 0100     		.2byte	0x1
 3557 0068 50       		.byte	0x50
 3558 0069 0F000000 		.4byte	.LVL6-1
 3559 006d 1C000000 		.4byte	.LFE258
 3560 0071 0100     		.2byte	0x1
 3561 0073 54       		.byte	0x54
 3562 0074 00000000 		.4byte	0
 3563 0078 00000000 		.4byte	0
 3564              	.LLST3:
 3565 007c 00000000 		.4byte	.LVL5
 3566 0080 0F000000 		.4byte	.LVL6-1
 3567 0084 0100     		.2byte	0x1
 3568 0086 51       		.byte	0x51
 3569 0087 0F000000 		.4byte	.LVL6-1
 3570 008b 1C000000 		.4byte	.LFE258
 3571 008f 0400     		.2byte	0x4
 3572 0091 F3       		.byte	0xf3
 3573 0092 01       		.uleb128 0x1
 3574 0093 51       		.byte	0x51
 3575 0094 9F       		.byte	0x9f
 3576 0095 00000000 		.4byte	0
 3577 0099 00000000 		.4byte	0
 3578              	.LLST4:
 3579 009d 00000000 		.4byte	.LVL8
 3580 00a1 0D000000 		.4byte	.LVL9-1
 3581 00a5 0100     		.2byte	0x1
 3582 00a7 50       		.byte	0x50
 3583 00a8 0D000000 		.4byte	.LVL9-1
 3584 00ac 1A000000 		.4byte	.LFE259
 3585 00b0 0100     		.2byte	0x1
 3586 00b2 54       		.byte	0x54
 3587 00b3 00000000 		.4byte	0
 3588 00b7 00000000 		.4byte	0
 3589              	.LLST5:
 3590 00bb 00000000 		.4byte	.LVL11
 3591 00bf 02000000 		.4byte	.LVL12
ARM GAS  /tmp/ccO5RPHd.s 			page 64


 3592 00c3 0100     		.2byte	0x1
 3593 00c5 50       		.byte	0x50
 3594 00c6 02000000 		.4byte	.LVL12
 3595 00ca 04000000 		.4byte	.LFE260
 3596 00ce 0400     		.2byte	0x4
 3597 00d0 F3       		.byte	0xf3
 3598 00d1 01       		.uleb128 0x1
 3599 00d2 50       		.byte	0x50
 3600 00d3 9F       		.byte	0x9f
 3601 00d4 00000000 		.4byte	0
 3602 00d8 00000000 		.4byte	0
 3603              	.LLST6:
 3604 00dc 00000000 		.4byte	.LVL13
 3605 00e0 29000000 		.4byte	.LVL14-1
 3606 00e4 0100     		.2byte	0x1
 3607 00e6 50       		.byte	0x50
 3608 00e7 29000000 		.4byte	.LVL14-1
 3609 00eb 3E000000 		.4byte	.LFE261
 3610 00ef 0100     		.2byte	0x1
 3611 00f1 54       		.byte	0x54
 3612 00f2 00000000 		.4byte	0
 3613 00f6 00000000 		.4byte	0
 3614              	.LLST7:
 3615 00fa 00000000 		.4byte	.LVL13
 3616 00fe 29000000 		.4byte	.LVL14-1
 3617 0102 0100     		.2byte	0x1
 3618 0104 51       		.byte	0x51
 3619 0105 29000000 		.4byte	.LVL14-1
 3620 0109 3E000000 		.4byte	.LFE261
 3621 010d 0400     		.2byte	0x4
 3622 010f F3       		.byte	0xf3
 3623 0110 01       		.uleb128 0x1
 3624 0111 51       		.byte	0x51
 3625 0112 9F       		.byte	0x9f
 3626 0113 00000000 		.4byte	0
 3627 0117 00000000 		.4byte	0
 3628              	.LLST8:
 3629 011b 00000000 		.4byte	.LVL13
 3630 011f 29000000 		.4byte	.LVL14-1
 3631 0123 0100     		.2byte	0x1
 3632 0125 52       		.byte	0x52
 3633 0126 29000000 		.4byte	.LVL14-1
 3634 012a 3E000000 		.4byte	.LFE261
 3635 012e 0400     		.2byte	0x4
 3636 0130 F3       		.byte	0xf3
 3637 0131 01       		.uleb128 0x1
 3638 0132 52       		.byte	0x52
 3639 0133 9F       		.byte	0x9f
 3640 0134 00000000 		.4byte	0
 3641 0138 00000000 		.4byte	0
 3642              	.LLST9:
 3643 013c 00000000 		.4byte	.LVL13
 3644 0140 29000000 		.4byte	.LVL14-1
 3645 0144 0100     		.2byte	0x1
 3646 0146 53       		.byte	0x53
 3647 0147 29000000 		.4byte	.LVL14-1
 3648 014b 3E000000 		.4byte	.LFE261
ARM GAS  /tmp/ccO5RPHd.s 			page 65


 3649 014f 0400     		.2byte	0x4
 3650 0151 F3       		.byte	0xf3
 3651 0152 01       		.uleb128 0x1
 3652 0153 53       		.byte	0x53
 3653 0154 9F       		.byte	0x9f
 3654 0155 00000000 		.4byte	0
 3655 0159 00000000 		.4byte	0
 3656              	.LLST10:
 3657 015d 00000000 		.4byte	.LVL16
 3658 0161 1B000000 		.4byte	.LVL17-1
 3659 0165 0100     		.2byte	0x1
 3660 0167 50       		.byte	0x50
 3661 0168 1B000000 		.4byte	.LVL17-1
 3662 016c 30000000 		.4byte	.LFE262
 3663 0170 0100     		.2byte	0x1
 3664 0172 54       		.byte	0x54
 3665 0173 00000000 		.4byte	0
 3666 0177 00000000 		.4byte	0
 3667              	.LLST11:
 3668 017b 00000000 		.4byte	.LVL16
 3669 017f 1B000000 		.4byte	.LVL17-1
 3670 0183 0100     		.2byte	0x1
 3671 0185 51       		.byte	0x51
 3672 0186 1B000000 		.4byte	.LVL17-1
 3673 018a 30000000 		.4byte	.LFE262
 3674 018e 0400     		.2byte	0x4
 3675 0190 F3       		.byte	0xf3
 3676 0191 01       		.uleb128 0x1
 3677 0192 51       		.byte	0x51
 3678 0193 9F       		.byte	0x9f
 3679 0194 00000000 		.4byte	0
 3680 0198 00000000 		.4byte	0
 3681              	.LLST12:
 3682 019c 00000000 		.4byte	.LVL16
 3683 01a0 1B000000 		.4byte	.LVL17-1
 3684 01a4 0100     		.2byte	0x1
 3685 01a6 52       		.byte	0x52
 3686 01a7 1B000000 		.4byte	.LVL17-1
 3687 01ab 30000000 		.4byte	.LFE262
 3688 01af 0400     		.2byte	0x4
 3689 01b1 F3       		.byte	0xf3
 3690 01b2 01       		.uleb128 0x1
 3691 01b3 52       		.byte	0x52
 3692 01b4 9F       		.byte	0x9f
 3693 01b5 00000000 		.4byte	0
 3694 01b9 00000000 		.4byte	0
 3695              	.LLST13:
 3696 01bd 00000000 		.4byte	.LVL16
 3697 01c1 1B000000 		.4byte	.LVL17-1
 3698 01c5 0100     		.2byte	0x1
 3699 01c7 53       		.byte	0x53
 3700 01c8 1B000000 		.4byte	.LVL17-1
 3701 01cc 30000000 		.4byte	.LFE262
 3702 01d0 0400     		.2byte	0x4
 3703 01d2 F3       		.byte	0xf3
 3704 01d3 01       		.uleb128 0x1
 3705 01d4 53       		.byte	0x53
ARM GAS  /tmp/ccO5RPHd.s 			page 66


 3706 01d5 9F       		.byte	0x9f
 3707 01d6 00000000 		.4byte	0
 3708 01da 00000000 		.4byte	0
 3709              	.LLST14:
 3710 01de 00000000 		.4byte	.LVL19
 3711 01e2 02000000 		.4byte	.LVL20
 3712 01e6 0100     		.2byte	0x1
 3713 01e8 50       		.byte	0x50
 3714 01e9 02000000 		.4byte	.LVL20
 3715 01ed 05000000 		.4byte	.LVL21-1
 3716 01f1 0300     		.2byte	0x3
 3717 01f3 70       		.byte	0x70
 3718 01f4 74       		.sleb128 -12
 3719 01f5 9F       		.byte	0x9f
 3720 01f6 05000000 		.4byte	.LVL21-1
 3721 01fa 06000000 		.4byte	.LFE263
 3722 01fe 0400     		.2byte	0x4
 3723 0200 F3       		.byte	0xf3
 3724 0201 01       		.uleb128 0x1
 3725 0202 50       		.byte	0x50
 3726 0203 9F       		.byte	0x9f
 3727 0204 00000000 		.4byte	0
 3728 0208 00000000 		.4byte	0
 3729              	.LLST15:
 3730 020c 00000000 		.4byte	.LVL19
 3731 0210 02000000 		.4byte	.LVL20
 3732 0214 0300     		.2byte	0x3
 3733 0216 70       		.byte	0x70
 3734 0217 0C       		.sleb128 12
 3735 0218 9F       		.byte	0x9f
 3736 0219 02000000 		.4byte	.LVL20
 3737 021d 05000000 		.4byte	.LVL21-1
 3738 0221 0100     		.2byte	0x1
 3739 0223 50       		.byte	0x50
 3740 0224 05000000 		.4byte	.LVL21-1
 3741 0228 06000000 		.4byte	.LFE263
 3742 022c 0600     		.2byte	0x6
 3743 022e F3       		.byte	0xf3
 3744 022f 01       		.uleb128 0x1
 3745 0230 50       		.byte	0x50
 3746 0231 23       		.byte	0x23
 3747 0232 0C       		.uleb128 0xc
 3748 0233 9F       		.byte	0x9f
 3749 0234 00000000 		.4byte	0
 3750 0238 00000000 		.4byte	0
 3751              	.LLST16:
 3752 023c 00000000 		.4byte	.LVL22
 3753 0240 02000000 		.4byte	.LVL23
 3754 0244 0100     		.2byte	0x1
 3755 0246 50       		.byte	0x50
 3756 0247 02000000 		.4byte	.LVL23
 3757 024b 05000000 		.4byte	.LVL24-1
 3758 024f 0300     		.2byte	0x3
 3759 0251 70       		.byte	0x70
 3760 0252 74       		.sleb128 -12
 3761 0253 9F       		.byte	0x9f
 3762 0254 05000000 		.4byte	.LVL24-1
ARM GAS  /tmp/ccO5RPHd.s 			page 67


 3763 0258 06000000 		.4byte	.LFE264
 3764 025c 0400     		.2byte	0x4
 3765 025e F3       		.byte	0xf3
 3766 025f 01       		.uleb128 0x1
 3767 0260 50       		.byte	0x50
 3768 0261 9F       		.byte	0x9f
 3769 0262 00000000 		.4byte	0
 3770 0266 00000000 		.4byte	0
 3771              	.LLST17:
 3772 026a 00000000 		.4byte	.LVL22
 3773 026e 02000000 		.4byte	.LVL23
 3774 0272 0300     		.2byte	0x3
 3775 0274 70       		.byte	0x70
 3776 0275 0C       		.sleb128 12
 3777 0276 9F       		.byte	0x9f
 3778 0277 02000000 		.4byte	.LVL23
 3779 027b 05000000 		.4byte	.LVL24-1
 3780 027f 0100     		.2byte	0x1
 3781 0281 50       		.byte	0x50
 3782 0282 05000000 		.4byte	.LVL24-1
 3783 0286 06000000 		.4byte	.LFE264
 3784 028a 0600     		.2byte	0x6
 3785 028c F3       		.byte	0xf3
 3786 028d 01       		.uleb128 0x1
 3787 028e 50       		.byte	0x50
 3788 028f 23       		.byte	0x23
 3789 0290 0C       		.uleb128 0xc
 3790 0291 9F       		.byte	0x9f
 3791 0292 00000000 		.4byte	0
 3792 0296 00000000 		.4byte	0
 3793              		.section	.debug_aranges,"",%progbits
 3794 0000 5C000000 		.4byte	0x5c
 3795 0004 0200     		.2byte	0x2
 3796 0006 00000000 		.4byte	.Ldebug_info0
 3797 000a 04       		.byte	0x4
 3798 000b 00       		.byte	0
 3799 000c 0000     		.2byte	0
 3800 000e 0000     		.2byte	0
 3801 0010 00000000 		.4byte	.LFB256
 3802 0014 04000000 		.4byte	.LFE256-.LFB256
 3803 0018 00000000 		.4byte	.LFB257
 3804 001c 0E000000 		.4byte	.LFE257-.LFB257
 3805 0020 00000000 		.4byte	.LFB258
 3806 0024 1C000000 		.4byte	.LFE258-.LFB258
 3807 0028 00000000 		.4byte	.LFB259
 3808 002c 1A000000 		.4byte	.LFE259-.LFB259
 3809 0030 00000000 		.4byte	.LFB260
 3810 0034 04000000 		.4byte	.LFE260-.LFB260
 3811 0038 00000000 		.4byte	.LFB261
 3812 003c 3E000000 		.4byte	.LFE261-.LFB261
 3813 0040 00000000 		.4byte	.LFB262
 3814 0044 30000000 		.4byte	.LFE262-.LFB262
 3815 0048 00000000 		.4byte	.LFB263
 3816 004c 06000000 		.4byte	.LFE263-.LFB263
 3817 0050 00000000 		.4byte	.LFB264
 3818 0054 06000000 		.4byte	.LFE264-.LFB264
 3819 0058 00000000 		.4byte	0
ARM GAS  /tmp/ccO5RPHd.s 			page 68


 3820 005c 00000000 		.4byte	0
 3821              		.section	.debug_ranges,"",%progbits
 3822              	.Ldebug_ranges0:
 3823 0000 02000000 		.4byte	.LBB84
 3824 0004 04000000 		.4byte	.LBE84
 3825 0008 06000000 		.4byte	.LBB93
 3826 000c 0A000000 		.4byte	.LBE93
 3827 0010 00000000 		.4byte	0
 3828 0014 00000000 		.4byte	0
 3829 0018 02000000 		.4byte	.LBB100
 3830 001c 04000000 		.4byte	.LBE100
 3831 0020 06000000 		.4byte	.LBB109
 3832 0024 0A000000 		.4byte	.LBE109
 3833 0028 00000000 		.4byte	0
 3834 002c 00000000 		.4byte	0
 3835 0030 00000000 		.4byte	.LFB256
 3836 0034 04000000 		.4byte	.LFE256
 3837 0038 00000000 		.4byte	.LFB257
 3838 003c 0E000000 		.4byte	.LFE257
 3839 0040 00000000 		.4byte	.LFB258
 3840 0044 1C000000 		.4byte	.LFE258
 3841 0048 00000000 		.4byte	.LFB259
 3842 004c 1A000000 		.4byte	.LFE259
 3843 0050 00000000 		.4byte	.LFB260
 3844 0054 04000000 		.4byte	.LFE260
 3845 0058 00000000 		.4byte	.LFB261
 3846 005c 3E000000 		.4byte	.LFE261
 3847 0060 00000000 		.4byte	.LFB262
 3848 0064 30000000 		.4byte	.LFE262
 3849 0068 00000000 		.4byte	.LFB263
 3850 006c 06000000 		.4byte	.LFE263
 3851 0070 00000000 		.4byte	.LFB264
 3852 0074 06000000 		.4byte	.LFE264
 3853 0078 00000000 		.4byte	0
 3854 007c 00000000 		.4byte	0
 3855              		.section	.debug_line,"",%progbits
 3856              	.Ldebug_line0:
 3857 0000 08040000 		.section	.debug_str,"MS",%progbits,1
 3857      0200D902 
 3857      00000201 
 3857      FB0E0D00 
 3857      01010101 
 3858              	.LASF153:
 3859 0000 646D6172 		.ascii	"dmarx\000"
 3859      7800
 3860              	.LASF139:
 3861 0006 69326364 		.ascii	"i2cdutycycle_t\000"
 3861      75747963 
 3861      79636C65 
 3861      5F7400
 3862              	.LASF56:
 3863 0015 72656164 		.ascii	"ready_list_t\000"
 3863      795F6C69 
 3863      73745F74 
 3863      00
 3864              	.LASF86:
 3865 0022 4D304152 		.ascii	"M0AR\000"
ARM GAS  /tmp/ccO5RPHd.s 			page 69


 3865      00
 3866              	.LASF2:
 3867 0027 73697A65 		.ascii	"size_t\000"
 3867      5F7400
 3868              	.LASF100:
 3869 002e 7264796D 		.ascii	"rdymsg\000"
 3869      736700
 3870              	.LASF19:
 3871 0035 75696E74 		.ascii	"uint64_t\000"
 3871      36345F74 
 3871      00
 3872              	.LASF120:
 3873 003e 76656374 		.ascii	"vector\000"
 3873      6F7200
 3874              	.LASF3:
 3875 0045 5F5F7569 		.ascii	"__uint8_t\000"
 3875      6E74385F 
 3875      7400
 3876              	.LASF124:
 3877 004f 4932435F 		.ascii	"I2C_STOP\000"
 3877      53544F50 
 3877      00
 3878              	.LASF97:
 3879 0058 706F7274 		.ascii	"port_intctx\000"
 3879      5F696E74 
 3879      63747800 
 3880              	.LASF75:
 3881 0064 73797374 		.ascii	"system_debug_t\000"
 3881      656D5F64 
 3881      65627567 
 3881      5F7400
 3882              	.LASF187:
 3883 0073 6932635F 		.ascii	"i2c_lld_master_receive_timeout\000"
 3883      6C6C645F 
 3883      6D617374 
 3883      65725F72 
 3883      65636569 
 3884              	.LASF91:
 3885 0092 54524953 		.ascii	"TRISE\000"
 3885      4500
 3886              	.LASF116:
 3887 0098 73747265 		.ascii	"stream\000"
 3887      616D00
 3888              	.LASF155:
 3889 009f 706F7274 		.ascii	"port_lock\000"
 3889      5F6C6F63 
 3889      6B00
 3890              	.LASF14:
 3891 00a9 6C6F6E67 		.ascii	"long long unsigned int\000"
 3891      206C6F6E 
 3891      6720756E 
 3891      7369676E 
 3891      65642069 
 3892              	.LASF101:
 3893 00c0 65786974 		.ascii	"exitcode\000"
 3893      636F6465 
 3893      00
ARM GAS  /tmp/ccO5RPHd.s 			page 70


 3894              	.LASF181:
 3895 00c9 69326352 		.ascii	"i2cReleaseBus\000"
 3895      656C6561 
 3895      73654275 
 3895      7300
 3896              	.LASF72:
 3897 00d7 76697274 		.ascii	"virtual_timers_list_t\000"
 3897      75616C5F 
 3897      74696D65 
 3897      72735F6C 
 3897      6973745F 
 3898              	.LASF182:
 3899 00ed 49544D5F 		.ascii	"ITM_RxBuffer\000"
 3899      52784275 
 3899      66666572 
 3899      00
 3900              	.LASF169:
 3901 00fa 69326370 		.ascii	"i2cp\000"
 3901      00
 3902              	.LASF55:
 3903 00ff 63685F74 		.ascii	"ch_threads_queue\000"
 3903      68726561 
 3903      64735F71 
 3903      75657565 
 3903      00
 3904              	.LASF33:
 3905 0110 705F7072 		.ascii	"p_prio\000"
 3905      696F00
 3906              	.LASF173:
 3907 0117 6932634D 		.ascii	"i2cMasterTransmitTimeout\000"
 3907      61737465 
 3907      72547261 
 3907      6E736D69 
 3907      7454696D 
 3908              	.LASF160:
 3909 0130 6F73616C 		.ascii	"osalMutexObjectInit\000"
 3909      4D757465 
 3909      784F626A 
 3909      65637449 
 3909      6E697400 
 3910              	.LASF115:
 3911 0144 6D757465 		.ascii	"mutex_t\000"
 3911      785F7400 
 3912              	.LASF193:
 3913 014c 63684D74 		.ascii	"chMtxUnlock\000"
 3913      78556E6C 
 3913      6F636B00 
 3914              	.LASF1:
 3915 0158 7369676E 		.ascii	"signed char\000"
 3915      65642063 
 3915      68617200 
 3916              	.LASF141:
 3917 0164 636C6F63 		.ascii	"clock_speed\000"
 3917      6B5F7370 
 3917      65656400 
 3918              	.LASF49:
 3919 0170 705F6D70 		.ascii	"p_mpool\000"
ARM GAS  /tmp/ccO5RPHd.s 			page 71


 3919      6F6F6C00 
 3920              	.LASF176:
 3921 0178 72786275 		.ascii	"rxbuf\000"
 3921      6600
 3922              	.LASF150:
 3923 017e 61646472 		.ascii	"addr\000"
 3923      00
 3924              	.LASF186:
 3925 0183 6932635F 		.ascii	"i2c_lld_master_transmit_timeout\000"
 3925      6C6C645F 
 3925      6D617374 
 3925      65725F74 
 3925      72616E73 
 3926              	.LASF81:
 3927 01a3 76746C69 		.ascii	"vtlist\000"
 3927      737400
 3928              	.LASF156:
 3929 01aa 706F7274 		.ascii	"port_unlock\000"
 3929      5F756E6C 
 3929      6F636B00 
 3930              	.LASF24:
 3931 01b6 74736C69 		.ascii	"tslices_t\000"
 3931      6365735F 
 3931      7400
 3932              	.LASF130:
 3933 01c0 69326361 		.ascii	"i2caddr_t\000"
 3933      6464725F 
 3933      7400
 3934              	.LASF145:
 3935 01ca 73746174 		.ascii	"state\000"
 3935      6500
 3936              	.LASF79:
 3937 01d0 63685F73 		.ascii	"ch_system\000"
 3937      79737465 
 3937      6D00
 3938              	.LASF9:
 3939 01da 6C6F6E67 		.ascii	"long int\000"
 3939      20696E74 
 3939      00
 3940              	.LASF22:
 3941 01e3 74737461 		.ascii	"tstate_t\000"
 3941      74655F74 
 3941      00
 3942              	.LASF92:
 3943 01ec 464C5452 		.ascii	"FLTR\000"
 3943      00
 3944              	.LASF35:
 3945 01f1 705F6E65 		.ascii	"p_newer\000"
 3945      77657200 
 3946              	.LASF108:
 3947 01f9 735F7175 		.ascii	"s_queue\000"
 3947      65756500 
 3948              	.LASF151:
 3949 0201 7278646D 		.ascii	"rxdmamode\000"
 3949      616D6F64 
 3949      6500
 3950              	.LASF154:
ARM GAS  /tmp/ccO5RPHd.s 			page 72


 3951 020b 646D6174 		.ascii	"dmatx\000"
 3951      7800
 3952              	.LASF134:
 3953 0211 4F504D4F 		.ascii	"OPMODE_SMBUS_HOST\000"
 3953      44455F53 
 3953      4D425553 
 3953      5F484F53 
 3953      5400
 3954              	.LASF61:
 3955 0223 725F6E65 		.ascii	"r_newer\000"
 3955      77657200 
 3956              	.LASF94:
 3957 022b 72656761 		.ascii	"regarm_t\000"
 3957      726D5F74 
 3957      00
 3958              	.LASF68:
 3959 0234 76745F70 		.ascii	"vt_prev\000"
 3959      72657600 
 3960              	.LASF140:
 3961 023c 6F705F6D 		.ascii	"op_mode\000"
 3961      6F646500 
 3962              	.LASF162:
 3963 0244 6F73616C 		.ascii	"osalSysLock\000"
 3963      5379734C 
 3963      6F636B00 
 3964              	.LASF12:
 3965 0250 6C6F6E67 		.ascii	"long long int\000"
 3965      206C6F6E 
 3965      6720696E 
 3965      7400
 3966              	.LASF161:
 3967 025e 76616C75 		.ascii	"value\000"
 3967      6500
 3968              	.LASF83:
 3969 0264 69646C65 		.ascii	"idle_thread_wa\000"
 3969      5F746872 
 3969      6561645F 
 3969      776100
 3970              	.LASF28:
 3971 0273 636E745F 		.ascii	"cnt_t\000"
 3971      7400
 3972              	.LASF0:
 3973 0279 756E7369 		.ascii	"unsigned int\000"
 3973      676E6564 
 3973      20696E74 
 3973      00
 3974              	.LASF67:
 3975 0286 76745F6E 		.ascii	"vt_next\000"
 3975      65787400 
 3976              	.LASF174:
 3977 028e 74786275 		.ascii	"txbuf\000"
 3977      6600
 3978              	.LASF42:
 3979 0294 705F7469 		.ascii	"p_time\000"
 3979      6D6500
 3980              	.LASF104:
 3981 029b 77747365 		.ascii	"wtsemp\000"
ARM GAS  /tmp/ccO5RPHd.s 			page 73


 3981      6D7000
 3982              	.LASF147:
 3983 02a2 6572726F 		.ascii	"errors\000"
 3983      727300
 3984              	.LASF69:
 3985 02a9 76745F64 		.ascii	"vt_delta\000"
 3985      656C7461 
 3985      00
 3986              	.LASF44:
 3987 02b2 705F6D73 		.ascii	"p_msgqueue\000"
 3987      67717565 
 3987      756500
 3988              	.LASF178:
 3989 02bd 74696D65 		.ascii	"timeout\000"
 3989      6F757400 
 3990              	.LASF118:
 3991 02c5 69736869 		.ascii	"ishift\000"
 3991      667400
 3992              	.LASF109:
 3993 02cc 735F636E 		.ascii	"s_cnt\000"
 3993      7400
 3994              	.LASF133:
 3995 02d2 4F504D4F 		.ascii	"OPMODE_SMBUS_DEVICE\000"
 3995      44455F53 
 3995      4D425553 
 3995      5F444556 
 3995      49434500 
 3996              	.LASF7:
 3997 02e6 73686F72 		.ascii	"short unsigned int\000"
 3997      7420756E 
 3997      7369676E 
 3997      65642069 
 3997      6E7400
 3998              	.LASF144:
 3999 02f9 49324344 		.ascii	"I2CDriver\000"
 3999      72697665 
 3999      7200
 4000              	.LASF52:
 4001 0303 63685F74 		.ascii	"ch_thread\000"
 4001      68726561 
 4001      6400
 4002              	.LASF82:
 4003 030d 6D61696E 		.ascii	"mainthread\000"
 4003      74687265 
 4003      616400
 4004              	.LASF26:
 4005 0318 6D73675F 		.ascii	"msg_t\000"
 4005      7400
 4006              	.LASF78:
 4007 031e 63685F73 		.ascii	"ch_system_t\000"
 4007      79737465 
 4007      6D5F7400 
 4008              	.LASF21:
 4009 032a 746D6F64 		.ascii	"tmode_t\000"
 4009      655F7400 
 4010              	.LASF16:
 4011 0332 75696E74 		.ascii	"uint16_t\000"
ARM GAS  /tmp/ccO5RPHd.s 			page 74


 4011      31365F74 
 4011      00
 4012              	.LASF136:
 4013 033b 5354445F 		.ascii	"STD_DUTY_CYCLE\000"
 4013      44555459 
 4013      5F435943 
 4013      4C4500
 4014              	.LASF57:
 4015 034a 63685F72 		.ascii	"ch_ready_list\000"
 4015      65616479 
 4015      5F6C6973 
 4015      7400
 4016              	.LASF27:
 4017 0358 6576656E 		.ascii	"eventmask_t\000"
 4017      746D6173 
 4017      6B5F7400 
 4018              	.LASF5:
 4019 0364 73686F72 		.ascii	"short int\000"
 4019      7420696E 
 4019      7400
 4020              	.LASF8:
 4021 036e 5F5F696E 		.ascii	"__int32_t\000"
 4021      7433325F 
 4021      7400
 4022              	.LASF95:
 4023 0378 73746B61 		.ascii	"stkalign_t\000"
 4023      6C69676E 
 4023      5F7400
 4024              	.LASF185:
 4025 0383 6932635F 		.ascii	"i2c_lld_stop\000"
 4025      6C6C645F 
 4025      73746F70 
 4025      00
 4026              	.LASF51:
 4027 0390 74687265 		.ascii	"threads_list_t\000"
 4027      6164735F 
 4027      6C697374 
 4027      5F7400
 4028              	.LASF43:
 4029 039f 705F7761 		.ascii	"p_waiting\000"
 4029      6974696E 
 4029      6700
 4030              	.LASF184:
 4031 03a9 6932635F 		.ascii	"i2c_lld_start\000"
 4031      6C6C645F 
 4031      73746172 
 4031      7400
 4032              	.LASF84:
 4033 03b7 73697A65 		.ascii	"sizetype\000"
 4033      74797065 
 4033      00
 4034              	.LASF50:
 4035 03c0 74687265 		.ascii	"thread_reference_t\000"
 4035      61645F72 
 4035      65666572 
 4035      656E6365 
 4035      5F7400
ARM GAS  /tmp/ccO5RPHd.s 			page 75


 4036              	.LASF73:
 4037 03d3 63685F76 		.ascii	"ch_virtual_timers_list\000"
 4037      69727475 
 4037      616C5F74 
 4037      696D6572 
 4037      735F6C69 
 4038              	.LASF103:
 4039 03ea 77747472 		.ascii	"wttrp\000"
 4039      7000
 4040              	.LASF168:
 4041 03f0 69326353 		.ascii	"i2cStart\000"
 4041      74617274 
 4041      00
 4042              	.LASF142:
 4043 03f9 64757479 		.ascii	"duty_cycle\000"
 4043      5F637963 
 4043      6C6500
 4044              	.LASF188:
 4045 0404 63684D74 		.ascii	"chMtxLock\000"
 4045      784C6F63 
 4045      6B00
 4046              	.LASF36:
 4047 040e 705F6F6C 		.ascii	"p_older\000"
 4047      64657200 
 4048              	.LASF177:
 4049 0416 72786279 		.ascii	"rxbytes\000"
 4049      74657300 
 4050              	.LASF170:
 4051 041e 69326353 		.ascii	"i2cStop\000"
 4051      746F7000 
 4052              	.LASF60:
 4053 0426 725F6374 		.ascii	"r_ctx\000"
 4053      7800
 4054              	.LASF152:
 4055 042c 7478646D 		.ascii	"txdmamode\000"
 4055      616D6F64 
 4055      6500
 4056              	.LASF99:
 4057 0436 746D5F63 		.ascii	"tm_calibration_t\000"
 4057      616C6962 
 4057      72617469 
 4057      6F6E5F74 
 4057      00
 4058              	.LASF132:
 4059 0447 4F504D4F 		.ascii	"OPMODE_I2C\000"
 4059      44455F49 
 4059      324300
 4060              	.LASF63:
 4061 0452 725F6375 		.ascii	"r_current\000"
 4061      7272656E 
 4061      7400
 4062              	.LASF62:
 4063 045c 725F6F6C 		.ascii	"r_older\000"
 4063      64657200 
 4064              	.LASF175:
 4065 0464 74786279 		.ascii	"txbytes\000"
 4065      74657300 
ARM GAS  /tmp/ccO5RPHd.s 			page 76


 4066              	.LASF13:
 4067 046c 5F5F7569 		.ascii	"__uint64_t\000"
 4067      6E743634 
 4067      5F7400
 4068              	.LASF23:
 4069 0477 74726566 		.ascii	"trefs_t\000"
 4069      735F7400 
 4070              	.LASF129:
 4071 047f 69326373 		.ascii	"i2cstate_t\000"
 4071      74617465 
 4071      5F7400
 4072              	.LASF138:
 4073 048a 46415354 		.ascii	"FAST_DUTY_CYCLE_16_9\000"
 4073      5F445554 
 4073      595F4359 
 4073      434C455F 
 4073      31365F39 
 4074              	.LASF65:
 4075 049f 76697274 		.ascii	"virtual_timer_t\000"
 4075      75616C5F 
 4075      74696D65 
 4075      725F7400 
 4076              	.LASF32:
 4077 04af 705F7072 		.ascii	"p_prev\000"
 4077      657600
 4078              	.LASF121:
 4079 04b6 73746D33 		.ascii	"stm32_dma_stream_t\000"
 4079      325F646D 
 4079      615F7374 
 4079      7265616D 
 4079      5F7400
 4080              	.LASF180:
 4081 04c9 69326341 		.ascii	"i2cAcquireBus\000"
 4081      63717569 
 4081      72654275 
 4081      7300
 4082              	.LASF25:
 4083 04d7 74707269 		.ascii	"tprio_t\000"
 4083      6F5F7400 
 4084              	.LASF126:
 4085 04df 4932435F 		.ascii	"I2C_ACTIVE_TX\000"
 4085      41435449 
 4085      56455F54 
 4085      5800
 4086              	.LASF131:
 4087 04ed 69326366 		.ascii	"i2cflags_t\000"
 4087      6C616773 
 4087      5F7400
 4088              	.LASF148:
 4089 04f8 6D757465 		.ascii	"mutex\000"
 4089      7800
 4090              	.LASF183:
 4091 04fe 63684D74 		.ascii	"chMtxObjectInit\000"
 4091      784F626A 
 4091      65637449 
 4091      6E697400 
 4092              	.LASF76:
ARM GAS  /tmp/ccO5RPHd.s 			page 77


 4093 050e 63685F73 		.ascii	"ch_system_debug\000"
 4093      79737465 
 4093      6D5F6465 
 4093      62756700 
 4094              	.LASF122:
 4095 051e 5F426F6F 		.ascii	"_Bool\000"
 4095      6C00
 4096              	.LASF17:
 4097 0524 696E7433 		.ascii	"int32_t\000"
 4097      325F7400 
 4098              	.LASF4:
 4099 052c 756E7369 		.ascii	"unsigned char\000"
 4099      676E6564 
 4099      20636861 
 4099      7200
 4100              	.LASF111:
 4101 053a 6D5F7175 		.ascii	"m_queue\000"
 4101      65756500 
 4102              	.LASF47:
 4103 0542 705F6D74 		.ascii	"p_mtxlist\000"
 4103      786C6973 
 4103      7400
 4104              	.LASF123:
 4105 054c 4932435F 		.ascii	"I2C_UNINIT\000"
 4105      554E494E 
 4105      495400
 4106              	.LASF38:
 4107 0557 705F7374 		.ascii	"p_state\000"
 4107      61746500 
 4108              	.LASF41:
 4109 055f 705F7072 		.ascii	"p_preempt\000"
 4109      65656D70 
 4109      7400
 4110              	.LASF59:
 4111 0569 725F7072 		.ascii	"r_prio\000"
 4111      696F00
 4112              	.LASF172:
 4113 0570 69326347 		.ascii	"i2cGetErrors\000"
 4113      65744572 
 4113      726F7273 
 4113      00
 4114              	.LASF106:
 4115 057d 65776D61 		.ascii	"ewmask\000"
 4115      736B00
 4116              	.LASF31:
 4117 0584 705F6E65 		.ascii	"p_next\000"
 4117      787400
 4118              	.LASF39:
 4119 058b 705F666C 		.ascii	"p_flags\000"
 4119      61677300 
 4120              	.LASF171:
 4121 0593 5F5F6675 		.ascii	"__func__\000"
 4121      6E635F5F 
 4121      00
 4122              	.LASF157:
 4123 059c 63685379 		.ascii	"chSysLock\000"
 4123      734C6F63 
ARM GAS  /tmp/ccO5RPHd.s 			page 78


 4123      6B00
 4124              	.LASF191:
 4125 05a6 2F686F6D 		.ascii	"/home/sivert/Documents/GitHub/BLDC/bldc-firmware\000"
 4125      652F7369 
 4125      76657274 
 4125      2F446F63 
 4125      756D656E 
 4126              	.LASF163:
 4127 05d7 6F73616C 		.ascii	"osalSysUnlock\000"
 4127      53797355 
 4127      6E6C6F63 
 4127      6B00
 4128              	.LASF137:
 4129 05e5 46415354 		.ascii	"FAST_DUTY_CYCLE_2\000"
 4129      5F445554 
 4129      595F4359 
 4129      434C455F 
 4129      3200
 4130              	.LASF128:
 4131 05f7 4932435F 		.ascii	"I2C_LOCKED\000"
 4131      4C4F434B 
 4131      454400
 4132              	.LASF107:
 4133 0602 63685F73 		.ascii	"ch_semaphore\000"
 4133      656D6170 
 4133      686F7265 
 4133      00
 4134              	.LASF46:
 4135 060f 705F6570 		.ascii	"p_epending\000"
 4135      656E6469 
 4135      6E6700
 4136              	.LASF117:
 4137 061a 69666372 		.ascii	"ifcr\000"
 4137      00
 4138              	.LASF18:
 4139 061f 75696E74 		.ascii	"uint32_t\000"
 4139      33325F74 
 4139      00
 4140              	.LASF105:
 4141 0628 77746D74 		.ascii	"wtmtxp\000"
 4141      787000
 4142              	.LASF58:
 4143 062f 725F7175 		.ascii	"r_queue\000"
 4143      65756500 
 4144              	.LASF53:
 4145 0637 63685F74 		.ascii	"ch_threads_list\000"
 4145      68726561 
 4145      64735F6C 
 4145      69737400 
 4146              	.LASF127:
 4147 0647 4932435F 		.ascii	"I2C_ACTIVE_RX\000"
 4147      41435449 
 4147      56455F52 
 4147      5800
 4148              	.LASF11:
 4149 0655 6C6F6E67 		.ascii	"long unsigned int\000"
 4149      20756E73 
ARM GAS  /tmp/ccO5RPHd.s 			page 79


 4149      69676E65 
 4149      6420696E 
 4149      7400
 4150              	.LASF114:
 4151 0667 63686172 		.ascii	"char\000"
 4151      00
 4152              	.LASF190:
 4153 066c 43686962 		.ascii	"ChibiOS_3.0.2/os/hal/src/i2c.c\000"
 4153      694F535F 
 4153      332E302E 
 4153      322F6F73 
 4153      2F68616C 
 4154              	.LASF146:
 4155 068b 636F6E66 		.ascii	"config\000"
 4155      696700
 4156              	.LASF165:
 4157 0692 6F73616C 		.ascii	"osalMutexUnlock\000"
 4157      4D757465 
 4157      78556E6C 
 4157      6F636B00 
 4158              	.LASF6:
 4159 06a2 5F5F7569 		.ascii	"__uint16_t\000"
 4159      6E743136 
 4159      5F7400
 4160              	.LASF189:
 4161 06ad 474E5520 		.ascii	"GNU C 4.9.3 20150529 (release) [ARM/embedded-4_9-br"
 4161      4320342E 
 4161      392E3320 
 4161      32303135 
 4161      30353239 
 4162 06e0 616E6368 		.ascii	"anch revision 227977] -mcpu=cortex-m4 -mfloat-abi=h"
 4162      20726576 
 4162      6973696F 
 4162      6E203232 
 4162      37393737 
 4163 0713 61726420 		.ascii	"ard -mfpu=fpv4-sp-d16 -mno-thumb-interwork -mthumb "
 4163      2D6D6670 
 4163      753D6670 
 4163      76342D73 
 4163      702D6431 
 4164 0746 2D676764 		.ascii	"-ggdb -O2 -std=gnu99 -fomit-frame-pointer -falign-f"
 4164      62202D4F 
 4164      32202D73 
 4164      74643D67 
 4164      6E753939 
 4165 0779 756E6374 		.ascii	"unctions=16 -ffunction-sections -fdata-sections -fn"
 4165      696F6E73 
 4165      3D313620 
 4165      2D666675 
 4165      6E637469 
 4166 07ac 6F2D636F 		.ascii	"o-common -fsingle-precision-constant\000"
 4166      6D6D6F6E 
 4166      202D6673 
 4166      696E676C 
 4166      652D7072 
 4167              	.LASF113:
 4168 07d1 6D5F6E65 		.ascii	"m_next\000"
ARM GAS  /tmp/ccO5RPHd.s 			page 80


 4168      787400
 4169              	.LASF29:
 4170 07d8 73797374 		.ascii	"systime_t\000"
 4170      696D655F 
 4170      7400
 4171              	.LASF48:
 4172 07e2 705F7265 		.ascii	"p_realprio\000"
 4172      616C7072 
 4172      696F00
 4173              	.LASF64:
 4174 07ed 76746675 		.ascii	"vtfunc_t\000"
 4174      6E635F74 
 4174      00
 4175              	.LASF10:
 4176 07f6 5F5F7569 		.ascii	"__uint32_t\000"
 4176      6E743332 
 4176      5F7400
 4177              	.LASF158:
 4178 0801 5F5F7365 		.ascii	"__set_BASEPRI\000"
 4178      745F4241 
 4178      53455052 
 4178      4900
 4179              	.LASF164:
 4180 080f 6F73616C 		.ascii	"osalMutexLock\000"
 4180      4D757465 
 4180      784C6F63 
 4180      6B00
 4181              	.LASF85:
 4182 081d 4E445452 		.ascii	"NDTR\000"
 4182      00
 4183              	.LASF77:
 4184 0822 70616E69 		.ascii	"panic_msg\000"
 4184      635F6D73 
 4184      6700
 4185              	.LASF125:
 4186 082c 4932435F 		.ascii	"I2C_READY\000"
 4186      52454144 
 4186      5900
 4187              	.LASF98:
 4188 0836 6F666673 		.ascii	"offset\000"
 4188      657400
 4189              	.LASF88:
 4190 083d 444D415F 		.ascii	"DMA_Stream_TypeDef\000"
 4190      53747265 
 4190      616D5F54 
 4190      79706544 
 4190      656600
 4191              	.LASF110:
 4192 0850 63685F6D 		.ascii	"ch_mutex\000"
 4192      75746578 
 4192      00
 4193              	.LASF96:
 4194 0859 636F6E74 		.ascii	"context\000"
 4194      65787400 
 4195              	.LASF66:
 4196 0861 63685F76 		.ascii	"ch_virtual_timer\000"
 4196      69727475 
ARM GAS  /tmp/ccO5RPHd.s 			page 81


 4196      616C5F74 
 4196      696D6572 
 4196      00
 4197              	.LASF20:
 4198 0872 7274636E 		.ascii	"rtcnt_t\000"
 4198      745F7400 
 4199              	.LASF87:
 4200 087a 4D314152 		.ascii	"M1AR\000"
 4200      00
 4201              	.LASF119:
 4202 087f 73656C66 		.ascii	"selfindex\000"
 4202      696E6465 
 4202      7800
 4203              	.LASF71:
 4204 0889 76745F70 		.ascii	"vt_par\000"
 4204      617200
 4205              	.LASF143:
 4206 0890 49324343 		.ascii	"I2CConfig\000"
 4206      6F6E6669 
 4206      6700
 4207              	.LASF54:
 4208 089a 74687265 		.ascii	"threads_queue_t\000"
 4208      6164735F 
 4208      71756575 
 4208      655F7400 
 4209              	.LASF192:
 4210 08aa 6932635F 		.ascii	"i2c_lld_init\000"
 4210      6C6C645F 
 4210      696E6974 
 4210      00
 4211              	.LASF40:
 4212 08b7 705F7265 		.ascii	"p_refs\000"
 4212      667300
 4213              	.LASF30:
 4214 08be 74687265 		.ascii	"thread_t\000"
 4214      61645F74 
 4214      00
 4215              	.LASF80:
 4216 08c7 726C6973 		.ascii	"rlist\000"
 4216      7400
 4217              	.LASF15:
 4218 08cd 75696E74 		.ascii	"uint8_t\000"
 4218      385F7400 
 4219              	.LASF89:
 4220 08d5 4F415231 		.ascii	"OAR1\000"
 4220      00
 4221              	.LASF90:
 4222 08da 4F415232 		.ascii	"OAR2\000"
 4222      00
 4223              	.LASF179:
 4224 08df 6932634D 		.ascii	"i2cMasterReceiveTimeout\000"
 4224      61737465 
 4224      72526563 
 4224      65697665 
 4224      54696D65 
 4225              	.LASF102:
 4226 08f7 77746F62 		.ascii	"wtobjp\000"
ARM GAS  /tmp/ccO5RPHd.s 			page 82


 4226      6A7000
 4227              	.LASF37:
 4228 08fe 705F6E61 		.ascii	"p_name\000"
 4228      6D6500
 4229              	.LASF74:
 4230 0905 76745F73 		.ascii	"vt_systime\000"
 4230      79737469 
 4230      6D6500
 4231              	.LASF166:
 4232 0910 69326349 		.ascii	"i2cInit\000"
 4232      6E697400 
 4233              	.LASF159:
 4234 0918 63685379 		.ascii	"chSysUnlock\000"
 4234      73556E6C 
 4234      6F636B00 
 4235              	.LASF45:
 4236 0924 705F6D73 		.ascii	"p_msg\000"
 4236      6700
 4237              	.LASF93:
 4238 092a 4932435F 		.ascii	"I2C_TypeDef\000"
 4238      54797065 
 4238      44656600 
 4239              	.LASF135:
 4240 0936 6932636F 		.ascii	"i2copmode_t\000"
 4240      706D6F64 
 4240      655F7400 
 4241              	.LASF149:
 4242 0942 74687265 		.ascii	"thread\000"
 4242      616400
 4243              	.LASF167:
 4244 0949 6932634F 		.ascii	"i2cObjectInit\000"
 4244      626A6563 
 4244      74496E69 
 4244      7400
 4245              	.LASF112:
 4246 0957 6D5F6F77 		.ascii	"m_owner\000"
 4246      6E657200 
 4247              	.LASF34:
 4248 095f 705F6374 		.ascii	"p_ctx\000"
 4248      7800
 4249              	.LASF70:
 4250 0965 76745F66 		.ascii	"vt_func\000"
 4250      756E6300 
 4251              		.ident	"GCC: (GNU Tools for ARM Embedded Processors) 4.9.3 20150529 (release) [ARM/embedded-4_9-br
ARM GAS  /tmp/ccO5RPHd.s 			page 83


DEFINED SYMBOLS
                            *ABS*:0000000000000000 i2c.c
     /tmp/ccO5RPHd.s:21     .text.i2cInit:0000000000000000 $t
     /tmp/ccO5RPHd.s:27     .text.i2cInit:0000000000000000 i2cInit
     /tmp/ccO5RPHd.s:42     .text.i2cObjectInit:0000000000000000 $t
     /tmp/ccO5RPHd.s:48     .text.i2cObjectInit:0000000000000000 i2cObjectInit
     /tmp/ccO5RPHd.s:79     .text.i2cStart:0000000000000000 $t
     /tmp/ccO5RPHd.s:85     .text.i2cStart:0000000000000000 i2cStart
     /tmp/ccO5RPHd.s:158    .text.i2cStop:0000000000000000 $t
     /tmp/ccO5RPHd.s:164    .text.i2cStop:0000000000000000 i2cStop
     /tmp/ccO5RPHd.s:234    .text.i2cGetErrors:0000000000000000 $t
     /tmp/ccO5RPHd.s:240    .text.i2cGetErrors:0000000000000000 i2cGetErrors
     /tmp/ccO5RPHd.s:256    .text.i2cMasterTransmitTimeout:0000000000000000 $t
     /tmp/ccO5RPHd.s:262    .text.i2cMasterTransmitTimeout:0000000000000000 i2cMasterTransmitTimeout
     /tmp/ccO5RPHd.s:351    .text.i2cMasterReceiveTimeout:0000000000000000 $t
     /tmp/ccO5RPHd.s:357    .text.i2cMasterReceiveTimeout:0000000000000000 i2cMasterReceiveTimeout
     /tmp/ccO5RPHd.s:441    .text.i2cAcquireBus:0000000000000000 $t
     /tmp/ccO5RPHd.s:447    .text.i2cAcquireBus:0000000000000000 i2cAcquireBus
     /tmp/ccO5RPHd.s:468    .text.i2cReleaseBus:0000000000000000 $t
     /tmp/ccO5RPHd.s:474    .text.i2cReleaseBus:0000000000000000 i2cReleaseBus
                     .debug_frame:0000000000000010 $d

UNDEFINED SYMBOLS
i2c_lld_init
chMtxObjectInit
i2c_lld_start
i2c_lld_stop
i2c_lld_master_transmit_timeout
i2c_lld_master_receive_timeout
chMtxLock
chMtxUnlock
