ARM GAS  /tmp/ccMLGXk8.s 			page 1


   1              		.syntax unified
   2              		.cpu cortex-m4
   3              		.eabi_attribute 27, 1
   4              		.eabi_attribute 28, 1
   5              		.fpu fpv4-sp-d16
   6              		.eabi_attribute 20, 1
   7              		.eabi_attribute 21, 1
   8              		.eabi_attribute 23, 3
   9              		.eabi_attribute 24, 1
  10              		.eabi_attribute 25, 1
  11              		.eabi_attribute 26, 1
  12              		.eabi_attribute 30, 2
  13              		.eabi_attribute 34, 1
  14              		.eabi_attribute 18, 4
  15              		.thumb
  16              		.file	"icu_lld.c"
  17              		.text
  18              	.Ltext0:
  19              		.cfi_sections	.debug_frame
  20              		.section	.text.icu_lld_wait_edge.isra.0,"ax",%progbits
  21              		.align	2
  22              		.p2align 4,,15
  23              		.thumb
  24              		.thumb_func
  25              		.type	icu_lld_wait_edge.isra.0, %function
  26              	icu_lld_wait_edge.isra.0:
  27              	.LFB267:
  28              		.file 1 "ChibiOS_3.0.2/os/hal/ports/STM32/LLD/TIMv1/icu_lld.c"
  29              		.loc 1 105 0
  30              		.cfi_startproc
  31              		@ args = 0, pretend = 0, frame = 0
  32              		@ frame_needed = 0, uses_anonymous_args = 0
  33              		@ link register save eliminated.
  34              	.LVL0:
  35              	.LBB33:
  36              	.LBB34:
  37              	.LBB35:
  38              	.LBB36:
  39              	.LBB37:
  40              		.file 2 "ChibiOS_3.0.2/os/ext/CMSIS/include/core_cmFunc.h"
  41              		.loc 2 546 0
  42 0000 0023     		movs	r3, #0
  43              	@ 546 "ChibiOS_3.0.2/os/ext/CMSIS/include/core_cmFunc.h" 1
  44 0002 83F31188 		MSR basepri, r3
  45              	@ 0 "" 2
  46              		.thumb
  47              	.LBE37:
  48              	.LBE36:
  49              	.LBE35:
  50              	.LBE34:
  51              	.LBE33:
  52              		.loc 1 114 0
  53 0006 0368     		ldr	r3, [r0]
  54 0008 1B7D     		ldrb	r3, [r3, #20]	@ zero_extendqisi2
  55 000a 73B9     		cbnz	r3, .L2
  56 000c 0B68     		ldr	r3, [r1]
  57              	.L3:
ARM GAS  /tmp/ccMLGXk8.s 			page 2


  58              		.loc 1 116 0
  59 000e 1869     		ldr	r0, [r3, #16]
  60              	.LVL1:
  61 0010 8207     		lsls	r2, r0, #30
  62 0012 FCD0     		beq	.L3
  63              	.L4:
  64              	.LVL2:
  65              	.LBB38:
  66              	.LBB39:
  67              	.LBB40:
  68              	.LBB41:
  69              		.loc 2 546 0
  70 0014 2023     		movs	r3, #32
  71              	@ 546 "ChibiOS_3.0.2/os/ext/CMSIS/include/core_cmFunc.h" 1
  72 0016 83F31188 		MSR basepri, r3
  73              	@ 0 "" 2
  74              		.thumb
  75              	.LBE41:
  76              	.LBE40:
  77              	.LBE39:
  78              	.LBE38:
  79              		.loc 1 134 0
  80 001a 0A68     		ldr	r2, [r1]
  81 001c 1369     		ldr	r3, [r2, #16]
  82 001e 23F00703 		bic	r3, r3, #7
  83              		.loc 1 139 0
  84 0022 00F00100 		and	r0, r0, #1
  85              	.LVL3:
  86              		.loc 1 134 0
  87 0026 1361     		str	r3, [r2, #16]
  88              		.loc 1 139 0
  89 0028 7047     		bx	lr
  90              	.LVL4:
  91              	.L2:
  92 002a 0B68     		ldr	r3, [r1]
  93              	.L5:
  94              		.loc 1 122 0
  95 002c 1869     		ldr	r0, [r3, #16]
  96              	.LVL5:
  97 002e 10F0050F 		tst	r0, #5
  98 0032 FBD0     		beq	.L5
  99 0034 EEE7     		b	.L4
 100              		.cfi_endproc
 101              	.LFE267:
 102              		.size	icu_lld_wait_edge.isra.0, .-icu_lld_wait_edge.isra.0
 103 0036 00BF     		.section	.text.VectorB4,"ax",%progbits
 104              		.align	2
 105              		.p2align 4,,15
 106              		.global	VectorB4
 107              		.thumb
 108              		.thumb_func
 109              		.type	VectorB4, %function
 110              	VectorB4:
 111              	.LFB258:
 112              		.loc 1 248 0
 113              		.cfi_startproc
 114              		@ args = 0, pretend = 0, frame = 0
ARM GAS  /tmp/ccMLGXk8.s 			page 3


 115              		@ frame_needed = 0, uses_anonymous_args = 0
 116              	.LVL6:
 117 0000 38B5     		push	{r3, r4, r5, lr}
 118              		.cfi_def_cfa_offset 16
 119              		.cfi_offset 3, -16
 120              		.cfi_offset 4, -12
 121              		.cfi_offset 5, -8
 122              		.cfi_offset 14, -4
 123              	.LBB44:
 124              	.LBB45:
 125              		.loc 1 149 0
 126 0002 254D     		ldr	r5, .L56
 127 0004 EB68     		ldr	r3, [r5, #12]
 128              		.loc 1 152 0
 129 0006 6968     		ldr	r1, [r5, #4]
 130              		.loc 1 149 0
 131 0008 1A69     		ldr	r2, [r3, #16]
 132              	.LVL7:
 133              		.loc 1 150 0
 134 000a DC68     		ldr	r4, [r3, #12]
 135              		.loc 1 152 0
 136 000c 087D     		ldrb	r0, [r1, #20]	@ zero_extendqisi2
 137 000e 1440     		ands	r4, r4, r2
 138              	.LVL8:
 139              		.loc 1 150 0
 140 0010 E2B2     		uxtb	r2, r4
 141              		.loc 1 151 0
 142 0012 D243     		mvns	r2, r2
 143 0014 1A61     		str	r2, [r3, #16]
 144              		.loc 1 152 0
 145 0016 F8B9     		cbnz	r0, .L12
 146              		.loc 1 153 0
 147 0018 6007     		lsls	r0, r4, #29
 148 001a 14D5     		bpl	.L13
 149              		.loc 1 154 0
 150 001c 2B78     		ldrb	r3, [r5]	@ zero_extendqisi2
 151 001e 042B     		cmp	r3, #4
 152 0020 0DD0     		beq	.L53
 153              		.loc 1 155 0
 154 0022 A107     		lsls	r1, r4, #30
 155 0024 15D4     		bmi	.L19
 156              	.L17:
 157              		.loc 1 164 0
 158 0026 E407     		lsls	r4, r4, #31
 159              	.LVL9:
 160 0028 05D5     		bpl	.L25
 161              		.loc 1 165 0
 162 002a 6B68     		ldr	r3, [r5, #4]
 163 002c 1A48     		ldr	r0, .L56
 164 002e 1B69     		ldr	r3, [r3, #16]
 165 0030 9847     		blx	r3
 166              	.LVL10:
 167 0032 0323     		movs	r3, #3
 168 0034 2B70     		strb	r3, [r5]
 169              	.L25:
 170              	.LBE45:
 171              	.LBE44:
ARM GAS  /tmp/ccMLGXk8.s 			page 4


 172              		.loc 1 255 0
 173 0036 BDE83840 		pop	{r3, r4, r5, lr}
 174              		.cfi_remember_state
 175              		.cfi_restore 14
 176              		.cfi_restore 5
 177              		.cfi_restore 4
 178              		.cfi_restore 3
 179              		.cfi_def_cfa_offset 0
 180              		.loc 1 254 0
 181 003a FFF7FEBF 		b	_port_irq_epilogue
 182              	.LVL11:
 183              	.L53:
 184              		.cfi_restore_state
 185              	.LBB47:
 186              	.LBB46:
 187              		.loc 1 154 0
 188 003e 8B68     		ldr	r3, [r1, #8]
 189 0040 1BB3     		cbz	r3, .L15
 190 0042 2846     		mov	r0, r5
 191 0044 9847     		blx	r3
 192              	.LVL12:
 193              	.L13:
 194              		.loc 1 155 0
 195 0046 A107     		lsls	r1, r4, #30
 196 0048 EDD5     		bpl	.L17
 197              		.loc 1 156 0
 198 004a 2B78     		ldrb	r3, [r5]	@ zero_extendqisi2
 199 004c 124A     		ldr	r2, .L56
 200 004e 042B     		cmp	r3, #4
 201 0050 14D0     		beq	.L54
 202              	.L19:
 203 0052 0423     		movs	r3, #4
 204 0054 2B70     		strb	r3, [r5]
 205 0056 E6E7     		b	.L17
 206              	.L12:
 207              		.loc 1 159 0
 208 0058 A207     		lsls	r2, r4, #30
 209 005a 09D5     		bpl	.L21
 210              		.loc 1 160 0
 211 005c 2B78     		ldrb	r3, [r5]	@ zero_extendqisi2
 212 005e 042B     		cmp	r3, #4
 213 0060 02D0     		beq	.L55
 214              		.loc 1 161 0
 215 0062 6307     		lsls	r3, r4, #29
 216 0064 F5D4     		bmi	.L19
 217 0066 DEE7     		b	.L17
 218              	.L55:
 219              		.loc 1 160 0
 220 0068 8B68     		ldr	r3, [r1, #8]
 221 006a 8BB1     		cbz	r3, .L23
 222 006c 2846     		mov	r0, r5
 223 006e 9847     		blx	r3
 224              	.LVL13:
 225              	.L21:
 226              		.loc 1 161 0
 227 0070 6307     		lsls	r3, r4, #29
 228 0072 D8D5     		bpl	.L17
ARM GAS  /tmp/ccMLGXk8.s 			page 5


 229              		.loc 1 156 0
 230 0074 2B78     		ldrb	r3, [r5]	@ zero_extendqisi2
 231 0076 084A     		ldr	r2, .L56
 232 0078 042B     		cmp	r3, #4
 233 007a EAD1     		bne	.L19
 234              	.L54:
 235 007c 5168     		ldr	r1, [r2, #4]
 236              	.L26:
 237 007e CB68     		ldr	r3, [r1, #12]
 238 0080 002B     		cmp	r3, #0
 239 0082 E6D0     		beq	.L19
 240 0084 0448     		ldr	r0, .L56
 241 0086 9847     		blx	r3
 242              	.LVL14:
 243 0088 E3E7     		b	.L19
 244              	.L15:
 245              		.loc 1 155 0
 246 008a A007     		lsls	r0, r4, #30
 247 008c F7D4     		bmi	.L26
 248 008e CAE7     		b	.L17
 249              	.L23:
 250              		.loc 1 161 0
 251 0090 6207     		lsls	r2, r4, #29
 252 0092 F4D4     		bmi	.L26
 253 0094 C7E7     		b	.L17
 254              	.L57:
 255 0096 00BF     		.align	2
 256              	.L56:
 257 0098 00000000 		.word	.LANCHOR0
 258              	.LBE46:
 259              	.LBE47:
 260              		.cfi_endproc
 261              	.LFE258:
 262              		.size	VectorB4, .-VectorB4
 263              		.section	.text.icu_lld_init,"ax",%progbits
 264              		.align	2
 265              		.p2align 4,,15
 266              		.global	icu_lld_init
 267              		.thumb
 268              		.thumb_func
 269              		.type	icu_lld_init, %function
 270              	icu_lld_init:
 271              	.LFB259:
 272              		.loc 1 375 0
 273              		.cfi_startproc
 274              		@ args = 0, pretend = 0, frame = 0
 275              		@ frame_needed = 0, uses_anonymous_args = 0
 276 0000 10B5     		push	{r4, lr}
 277              		.cfi_def_cfa_offset 8
 278              		.cfi_offset 4, -8
 279              		.cfi_offset 14, -4
 280              		.loc 1 391 0
 281 0002 034C     		ldr	r4, .L60
 282 0004 2046     		mov	r0, r4
 283 0006 FFF7FEFF 		bl	icuObjectInit
 284              	.LVL15:
 285              		.loc 1 392 0
ARM GAS  /tmp/ccMLGXk8.s 			page 6


 286 000a 024B     		ldr	r3, .L60+4
 287 000c E360     		str	r3, [r4, #12]
 288 000e 10BD     		pop	{r4, pc}
 289              	.L61:
 290              		.align	2
 291              	.L60:
 292 0010 00000000 		.word	.LANCHOR0
 293 0014 00040040 		.word	1073742848
 294              		.cfi_endproc
 295              	.LFE259:
 296              		.size	icu_lld_init, .-icu_lld_init
 297              		.section	.text.icu_lld_start,"ax",%progbits
 298              		.align	2
 299              		.p2align 4,,15
 300              		.global	icu_lld_start
 301              		.thumb
 302              		.thumb_func
 303              		.type	icu_lld_start, %function
 304              	icu_lld_start:
 305              	.LFB260:
 306              		.loc 1 427 0
 307              		.cfi_startproc
 308              		@ args = 0, pretend = 0, frame = 0
 309              		@ frame_needed = 0, uses_anonymous_args = 0
 310              	.LVL16:
 311 0000 F8B5     		push	{r3, r4, r5, r6, r7, lr}
 312              		.cfi_def_cfa_offset 24
 313              		.cfi_offset 3, -24
 314              		.cfi_offset 4, -20
 315              		.cfi_offset 5, -16
 316              		.cfi_offset 6, -12
 317              		.cfi_offset 7, -8
 318              		.cfi_offset 14, -4
 319              		.loc 1 434 0
 320 0002 0378     		ldrb	r3, [r0]	@ zero_extendqisi2
 321 0004 012B     		cmp	r3, #1
 322              		.loc 1 427 0
 323 0006 0446     		mov	r4, r0
 324              		.loc 1 434 0
 325 0008 3AD0     		beq	.L74
 326              		.loc 1 505 0
 327 000a C368     		ldr	r3, [r0, #12]
 328 000c 0022     		movs	r2, #0
 329 000e 1A60     		str	r2, [r3]
 330              		.loc 1 506 0
 331 0010 5A63     		str	r2, [r3, #52]
 332              		.loc 1 507 0
 333 0012 9A63     		str	r2, [r3, #56]
 334              		.loc 1 508 0
 335 0014 5A62     		str	r2, [r3, #36]
 336              	.LVL17:
 337              	.L65:
 338              		.loc 1 513 0
 339 0016 6168     		ldr	r1, [r4, #4]
 340              		.loc 1 515 0
 341 0018 A268     		ldr	r2, [r4, #8]
 342              		.loc 1 513 0
ARM GAS  /tmp/ccMLGXk8.s 			page 7


 343 001a 8869     		ldr	r0, [r1, #24]
 344              		.loc 1 522 0
 345 001c 0D7D     		ldrb	r5, [r1, #20]	@ zero_extendqisi2
 346              		.loc 1 515 0
 347 001e 4E68     		ldr	r6, [r1, #4]
 348 0020 B2FBF6F2 		udiv	r2, r2, r6
 349              		.loc 1 513 0
 350 0024 20F0FF00 		bic	r0, r0, #255
 351              		.loc 1 515 0
 352 0028 013A     		subs	r2, r2, #1
 353              	.LVL18:
 354              		.loc 1 512 0
 355 002a 0027     		movs	r7, #0
 356              		.loc 1 520 0
 357 002c 4FF6FF76 		movw	r6, #65535
 358              		.loc 1 512 0
 359 0030 1F61     		str	r7, [r3, #16]
 360              		.loc 1 513 0
 361 0032 D860     		str	r0, [r3, #12]
 362              		.loc 1 519 0
 363 0034 9A62     		str	r2, [r3, #40]
 364              		.loc 1 520 0
 365 0036 DE62     		str	r6, [r3, #44]
 366              		.loc 1 535 0
 367 0038 0A78     		ldrb	r2, [r1]	@ zero_extendqisi2
 368              	.LVL19:
 369              		.loc 1 522 0
 370 003a 6DB9     		cbnz	r5, .L66
 371              		.loc 1 526 0
 372 003c 40F20120 		movw	r0, #513
 373              		.loc 1 530 0
 374 0040 5421     		movs	r1, #84
 375              	.LVL20:
 376              		.loc 1 526 0
 377 0042 9861     		str	r0, [r3, #24]
 378              		.loc 1 530 0
 379 0044 9960     		str	r1, [r3, #8]
 380              		.loc 1 535 0
 381 0046 C2B1     		cbz	r2, .L75
 382              		.loc 1 539 0
 383 0048 1322     		movs	r2, #19
 384 004a 1A62     		str	r2, [r3, #32]
 385              	.LVL21:
 386              	.L68:
 387              		.loc 1 544 0
 388 004c 03F13802 		add	r2, r3, #56
 389              		.loc 1 545 0
 390 0050 3433     		adds	r3, r3, #52
 391              		.loc 1 544 0
 392 0052 2261     		str	r2, [r4, #16]
 393              		.loc 1 545 0
 394 0054 6361     		str	r3, [r4, #20]
 395 0056 F8BD     		pop	{r3, r4, r5, r6, r7, pc}
 396              	.LVL22:
 397              	.L66:
 398              		.loc 1 551 0
 399 0058 4FF48170 		mov	r0, #258
ARM GAS  /tmp/ccMLGXk8.s 			page 8


 400              		.loc 1 555 0
 401 005c 6421     		movs	r1, #100
 402              	.LVL23:
 403              		.loc 1 551 0
 404 005e 9861     		str	r0, [r3, #24]
 405              		.loc 1 555 0
 406 0060 9960     		str	r1, [r3, #8]
 407              		.loc 1 560 0
 408 0062 3AB1     		cbz	r2, .L76
 409              		.loc 1 564 0
 410 0064 3122     		movs	r2, #49
 411 0066 1A62     		str	r2, [r3, #32]
 412              	.LVL24:
 413              	.L71:
 414              		.loc 1 569 0
 415 0068 03F13402 		add	r2, r3, #52
 416              		.loc 1 570 0
 417 006c 3833     		adds	r3, r3, #56
 418              		.loc 1 569 0
 419 006e 2261     		str	r2, [r4, #16]
 420              		.loc 1 570 0
 421 0070 6361     		str	r3, [r4, #20]
 422 0072 F8BD     		pop	{r3, r4, r5, r6, r7, pc}
 423              	.LVL25:
 424              	.L76:
 425              		.loc 1 561 0
 426 0074 1322     		movs	r2, #19
 427 0076 1A62     		str	r2, [r3, #32]
 428              	.LVL26:
 429 0078 F6E7     		b	.L71
 430              	.LVL27:
 431              	.L75:
 432              		.loc 1 536 0
 433 007a 3122     		movs	r2, #49
 434 007c 1A62     		str	r2, [r3, #32]
 435              	.LVL28:
 436 007e E5E7     		b	.L68
 437              	.LVL29:
 438              	.L74:
 439              		.loc 1 458 0
 440 0080 0B4B     		ldr	r3, .L78
 441 0082 9842     		cmp	r0, r3
 442 0084 01D0     		beq	.L77
 443              	.LVL30:
 444              	.L73:
 445 0086 E368     		ldr	r3, [r4, #12]
 446 0088 C5E7     		b	.L65
 447              	.LVL31:
 448              	.L77:
 449              		.loc 1 459 0
 450 008a 0A4B     		ldr	r3, .L78+4
 451 008c 1A6C     		ldr	r2, [r3, #64]
 452 008e 42F00202 		orr	r2, r2, #2
 453 0092 1A64     		str	r2, [r3, #64]
 454              		.loc 1 460 0
 455 0094 1A6A     		ldr	r2, [r3, #32]
 456 0096 0021     		movs	r1, #0
ARM GAS  /tmp/ccMLGXk8.s 			page 9


 457 0098 42F00202 		orr	r2, r2, #2
 458 009c 1A62     		str	r2, [r3, #32]
 459              		.loc 1 461 0
 460 009e 1D20     		movs	r0, #29
 461              	.LVL32:
 462              		.loc 1 460 0
 463 00a0 1962     		str	r1, [r3, #32]
 464              		.loc 1 461 0
 465 00a2 0721     		movs	r1, #7
 466 00a4 FFF7FEFF 		bl	nvicEnableVector
 467              	.LVL33:
 468              		.loc 1 462 0
 469 00a8 034B     		ldr	r3, .L78+8
 470 00aa A360     		str	r3, [r4, #8]
 471 00ac EBE7     		b	.L73
 472              	.L79:
 473 00ae 00BF     		.align	2
 474              	.L78:
 475 00b0 00000000 		.word	.LANCHOR0
 476 00b4 00380240 		.word	1073887232
 477 00b8 00BD0105 		.word	84000000
 478              		.cfi_endproc
 479              	.LFE260:
 480              		.size	icu_lld_start, .-icu_lld_start
 481              		.section	.text.icu_lld_stop,"ax",%progbits
 482              		.align	2
 483              		.p2align 4,,15
 484              		.global	icu_lld_stop
 485              		.thumb
 486              		.thumb_func
 487              		.type	icu_lld_stop, %function
 488              	icu_lld_stop:
 489              	.LFB261:
 490              		.loc 1 581 0
 491              		.cfi_startproc
 492              		@ args = 0, pretend = 0, frame = 0
 493              		@ frame_needed = 0, uses_anonymous_args = 0
 494              	.LVL34:
 495 0000 08B5     		push	{r3, lr}
 496              		.cfi_def_cfa_offset 8
 497              		.cfi_offset 3, -8
 498              		.cfi_offset 14, -4
 499              		.loc 1 583 0
 500 0002 0378     		ldrb	r3, [r0]	@ zero_extendqisi2
 501 0004 022B     		cmp	r3, #2
 502 0006 00D0     		beq	.L85
 503              	.LVL35:
 504              	.L80:
 505 0008 08BD     		pop	{r3, pc}
 506              	.LVL36:
 507              	.L85:
 508              		.loc 1 603 0
 509 000a 0849     		ldr	r1, .L86
 510              		.loc 1 585 0
 511 000c C368     		ldr	r3, [r0, #12]
 512 000e 0022     		movs	r2, #0
 513              		.loc 1 603 0
ARM GAS  /tmp/ccMLGXk8.s 			page 10


 514 0010 8842     		cmp	r0, r1
 515              		.loc 1 585 0
 516 0012 1A60     		str	r2, [r3]
 517              		.loc 1 586 0
 518 0014 DA60     		str	r2, [r3, #12]
 519              		.loc 1 587 0
 520 0016 1A61     		str	r2, [r3, #16]
 521              		.loc 1 603 0
 522 0018 F6D1     		bne	.L80
 523              		.loc 1 604 0
 524 001a 1D20     		movs	r0, #29
 525              	.LVL37:
 526 001c FFF7FEFF 		bl	nvicDisableVector
 527              	.LVL38:
 528              		.loc 1 605 0
 529 0020 034A     		ldr	r2, .L86+4
 530 0022 136C     		ldr	r3, [r2, #64]
 531 0024 23F00203 		bic	r3, r3, #2
 532 0028 1364     		str	r3, [r2, #64]
 533 002a EDE7     		b	.L80
 534              	.L87:
 535              		.align	2
 536              	.L86:
 537 002c 00000000 		.word	.LANCHOR0
 538 0030 00380240 		.word	1073887232
 539              		.cfi_endproc
 540              	.LFE261:
 541              		.size	icu_lld_stop, .-icu_lld_stop
 542              		.section	.text.icu_lld_start_capture,"ax",%progbits
 543              		.align	2
 544              		.p2align 4,,15
 545              		.global	icu_lld_start_capture
 546              		.thumb
 547              		.thumb_func
 548              		.type	icu_lld_start_capture, %function
 549              	icu_lld_start_capture:
 550              	.LFB262:
 551              		.loc 1 643 0
 552              		.cfi_startproc
 553              		@ args = 0, pretend = 0, frame = 0
 554              		@ frame_needed = 0, uses_anonymous_args = 0
 555              		@ link register save eliminated.
 556              	.LVL39:
 557              		.loc 1 646 0
 558 0000 C368     		ldr	r3, [r0, #12]
 559 0002 5A69     		ldr	r2, [r3, #20]
 560              		.loc 1 647 0
 561 0004 0020     		movs	r0, #0
 562              	.LVL40:
 563              		.loc 1 646 0
 564 0006 42F00102 		orr	r2, r2, #1
 565              		.loc 1 650 0
 566 000a 0521     		movs	r1, #5
 567              		.loc 1 646 0
 568 000c 5A61     		str	r2, [r3, #20]
 569              		.loc 1 647 0
 570 000e 1861     		str	r0, [r3, #16]
ARM GAS  /tmp/ccMLGXk8.s 			page 11


 571              		.loc 1 650 0
 572 0010 1960     		str	r1, [r3]
 573 0012 7047     		bx	lr
 574              		.cfi_endproc
 575              	.LFE262:
 576              		.size	icu_lld_start_capture, .-icu_lld_start_capture
 577              		.section	.text.icu_lld_wait_capture,"ax",%progbits
 578              		.align	2
 579              		.p2align 4,,15
 580              		.global	icu_lld_wait_capture
 581              		.thumb
 582              		.thumb_func
 583              		.type	icu_lld_wait_capture, %function
 584              	icu_lld_wait_capture:
 585              	.LFB263:
 586              		.loc 1 665 0
 587              		.cfi_startproc
 588              		@ args = 0, pretend = 0, frame = 0
 589              		@ frame_needed = 0, uses_anonymous_args = 0
 590              	.LVL41:
 591 0000 38B5     		push	{r3, r4, r5, lr}
 592              		.cfi_def_cfa_offset 16
 593              		.cfi_offset 3, -16
 594              		.cfi_offset 4, -12
 595              		.cfi_offset 5, -8
 596              		.cfi_offset 14, -4
 597              		.loc 1 669 0
 598 0002 0378     		ldrb	r3, [r0]	@ zero_extendqisi2
 599 0004 032B     		cmp	r3, #3
 600 0006 00F10405 		add	r5, r0, #4
 601 000a 00F10C04 		add	r4, r0, #12
 602 000e 05D0     		beq	.L90
 603              	.LVL42:
 604              	.L91:
 605              		.loc 1 674 0
 606 0010 2846     		mov	r0, r5
 607 0012 2146     		mov	r1, r4
 608              		.loc 1 675 0
 609 0014 BDE83840 		pop	{r3, r4, r5, lr}
 610              		.cfi_remember_state
 611              		.cfi_restore 14
 612              		.cfi_restore 5
 613              		.cfi_restore 4
 614              		.cfi_restore 3
 615              		.cfi_def_cfa_offset 0
 616              	.LVL43:
 617              		.loc 1 674 0
 618 0018 FFF7FEBF 		b	icu_lld_wait_edge.isra.0
 619              	.LVL44:
 620              	.L90:
 621              		.cfi_restore_state
 622              		.loc 1 670 0
 623 001c 2846     		mov	r0, r5
 624              	.LVL45:
 625 001e 2146     		mov	r1, r4
 626 0020 FFF7FEFF 		bl	icu_lld_wait_edge.isra.0
 627              	.LVL46:
ARM GAS  /tmp/ccMLGXk8.s 			page 12


 628 0024 0028     		cmp	r0, #0
 629 0026 F3D0     		beq	.L91
 630              		.loc 1 675 0
 631 0028 38BD     		pop	{r3, r4, r5, pc}
 632              		.cfi_endproc
 633              	.LFE263:
 634              		.size	icu_lld_wait_capture, .-icu_lld_wait_capture
 635 002a 00BF     		.section	.text.icu_lld_stop_capture,"ax",%progbits
 636              		.align	2
 637              		.p2align 4,,15
 638              		.global	icu_lld_stop_capture
 639              		.thumb
 640              		.thumb_func
 641              		.type	icu_lld_stop_capture, %function
 642              	icu_lld_stop_capture:
 643              	.LFB264:
 644              		.loc 1 684 0
 645              		.cfi_startproc
 646              		@ args = 0, pretend = 0, frame = 0
 647              		@ frame_needed = 0, uses_anonymous_args = 0
 648              		@ link register save eliminated.
 649              	.LVL47:
 650              		.loc 1 687 0
 651 0000 C368     		ldr	r3, [r0, #12]
 652 0002 0022     		movs	r2, #0
 653 0004 1A60     		str	r2, [r3]
 654              		.loc 1 690 0
 655 0006 DA68     		ldr	r2, [r3, #12]
 656 0008 22F0FF02 		bic	r2, r2, #255
 657 000c DA60     		str	r2, [r3, #12]
 658 000e 7047     		bx	lr
 659              		.cfi_endproc
 660              	.LFE264:
 661              		.size	icu_lld_stop_capture, .-icu_lld_stop_capture
 662              		.section	.text.icu_lld_enable_notifications,"ax",%progbits
 663              		.align	2
 664              		.p2align 4,,15
 665              		.global	icu_lld_enable_notifications
 666              		.thumb
 667              		.thumb_func
 668              		.type	icu_lld_enable_notifications, %function
 669              	icu_lld_enable_notifications:
 670              	.LFB265:
 671              		.loc 1 702 0
 672              		.cfi_startproc
 673              		@ args = 0, pretend = 0, frame = 0
 674              		@ frame_needed = 0, uses_anonymous_args = 0
 675              		@ link register save eliminated.
 676              	.LVL48:
 677              		.loc 1 703 0
 678 0000 C268     		ldr	r2, [r0, #12]
 679 0002 D368     		ldr	r3, [r2, #12]
 680              	.LVL49:
 681              		.loc 1 702 0
 682 0004 10B4     		push	{r4}
 683              		.cfi_def_cfa_offset 4
 684              		.cfi_offset 4, -4
ARM GAS  /tmp/ccMLGXk8.s 			page 13


 685              		.loc 1 708 0
 686 0006 13F0FF04 		ands	r4, r3, #255
 687 000a 0CD1     		bne	.L97
 688              		.loc 1 712 0
 689 000c 4168     		ldr	r1, [r0, #4]
 690              		.loc 1 710 0
 691 000e 1461     		str	r4, [r2, #16]
 692              		.loc 1 712 0
 693 0010 087D     		ldrb	r0, [r1, #20]	@ zero_extendqisi2
 694              	.LVL50:
 695 0012 58B1     		cbz	r0, .L108
 696              	.LVL51:
 697              		.loc 1 725 0
 698 0014 8868     		ldr	r0, [r1, #8]
 699 0016 78B1     		cbz	r0, .L109
 700              	.LVL52:
 701              	.L102:
 702              		.loc 1 726 0
 703 0018 43F00603 		orr	r3, r3, #6
 704              	.LVL53:
 705              	.L101:
 706              		.loc 1 731 0
 707 001c 0969     		ldr	r1, [r1, #16]
 708 001e 09B1     		cbz	r1, .L103
 709              		.loc 1 732 0
 710 0020 43F00103 		orr	r3, r3, #1
 711              	.LVL54:
 712              	.L103:
 713              		.loc 1 735 0
 714 0024 D360     		str	r3, [r2, #12]
 715              	.L97:
 716              		.loc 1 737 0
 717 0026 5DF8044B 		ldr	r4, [sp], #4
 718              		.cfi_remember_state
 719              		.cfi_restore 4
 720              		.cfi_def_cfa_offset 0
 721 002a 7047     		bx	lr
 722              	.L108:
 723              		.cfi_restore_state
 724              	.LVL55:
 725              		.loc 1 717 0
 726 002c 8868     		ldr	r0, [r1, #8]
 727 002e 0028     		cmp	r0, #0
 728 0030 F2D1     		bne	.L102
 729              		.loc 1 714 0
 730 0032 43F00203 		orr	r3, r3, #2
 731              	.LVL56:
 732 0036 F1E7     		b	.L101
 733              	.LVL57:
 734              	.L109:
 735              		.loc 1 722 0
 736 0038 43F00403 		orr	r3, r3, #4
 737              	.LVL58:
 738 003c EEE7     		b	.L101
 739              		.cfi_endproc
 740              	.LFE265:
 741              		.size	icu_lld_enable_notifications, .-icu_lld_enable_notifications
ARM GAS  /tmp/ccMLGXk8.s 			page 14


 742 003e 00BF     		.section	.text.icu_lld_disable_notifications,"ax",%progbits
 743              		.align	2
 744              		.p2align 4,,15
 745              		.global	icu_lld_disable_notifications
 746              		.thumb
 747              		.thumb_func
 748              		.type	icu_lld_disable_notifications, %function
 749              	icu_lld_disable_notifications:
 750              	.LFB266:
 751              		.loc 1 748 0
 752              		.cfi_startproc
 753              		@ args = 0, pretend = 0, frame = 0
 754              		@ frame_needed = 0, uses_anonymous_args = 0
 755              		@ link register save eliminated.
 756              	.LVL59:
 757              		.loc 1 751 0
 758 0000 C268     		ldr	r2, [r0, #12]
 759 0002 D368     		ldr	r3, [r2, #12]
 760 0004 23F0FF03 		bic	r3, r3, #255
 761 0008 D360     		str	r3, [r2, #12]
 762 000a 7047     		bx	lr
 763              		.cfi_endproc
 764              	.LFE266:
 765              		.size	icu_lld_disable_notifications, .-icu_lld_disable_notifications
 766              		.global	ICUD3
 767              		.section	.bss.ICUD3,"aw",%nobits
 768              		.align	2
 769              		.set	.LANCHOR0,. + 0
 770              		.type	ICUD3, %object
 771              		.size	ICUD3, 24
 772              	ICUD3:
 773 0000 00000000 		.space	24
 773      00000000 
 773      00000000 
 773      00000000 
 773      00000000 
 774              		.text
 775              	.Letext0:
 776              		.file 3 "/usr/lib/gcc/arm-none-eabi/4.9.3/include/stddef.h"
 777              		.file 4 "/usr/arm-none-eabi/include/machine/_default_types.h"
 778              		.file 5 "/usr/arm-none-eabi/include/sys/_stdint.h"
 779              		.file 6 "ChibiOS_3.0.2/os/rt/ports/ARMCMx/compilers/GCC/chtypes.h"
 780              		.file 7 "ChibiOS_3.0.2/os/rt/include/chsystypes.h"
 781              		.file 8 "ChibiOS_3.0.2/os/rt/include/chschd.h"
 782              		.file 9 "ChibiOS_3.0.2/os/ext/CMSIS/ST/stm32f407xx.h"
 783              		.file 10 "ChibiOS_3.0.2/os/rt/ports/ARMCMx/chcore.h"
 784              		.file 11 "ChibiOS_3.0.2/os/rt/ports/ARMCMx/chcore_v7m.h"
 785              		.file 12 "ChibiOS_3.0.2/os/rt/include/chtm.h"
 786              		.file 13 "ChibiOS_3.0.2/os/rt/include/chsem.h"
 787              		.file 14 "ChibiOS_3.0.2/os/rt/include/chmtx.h"
 788              		.file 15 "ChibiOS_3.0.2/os/hal/include/icu.h"
 789              		.file 16 "ChibiOS_3.0.2/os/hal/ports/STM32/LLD/TIMv1/icu_lld.h"
 790              		.file 17 "ChibiOS_3.0.2/os/hal/ports/STM32/LLD/TIMv1/stm32_tim.h"
 791              		.file 18 "ChibiOS_3.0.2/os/rt/include/chsys.h"
 792              		.file 19 "ChibiOS_3.0.2/os/ext/CMSIS/include/core_cm4.h"
 793              		.file 20 "ChibiOS_3.0.2/os/hal/ports/common/ARMCMx/nvic.h"