ARM GAS  /tmp/ccMLGXk8.s 			page 1


   1              		.syntax unified
   2              		.cpu cortex-m4
   3              		.eabi_attribute 27, 1
   4              		.eabi_attribute 28, 1
   5              		.fpu fpv4-sp-d16
   6              		.eabi_attribute 20, 1
   7              		.eabi_attribute 21, 1
   8              		.eabi_attribute 23, 3
   9              		.eabi_attribute 24, 1
  10              		.eabi_attribute 25, 1
  11              		.eabi_attribute 26, 1
  12              		.eabi_attribute 30, 2
  13              		.eabi_attribute 34, 1
  14              		.eabi_attribute 18, 4
  15              		.thumb
  16              		.file	"icu_lld.c"
  17              		.text
  18              	.Ltext0:
  19              		.cfi_sections	.debug_frame
  20              		.section	.text.icu_lld_wait_edge.isra.0,"ax",%progbits
  21              		.align	2
  22              		.p2align 4,,15
  23              		.thumb
  24              		.thumb_func
  25              		.type	icu_lld_wait_edge.isra.0, %function
  26              	icu_lld_wait_edge.isra.0:
  27              	.LFB267:
  28              		.file 1 "ChibiOS_3.0.2/os/hal/ports/STM32/LLD/TIMv1/icu_lld.c"
  29              		.loc 1 105 0
  30              		.cfi_startproc
  31              		@ args = 0, pretend = 0, frame = 0
  32              		@ frame_needed = 0, uses_anonymous_args = 0
  33              		@ link register save eliminated.
  34              	.LVL0:
  35              	.LBB33:
  36              	.LBB34:
  37              	.LBB35:
  38              	.LBB36:
  39              	.LBB37:
  40              		.file 2 "ChibiOS_3.0.2/os/ext/CMSIS/include/core_cmFunc.h"
  41              		.loc 2 546 0
  42 0000 0023     		movs	r3, #0
  43              	@ 546 "ChibiOS_3.0.2/os/ext/CMSIS/include/core_cmFunc.h" 1
  44 0002 83F31188 		MSR basepri, r3
  45              	@ 0 "" 2
  46              		.thumb
  47              	.LBE37:
  48              	.LBE36:
  49              	.LBE35:
  50              	.LBE34:
  51              	.LBE33:
  52              		.loc 1 114 0
  53 0006 0368     		ldr	r3, [r0]
  54 0008 1B7D     		ldrb	r3, [r3, #20]	@ zero_extendqisi2
  55 000a 73B9     		cbnz	r3, .L2
  56 000c 0B68     		ldr	r3, [r1]
  57              	.L3:
ARM GAS  /tmp/ccMLGXk8.s 			page 2


  58              		.loc 1 116 0
  59 000e 1869     		ldr	r0, [r3, #16]
  60              	.LVL1:
  61 0010 8207     		lsls	r2, r0, #30
  62 0012 FCD0     		beq	.L3
  63              	.L4:
  64              	.LVL2:
  65              	.LBB38:
  66              	.LBB39:
  67              	.LBB40:
  68              	.LBB41:
  69              		.loc 2 546 0
  70 0014 2023     		movs	r3, #32
  71              	@ 546 "ChibiOS_3.0.2/os/ext/CMSIS/include/core_cmFunc.h" 1
  72 0016 83F31188 		MSR basepri, r3
  73              	@ 0 "" 2
  74              		.thumb
  75              	.LBE41:
  76              	.LBE40:
  77              	.LBE39:
  78              	.LBE38:
  79              		.loc 1 134 0
  80 001a 0A68     		ldr	r2, [r1]
  81 001c 1369     		ldr	r3, [r2, #16]
  82 001e 23F00703 		bic	r3, r3, #7
  83              		.loc 1 139 0
  84 0022 00F00100 		and	r0, r0, #1
  85              	.LVL3:
  86              		.loc 1 134 0
  87 0026 1361     		str	r3, [r2, #16]
  88              		.loc 1 139 0
  89 0028 7047     		bx	lr
  90              	.LVL4:
  91              	.L2:
  92 002a 0B68     		ldr	r3, [r1]
  93              	.L5:
  94              		.loc 1 122 0
  95 002c 1869     		ldr	r0, [r3, #16]
  96              	.LVL5:
  97 002e 10F0050F 		tst	r0, #5
  98 0032 FBD0     		beq	.L5
  99 0034 EEE7     		b	.L4
 100              		.cfi_endproc
 101              	.LFE267:
 102              		.size	icu_lld_wait_edge.isra.0, .-icu_lld_wait_edge.isra.0
 103 0036 00BF     		.section	.text.VectorB4,"ax",%progbits
 104              		.align	2
 105              		.p2align 4,,15
 106              		.global	VectorB4
 107              		.thumb
 108              		.thumb_func
 109              		.type	VectorB4, %function
 110              	VectorB4:
 111              	.LFB258:
 112              		.loc 1 248 0
 113              		.cfi_startproc
 114              		@ args = 0, pretend = 0, frame = 0
ARM GAS  /tmp/ccMLGXk8.s 			page 3


 115              		@ frame_needed = 0, uses_anonymous_args = 0
 116              	.LVL6:
 117 0000 38B5     		push	{r3, r4, r5, lr}
 118              		.cfi_def_cfa_offset 16
 119              		.cfi_offset 3, -16
 120              		.cfi_offset 4, -12
 121              		.cfi_offset 5, -8
 122              		.cfi_offset 14, -4
 123              	.LBB44:
 124              	.LBB45:
 125              		.loc 1 149 0
 126 0002 254D     		ldr	r5, .L56
 127 0004 EB68     		ldr	r3, [r5, #12]
 128              		.loc 1 152 0
 129 0006 6968     		ldr	r1, [r5, #4]
 130              		.loc 1 149 0
 131 0008 1A69     		ldr	r2, [r3, #16]
 132              	.LVL7:
 133              		.loc 1 150 0
 134 000a DC68     		ldr	r4, [r3, #12]
 135              		.loc 1 152 0
 136 000c 087D     		ldrb	r0, [r1, #20]	@ zero_extendqisi2
 137 000e 1440     		ands	r4, r4, r2
 138              	.LVL8:
 139              		.loc 1 150 0
 140 0010 E2B2     		uxtb	r2, r4
 141              		.loc 1 151 0
 142 0012 D243     		mvns	r2, r2
 143 0014 1A61     		str	r2, [r3, #16]
 144              		.loc 1 152 0
 145 0016 F8B9     		cbnz	r0, .L12
 146              		.loc 1 153 0
 147 0018 6007     		lsls	r0, r4, #29
 148 001a 14D5     		bpl	.L13
 149              		.loc 1 154 0
 150 001c 2B78     		ldrb	r3, [r5]	@ zero_extendqisi2
 151 001e 042B     		cmp	r3, #4
 152 0020 0DD0     		beq	.L53
 153              		.loc 1 155 0
 154 0022 A107     		lsls	r1, r4, #30
 155 0024 15D4     		bmi	.L19
 156              	.L17:
 157              		.loc 1 164 0
 158 0026 E407     		lsls	r4, r4, #31
 159              	.LVL9:
 160 0028 05D5     		bpl	.L25
 161              		.loc 1 165 0
 162 002a 6B68     		ldr	r3, [r5, #4]
 163 002c 1A48     		ldr	r0, .L56
 164 002e 1B69     		ldr	r3, [r3, #16]
 165 0030 9847     		blx	r3
 166              	.LVL10:
 167 0032 0323     		movs	r3, #3
 168 0034 2B70     		strb	r3, [r5]
 169              	.L25:
 170              	.LBE45:
 171              	.LBE44:
ARM GAS  /tmp/ccMLGXk8.s 			page 4


 172              		.loc 1 255 0
 173 0036 BDE83840 		pop	{r3, r4, r5, lr}
 174              		.cfi_remember_state
 175              		.cfi_restore 14
 176              		.cfi_restore 5
 177              		.cfi_restore 4
 178              		.cfi_restore 3
 179              		.cfi_def_cfa_offset 0
 180              		.loc 1 254 0
 181 003a FFF7FEBF 		b	_port_irq_epilogue
 182              	.LVL11:
 183              	.L53:
 184              		.cfi_restore_state
 185              	.LBB47:
 186              	.LBB46:
 187              		.loc 1 154 0
 188 003e 8B68     		ldr	r3, [r1, #8]
 189 0040 1BB3     		cbz	r3, .L15
 190 0042 2846     		mov	r0, r5
 191 0044 9847     		blx	r3
 192              	.LVL12:
 193              	.L13:
 194              		.loc 1 155 0
 195 0046 A107     		lsls	r1, r4, #30
 196 0048 EDD5     		bpl	.L17
 197              		.loc 1 156 0
 198 004a 2B78     		ldrb	r3, [r5]	@ zero_extendqisi2
 199 004c 124A     		ldr	r2, .L56
 200 004e 042B     		cmp	r3, #4
 201 0050 14D0     		beq	.L54
 202              	.L19:
 203 0052 0423     		movs	r3, #4
 204 0054 2B70     		strb	r3, [r5]
 205 0056 E6E7     		b	.L17
 206              	.L12:
 207              		.loc 1 159 0
 208 0058 A207     		lsls	r2, r4, #30
 209 005a 09D5     		bpl	.L21
 210              		.loc 1 160 0
 211 005c 2B78     		ldrb	r3, [r5]	@ zero_extendqisi2
 212 005e 042B     		cmp	r3, #4
 213 0060 02D0     		beq	.L55
 214              		.loc 1 161 0
 215 0062 6307     		lsls	r3, r4, #29
 216 0064 F5D4     		bmi	.L19
 217 0066 DEE7     		b	.L17
 218              	.L55:
 219              		.loc 1 160 0
 220 0068 8B68     		ldr	r3, [r1, #8]
 221 006a 8BB1     		cbz	r3, .L23
 222 006c 2846     		mov	r0, r5
 223 006e 9847     		blx	r3
 224              	.LVL13:
 225              	.L21:
 226              		.loc 1 161 0
 227 0070 6307     		lsls	r3, r4, #29
 228 0072 D8D5     		bpl	.L17
ARM GAS  /tmp/ccMLGXk8.s 			page 5


 229              		.loc 1 156 0
 230 0074 2B78     		ldrb	r3, [r5]	@ zero_extendqisi2
 231 0076 084A     		ldr	r2, .L56
 232 0078 042B     		cmp	r3, #4
 233 007a EAD1     		bne	.L19
 234              	.L54:
 235 007c 5168     		ldr	r1, [r2, #4]
 236              	.L26:
 237 007e CB68     		ldr	r3, [r1, #12]
 238 0080 002B     		cmp	r3, #0
 239 0082 E6D0     		beq	.L19
 240 0084 0448     		ldr	r0, .L56
 241 0086 9847     		blx	r3
 242              	.LVL14:
 243 0088 E3E7     		b	.L19
 244              	.L15:
 245              		.loc 1 155 0
 246 008a A007     		lsls	r0, r4, #30
 247 008c F7D4     		bmi	.L26
 248 008e CAE7     		b	.L17
 249              	.L23:
 250              		.loc 1 161 0
 251 0090 6207     		lsls	r2, r4, #29
 252 0092 F4D4     		bmi	.L26
 253 0094 C7E7     		b	.L17
 254              	.L57:
 255 0096 00BF     		.align	2
 256              	.L56:
 257 0098 00000000 		.word	.LANCHOR0
 258              	.LBE46:
 259              	.LBE47:
 260              		.cfi_endproc
 261              	.LFE258:
 262              		.size	VectorB4, .-VectorB4
 263              		.section	.text.icu_lld_init,"ax",%progbits
 264              		.align	2
 265              		.p2align 4,,15
 266              		.global	icu_lld_init
 267              		.thumb
 268              		.thumb_func
 269              		.type	icu_lld_init, %function
 270              	icu_lld_init:
 271              	.LFB259:
 272              		.loc 1 375 0
 273              		.cfi_startproc
 274              		@ args = 0, pretend = 0, frame = 0
 275              		@ frame_needed = 0, uses_anonymous_args = 0
 276 0000 10B5     		push	{r4, lr}
 277              		.cfi_def_cfa_offset 8
 278              		.cfi_offset 4, -8
 279              		.cfi_offset 14, -4
 280              		.loc 1 391 0
 281 0002 034C     		ldr	r4, .L60
 282 0004 2046     		mov	r0, r4
 283 0006 FFF7FEFF 		bl	icuObjectInit
 284              	.LVL15:
 285              		.loc 1 392 0
ARM GAS  /tmp/ccMLGXk8.s 			page 6


 286 000a 024B     		ldr	r3, .L60+4
 287 000c E360     		str	r3, [r4, #12]
 288 000e 10BD     		pop	{r4, pc}
 289              	.L61:
 290              		.align	2
 291              	.L60:
 292 0010 00000000 		.word	.LANCHOR0
 293 0014 00040040 		.word	1073742848
 294              		.cfi_endproc
 295              	.LFE259:
 296              		.size	icu_lld_init, .-icu_lld_init
 297              		.section	.text.icu_lld_start,"ax",%progbits
 298              		.align	2
 299              		.p2align 4,,15
 300              		.global	icu_lld_start
 301              		.thumb
 302              		.thumb_func
 303              		.type	icu_lld_start, %function
 304              	icu_lld_start:
 305              	.LFB260:
 306              		.loc 1 427 0
 307              		.cfi_startproc
 308              		@ args = 0, pretend = 0, frame = 0
 309              		@ frame_needed = 0, uses_anonymous_args = 0
 310              	.LVL16:
 311 0000 F8B5     		push	{r3, r4, r5, r6, r7, lr}
 312              		.cfi_def_cfa_offset 24
 313              		.cfi_offset 3, -24
 314              		.cfi_offset 4, -20
 315              		.cfi_offset 5, -16
 316              		.cfi_offset 6, -12
 317              		.cfi_offset 7, -8
 318              		.cfi_offset 14, -4
 319              		.loc 1 434 0
 320 0002 0378     		ldrb	r3, [r0]	@ zero_extendqisi2
 321 0004 012B     		cmp	r3, #1
 322              		.loc 1 427 0
 323 0006 0446     		mov	r4, r0
 324              		.loc 1 434 0
 325 0008 3AD0     		beq	.L74
 326              		.loc 1 505 0
 327 000a C368     		ldr	r3, [r0, #12]
 328 000c 0022     		movs	r2, #0
 329 000e 1A60     		str	r2, [r3]
 330              		.loc 1 506 0
 331 0010 5A63     		str	r2, [r3, #52]
 332              		.loc 1 507 0
 333 0012 9A63     		str	r2, [r3, #56]
 334              		.loc 1 508 0
 335 0014 5A62     		str	r2, [r3, #36]
 336              	.LVL17:
 337              	.L65:
 338              		.loc 1 513 0
 339 0016 6168     		ldr	r1, [r4, #4]
 340              		.loc 1 515 0
 341 0018 A268     		ldr	r2, [r4, #8]
 342              		.loc 1 513 0
ARM GAS  /tmp/ccMLGXk8.s 			page 7


 343 001a 8869     		ldr	r0, [r1, #24]
 344              		.loc 1 522 0
 345 001c 0D7D     		ldrb	r5, [r1, #20]	@ zero_extendqisi2
 346              		.loc 1 515 0
 347 001e 4E68     		ldr	r6, [r1, #4]
 348 0020 B2FBF6F2 		udiv	r2, r2, r6
 349              		.loc 1 513 0
 350 0024 20F0FF00 		bic	r0, r0, #255
 351              		.loc 1 515 0
 352 0028 013A     		subs	r2, r2, #1
 353              	.LVL18:
 354              		.loc 1 512 0
 355 002a 0027     		movs	r7, #0
 356              		.loc 1 520 0
 357 002c 4FF6FF76 		movw	r6, #65535
 358              		.loc 1 512 0
 359 0030 1F61     		str	r7, [r3, #16]
 360              		.loc 1 513 0
 361 0032 D860     		str	r0, [r3, #12]
 362              		.loc 1 519 0
 363 0034 9A62     		str	r2, [r3, #40]
 364              		.loc 1 520 0
 365 0036 DE62     		str	r6, [r3, #44]
 366              		.loc 1 535 0
 367 0038 0A78     		ldrb	r2, [r1]	@ zero_extendqisi2
 368              	.LVL19:
 369              		.loc 1 522 0
 370 003a 6DB9     		cbnz	r5, .L66
 371              		.loc 1 526 0
 372 003c 40F20120 		movw	r0, #513
 373              		.loc 1 530 0
 374 0040 5421     		movs	r1, #84
 375              	.LVL20:
 376              		.loc 1 526 0
 377 0042 9861     		str	r0, [r3, #24]
 378              		.loc 1 530 0
 379 0044 9960     		str	r1, [r3, #8]
 380              		.loc 1 535 0
 381 0046 C2B1     		cbz	r2, .L75
 382              		.loc 1 539 0
 383 0048 1322     		movs	r2, #19
 384 004a 1A62     		str	r2, [r3, #32]
 385              	.LVL21:
 386              	.L68:
 387              		.loc 1 544 0
 388 004c 03F13802 		add	r2, r3, #56
 389              		.loc 1 545 0
 390 0050 3433     		adds	r3, r3, #52
 391              		.loc 1 544 0
 392 0052 2261     		str	r2, [r4, #16]
 393              		.loc 1 545 0
 394 0054 6361     		str	r3, [r4, #20]
 395 0056 F8BD     		pop	{r3, r4, r5, r6, r7, pc}
 396              	.LVL22:
 397              	.L66:
 398              		.loc 1 551 0
 399 0058 4FF48170 		mov	r0, #258
ARM GAS  /tmp/ccMLGXk8.s 			page 8


 400              		.loc 1 555 0
 401 005c 6421     		movs	r1, #100
 402              	.LVL23:
 403              		.loc 1 551 0
 404 005e 9861     		str	r0, [r3, #24]
 405              		.loc 1 555 0
 406 0060 9960     		str	r1, [r3, #8]
 407              		.loc 1 560 0
 408 0062 3AB1     		cbz	r2, .L76
 409              		.loc 1 564 0
 410 0064 3122     		movs	r2, #49
 411 0066 1A62     		str	r2, [r3, #32]
 412              	.LVL24:
 413              	.L71:
 414              		.loc 1 569 0
 415 0068 03F13402 		add	r2, r3, #52
 416              		.loc 1 570 0
 417 006c 3833     		adds	r3, r3, #56
 418              		.loc 1 569 0
 419 006e 2261     		str	r2, [r4, #16]
 420              		.loc 1 570 0
 421 0070 6361     		str	r3, [r4, #20]
 422 0072 F8BD     		pop	{r3, r4, r5, r6, r7, pc}
 423              	.LVL25:
 424              	.L76:
 425              		.loc 1 561 0
 426 0074 1322     		movs	r2, #19
 427 0076 1A62     		str	r2, [r3, #32]
 428              	.LVL26:
 429 0078 F6E7     		b	.L71
 430              	.LVL27:
 431              	.L75:
 432              		.loc 1 536 0
 433 007a 3122     		movs	r2, #49
 434 007c 1A62     		str	r2, [r3, #32]
 435              	.LVL28:
 436 007e E5E7     		b	.L68
 437              	.LVL29:
 438              	.L74:
 439              		.loc 1 458 0
 440 0080 0B4B     		ldr	r3, .L78
 441 0082 9842     		cmp	r0, r3
 442 0084 01D0     		beq	.L77
 443              	.LVL30:
 444              	.L73:
 445 0086 E368     		ldr	r3, [r4, #12]
 446 0088 C5E7     		b	.L65
 447              	.LVL31:
 448              	.L77:
 449              		.loc 1 459 0
 450 008a 0A4B     		ldr	r3, .L78+4
 451 008c 1A6C     		ldr	r2, [r3, #64]
 452 008e 42F00202 		orr	r2, r2, #2
 453 0092 1A64     		str	r2, [r3, #64]
 454              		.loc 1 460 0
 455 0094 1A6A     		ldr	r2, [r3, #32]
 456 0096 0021     		movs	r1, #0
ARM GAS  /tmp/ccMLGXk8.s 			page 9


 457 0098 42F00202 		orr	r2, r2, #2
 458 009c 1A62     		str	r2, [r3, #32]
 459              		.loc 1 461 0
 460 009e 1D20     		movs	r0, #29
 461              	.LVL32:
 462              		.loc 1 460 0
 463 00a0 1962     		str	r1, [r3, #32]
 464              		.loc 1 461 0
 465 00a2 0721     		movs	r1, #7
 466 00a4 FFF7FEFF 		bl	nvicEnableVector
 467              	.LVL33:
 468              		.loc 1 462 0
 469 00a8 034B     		ldr	r3, .L78+8
 470 00aa A360     		str	r3, [r4, #8]
 471 00ac EBE7     		b	.L73
 472              	.L79:
 473 00ae 00BF     		.align	2
 474              	.L78:
 475 00b0 00000000 		.word	.LANCHOR0
 476 00b4 00380240 		.word	1073887232
 477 00b8 00BD0105 		.word	84000000
 478              		.cfi_endproc
 479              	.LFE260:
 480              		.size	icu_lld_start, .-icu_lld_start
 481              		.section	.text.icu_lld_stop,"ax",%progbits
 482              		.align	2
 483              		.p2align 4,,15
 484              		.global	icu_lld_stop
 485              		.thumb
 486              		.thumb_func
 487              		.type	icu_lld_stop, %function
 488              	icu_lld_stop:
 489              	.LFB261:
 490              		.loc 1 581 0
 491              		.cfi_startproc
 492              		@ args = 0, pretend = 0, frame = 0
 493              		@ frame_needed = 0, uses_anonymous_args = 0
 494              	.LVL34:
 495 0000 08B5     		push	{r3, lr}
 496              		.cfi_def_cfa_offset 8
 497              		.cfi_offset 3, -8
 498              		.cfi_offset 14, -4
 499              		.loc 1 583 0
 500 0002 0378     		ldrb	r3, [r0]	@ zero_extendqisi2
 501 0004 022B     		cmp	r3, #2
 502 0006 00D0     		beq	.L85
 503              	.LVL35:
 504              	.L80:
 505 0008 08BD     		pop	{r3, pc}
 506              	.LVL36:
 507              	.L85:
 508              		.loc 1 603 0
 509 000a 0849     		ldr	r1, .L86
 510              		.loc 1 585 0
 511 000c C368     		ldr	r3, [r0, #12]
 512 000e 0022     		movs	r2, #0
 513              		.loc 1 603 0
ARM GAS  /tmp/ccMLGXk8.s 			page 10


 514 0010 8842     		cmp	r0, r1
 515              		.loc 1 585 0
 516 0012 1A60     		str	r2, [r3]
 517              		.loc 1 586 0
 518 0014 DA60     		str	r2, [r3, #12]
 519              		.loc 1 587 0
 520 0016 1A61     		str	r2, [r3, #16]
 521              		.loc 1 603 0
 522 0018 F6D1     		bne	.L80
 523              		.loc 1 604 0
 524 001a 1D20     		movs	r0, #29
 525              	.LVL37:
 526 001c FFF7FEFF 		bl	nvicDisableVector
 527              	.LVL38:
 528              		.loc 1 605 0
 529 0020 034A     		ldr	r2, .L86+4
 530 0022 136C     		ldr	r3, [r2, #64]
 531 0024 23F00203 		bic	r3, r3, #2
 532 0028 1364     		str	r3, [r2, #64]
 533 002a EDE7     		b	.L80
 534              	.L87:
 535              		.align	2
 536              	.L86:
 537 002c 00000000 		.word	.LANCHOR0
 538 0030 00380240 		.word	1073887232
 539              		.cfi_endproc
 540              	.LFE261:
 541              		.size	icu_lld_stop, .-icu_lld_stop
 542              		.section	.text.icu_lld_start_capture,"ax",%progbits
 543              		.align	2
 544              		.p2align 4,,15
 545              		.global	icu_lld_start_capture
 546              		.thumb
 547              		.thumb_func
 548              		.type	icu_lld_start_capture, %function
 549              	icu_lld_start_capture:
 550              	.LFB262:
 551              		.loc 1 643 0
 552              		.cfi_startproc
 553              		@ args = 0, pretend = 0, frame = 0
 554              		@ frame_needed = 0, uses_anonymous_args = 0
 555              		@ link register save eliminated.
 556              	.LVL39:
 557              		.loc 1 646 0
 558 0000 C368     		ldr	r3, [r0, #12]
 559 0002 5A69     		ldr	r2, [r3, #20]
 560              		.loc 1 647 0
 561 0004 0020     		movs	r0, #0
 562              	.LVL40:
 563              		.loc 1 646 0
 564 0006 42F00102 		orr	r2, r2, #1
 565              		.loc 1 650 0
 566 000a 0521     		movs	r1, #5
 567              		.loc 1 646 0
 568 000c 5A61     		str	r2, [r3, #20]
 569              		.loc 1 647 0
 570 000e 1861     		str	r0, [r3, #16]
ARM GAS  /tmp/ccMLGXk8.s 			page 11


 571              		.loc 1 650 0
 572 0010 1960     		str	r1, [r3]
 573 0012 7047     		bx	lr
 574              		.cfi_endproc
 575              	.LFE262:
 576              		.size	icu_lld_start_capture, .-icu_lld_start_capture
 577              		.section	.text.icu_lld_wait_capture,"ax",%progbits
 578              		.align	2
 579              		.p2align 4,,15
 580              		.global	icu_lld_wait_capture
 581              		.thumb
 582              		.thumb_func
 583              		.type	icu_lld_wait_capture, %function
 584              	icu_lld_wait_capture:
 585              	.LFB263:
 586              		.loc 1 665 0
 587              		.cfi_startproc
 588              		@ args = 0, pretend = 0, frame = 0
 589              		@ frame_needed = 0, uses_anonymous_args = 0
 590              	.LVL41:
 591 0000 38B5     		push	{r3, r4, r5, lr}
 592              		.cfi_def_cfa_offset 16
 593              		.cfi_offset 3, -16
 594              		.cfi_offset 4, -12
 595              		.cfi_offset 5, -8
 596              		.cfi_offset 14, -4
 597              		.loc 1 669 0
 598 0002 0378     		ldrb	r3, [r0]	@ zero_extendqisi2
 599 0004 032B     		cmp	r3, #3
 600 0006 00F10405 		add	r5, r0, #4
 601 000a 00F10C04 		add	r4, r0, #12
 602 000e 05D0     		beq	.L90
 603              	.LVL42:
 604              	.L91:
 605              		.loc 1 674 0
 606 0010 2846     		mov	r0, r5
 607 0012 2146     		mov	r1, r4
 608              		.loc 1 675 0
 609 0014 BDE83840 		pop	{r3, r4, r5, lr}
 610              		.cfi_remember_state
 611              		.cfi_restore 14
 612              		.cfi_restore 5
 613              		.cfi_restore 4
 614              		.cfi_restore 3
 615              		.cfi_def_cfa_offset 0
 616              	.LVL43:
 617              		.loc 1 674 0
 618 0018 FFF7FEBF 		b	icu_lld_wait_edge.isra.0
 619              	.LVL44:
 620              	.L90:
 621              		.cfi_restore_state
 622              		.loc 1 670 0
 623 001c 2846     		mov	r0, r5
 624              	.LVL45:
 625 001e 2146     		mov	r1, r4
 626 0020 FFF7FEFF 		bl	icu_lld_wait_edge.isra.0
 627              	.LVL46:
ARM GAS  /tmp/ccMLGXk8.s 			page 12


 628 0024 0028     		cmp	r0, #0
 629 0026 F3D0     		beq	.L91
 630              		.loc 1 675 0
 631 0028 38BD     		pop	{r3, r4, r5, pc}
 632              		.cfi_endproc
 633              	.LFE263:
 634              		.size	icu_lld_wait_capture, .-icu_lld_wait_capture
 635 002a 00BF     		.section	.text.icu_lld_stop_capture,"ax",%progbits
 636              		.align	2
 637              		.p2align 4,,15
 638              		.global	icu_lld_stop_capture
 639              		.thumb
 640              		.thumb_func
 641              		.type	icu_lld_stop_capture, %function
 642              	icu_lld_stop_capture:
 643              	.LFB264:
 644              		.loc 1 684 0
 645              		.cfi_startproc
 646              		@ args = 0, pretend = 0, frame = 0
 647              		@ frame_needed = 0, uses_anonymous_args = 0
 648              		@ link register save eliminated.
 649              	.LVL47:
 650              		.loc 1 687 0
 651 0000 C368     		ldr	r3, [r0, #12]
 652 0002 0022     		movs	r2, #0
 653 0004 1A60     		str	r2, [r3]
 654              		.loc 1 690 0
 655 0006 DA68     		ldr	r2, [r3, #12]
 656 0008 22F0FF02 		bic	r2, r2, #255
 657 000c DA60     		str	r2, [r3, #12]
 658 000e 7047     		bx	lr
 659              		.cfi_endproc
 660              	.LFE264:
 661              		.size	icu_lld_stop_capture, .-icu_lld_stop_capture
 662              		.section	.text.icu_lld_enable_notifications,"ax",%progbits
 663              		.align	2
 664              		.p2align 4,,15
 665              		.global	icu_lld_enable_notifications
 666              		.thumb
 667              		.thumb_func
 668              		.type	icu_lld_enable_notifications, %function
 669              	icu_lld_enable_notifications:
 670              	.LFB265:
 671              		.loc 1 702 0
 672              		.cfi_startproc
 673              		@ args = 0, pretend = 0, frame = 0
 674              		@ frame_needed = 0, uses_anonymous_args = 0
 675              		@ link register save eliminated.
 676              	.LVL48:
 677              		.loc 1 703 0
 678 0000 C268     		ldr	r2, [r0, #12]
 679 0002 D368     		ldr	r3, [r2, #12]
 680              	.LVL49:
 681              		.loc 1 702 0
 682 0004 10B4     		push	{r4}
 683              		.cfi_def_cfa_offset 4
 684              		.cfi_offset 4, -4
ARM GAS  /tmp/ccMLGXk8.s 			page 13


 685              		.loc 1 708 0
 686 0006 13F0FF04 		ands	r4, r3, #255
 687 000a 0CD1     		bne	.L97
 688              		.loc 1 712 0
 689 000c 4168     		ldr	r1, [r0, #4]
 690              		.loc 1 710 0
 691 000e 1461     		str	r4, [r2, #16]
 692              		.loc 1 712 0
 693 0010 087D     		ldrb	r0, [r1, #20]	@ zero_extendqisi2
 694              	.LVL50:
 695 0012 58B1     		cbz	r0, .L108
 696              	.LVL51:
 697              		.loc 1 725 0
 698 0014 8868     		ldr	r0, [r1, #8]
 699 0016 78B1     		cbz	r0, .L109
 700              	.LVL52:
 701              	.L102:
 702              		.loc 1 726 0
 703 0018 43F00603 		orr	r3, r3, #6
 704              	.LVL53:
 705              	.L101:
 706              		.loc 1 731 0
 707 001c 0969     		ldr	r1, [r1, #16]
 708 001e 09B1     		cbz	r1, .L103
 709              		.loc 1 732 0
 710 0020 43F00103 		orr	r3, r3, #1
 711              	.LVL54:
 712              	.L103:
 713              		.loc 1 735 0
 714 0024 D360     		str	r3, [r2, #12]
 715              	.L97:
 716              		.loc 1 737 0
 717 0026 5DF8044B 		ldr	r4, [sp], #4
 718              		.cfi_remember_state
 719              		.cfi_restore 4
 720              		.cfi_def_cfa_offset 0
 721 002a 7047     		bx	lr
 722              	.L108:
 723              		.cfi_restore_state
 724              	.LVL55:
 725              		.loc 1 717 0
 726 002c 8868     		ldr	r0, [r1, #8]
 727 002e 0028     		cmp	r0, #0
 728 0030 F2D1     		bne	.L102
 729              		.loc 1 714 0
 730 0032 43F00203 		orr	r3, r3, #2
 731              	.LVL56:
 732 0036 F1E7     		b	.L101
 733              	.LVL57:
 734              	.L109:
 735              		.loc 1 722 0
 736 0038 43F00403 		orr	r3, r3, #4
 737              	.LVL58:
 738 003c EEE7     		b	.L101
 739              		.cfi_endproc
 740              	.LFE265:
 741              		.size	icu_lld_enable_notifications, .-icu_lld_enable_notifications
ARM GAS  /tmp/ccMLGXk8.s 			page 14


 742 003e 00BF     		.section	.text.icu_lld_disable_notifications,"ax",%progbits
 743              		.align	2
 744              		.p2align 4,,15
 745              		.global	icu_lld_disable_notifications
 746              		.thumb
 747              		.thumb_func
 748              		.type	icu_lld_disable_notifications, %function
 749              	icu_lld_disable_notifications:
 750              	.LFB266:
 751              		.loc 1 748 0
 752              		.cfi_startproc
 753              		@ args = 0, pretend = 0, frame = 0
 754              		@ frame_needed = 0, uses_anonymous_args = 0
 755              		@ link register save eliminated.
 756              	.LVL59:
 757              		.loc 1 751 0
 758 0000 C268     		ldr	r2, [r0, #12]
 759 0002 D368     		ldr	r3, [r2, #12]
 760 0004 23F0FF03 		bic	r3, r3, #255
 761 0008 D360     		str	r3, [r2, #12]
 762 000a 7047     		bx	lr
 763              		.cfi_endproc
 764              	.LFE266:
 765              		.size	icu_lld_disable_notifications, .-icu_lld_disable_notifications
 766              		.global	ICUD3
 767              		.section	.bss.ICUD3,"aw",%nobits
 768              		.align	2
 769              		.set	.LANCHOR0,. + 0
 770              		.type	ICUD3, %object
 771              		.size	ICUD3, 24
 772              	ICUD3:
 773 0000 00000000 		.space	24
 773      00000000 
 773      00000000 
 773      00000000 
 773      00000000 
 774              		.text
 775              	.Letext0:
 776              		.file 3 "/usr/lib/gcc/arm-none-eabi/4.9.3/include/stddef.h"
 777              		.file 4 "/usr/arm-none-eabi/include/machine/_default_types.h"
 778              		.file 5 "/usr/arm-none-eabi/include/sys/_stdint.h"
 779              		.file 6 "ChibiOS_3.0.2/os/rt/ports/ARMCMx/compilers/GCC/chtypes.h"
 780              		.file 7 "ChibiOS_3.0.2/os/rt/include/chsystypes.h"
 781              		.file 8 "ChibiOS_3.0.2/os/rt/include/chschd.h"
 782              		.file 9 "ChibiOS_3.0.2/os/ext/CMSIS/ST/stm32f407xx.h"
 783              		.file 10 "ChibiOS_3.0.2/os/rt/ports/ARMCMx/chcore.h"
 784              		.file 11 "ChibiOS_3.0.2/os/rt/ports/ARMCMx/chcore_v7m.h"
 785              		.file 12 "ChibiOS_3.0.2/os/rt/include/chtm.h"
 786              		.file 13 "ChibiOS_3.0.2/os/rt/include/chsem.h"
 787              		.file 14 "ChibiOS_3.0.2/os/rt/include/chmtx.h"
 788              		.file 15 "ChibiOS_3.0.2/os/hal/include/icu.h"
 789              		.file 16 "ChibiOS_3.0.2/os/hal/ports/STM32/LLD/TIMv1/icu_lld.h"
 790              		.file 17 "ChibiOS_3.0.2/os/hal/ports/STM32/LLD/TIMv1/stm32_tim.h"
 791              		.file 18 "ChibiOS_3.0.2/os/rt/include/chsys.h"
 792              		.file 19 "ChibiOS_3.0.2/os/ext/CMSIS/include/core_cm4.h"
 793              		.file 20 "ChibiOS_3.0.2/os/hal/ports/common/ARMCMx/nvic.h"
 794              		.section	.debug_info,"",%progbits
ARM GAS  /tmp/ccMLGXk8.s 			page 15


 795              	.Ldebug_info0:
 796 0000 D20F0000 		.4byte	0xfd2
 797 0004 0400     		.2byte	0x4
 798 0006 00000000 		.4byte	.Ldebug_abbrev0
 799 000a 04       		.byte	0x4
 800 000b 01       		.uleb128 0x1
 801 000c 96060000 		.4byte	.LASF194
 802 0010 01       		.byte	0x1
 803 0011 E0080000 		.4byte	.LASF195
 804 0015 AC050000 		.4byte	.LASF196
 805 0019 18000000 		.4byte	.Ldebug_ranges0+0x18
 806 001d 00000000 		.4byte	0
 807 0021 00000000 		.4byte	.Ldebug_line0
 808 0025 02       		.uleb128 0x2
 809 0026 04       		.byte	0x4
 810 0027 07       		.byte	0x7
 811 0028 4A020000 		.4byte	.LASF0
 812 002c 03       		.uleb128 0x3
 813 002d 04       		.byte	0x4
 814 002e 05       		.byte	0x5
 815 002f 696E7400 		.ascii	"int\000"
 816 0033 04       		.uleb128 0x4
 817 0034 28000000 		.4byte	.LASF2
 818 0038 03       		.byte	0x3
 819 0039 D4       		.byte	0xd4
 820 003a 25000000 		.4byte	0x25
 821 003e 02       		.uleb128 0x2
 822 003f 01       		.byte	0x1
 823 0040 06       		.byte	0x6
 824 0041 68010000 		.4byte	.LASF1
 825 0045 04       		.uleb128 0x4
 826 0046 6C000000 		.4byte	.LASF3
 827 004a 04       		.byte	0x4
 828 004b 1D       		.byte	0x1d
 829 004c 50000000 		.4byte	0x50
 830 0050 02       		.uleb128 0x2
 831 0051 01       		.byte	0x1
 832 0052 08       		.byte	0x8
 833 0053 2E050000 		.4byte	.LASF4
 834 0057 02       		.uleb128 0x2
 835 0058 02       		.byte	0x2
 836 0059 05       		.byte	0x5
 837 005a 56050000 		.4byte	.LASF5
 838 005e 02       		.uleb128 0x2
 839 005f 02       		.byte	0x2
 840 0060 07       		.byte	0x7
 841 0061 32010000 		.4byte	.LASF6
 842 0065 04       		.uleb128 0x4
 843 0066 65030000 		.4byte	.LASF7
 844 006a 04       		.byte	0x4
 845 006b 3F       		.byte	0x3f
 846 006c 70000000 		.4byte	0x70
 847 0070 02       		.uleb128 0x2
 848 0071 04       		.byte	0x4
 849 0072 05       		.byte	0x5
 850 0073 BB010000 		.4byte	.LASF8
 851 0077 04       		.uleb128 0x4
ARM GAS  /tmp/ccMLGXk8.s 			page 16


 852 0078 E4070000 		.4byte	.LASF9
 853 007c 04       		.byte	0x4
 854 007d 41       		.byte	0x41
 855 007e 82000000 		.4byte	0x82
 856 0082 02       		.uleb128 0x2
 857 0083 04       		.byte	0x4
 858 0084 07       		.byte	0x7
 859 0085 5F060000 		.4byte	.LASF10
 860 0089 02       		.uleb128 0x2
 861 008a 08       		.byte	0x8
 862 008b 05       		.byte	0x5
 863 008c 21020000 		.4byte	.LASF11
 864 0090 04       		.uleb128 0x4
 865 0091 AD040000 		.4byte	.LASF12
 866 0095 04       		.byte	0x4
 867 0096 5B       		.byte	0x5b
 868 0097 9B000000 		.4byte	0x9b
 869 009b 02       		.uleb128 0x2
 870 009c 08       		.byte	0x8
 871 009d 07       		.byte	0x7
 872 009e B7000000 		.4byte	.LASF13
 873 00a2 04       		.uleb128 0x4
 874 00a3 D1080000 		.4byte	.LASF14
 875 00a7 05       		.byte	0x5
 876 00a8 14       		.byte	0x14
 877 00a9 45000000 		.4byte	0x45
 878 00ad 04       		.uleb128 0x4
 879 00ae 26050000 		.4byte	.LASF15
 880 00b2 05       		.byte	0x5
 881 00b3 1F       		.byte	0x1f
 882 00b4 65000000 		.4byte	0x65
 883 00b8 04       		.uleb128 0x4
 884 00b9 58080000 		.4byte	.LASF16
 885 00bd 05       		.byte	0x5
 886 00be 20       		.byte	0x20
 887 00bf 77000000 		.4byte	0x77
 888 00c3 04       		.uleb128 0x4
 889 00c4 4C000000 		.4byte	.LASF17
 890 00c8 05       		.byte	0x5
 891 00c9 26       		.byte	0x26
 892 00ca 90000000 		.4byte	0x90
 893 00ce 05       		.uleb128 0x5
 894 00cf AD000000 		.4byte	0xad
 895 00d3 05       		.uleb128 0x5
 896 00d4 B8000000 		.4byte	0xb8
 897 00d8 04       		.uleb128 0x4
 898 00d9 49080000 		.4byte	.LASF18
 899 00dd 06       		.byte	0x6
 900 00de 45       		.byte	0x45
 901 00df B8000000 		.4byte	0xb8
 902 00e3 04       		.uleb128 0x4
 903 00e4 22090000 		.4byte	.LASF19
 904 00e8 06       		.byte	0x6
 905 00e9 48       		.byte	0x48
 906 00ea A2000000 		.4byte	0xa2
 907 00ee 04       		.uleb128 0x4
 908 00ef D7010000 		.4byte	.LASF20
ARM GAS  /tmp/ccMLGXk8.s 			page 17


 909 00f3 06       		.byte	0x6
 910 00f4 49       		.byte	0x49
 911 00f5 A2000000 		.4byte	0xa2
 912 00f9 04       		.uleb128 0x4
 913 00fa B8040000 		.4byte	.LASF21
 914 00fe 06       		.byte	0x6
 915 00ff 4A       		.byte	0x4a
 916 0100 A2000000 		.4byte	0xa2
 917 0104 04       		.uleb128 0x4
 918 0105 98010000 		.4byte	.LASF22
 919 0109 06       		.byte	0x6
 920 010a 4B       		.byte	0x4b
 921 010b A2000000 		.4byte	0xa2
 922 010f 04       		.uleb128 0x4
 923 0110 03050000 		.4byte	.LASF23
 924 0114 06       		.byte	0x6
 925 0115 4C       		.byte	0x4c
 926 0116 B8000000 		.4byte	0xb8
 927 011a 04       		.uleb128 0x4
 928 011b FB020000 		.4byte	.LASF24
 929 011f 06       		.byte	0x6
 930 0120 4D       		.byte	0x4d
 931 0121 AD000000 		.4byte	0xad
 932 0125 04       		.uleb128 0x4
 933 0126 59030000 		.4byte	.LASF25
 934 012a 06       		.byte	0x6
 935 012b 4F       		.byte	0x4f
 936 012c B8000000 		.4byte	0xb8
 937 0130 04       		.uleb128 0x4
 938 0131 44020000 		.4byte	.LASF26
 939 0135 06       		.byte	0x6
 940 0136 51       		.byte	0x51
 941 0137 AD000000 		.4byte	0xad
 942 013b 04       		.uleb128 0x4
 943 013c C6070000 		.4byte	.LASF27
 944 0140 07       		.byte	0x7
 945 0141 33       		.byte	0x33
 946 0142 B8000000 		.4byte	0xb8
 947 0146 04       		.uleb128 0x4
 948 0147 9C080000 		.4byte	.LASF28
 949 014b 07       		.byte	0x7
 950 014c 3F       		.byte	0x3f
 951 014d 51010000 		.4byte	0x151
 952 0151 06       		.uleb128 0x6
 953 0152 B8020000 		.4byte	.LASF50
 954 0156 48       		.byte	0x48
 955 0157 08       		.byte	0x8
 956 0158 C2       		.byte	0xc2
 957 0159 56020000 		.4byte	0x256
 958 015d 07       		.uleb128 0x7
 959 015e 34040000 		.4byte	.LASF29
 960 0162 08       		.byte	0x8
 961 0163 C3       		.byte	0xc3
 962 0164 61020000 		.4byte	0x261
 963 0168 00       		.byte	0
 964 0169 07       		.uleb128 0x7
 965 016a F2040000 		.4byte	.LASF30
ARM GAS  /tmp/ccMLGXk8.s 			page 18


 966 016e 08       		.byte	0x8
 967 016f C5       		.byte	0xc5
 968 0170 61020000 		.4byte	0x261
 969 0174 04       		.byte	0x4
 970 0175 07       		.uleb128 0x7
 971 0176 2B010000 		.4byte	.LASF31
 972 017a 08       		.byte	0x8
 973 017b C7       		.byte	0xc7
 974 017c 0F010000 		.4byte	0x10f
 975 0180 08       		.byte	0x8
 976 0181 07       		.uleb128 0x7
 977 0182 87090000 		.4byte	.LASF32
 978 0186 08       		.byte	0x8
 979 0187 C8       		.byte	0xc8
 980 0188 4C060000 		.4byte	0x64c
 981 018c 0C       		.byte	0xc
 982 018d 07       		.uleb128 0x7
 983 018e E0010000 		.4byte	.LASF33
 984 0192 08       		.byte	0x8
 985 0193 CA       		.byte	0xca
 986 0194 61020000 		.4byte	0x261
 987 0198 10       		.byte	0x10
 988 0199 07       		.uleb128 0x7
 989 019a 4C040000 		.4byte	.LASF34
 990 019e 08       		.byte	0x8
 991 019f CB       		.byte	0xcb
 992 01a0 61020000 		.4byte	0x261
 993 01a4 14       		.byte	0x14
 994 01a5 07       		.uleb128 0x7
 995 01a6 9B050000 		.4byte	.LASF35
 996 01aa 08       		.byte	0x8
 997 01ab D2       		.byte	0xd2
 998 01ac 91080000 		.4byte	0x891
 999 01b0 18       		.byte	0x18
 1000 01b1 07       		.uleb128 0x7
 1001 01b2 60050000 		.4byte	.LASF36
 1002 01b6 08       		.byte	0x8
 1003 01b7 DD       		.byte	0xdd
 1004 01b8 EE000000 		.4byte	0xee
 1005 01bc 1C       		.byte	0x1c
 1006 01bd 07       		.uleb128 0x7
 1007 01be 8A050000 		.4byte	.LASF37
 1008 01c2 08       		.byte	0x8
 1009 01c3 E1       		.byte	0xe1
 1010 01c4 E3000000 		.4byte	0xe3
 1011 01c8 1D       		.byte	0x1d
 1012 01c9 07       		.uleb128 0x7
 1013 01ca 80080000 		.4byte	.LASF38
 1014 01ce 08       		.byte	0x8
 1015 01cf E6       		.byte	0xe6
 1016 01d0 F9000000 		.4byte	0xf9
 1017 01d4 1E       		.byte	0x1e
 1018 01d5 07       		.uleb128 0x7
 1019 01d6 68050000 		.4byte	.LASF39
 1020 01da 08       		.byte	0x8
 1021 01db EC       		.byte	0xec
 1022 01dc 04010000 		.4byte	0x104
ARM GAS  /tmp/ccMLGXk8.s 			page 19


 1023 01e0 1F       		.byte	0x1f
 1024 01e1 07       		.uleb128 0x7
 1025 01e2 71020000 		.4byte	.LASF40
 1026 01e6 08       		.byte	0x8
 1027 01e7 F3       		.byte	0xf3
 1028 01e8 A3080000 		.4byte	0x8a3
 1029 01ec 20       		.byte	0x20
 1030 01ed 08       		.uleb128 0x8
 1031 01ee 705F7500 		.ascii	"p_u\000"
 1032 01f2 08       		.byte	0x8
 1033 01f3 3101     		.2byte	0x131
 1034 01f5 CC070000 		.4byte	0x7cc
 1035 01f9 24       		.byte	0x24
 1036 01fa 09       		.uleb128 0x9
 1037 01fb EC030000 		.4byte	.LASF41
 1038 01ff 08       		.byte	0x8
 1039 0200 3601     		.2byte	0x136
 1040 0202 67020000 		.4byte	0x267
 1041 0206 28       		.byte	0x28
 1042 0207 09       		.uleb128 0x9
 1043 0208 93020000 		.4byte	.LASF42
 1044 020c 08       		.byte	0x8
 1045 020d 3C01     		.2byte	0x13c
 1046 020f 8B020000 		.4byte	0x28b
 1047 0213 2C       		.byte	0x2c
 1048 0214 09       		.uleb128 0x9
 1049 0215 4C090000 		.4byte	.LASF43
 1050 0219 08       		.byte	0x8
 1051 021a 4001     		.2byte	0x140
 1052 021c 1A010000 		.4byte	0x11a
 1053 0220 34       		.byte	0x34
 1054 0221 09       		.uleb128 0x9
 1055 0222 1D060000 		.4byte	.LASF44
 1056 0226 08       		.byte	0x8
 1057 0227 4601     		.2byte	0x146
 1058 0229 25010000 		.4byte	0x125
 1059 022d 38       		.byte	0x38
 1060 022e 09       		.uleb128 0x9
 1061 022f 4C050000 		.4byte	.LASF45
 1062 0233 08       		.byte	0x8
 1063 0234 4D01     		.2byte	0x14d
 1064 0236 8B080000 		.4byte	0x88b
 1065 023a 3C       		.byte	0x3c
 1066 023b 09       		.uleb128 0x9
 1067 023c D0070000 		.4byte	.LASF46
 1068 0240 08       		.byte	0x8
 1069 0241 5101     		.2byte	0x151
 1070 0243 0F010000 		.4byte	0x10f
 1071 0247 40       		.byte	0x40
 1072 0248 09       		.uleb128 0x9
 1073 0249 02020000 		.4byte	.LASF47
 1074 024d 08       		.byte	0x8
 1075 024e 5801     		.2byte	0x158
 1076 0250 3E030000 		.4byte	0x33e
 1077 0254 44       		.byte	0x44
 1078 0255 00       		.byte	0
 1079 0256 04       		.uleb128 0x4
ARM GAS  /tmp/ccMLGXk8.s 			page 20


 1080 0257 FF030000 		.4byte	.LASF48
 1081 025b 07       		.byte	0x7
 1082 025c 44       		.byte	0x44
 1083 025d 61020000 		.4byte	0x261
 1084 0261 0A       		.uleb128 0xa
 1085 0262 04       		.byte	0x4
 1086 0263 46010000 		.4byte	0x146
 1087 0267 04       		.uleb128 0x4
 1088 0268 99030000 		.4byte	.LASF49
 1089 026c 07       		.byte	0x7
 1090 026d 49       		.byte	0x49
 1091 026e 72020000 		.4byte	0x272
 1092 0272 06       		.uleb128 0x6
 1093 0273 4F060000 		.4byte	.LASF51
 1094 0277 04       		.byte	0x4
 1095 0278 08       		.byte	0x8
 1096 0279 B0       		.byte	0xb0
 1097 027a 8B020000 		.4byte	0x28b
 1098 027e 07       		.uleb128 0x7
 1099 027f 34040000 		.4byte	.LASF29
 1100 0283 08       		.byte	0x8
 1101 0284 B1       		.byte	0xb1
 1102 0285 61020000 		.4byte	0x261
 1103 0289 00       		.byte	0
 1104 028a 00       		.byte	0
 1105 028b 04       		.uleb128 0x4
 1106 028c 67080000 		.4byte	.LASF52
 1107 0290 07       		.byte	0x7
 1108 0291 50       		.byte	0x50
 1109 0292 96020000 		.4byte	0x296
 1110 0296 06       		.uleb128 0x6
 1111 0297 82000000 		.4byte	.LASF53
 1112 029b 08       		.byte	0x8
 1113 029c 08       		.byte	0x8
 1114 029d B7       		.byte	0xb7
 1115 029e BB020000 		.4byte	0x2bb
 1116 02a2 07       		.uleb128 0x7
 1117 02a3 34040000 		.4byte	.LASF29
 1118 02a7 08       		.byte	0x8
 1119 02a8 B8       		.byte	0xb8
 1120 02a9 61020000 		.4byte	0x261
 1121 02ad 00       		.byte	0
 1122 02ae 07       		.uleb128 0x7
 1123 02af F2040000 		.4byte	.LASF30
 1124 02b3 08       		.byte	0x8
 1125 02b4 B9       		.byte	0xb9
 1126 02b5 61020000 		.4byte	0x261
 1127 02b9 04       		.byte	0x4
 1128 02ba 00       		.byte	0
 1129 02bb 04       		.uleb128 0x4
 1130 02bc 16000000 		.4byte	.LASF54
 1131 02c0 07       		.byte	0x7
 1132 02c1 57       		.byte	0x57
 1133 02c2 C6020000 		.4byte	0x2c6
 1134 02c6 0B       		.uleb128 0xb
 1135 02c7 4B030000 		.4byte	.LASF55
 1136 02cb 1C       		.byte	0x1c
ARM GAS  /tmp/ccMLGXk8.s 			page 21


 1137 02cc 08       		.byte	0x8
 1138 02cd 9001     		.2byte	0x190
 1139 02cf 22030000 		.4byte	0x322
 1140 02d3 09       		.uleb128 0x9
 1141 02d4 47060000 		.4byte	.LASF56
 1142 02d8 08       		.byte	0x8
 1143 02d9 9101     		.2byte	0x191
 1144 02db 8B020000 		.4byte	0x28b
 1145 02df 00       		.byte	0
 1146 02e0 09       		.uleb128 0x9
 1147 02e1 7C050000 		.4byte	.LASF57
 1148 02e5 08       		.byte	0x8
 1149 02e6 9201     		.2byte	0x192
 1150 02e8 0F010000 		.4byte	0x10f
 1151 02ec 08       		.byte	0x8
 1152 02ed 09       		.uleb128 0x9
 1153 02ee 5B040000 		.4byte	.LASF58
 1154 02f2 08       		.byte	0x8
 1155 02f3 9401     		.2byte	0x194
 1156 02f5 4C060000 		.4byte	0x64c
 1157 02f9 0C       		.byte	0xc
 1158 02fa 09       		.uleb128 0x9
 1159 02fb FA010000 		.4byte	.LASF59
 1160 02ff 08       		.byte	0x8
 1161 0300 9701     		.2byte	0x197
 1162 0302 61020000 		.4byte	0x261
 1163 0306 10       		.byte	0x10
 1164 0307 09       		.uleb128 0x9
 1165 0308 2B080000 		.4byte	.LASF60
 1166 030c 08       		.byte	0x8
 1167 030d 9801     		.2byte	0x198
 1168 030f 61020000 		.4byte	0x261
 1169 0313 14       		.byte	0x14
 1170 0314 09       		.uleb128 0x9
 1171 0315 9A040000 		.4byte	.LASF61
 1172 0319 08       		.byte	0x8
 1173 031a 9B01     		.2byte	0x19b
 1174 031c 61020000 		.4byte	0x261
 1175 0320 18       		.byte	0x18
 1176 0321 00       		.byte	0
 1177 0322 04       		.uleb128 0x4
 1178 0323 DB070000 		.4byte	.LASF62
 1179 0327 07       		.byte	0x7
 1180 0328 5C       		.byte	0x5c
 1181 0329 2D030000 		.4byte	0x32d
 1182 032d 0A       		.uleb128 0xa
 1183 032e 04       		.byte	0x4
 1184 032f 33030000 		.4byte	0x333
 1185 0333 0C       		.uleb128 0xc
 1186 0334 3E030000 		.4byte	0x33e
 1187 0338 0D       		.uleb128 0xd
 1188 0339 3E030000 		.4byte	0x33e
 1189 033d 00       		.byte	0
 1190 033e 0E       		.uleb128 0xe
 1191 033f 04       		.byte	0x4
 1192 0340 04       		.uleb128 0x4
 1193 0341 A8030000 		.4byte	.LASF63
ARM GAS  /tmp/ccMLGXk8.s 			page 22


 1194 0345 07       		.byte	0x7
 1195 0346 61       		.byte	0x61
 1196 0347 4B030000 		.4byte	0x34b
 1197 034b 0B       		.uleb128 0xb
 1198 034c FA050000 		.4byte	.LASF64
 1199 0350 14       		.byte	0x14
 1200 0351 08       		.byte	0x8
 1201 0352 6B01     		.2byte	0x16b
 1202 0354 9A030000 		.4byte	0x39a
 1203 0358 09       		.uleb128 0x9
 1204 0359 57020000 		.4byte	.LASF65
 1205 035d 08       		.byte	0x8
 1206 035e 6C01     		.2byte	0x16c
 1207 0360 A8080000 		.4byte	0x8a8
 1208 0364 00       		.byte	0
 1209 0365 09       		.uleb128 0x9
 1210 0366 13020000 		.4byte	.LASF66
 1211 036a 08       		.byte	0x8
 1212 036b 6D01     		.2byte	0x16d
 1213 036d A8080000 		.4byte	0x8a8
 1214 0371 04       		.byte	0x4
 1215 0372 09       		.uleb128 0x9
 1216 0373 8A020000 		.4byte	.LASF67
 1217 0377 08       		.byte	0x8
 1218 0378 6E01     		.2byte	0x16e
 1219 037a 3B010000 		.4byte	0x13b
 1220 037e 08       		.byte	0x8
 1221 037f 09       		.uleb128 0x9
 1222 0380 8D090000 		.4byte	.LASF68
 1223 0384 08       		.byte	0x8
 1224 0385 6F01     		.2byte	0x16f
 1225 0387 22030000 		.4byte	0x322
 1226 038b 0C       		.byte	0xc
 1227 038c 09       		.uleb128 0x9
 1228 038d 51080000 		.4byte	.LASF69
 1229 0391 08       		.byte	0x8
 1230 0392 7101     		.2byte	0x171
 1231 0394 3E030000 		.4byte	0x33e
 1232 0398 10       		.byte	0x10
 1233 0399 00       		.byte	0
 1234 039a 04       		.uleb128 0x4
 1235 039b EF000000 		.4byte	.LASF70
 1236 039f 07       		.byte	0x7
 1237 03a0 66       		.byte	0x66
 1238 03a1 A5030000 		.4byte	0x3a5
 1239 03a5 0B       		.uleb128 0xb
 1240 03a6 12040000 		.4byte	.LASF71
 1241 03aa 10       		.byte	0x10
 1242 03ab 08       		.byte	0x8
 1243 03ac 7B01     		.2byte	0x17b
 1244 03ae E7030000 		.4byte	0x3e7
 1245 03b2 09       		.uleb128 0x9
 1246 03b3 57020000 		.4byte	.LASF65
 1247 03b7 08       		.byte	0x8
 1248 03b8 7C01     		.2byte	0x17c
 1249 03ba A8080000 		.4byte	0x8a8
 1250 03be 00       		.byte	0
ARM GAS  /tmp/ccMLGXk8.s 			page 23


 1251 03bf 09       		.uleb128 0x9
 1252 03c0 13020000 		.4byte	.LASF66
 1253 03c4 08       		.byte	0x8
 1254 03c5 7E01     		.2byte	0x17e
 1255 03c7 A8080000 		.4byte	0x8a8
 1256 03cb 04       		.byte	0x4
 1257 03cc 09       		.uleb128 0x9
 1258 03cd 8A020000 		.4byte	.LASF67
 1259 03d1 08       		.byte	0x8
 1260 03d2 8001     		.2byte	0x180
 1261 03d4 3B010000 		.4byte	0x13b
 1262 03d8 08       		.byte	0x8
 1263 03d9 09       		.uleb128 0x9
 1264 03da 7F020000 		.4byte	.LASF72
 1265 03de 08       		.byte	0x8
 1266 03df 8201     		.2byte	0x182
 1267 03e1 A3080000 		.4byte	0x8a3
 1268 03e5 0C       		.byte	0xc
 1269 03e6 00       		.byte	0
 1270 03e7 04       		.uleb128 0x4
 1271 03e8 93000000 		.4byte	.LASF73
 1272 03ec 07       		.byte	0x7
 1273 03ed 6B       		.byte	0x6b
 1274 03ee F2030000 		.4byte	0x3f2
 1275 03f2 0B       		.uleb128 0xb
 1276 03f3 10050000 		.4byte	.LASF74
 1277 03f7 04       		.byte	0x4
 1278 03f8 08       		.byte	0x8
 1279 03f9 A201     		.2byte	0x1a2
 1280 03fb 0D040000 		.4byte	0x40d
 1281 03ff 09       		.uleb128 0x9
 1282 0400 FD070000 		.4byte	.LASF75
 1283 0404 08       		.byte	0x8
 1284 0405 AA01     		.2byte	0x1aa
 1285 0407 AE080000 		.4byte	0x8ae
 1286 040b 00       		.byte	0
 1287 040c 00       		.byte	0
 1288 040d 04       		.uleb128 0x4
 1289 040e 33080000 		.4byte	.LASF76
 1290 0412 07       		.byte	0x7
 1291 0413 70       		.byte	0x70
 1292 0414 18040000 		.4byte	0x418
 1293 0418 0F       		.uleb128 0xf
 1294 0419 B1010000 		.4byte	.LASF77
 1295 041d 5802     		.2byte	0x258
 1296 041f 08       		.byte	0x8
 1297 0420 C201     		.2byte	0x1c2
 1298 0422 74040000 		.4byte	0x474
 1299 0426 09       		.uleb128 0x9
 1300 0427 1B020000 		.4byte	.LASF78
 1301 042b 08       		.byte	0x8
 1302 042c C601     		.2byte	0x1c6
 1303 042e BB020000 		.4byte	0x2bb
 1304 0432 00       		.byte	0
 1305 0433 09       		.uleb128 0x9
 1306 0434 85010000 		.4byte	.LASF79
 1307 0438 08       		.byte	0x8
ARM GAS  /tmp/ccMLGXk8.s 			page 24


 1308 0439 CA01     		.2byte	0x1ca
 1309 043b 9A030000 		.4byte	0x39a
 1310 043f 1C       		.byte	0x1c
 1311 0440 08       		.uleb128 0x8
 1312 0441 64626700 		.ascii	"dbg\000"
 1313 0445 08       		.byte	0x8
 1314 0446 CE01     		.2byte	0x1ce
 1315 0448 E7030000 		.4byte	0x3e7
 1316 044c 2C       		.byte	0x2c
 1317 044d 09       		.uleb128 0x9
 1318 044e D7000000 		.4byte	.LASF80
 1319 0452 08       		.byte	0x8
 1320 0453 D201     		.2byte	0x1d2
 1321 0455 46010000 		.4byte	0x146
 1322 0459 30       		.byte	0x30
 1323 045a 08       		.uleb128 0x8
 1324 045b 746D00   		.ascii	"tm\000"
 1325 045e 08       		.byte	0x8
 1326 045f D701     		.2byte	0x1d7
 1327 0461 C1070000 		.4byte	0x7c1
 1328 0465 78       		.byte	0x78
 1329 0466 09       		.uleb128 0x9
 1330 0467 35020000 		.4byte	.LASF81
 1331 046b 08       		.byte	0x8
 1332 046c E301     		.2byte	0x1e3
 1333 046e B3080000 		.4byte	0x8b3
 1334 0472 80       		.byte	0x80
 1335 0473 00       		.byte	0
 1336 0474 02       		.uleb128 0x2
 1337 0475 04       		.byte	0x4
 1338 0476 07       		.byte	0x7
 1339 0477 F6030000 		.4byte	.LASF82
 1340 047b 10       		.uleb128 0x10
 1341 047c B8000000 		.4byte	0xb8
 1342 0480 8B040000 		.4byte	0x48b
 1343 0484 11       		.uleb128 0x11
 1344 0485 74040000 		.4byte	0x474
 1345 0489 01       		.byte	0x1
 1346 048a 00       		.byte	0
 1347 048b 10       		.uleb128 0x10
 1348 048c B8000000 		.4byte	0xb8
 1349 0490 9B040000 		.4byte	0x49b
 1350 0494 11       		.uleb128 0x11
 1351 0495 74040000 		.4byte	0x474
 1352 0499 03       		.byte	0x3
 1353 049a 00       		.byte	0
 1354 049b 12       		.uleb128 0x12
 1355 049c 88       		.byte	0x88
 1356 049d 09       		.byte	0x9
 1357 049e 6702     		.2byte	0x267
 1358 04a0 2A060000 		.4byte	0x62a
 1359 04a4 08       		.uleb128 0x8
 1360 04a5 435200   		.ascii	"CR\000"
 1361 04a8 09       		.byte	0x9
 1362 04a9 6902     		.2byte	0x269
 1363 04ab D3000000 		.4byte	0xd3
 1364 04af 00       		.byte	0
ARM GAS  /tmp/ccMLGXk8.s 			page 25


 1365 04b0 09       		.uleb128 0x9
 1366 04b1 E8010000 		.4byte	.LASF83
 1367 04b5 09       		.byte	0x9
 1368 04b6 6A02     		.2byte	0x26a
 1369 04b8 D3000000 		.4byte	0xd3
 1370 04bc 04       		.byte	0x4
 1371 04bd 09       		.uleb128 0x9
 1372 04be 1D090000 		.4byte	.LASF84
 1373 04c2 09       		.byte	0x9
 1374 04c3 6B02     		.2byte	0x26b
 1375 04c5 D3000000 		.4byte	0xd3
 1376 04c9 08       		.byte	0x8
 1377 04ca 08       		.uleb128 0x8
 1378 04cb 43495200 		.ascii	"CIR\000"
 1379 04cf 09       		.byte	0x9
 1380 04d0 6C02     		.2byte	0x26c
 1381 04d2 D3000000 		.4byte	0xd3
 1382 04d6 0C       		.byte	0xc
 1383 04d7 09       		.uleb128 0x9
 1384 04d8 74010000 		.4byte	.LASF85
 1385 04dc 09       		.byte	0x9
 1386 04dd 6D02     		.2byte	0x26d
 1387 04df D3000000 		.4byte	0xd3
 1388 04e3 10       		.byte	0x10
 1389 04e4 09       		.uleb128 0x9
 1390 04e5 8D060000 		.4byte	.LASF86
 1391 04e9 09       		.byte	0x9
 1392 04ea 6E02     		.2byte	0x26e
 1393 04ec D3000000 		.4byte	0xd3
 1394 04f0 14       		.byte	0x14
 1395 04f1 09       		.uleb128 0x9
 1396 04f2 01030000 		.4byte	.LASF87
 1397 04f6 09       		.byte	0x9
 1398 04f7 6F02     		.2byte	0x26f
 1399 04f9 D3000000 		.4byte	0xd3
 1400 04fd 18       		.byte	0x18
 1401 04fe 09       		.uleb128 0x9
 1402 04ff C0040000 		.4byte	.LASF88
 1403 0503 09       		.byte	0x9
 1404 0504 7002     		.2byte	0x270
 1405 0506 B8000000 		.4byte	0xb8
 1406 050a 1C       		.byte	0x1c
 1407 050b 09       		.uleb128 0x9
 1408 050c A4040000 		.4byte	.LASF89
 1409 0510 09       		.byte	0x9
 1410 0511 7102     		.2byte	0x271
 1411 0513 D3000000 		.4byte	0xd3
 1412 0517 20       		.byte	0x20
 1413 0518 09       		.uleb128 0x9
 1414 0519 C4010000 		.4byte	.LASF90
 1415 051d 09       		.byte	0x9
 1416 051e 7202     		.2byte	0x272
 1417 0520 D3000000 		.4byte	0xd3
 1418 0524 24       		.byte	0x24
 1419 0525 09       		.uleb128 0x9
 1420 0526 CA040000 		.4byte	.LASF91
 1421 052a 09       		.byte	0x9
ARM GAS  /tmp/ccMLGXk8.s 			page 26


 1422 052b 7302     		.2byte	0x273
 1423 052d 7B040000 		.4byte	0x47b
 1424 0531 28       		.byte	0x28
 1425 0532 09       		.uleb128 0x9
 1426 0533 15090000 		.4byte	.LASF92
 1427 0537 09       		.byte	0x9
 1428 0538 7402     		.2byte	0x274
 1429 053a D3000000 		.4byte	0xd3
 1430 053e 30       		.byte	0x30
 1431 053f 09       		.uleb128 0x9
 1432 0540 27030000 		.4byte	.LASF93
 1433 0544 09       		.byte	0x9
 1434 0545 7502     		.2byte	0x275
 1435 0547 D3000000 		.4byte	0xd3
 1436 054b 34       		.byte	0x34
 1437 054c 09       		.uleb128 0x9
 1438 054d 44040000 		.4byte	.LASF94
 1439 0551 09       		.byte	0x9
 1440 0552 7602     		.2byte	0x276
 1441 0554 D3000000 		.4byte	0xd3
 1442 0558 38       		.byte	0x38
 1443 0559 09       		.uleb128 0x9
 1444 055a D4040000 		.4byte	.LASF95
 1445 055e 09       		.byte	0x9
 1446 055f 7702     		.2byte	0x277
 1447 0561 B8000000 		.4byte	0xb8
 1448 0565 3C       		.byte	0x3c
 1449 0566 09       		.uleb128 0x9
 1450 0567 0E080000 		.4byte	.LASF96
 1451 056b 09       		.byte	0x9
 1452 056c 7802     		.2byte	0x278
 1453 056e D3000000 		.4byte	0xd3
 1454 0572 40       		.byte	0x40
 1455 0573 09       		.uleb128 0x9
 1456 0574 DD050000 		.4byte	.LASF97
 1457 0578 09       		.byte	0x9
 1458 0579 7902     		.2byte	0x279
 1459 057b D3000000 		.4byte	0xd3
 1460 057f 44       		.byte	0x44
 1461 0580 09       		.uleb128 0x9
 1462 0581 DE040000 		.4byte	.LASF98
 1463 0585 09       		.byte	0x9
 1464 0586 7A02     		.2byte	0x27a
 1465 0588 7B040000 		.4byte	0x47b
 1466 058c 48       		.byte	0x48
 1467 058d 09       		.uleb128 0x9
 1468 058e 21010000 		.4byte	.LASF99
 1469 0592 09       		.byte	0x9
 1470 0593 7B02     		.2byte	0x27b
 1471 0595 D3000000 		.4byte	0xd3
 1472 0599 50       		.byte	0x50
 1473 059a 09       		.uleb128 0x9
 1474 059b 61040000 		.4byte	.LASF100
 1475 059f 09       		.byte	0x9
 1476 05a0 7C02     		.2byte	0x27c
 1477 05a2 D3000000 		.4byte	0xd3
 1478 05a6 54       		.byte	0x54
ARM GAS  /tmp/ccMLGXk8.s 			page 27


 1479 05a7 09       		.uleb128 0x9
 1480 05a8 72050000 		.4byte	.LASF101
 1481 05ac 09       		.byte	0x9
 1482 05ad 7D02     		.2byte	0x27d
 1483 05af D3000000 		.4byte	0xd3
 1484 05b3 58       		.byte	0x58
 1485 05b4 09       		.uleb128 0x9
 1486 05b5 E8040000 		.4byte	.LASF102
 1487 05b9 09       		.byte	0x9
 1488 05ba 7E02     		.2byte	0x27e
 1489 05bc B8000000 		.4byte	0xb8
 1490 05c0 5C       		.byte	0x5c
 1491 05c1 09       		.uleb128 0x9
 1492 05c2 CD010000 		.4byte	.LASF103
 1493 05c6 09       		.byte	0x9
 1494 05c7 7F02     		.2byte	0x27f
 1495 05c9 D3000000 		.4byte	0xd3
 1496 05cd 60       		.byte	0x60
 1497 05ce 09       		.uleb128 0x9
 1498 05cf 3B030000 		.4byte	.LASF104
 1499 05d3 09       		.byte	0x9
 1500 05d4 8002     		.2byte	0x280
 1501 05d6 D3000000 		.4byte	0xd3
 1502 05da 64       		.byte	0x64
 1503 05db 09       		.uleb128 0x9
 1504 05dc 28060000 		.4byte	.LASF105
 1505 05e0 09       		.byte	0x9
 1506 05e1 8102     		.2byte	0x281
 1507 05e3 7B040000 		.4byte	0x47b
 1508 05e7 68       		.byte	0x68
 1509 05e8 09       		.uleb128 0x9
 1510 05e9 A5080000 		.4byte	.LASF106
 1511 05ed 09       		.byte	0x9
 1512 05ee 8202     		.2byte	0x282
 1513 05f0 D3000000 		.4byte	0xd3
 1514 05f4 70       		.byte	0x70
 1515 05f5 08       		.uleb128 0x8
 1516 05f6 43535200 		.ascii	"CSR\000"
 1517 05fa 09       		.byte	0x9
 1518 05fb 8302     		.2byte	0x283
 1519 05fd D3000000 		.4byte	0xd3
 1520 0601 74       		.byte	0x74
 1521 0602 09       		.uleb128 0x9
 1522 0603 F9040000 		.4byte	.LASF107
 1523 0607 09       		.byte	0x9
 1524 0608 8402     		.2byte	0x284
 1525 060a 7B040000 		.4byte	0x47b
 1526 060e 78       		.byte	0x78
 1527 060f 09       		.uleb128 0x9
 1528 0610 61080000 		.4byte	.LASF108
 1529 0614 09       		.byte	0x9
 1530 0615 8502     		.2byte	0x285
 1531 0617 D3000000 		.4byte	0xd3
 1532 061b 80       		.byte	0x80
 1533 061c 09       		.uleb128 0x9
 1534 061d F0020000 		.4byte	.LASF109
 1535 0621 09       		.byte	0x9
ARM GAS  /tmp/ccMLGXk8.s 			page 28


 1536 0622 8602     		.2byte	0x286
 1537 0624 D3000000 		.4byte	0xd3
 1538 0628 84       		.byte	0x84
 1539 0629 00       		.byte	0
 1540 062a 13       		.uleb128 0x13
 1541 062b AC020000 		.4byte	.LASF110
 1542 062f 09       		.byte	0x9
 1543 0630 8802     		.2byte	0x288
 1544 0632 9B040000 		.4byte	0x49b
 1545 0636 04       		.uleb128 0x4
 1546 0637 0A020000 		.4byte	.LASF111
 1547 063b 0A       		.byte	0xa
 1548 063c 65       		.byte	0x65
 1549 063d 3E030000 		.4byte	0x33e
 1550 0641 04       		.uleb128 0x4
 1551 0642 79030000 		.4byte	.LASF112
 1552 0646 0A       		.byte	0xa
 1553 0647 6D       		.byte	0x6d
 1554 0648 C3000000 		.4byte	0xc3
 1555 064c 06       		.uleb128 0x6
 1556 064d 23080000 		.4byte	.LASF113
 1557 0651 04       		.byte	0x4
 1558 0652 0A       		.byte	0xa
 1559 0653 89       		.byte	0x89
 1560 0654 65060000 		.4byte	0x665
 1561 0658 14       		.uleb128 0x14
 1562 0659 72313300 		.ascii	"r13\000"
 1563 065d 0A       		.byte	0xa
 1564 065e 8A       		.byte	0x8a
 1565 065f A6070000 		.4byte	0x7a6
 1566 0663 00       		.byte	0
 1567 0664 00       		.byte	0
 1568 0665 06       		.uleb128 0x6
 1569 0666 76000000 		.4byte	.LASF114
 1570 066a 64       		.byte	0x64
 1571 066b 0B       		.byte	0xb
 1572 066c F4       		.byte	0xf4
 1573 066d A6070000 		.4byte	0x7a6
 1574 0671 14       		.uleb128 0x14
 1575 0672 73313600 		.ascii	"s16\000"
 1576 0676 0B       		.byte	0xb
 1577 0677 F6       		.byte	0xf6
 1578 0678 36060000 		.4byte	0x636
 1579 067c 00       		.byte	0
 1580 067d 14       		.uleb128 0x14
 1581 067e 73313700 		.ascii	"s17\000"
 1582 0682 0B       		.byte	0xb
 1583 0683 F7       		.byte	0xf7
 1584 0684 36060000 		.4byte	0x636
 1585 0688 04       		.byte	0x4
 1586 0689 14       		.uleb128 0x14
 1587 068a 73313800 		.ascii	"s18\000"
 1588 068e 0B       		.byte	0xb
 1589 068f F8       		.byte	0xf8
 1590 0690 36060000 		.4byte	0x636
 1591 0694 08       		.byte	0x8
 1592 0695 14       		.uleb128 0x14
ARM GAS  /tmp/ccMLGXk8.s 			page 29


 1593 0696 73313900 		.ascii	"s19\000"
 1594 069a 0B       		.byte	0xb
 1595 069b F9       		.byte	0xf9
 1596 069c 36060000 		.4byte	0x636
 1597 06a0 0C       		.byte	0xc
 1598 06a1 14       		.uleb128 0x14
 1599 06a2 73323000 		.ascii	"s20\000"
 1600 06a6 0B       		.byte	0xb
 1601 06a7 FA       		.byte	0xfa
 1602 06a8 36060000 		.4byte	0x636
 1603 06ac 10       		.byte	0x10
 1604 06ad 14       		.uleb128 0x14
 1605 06ae 73323100 		.ascii	"s21\000"
 1606 06b2 0B       		.byte	0xb
 1607 06b3 FB       		.byte	0xfb
 1608 06b4 36060000 		.4byte	0x636
 1609 06b8 14       		.byte	0x14
 1610 06b9 14       		.uleb128 0x14
 1611 06ba 73323200 		.ascii	"s22\000"
 1612 06be 0B       		.byte	0xb
 1613 06bf FC       		.byte	0xfc
 1614 06c0 36060000 		.4byte	0x636
 1615 06c4 18       		.byte	0x18
 1616 06c5 14       		.uleb128 0x14
 1617 06c6 73323300 		.ascii	"s23\000"
 1618 06ca 0B       		.byte	0xb
 1619 06cb FD       		.byte	0xfd
 1620 06cc 36060000 		.4byte	0x636
 1621 06d0 1C       		.byte	0x1c
 1622 06d1 14       		.uleb128 0x14
 1623 06d2 73323400 		.ascii	"s24\000"
 1624 06d6 0B       		.byte	0xb
 1625 06d7 FE       		.byte	0xfe
 1626 06d8 36060000 		.4byte	0x636
 1627 06dc 20       		.byte	0x20
 1628 06dd 14       		.uleb128 0x14
 1629 06de 73323500 		.ascii	"s25\000"
 1630 06e2 0B       		.byte	0xb
 1631 06e3 FF       		.byte	0xff
 1632 06e4 36060000 		.4byte	0x636
 1633 06e8 24       		.byte	0x24
 1634 06e9 08       		.uleb128 0x8
 1635 06ea 73323600 		.ascii	"s26\000"
 1636 06ee 0B       		.byte	0xb
 1637 06ef 0001     		.2byte	0x100
 1638 06f1 36060000 		.4byte	0x636
 1639 06f5 28       		.byte	0x28
 1640 06f6 08       		.uleb128 0x8
 1641 06f7 73323700 		.ascii	"s27\000"
 1642 06fb 0B       		.byte	0xb
 1643 06fc 0101     		.2byte	0x101
 1644 06fe 36060000 		.4byte	0x636
 1645 0702 2C       		.byte	0x2c
 1646 0703 08       		.uleb128 0x8
 1647 0704 73323800 		.ascii	"s28\000"
 1648 0708 0B       		.byte	0xb
 1649 0709 0201     		.2byte	0x102
ARM GAS  /tmp/ccMLGXk8.s 			page 30


 1650 070b 36060000 		.4byte	0x636
 1651 070f 30       		.byte	0x30
 1652 0710 08       		.uleb128 0x8
 1653 0711 73323900 		.ascii	"s29\000"
 1654 0715 0B       		.byte	0xb
 1655 0716 0301     		.2byte	0x103
 1656 0718 36060000 		.4byte	0x636
 1657 071c 34       		.byte	0x34
 1658 071d 08       		.uleb128 0x8
 1659 071e 73333000 		.ascii	"s30\000"
 1660 0722 0B       		.byte	0xb
 1661 0723 0401     		.2byte	0x104
 1662 0725 36060000 		.4byte	0x636
 1663 0729 38       		.byte	0x38
 1664 072a 08       		.uleb128 0x8
 1665 072b 73333100 		.ascii	"s31\000"
 1666 072f 0B       		.byte	0xb
 1667 0730 0501     		.2byte	0x105
 1668 0732 36060000 		.4byte	0x636
 1669 0736 3C       		.byte	0x3c
 1670 0737 08       		.uleb128 0x8
 1671 0738 723400   		.ascii	"r4\000"
 1672 073b 0B       		.byte	0xb
 1673 073c 0701     		.2byte	0x107
 1674 073e 36060000 		.4byte	0x636
 1675 0742 40       		.byte	0x40
 1676 0743 08       		.uleb128 0x8
 1677 0744 723500   		.ascii	"r5\000"
 1678 0747 0B       		.byte	0xb
 1679 0748 0801     		.2byte	0x108
 1680 074a 36060000 		.4byte	0x636
 1681 074e 44       		.byte	0x44
 1682 074f 08       		.uleb128 0x8
 1683 0750 723600   		.ascii	"r6\000"
 1684 0753 0B       		.byte	0xb
 1685 0754 0901     		.2byte	0x109
 1686 0756 36060000 		.4byte	0x636
 1687 075a 48       		.byte	0x48
 1688 075b 08       		.uleb128 0x8
 1689 075c 723700   		.ascii	"r7\000"
 1690 075f 0B       		.byte	0xb
 1691 0760 0A01     		.2byte	0x10a
 1692 0762 36060000 		.4byte	0x636
 1693 0766 4C       		.byte	0x4c
 1694 0767 08       		.uleb128 0x8
 1695 0768 723800   		.ascii	"r8\000"
 1696 076b 0B       		.byte	0xb
 1697 076c 0B01     		.2byte	0x10b
 1698 076e 36060000 		.4byte	0x636
 1699 0772 50       		.byte	0x50
 1700 0773 08       		.uleb128 0x8
 1701 0774 723900   		.ascii	"r9\000"
 1702 0777 0B       		.byte	0xb
 1703 0778 0C01     		.2byte	0x10c
 1704 077a 36060000 		.4byte	0x636
 1705 077e 54       		.byte	0x54
 1706 077f 08       		.uleb128 0x8
ARM GAS  /tmp/ccMLGXk8.s 			page 31


 1707 0780 72313000 		.ascii	"r10\000"
 1708 0784 0B       		.byte	0xb
 1709 0785 0D01     		.2byte	0x10d
 1710 0787 36060000 		.4byte	0x636
 1711 078b 58       		.byte	0x58
 1712 078c 08       		.uleb128 0x8
 1713 078d 72313100 		.ascii	"r11\000"
 1714 0791 0B       		.byte	0xb
 1715 0792 0E01     		.2byte	0x10e
 1716 0794 36060000 		.4byte	0x636
 1717 0798 5C       		.byte	0x5c
 1718 0799 08       		.uleb128 0x8
 1719 079a 6C7200   		.ascii	"lr\000"
 1720 079d 0B       		.byte	0xb
 1721 079e 0F01     		.2byte	0x10f
 1722 07a0 36060000 		.4byte	0x636
 1723 07a4 60       		.byte	0x60
 1724 07a5 00       		.byte	0
 1725 07a6 0A       		.uleb128 0xa
 1726 07a7 04       		.byte	0x4
 1727 07a8 65060000 		.4byte	0x665
 1728 07ac 15       		.uleb128 0x15
 1729 07ad 04       		.byte	0x4
 1730 07ae 0C       		.byte	0xc
 1731 07af 38       		.byte	0x38
 1732 07b0 C1070000 		.4byte	0x7c1
 1733 07b4 07       		.uleb128 0x7
 1734 07b5 07080000 		.4byte	.LASF115
 1735 07b9 0C       		.byte	0xc
 1736 07ba 3C       		.byte	0x3c
 1737 07bb D8000000 		.4byte	0xd8
 1738 07bf 00       		.byte	0
 1739 07c0 00       		.byte	0
 1740 07c1 04       		.uleb128 0x4
 1741 07c2 74040000 		.4byte	.LASF116
 1742 07c6 0C       		.byte	0xc
 1743 07c7 3D       		.byte	0x3d
 1744 07c8 AC070000 		.4byte	0x7ac
 1745 07cc 16       		.uleb128 0x16
 1746 07cd 04       		.byte	0x4
 1747 07ce 08       		.byte	0x8
 1748 07cf FA       		.byte	0xfa
 1749 07d0 29080000 		.4byte	0x829
 1750 07d4 17       		.uleb128 0x17
 1751 07d5 54040000 		.4byte	.LASF117
 1752 07d9 08       		.byte	0x8
 1753 07da 0101     		.2byte	0x101
 1754 07dc 1A010000 		.4byte	0x11a
 1755 07e0 17       		.uleb128 0x17
 1756 07e1 CE000000 		.4byte	.LASF118
 1757 07e5 08       		.byte	0x8
 1758 07e6 0801     		.2byte	0x108
 1759 07e8 1A010000 		.4byte	0x11a
 1760 07ec 17       		.uleb128 0x17
 1761 07ed D9080000 		.4byte	.LASF119
 1762 07f1 08       		.byte	0x8
 1763 07f2 0F01     		.2byte	0x10f
ARM GAS  /tmp/ccMLGXk8.s 			page 32


 1764 07f4 3E030000 		.4byte	0x33e
 1765 07f8 17       		.uleb128 0x17
 1766 07f9 29040000 		.4byte	.LASF120
 1767 07fd 08       		.byte	0x8
 1768 07fe 1601     		.2byte	0x116
 1769 0800 29080000 		.4byte	0x829
 1770 0804 17       		.uleb128 0x17
 1771 0805 78020000 		.4byte	.LASF121
 1772 0809 08       		.byte	0x8
 1773 080a 1E01     		.2byte	0x11e
 1774 080c 54080000 		.4byte	0x854
 1775 0810 17       		.uleb128 0x17
 1776 0811 40060000 		.4byte	.LASF122
 1777 0815 08       		.byte	0x8
 1778 0816 2701     		.2byte	0x127
 1779 0818 8B080000 		.4byte	0x88b
 1780 081c 17       		.uleb128 0x17
 1781 081d 83050000 		.4byte	.LASF123
 1782 0821 08       		.byte	0x8
 1783 0822 2F01     		.2byte	0x12f
 1784 0824 25010000 		.4byte	0x125
 1785 0828 00       		.byte	0
 1786 0829 0A       		.uleb128 0xa
 1787 082a 04       		.byte	0x4
 1788 082b 56020000 		.4byte	0x256
 1789 082f 06       		.uleb128 0x6
 1790 0830 0B060000 		.4byte	.LASF124
 1791 0834 0C       		.byte	0xc
 1792 0835 0D       		.byte	0xd
 1793 0836 34       		.byte	0x34
 1794 0837 54080000 		.4byte	0x854
 1795 083b 07       		.uleb128 0x7
 1796 083c 2A090000 		.4byte	.LASF125
 1797 0840 0D       		.byte	0xd
 1798 0841 35       		.byte	0x35
 1799 0842 8B020000 		.4byte	0x28b
 1800 0846 00       		.byte	0
 1801 0847 07       		.uleb128 0x7
 1802 0848 46050000 		.4byte	.LASF126
 1803 084c 0D       		.byte	0xd
 1804 084d 37       		.byte	0x37
 1805 084e 30010000 		.4byte	0x130
 1806 0852 08       		.byte	0x8
 1807 0853 00       		.byte	0
 1808 0854 0A       		.uleb128 0xa
 1809 0855 04       		.byte	0x4
 1810 0856 2F080000 		.4byte	0x82f
 1811 085a 06       		.uleb128 0x6
 1812 085b 77080000 		.4byte	.LASF127
 1813 085f 10       		.byte	0x10
 1814 0860 0E       		.byte	0xe
 1815 0861 39       		.byte	0x39
 1816 0862 8B080000 		.4byte	0x88b
 1817 0866 07       		.uleb128 0x7
 1818 0867 7D010000 		.4byte	.LASF128
 1819 086b 0E       		.byte	0xe
 1820 086c 3A       		.byte	0x3a
ARM GAS  /tmp/ccMLGXk8.s 			page 33


 1821 086d 8B020000 		.4byte	0x28b
 1822 0871 00       		.byte	0
 1823 0872 07       		.uleb128 0x7
 1824 0873 78090000 		.4byte	.LASF129
 1825 0877 0E       		.byte	0xe
 1826 0878 3C       		.byte	0x3c
 1827 0879 61020000 		.4byte	0x261
 1828 087d 08       		.byte	0x8
 1829 087e 07       		.uleb128 0x7
 1830 087f BF070000 		.4byte	.LASF130
 1831 0883 0E       		.byte	0xe
 1832 0884 3E       		.byte	0x3e
 1833 0885 CE080000 		.4byte	0x8ce
 1834 0889 0C       		.byte	0xc
 1835 088a 00       		.byte	0
 1836 088b 0A       		.uleb128 0xa
 1837 088c 04       		.byte	0x4
 1838 088d 5A080000 		.4byte	0x85a
 1839 0891 0A       		.uleb128 0xa
 1840 0892 04       		.byte	0x4
 1841 0893 97080000 		.4byte	0x897
 1842 0897 18       		.uleb128 0x18
 1843 0898 9C080000 		.4byte	0x89c
 1844 089c 02       		.uleb128 0x2
 1845 089d 01       		.byte	0x1
 1846 089e 08       		.byte	0x8
 1847 089f 71060000 		.4byte	.LASF131
 1848 08a3 05       		.uleb128 0x5
 1849 08a4 3B010000 		.4byte	0x13b
 1850 08a8 0A       		.uleb128 0xa
 1851 08a9 04       		.byte	0x4
 1852 08aa 40030000 		.4byte	0x340
 1853 08ae 05       		.uleb128 0x5
 1854 08af 91080000 		.4byte	0x891
 1855 08b3 10       		.uleb128 0x10
 1856 08b4 41060000 		.4byte	0x641
 1857 08b8 C3080000 		.4byte	0x8c3
 1858 08bc 11       		.uleb128 0x11
 1859 08bd 74040000 		.4byte	0x474
 1860 08c1 3A       		.byte	0x3a
 1861 08c2 00       		.byte	0
 1862 08c3 04       		.uleb128 0x4
 1863 08c4 70090000 		.4byte	.LASF132
 1864 08c8 0E       		.byte	0xe
 1865 08c9 34       		.byte	0x34
 1866 08ca 5A080000 		.4byte	0x85a
 1867 08ce 0A       		.uleb128 0xa
 1868 08cf 04       		.byte	0x4
 1869 08d0 C3080000 		.4byte	0x8c3
 1870 08d4 0A       		.uleb128 0xa
 1871 08d5 04       		.byte	0x4
 1872 08d6 D3000000 		.4byte	0xd3
 1873 08da 02       		.uleb128 0x2
 1874 08db 01       		.byte	0x1
 1875 08dc 02       		.byte	0x2
 1876 08dd 20050000 		.4byte	.LASF133
 1877 08e1 19       		.uleb128 0x19
ARM GAS  /tmp/ccMLGXk8.s 			page 34


 1878 08e2 01       		.byte	0x1
 1879 08e3 0F       		.byte	0xf
 1880 08e4 31       		.byte	0x31
 1881 08e5 08090000 		.4byte	0x908
 1882 08e9 1A       		.uleb128 0x1a
 1883 08ea AA080000 		.4byte	.LASF134
 1884 08ee 00       		.sleb128 0
 1885 08ef 1A       		.uleb128 0x1a
 1886 08f0 6B040000 		.4byte	.LASF135
 1887 08f4 01       		.sleb128 1
 1888 08f5 1A       		.uleb128 0x1a
 1889 08f6 6F030000 		.4byte	.LASF136
 1890 08fa 02       		.sleb128 2
 1891 08fb 1A       		.uleb128 0x1a
 1892 08fc 55000000 		.4byte	.LASF137
 1893 0900 03       		.sleb128 3
 1894 0901 1A       		.uleb128 0x1a
 1895 0902 61000000 		.4byte	.LASF138
 1896 0906 04       		.sleb128 4
 1897 0907 00       		.byte	0
 1898 0908 04       		.uleb128 0x4
 1899 0909 AC000000 		.4byte	.LASF139
 1900 090d 0F       		.byte	0xf
 1901 090e 37       		.byte	0x37
 1902 090f E1080000 		.4byte	0x8e1
 1903 0913 04       		.uleb128 0x4
 1904 0914 1D030000 		.4byte	.LASF140
 1905 0918 0F       		.byte	0xf
 1906 0919 3C       		.byte	0x3c
 1907 091a 1E090000 		.4byte	0x91e
 1908 091e 0B       		.uleb128 0xb
 1909 091f 1D030000 		.4byte	.LASF140
 1910 0923 18       		.byte	0x18
 1911 0924 10       		.byte	0x10
 1912 0925 3101     		.2byte	0x131
 1913 0927 7A090000 		.4byte	0x97a
 1914 092b 09       		.uleb128 0x9
 1915 092c AB010000 		.4byte	.LASF141
 1916 0930 10       		.byte	0x10
 1917 0931 3501     		.2byte	0x135
 1918 0933 08090000 		.4byte	0x908
 1919 0937 00       		.byte	0
 1920 0938 09       		.uleb128 0x9
 1921 0939 81060000 		.4byte	.LASF142
 1922 093d 10       		.byte	0x10
 1923 093e 3901     		.2byte	0x139
 1924 0940 7A0B0000 		.4byte	0xb7a
 1925 0944 04       		.byte	0x4
 1926 0945 09       		.uleb128 0x9
 1927 0946 52090000 		.4byte	.LASF143
 1928 094a 10       		.byte	0x10
 1929 094b 4101     		.2byte	0x141
 1930 094d B8000000 		.4byte	0xb8
 1931 0951 08       		.byte	0x8
 1932 0952 08       		.uleb128 0x8
 1933 0953 74696D00 		.ascii	"tim\000"
 1934 0957 10       		.byte	0x10
ARM GAS  /tmp/ccMLGXk8.s 			page 35


 1935 0958 4501     		.2byte	0x145
 1936 095a 850B0000 		.4byte	0xb85
 1937 095e 0C       		.byte	0xc
 1938 095f 09       		.uleb128 0x9
 1939 0960 6A090000 		.4byte	.LASF144
 1940 0964 10       		.byte	0x10
 1941 0965 4901     		.2byte	0x149
 1942 0967 D4080000 		.4byte	0x8d4
 1943 096b 10       		.byte	0x10
 1944 096c 09       		.uleb128 0x9
 1945 096d 45030000 		.4byte	.LASF145
 1946 0971 10       		.byte	0x10
 1947 0972 4D01     		.2byte	0x14d
 1948 0974 D4080000 		.4byte	0x8d4
 1949 0978 14       		.byte	0x14
 1950 0979 00       		.byte	0
 1951 097a 04       		.uleb128 0x4
 1952 097b 9E020000 		.4byte	.LASF146
 1953 097f 0F       		.byte	0xf
 1954 0980 43       		.byte	0x43
 1955 0981 85090000 		.4byte	0x985
 1956 0985 0A       		.uleb128 0xa
 1957 0986 04       		.byte	0x4
 1958 0987 8B090000 		.4byte	0x98b
 1959 098b 0C       		.uleb128 0xc
 1960 098c 96090000 		.4byte	0x996
 1961 0990 0D       		.uleb128 0xd
 1962 0991 96090000 		.4byte	0x996
 1963 0995 00       		.byte	0
 1964 0996 0A       		.uleb128 0xa
 1965 0997 04       		.byte	0x4
 1966 0998 13090000 		.4byte	0x913
 1967 099c 12       		.uleb128 0x12
 1968 099d 60       		.byte	0x60
 1969 099e 11       		.byte	0x11
 1970 099f 9E01     		.2byte	0x19e
 1971 09a1 A80A0000 		.4byte	0xaa8
 1972 09a5 08       		.uleb128 0x8
 1973 09a6 43523100 		.ascii	"CR1\000"
 1974 09aa 11       		.byte	0x11
 1975 09ab 9F01     		.2byte	0x19f
 1976 09ad D3000000 		.4byte	0xd3
 1977 09b1 00       		.byte	0
 1978 09b2 08       		.uleb128 0x8
 1979 09b3 43523200 		.ascii	"CR2\000"
 1980 09b7 11       		.byte	0x11
 1981 09b8 A001     		.2byte	0x1a0
 1982 09ba D3000000 		.4byte	0xd3
 1983 09be 04       		.byte	0x4
 1984 09bf 09       		.uleb128 0x9
 1985 09c0 2F040000 		.4byte	.LASF147
 1986 09c4 11       		.byte	0x11
 1987 09c5 A101     		.2byte	0x1a1
 1988 09c7 D3000000 		.4byte	0xd3
 1989 09cb 08       		.byte	0x8
 1990 09cc 09       		.uleb128 0x9
 1991 09cd 23000000 		.4byte	.LASF148
ARM GAS  /tmp/ccMLGXk8.s 			page 36


 1992 09d1 11       		.byte	0x11
 1993 09d2 A201     		.2byte	0x1a2
 1994 09d4 D3000000 		.4byte	0xd3
 1995 09d8 0C       		.byte	0xc
 1996 09d9 08       		.uleb128 0x8
 1997 09da 535200   		.ascii	"SR\000"
 1998 09dd 11       		.byte	0x11
 1999 09de A301     		.2byte	0x1a3
 2000 09e0 D3000000 		.4byte	0xd3
 2001 09e4 10       		.byte	0x10
 2002 09e5 08       		.uleb128 0x8
 2003 09e6 45475200 		.ascii	"EGR\000"
 2004 09ea 11       		.byte	0x11
 2005 09eb A401     		.2byte	0x1a4
 2006 09ed D3000000 		.4byte	0xd3
 2007 09f1 14       		.byte	0x14
 2008 09f2 09       		.uleb128 0x9
 2009 09f3 56010000 		.4byte	.LASF149
 2010 09f7 11       		.byte	0x11
 2011 09f8 A501     		.2byte	0x1a5
 2012 09fa D3000000 		.4byte	0xd3
 2013 09fe 18       		.byte	0x18
 2014 09ff 09       		.uleb128 0x9
 2015 0a00 5C010000 		.4byte	.LASF150
 2016 0a04 11       		.byte	0x11
 2017 0a05 A601     		.2byte	0x1a6
 2018 0a07 D3000000 		.4byte	0xd3
 2019 0a0b 1C       		.byte	0x1c
 2020 0a0c 09       		.uleb128 0x9
 2021 0a0d BA070000 		.4byte	.LASF151
 2022 0a11 11       		.byte	0x11
 2023 0a12 A701     		.2byte	0x1a7
 2024 0a14 D3000000 		.4byte	0xd3
 2025 0a18 20       		.byte	0x20
 2026 0a19 08       		.uleb128 0x8
 2027 0a1a 434E5400 		.ascii	"CNT\000"
 2028 0a1e 11       		.byte	0x11
 2029 0a1f A801     		.2byte	0x1a8
 2030 0a21 D3000000 		.4byte	0xd3
 2031 0a25 24       		.byte	0x24
 2032 0a26 08       		.uleb128 0x8
 2033 0a27 50534300 		.ascii	"PSC\000"
 2034 0a2b 11       		.byte	0x11
 2035 0a2c A901     		.2byte	0x1a9
 2036 0a2e D3000000 		.4byte	0xd3
 2037 0a32 28       		.byte	0x28
 2038 0a33 08       		.uleb128 0x8
 2039 0a34 41525200 		.ascii	"ARR\000"
 2040 0a38 11       		.byte	0x11
 2041 0a39 AA01     		.2byte	0x1aa
 2042 0a3b D3000000 		.4byte	0xd3
 2043 0a3f 2C       		.byte	0x2c
 2044 0a40 08       		.uleb128 0x8
 2045 0a41 52435200 		.ascii	"RCR\000"
 2046 0a45 11       		.byte	0x11
 2047 0a46 AB01     		.2byte	0x1ab
 2048 0a48 D3000000 		.4byte	0xd3
ARM GAS  /tmp/ccMLGXk8.s 			page 37


 2049 0a4c 30       		.byte	0x30
 2050 0a4d 08       		.uleb128 0x8
 2051 0a4e 43435200 		.ascii	"CCR\000"
 2052 0a52 11       		.byte	0x11
 2053 0a53 AC01     		.2byte	0x1ac
 2054 0a55 A80A0000 		.4byte	0xaa8
 2055 0a59 34       		.byte	0x34
 2056 0a5a 09       		.uleb128 0x9
 2057 0a5b 12010000 		.4byte	.LASF152
 2058 0a5f 11       		.byte	0x11
 2059 0a60 AD01     		.2byte	0x1ad
 2060 0a62 D3000000 		.4byte	0xd3
 2061 0a66 44       		.byte	0x44
 2062 0a67 08       		.uleb128 0x8
 2063 0a68 44435200 		.ascii	"DCR\000"
 2064 0a6c 11       		.byte	0x11
 2065 0a6d AE01     		.2byte	0x1ae
 2066 0a6f D3000000 		.4byte	0xd3
 2067 0a73 48       		.byte	0x48
 2068 0a74 09       		.uleb128 0x9
 2069 0a75 88060000 		.4byte	.LASF153
 2070 0a79 11       		.byte	0x11
 2071 0a7a AF01     		.2byte	0x1af
 2072 0a7c D3000000 		.4byte	0xd3
 2073 0a80 4C       		.byte	0x4c
 2074 0a81 08       		.uleb128 0x8
 2075 0a82 4F5200   		.ascii	"OR\000"
 2076 0a85 11       		.byte	0x11
 2077 0a86 B001     		.2byte	0x1b0
 2078 0a88 D3000000 		.4byte	0xd3
 2079 0a8c 50       		.byte	0x50
 2080 0a8d 09       		.uleb128 0x9
 2081 0a8e 62010000 		.4byte	.LASF154
 2082 0a92 11       		.byte	0x11
 2083 0a93 B101     		.2byte	0x1b1
 2084 0a95 D3000000 		.4byte	0xd3
 2085 0a99 54       		.byte	0x54
 2086 0a9a 09       		.uleb128 0x9
 2087 0a9b 18060000 		.4byte	.LASF155
 2088 0a9f 11       		.byte	0x11
 2089 0aa0 B201     		.2byte	0x1b2
 2090 0aa2 AD0A0000 		.4byte	0xaad
 2091 0aa6 58       		.byte	0x58
 2092 0aa7 00       		.byte	0
 2093 0aa8 05       		.uleb128 0x5
 2094 0aa9 8B040000 		.4byte	0x48b
 2095 0aad 05       		.uleb128 0x5
 2096 0aae 7B040000 		.4byte	0x47b
 2097 0ab2 13       		.uleb128 0x13
 2098 0ab3 2F030000 		.4byte	.LASF156
 2099 0ab7 11       		.byte	0x11
 2100 0ab8 B301     		.2byte	0x1b3
 2101 0aba 9C090000 		.4byte	0x99c
 2102 0abe 19       		.uleb128 0x19
 2103 0abf 01       		.byte	0x1
 2104 0ac0 10       		.byte	0x10
 2105 0ac1 EE       		.byte	0xee
ARM GAS  /tmp/ccMLGXk8.s 			page 38


 2106 0ac2 D30A0000 		.4byte	0xad3
 2107 0ac6 1A       		.uleb128 0x1a
 2108 0ac7 00000000 		.4byte	.LASF157
 2109 0acb 00       		.sleb128 0
 2110 0acc 1A       		.uleb128 0x1a
 2111 0acd 85040000 		.4byte	.LASF158
 2112 0ad1 01       		.sleb128 1
 2113 0ad2 00       		.byte	0
 2114 0ad3 04       		.uleb128 0x4
 2115 0ad4 3C050000 		.4byte	.LASF159
 2116 0ad8 10       		.byte	0x10
 2117 0ad9 F1       		.byte	0xf1
 2118 0ada BE0A0000 		.4byte	0xabe
 2119 0ade 04       		.uleb128 0x4
 2120 0adf 3F080000 		.4byte	.LASF160
 2121 0ae3 10       		.byte	0x10
 2122 0ae4 F6       		.byte	0xf6
 2123 0ae5 B8000000 		.4byte	0xb8
 2124 0ae9 19       		.uleb128 0x19
 2125 0aea 01       		.byte	0x1
 2126 0aeb 10       		.byte	0x10
 2127 0aec FB       		.byte	0xfb
 2128 0aed FE0A0000 		.4byte	0xafe
 2129 0af1 1A       		.uleb128 0x1a
 2130 0af2 B5080000 		.4byte	.LASF161
 2131 0af6 00       		.sleb128 0
 2132 0af7 1A       		.uleb128 0x1a
 2133 0af8 C3080000 		.4byte	.LASF162
 2134 0afc 01       		.sleb128 1
 2135 0afd 00       		.byte	0
 2136 0afe 04       		.uleb128 0x4
 2137 0aff E5050000 		.4byte	.LASF163
 2138 0b03 10       		.byte	0x10
 2139 0b04 FE       		.byte	0xfe
 2140 0b05 E90A0000 		.4byte	0xae9
 2141 0b09 12       		.uleb128 0x12
 2142 0b0a 1C       		.byte	0x1c
 2143 0b0b 10       		.byte	0x10
 2144 0b0c 0901     		.2byte	0x109
 2145 0b0e 6E0B0000 		.4byte	0xb6e
 2146 0b12 09       		.uleb128 0x9
 2147 0b13 76060000 		.4byte	.LASF164
 2148 0b17 10       		.byte	0x10
 2149 0b18 0D01     		.2byte	0x10d
 2150 0b1a D30A0000 		.4byte	0xad3
 2151 0b1e 00       		.byte	0
 2152 0b1f 09       		.uleb128 0x9
 2153 0b20 17010000 		.4byte	.LASF165
 2154 0b24 10       		.byte	0x10
 2155 0b25 1301     		.2byte	0x113
 2156 0b27 DE0A0000 		.4byte	0xade
 2157 0b2b 04       		.byte	0x4
 2158 0b2c 09       		.uleb128 0x9
 2159 0b2d 3B040000 		.4byte	.LASF166
 2160 0b31 10       		.byte	0x10
 2161 0b32 1701     		.2byte	0x117
 2162 0b34 7A090000 		.4byte	0x97a
ARM GAS  /tmp/ccMLGXk8.s 			page 39


 2163 0b38 08       		.byte	0x8
 2164 0b39 09       		.uleb128 0x9
 2165 0b3a C2020000 		.4byte	.LASF167
 2166 0b3e 10       		.byte	0x10
 2167 0b3f 1B01     		.2byte	0x11b
 2168 0b41 7A090000 		.4byte	0x97a
 2169 0b45 0C       		.byte	0xc
 2170 0b46 09       		.uleb128 0x9
 2171 0b47 E4020000 		.4byte	.LASF168
 2172 0b4b 10       		.byte	0x10
 2173 0b4c 1F01     		.2byte	0x11f
 2174 0b4e 7A090000 		.4byte	0x97a
 2175 0b52 10       		.byte	0x10
 2176 0b53 09       		.uleb128 0x9
 2177 0b54 F2050000 		.4byte	.LASF169
 2178 0b58 10       		.byte	0x10
 2179 0b59 2501     		.2byte	0x125
 2180 0b5b FE0A0000 		.4byte	0xafe
 2181 0b5f 14       		.byte	0x14
 2182 0b60 09       		.uleb128 0x9
 2183 0b61 95090000 		.4byte	.LASF170
 2184 0b65 10       		.byte	0x10
 2185 0b66 2B01     		.2byte	0x12b
 2186 0b68 B8000000 		.4byte	0xb8
 2187 0b6c 18       		.byte	0x18
 2188 0b6d 00       		.byte	0
 2189 0b6e 13       		.uleb128 0x13
 2190 0b6f F0010000 		.4byte	.LASF171
 2191 0b73 10       		.byte	0x10
 2192 0b74 2C01     		.2byte	0x12c
 2193 0b76 090B0000 		.4byte	0xb09
 2194 0b7a 0A       		.uleb128 0xa
 2195 0b7b 04       		.byte	0x4
 2196 0b7c 800B0000 		.4byte	0xb80
 2197 0b80 18       		.uleb128 0x18
 2198 0b81 6E0B0000 		.4byte	0xb6e
 2199 0b85 0A       		.uleb128 0xa
 2200 0b86 04       		.byte	0x4
 2201 0b87 B20A0000 		.4byte	0xab2
 2202 0b8b 1B       		.uleb128 0x1b
 2203 0b8c EF070000 		.4byte	.LASF174
 2204 0b90 02       		.byte	0x2
 2205 0b91 2002     		.2byte	0x220
 2206 0b93 03       		.byte	0x3
 2207 0b94 A50B0000 		.4byte	0xba5
 2208 0b98 1C       		.uleb128 0x1c
 2209 0b99 2F020000 		.4byte	.LASF177
 2210 0b9d 02       		.byte	0x2
 2211 0b9e 2002     		.2byte	0x220
 2212 0ba0 B8000000 		.4byte	0xb8
 2213 0ba4 00       		.byte	0
 2214 0ba5 1D       		.uleb128 0x1d
 2215 0ba6 A2000000 		.4byte	.LASF172
 2216 0baa 0B       		.byte	0xb
 2217 0bab BC01     		.2byte	0x1bc
 2218 0bad 03       		.byte	0x3
 2219 0bae 1D       		.uleb128 0x1d
ARM GAS  /tmp/ccMLGXk8.s 			page 40


 2220 0baf 8C010000 		.4byte	.LASF173
 2221 0bb3 0B       		.byte	0xb
 2222 0bb4 CA01     		.2byte	0x1ca
 2223 0bb6 03       		.byte	0x3
 2224 0bb7 1B       		.uleb128 0x1b
 2225 0bb8 40090000 		.4byte	.LASF175
 2226 0bbc 12       		.byte	0x12
 2227 0bbd 6601     		.2byte	0x166
 2228 0bbf 03       		.byte	0x3
 2229 0bc0 D20B0000 		.4byte	0xbd2
 2230 0bc4 1E       		.uleb128 0x1e
 2231 0bc5 92050000 		.4byte	.LASF179
 2232 0bc9 E20B0000 		.4byte	0xbe2
 2233 0bcd 40090000 		.4byte	.LASF175
 2234 0bd1 00       		.byte	0
 2235 0bd2 10       		.uleb128 0x10
 2236 0bd3 9C080000 		.4byte	0x89c
 2237 0bd7 E20B0000 		.4byte	0xbe2
 2238 0bdb 11       		.uleb128 0x11
 2239 0bdc 74040000 		.4byte	0x474
 2240 0be0 0B       		.byte	0xb
 2241 0be1 00       		.byte	0
 2242 0be2 18       		.uleb128 0x18
 2243 0be3 D20B0000 		.4byte	0xbd2
 2244 0be7 1D       		.uleb128 0x1d
 2245 0be8 A2050000 		.4byte	.LASF176
 2246 0bec 12       		.byte	0x12
 2247 0bed 5A01     		.2byte	0x15a
 2248 0bef 03       		.byte	0x3
 2249 0bf0 1F       		.uleb128 0x1f
 2250 0bf1 58090000 		.4byte	.LASF197
 2251 0bf5 01       		.byte	0x1
 2252 0bf6 69       		.byte	0x69
 2253 0bf7 DA080000 		.4byte	0x8da
 2254 0bfb 01       		.byte	0x1
 2255 0bfc 210C0000 		.4byte	0xc21
 2256 0c00 20       		.uleb128 0x20
 2257 0c01 0B050000 		.4byte	.LASF178
 2258 0c05 01       		.byte	0x1
 2259 0c06 69       		.byte	0x69
 2260 0c07 96090000 		.4byte	0x996
 2261 0c0b 21       		.uleb128 0x21
 2262 0c0c 737200   		.ascii	"sr\000"
 2263 0c0f 01       		.byte	0x1
 2264 0c10 6A       		.byte	0x6a
 2265 0c11 B8000000 		.4byte	0xb8
 2266 0c15 22       		.uleb128 0x22
 2267 0c16 80090000 		.4byte	.LASF180
 2268 0c1a 01       		.byte	0x1
 2269 0c1b 6B       		.byte	0x6b
 2270 0c1c DA080000 		.4byte	0x8da
 2271 0c20 00       		.byte	0
 2272 0c21 23       		.uleb128 0x23
 2273 0c22 CC020000 		.4byte	.LASF181
 2274 0c26 01       		.byte	0x1
 2275 0c27 92       		.byte	0x92
 2276 0c28 01       		.byte	0x1
ARM GAS  /tmp/ccMLGXk8.s 			page 41


 2277 0c29 430C0000 		.4byte	0xc43
 2278 0c2d 20       		.uleb128 0x20
 2279 0c2e 0B050000 		.4byte	.LASF178
 2280 0c32 01       		.byte	0x1
 2281 0c33 92       		.byte	0x92
 2282 0c34 96090000 		.4byte	0x996
 2283 0c38 21       		.uleb128 0x21
 2284 0c39 737200   		.ascii	"sr\000"
 2285 0c3c 01       		.byte	0x1
 2286 0c3d 93       		.byte	0x93
 2287 0c3e B8000000 		.4byte	0xb8
 2288 0c42 00       		.byte	0
 2289 0c43 24       		.uleb128 0x24
 2290 0c44 F00B0000 		.4byte	0xbf0
 2291 0c48 00000000 		.4byte	.LFB267
 2292 0c4c 36000000 		.4byte	.LFE267-.LFB267
 2293 0c50 01       		.uleb128 0x1
 2294 0c51 9C       		.byte	0x9c
 2295 0c52 070D0000 		.4byte	0xd07
 2296 0c56 25       		.uleb128 0x25
 2297 0c57 000C0000 		.4byte	0xc00
 2298 0c5b 06       		.uleb128 0x6
 2299 0c5c FA       		.byte	0xfa
 2300 0c5d 000C0000 		.4byte	0xc00
 2301 0c61 9F       		.byte	0x9f
 2302 0c62 25       		.uleb128 0x25
 2303 0c63 000C0000 		.4byte	0xc00
 2304 0c67 06       		.uleb128 0x6
 2305 0c68 FA       		.byte	0xfa
 2306 0c69 000C0000 		.4byte	0xc00
 2307 0c6d 9F       		.byte	0x9f
 2308 0c6e 26       		.uleb128 0x26
 2309 0c6f 0B0C0000 		.4byte	0xc0b
 2310 0c73 00000000 		.4byte	.LLST0
 2311 0c77 26       		.uleb128 0x26
 2312 0c78 150C0000 		.4byte	0xc15
 2313 0c7c 1E000000 		.4byte	.LLST1
 2314 0c80 27       		.uleb128 0x27
 2315 0c81 B70B0000 		.4byte	0xbb7
 2316 0c85 00000000 		.4byte	.LBB33
 2317 0c89 06000000 		.4byte	.LBE33-.LBB33
 2318 0c8d 01       		.byte	0x1
 2319 0c8e 6F       		.byte	0x6f
 2320 0c8f CB0C0000 		.4byte	0xccb
 2321 0c93 28       		.uleb128 0x28
 2322 0c94 00000000 		.4byte	.LBB34
 2323 0c98 06000000 		.4byte	.LBE34-.LBB34
 2324 0c9c 29       		.uleb128 0x29
 2325 0c9d C40B0000 		.4byte	0xbc4
 2326 0ca1 2A       		.uleb128 0x2a
 2327 0ca2 AE0B0000 		.4byte	0xbae
 2328 0ca6 00000000 		.4byte	.LBB35
 2329 0caa 06000000 		.4byte	.LBE35-.LBB35
 2330 0cae 12       		.byte	0x12
 2331 0caf 7301     		.2byte	0x173
 2332 0cb1 2A       		.uleb128 0x2a
 2333 0cb2 8B0B0000 		.4byte	0xb8b
ARM GAS  /tmp/ccMLGXk8.s 			page 42


 2334 0cb6 00000000 		.4byte	.LBB36
 2335 0cba 06000000 		.4byte	.LBE36-.LBB36
 2336 0cbe 0B       		.byte	0xb
 2337 0cbf CD01     		.2byte	0x1cd
 2338 0cc1 2B       		.uleb128 0x2b
 2339 0cc2 980B0000 		.4byte	0xb98
 2340 0cc6 00       		.byte	0
 2341 0cc7 00       		.byte	0
 2342 0cc8 00       		.byte	0
 2343 0cc9 00       		.byte	0
 2344 0cca 00       		.byte	0
 2345 0ccb 2C       		.uleb128 0x2c
 2346 0ccc E70B0000 		.4byte	0xbe7
 2347 0cd0 14000000 		.4byte	.LBB38
 2348 0cd4 06000000 		.4byte	.LBE38-.LBB38
 2349 0cd8 01       		.byte	0x1
 2350 0cd9 83       		.byte	0x83
 2351 0cda 2A       		.uleb128 0x2a
 2352 0cdb A50B0000 		.4byte	0xba5
 2353 0cdf 14000000 		.4byte	.LBB39
 2354 0ce3 06000000 		.4byte	.LBE39-.LBB39
 2355 0ce7 12       		.byte	0x12
 2356 0ce8 5C01     		.2byte	0x15c
 2357 0cea 2A       		.uleb128 0x2a
 2358 0ceb 8B0B0000 		.4byte	0xb8b
 2359 0cef 14000000 		.4byte	.LBB40
 2360 0cf3 06000000 		.4byte	.LBE40-.LBB40
 2361 0cf7 0B       		.byte	0xb
 2362 0cf8 BF01     		.2byte	0x1bf
 2363 0cfa 2D       		.uleb128 0x2d
 2364 0cfb 980B0000 		.4byte	0xb98
 2365 0cff 31000000 		.4byte	.LLST2
 2366 0d03 00       		.byte	0
 2367 0d04 00       		.byte	0
 2368 0d05 00       		.byte	0
 2369 0d06 00       		.byte	0
 2370 0d07 2E       		.uleb128 0x2e
 2371 0d08 A2010000 		.4byte	.LASF182
 2372 0d0c 01       		.byte	0x1
 2373 0d0d F8       		.byte	0xf8
 2374 0d0e 00000000 		.4byte	.LFB258
 2375 0d12 9C000000 		.4byte	.LFE258-.LFB258
 2376 0d16 01       		.uleb128 0x1
 2377 0d17 9C       		.byte	0x9c
 2378 0d18 910D0000 		.4byte	0xd91
 2379 0d1c 2F       		.uleb128 0x2f
 2380 0d1d 210C0000 		.4byte	0xc21
 2381 0d21 02000000 		.4byte	.LBB44
 2382 0d25 00000000 		.4byte	.Ldebug_ranges0+0
 2383 0d29 01       		.byte	0x1
 2384 0d2a FC       		.byte	0xfc
 2385 0d2b 870D0000 		.4byte	0xd87
 2386 0d2f 25       		.uleb128 0x25
 2387 0d30 2D0C0000 		.4byte	0xc2d
 2388 0d34 06       		.uleb128 0x6
 2389 0d35 03       		.byte	0x3
 2390 0d36 00000000 		.4byte	ICUD3
ARM GAS  /tmp/ccMLGXk8.s 			page 43


 2391 0d3a 9F       		.byte	0x9f
 2392 0d3b 30       		.uleb128 0x30
 2393 0d3c 00000000 		.4byte	.Ldebug_ranges0+0
 2394 0d40 26       		.uleb128 0x26
 2395 0d41 380C0000 		.4byte	0xc38
 2396 0d45 46000000 		.4byte	.LLST3
 2397 0d49 31       		.uleb128 0x31
 2398 0d4a 32000000 		.4byte	.LVL10
 2399 0d4e 590D0000 		.4byte	0xd59
 2400 0d52 32       		.uleb128 0x32
 2401 0d53 01       		.uleb128 0x1
 2402 0d54 50       		.byte	0x50
 2403 0d55 02       		.uleb128 0x2
 2404 0d56 75       		.byte	0x75
 2405 0d57 00       		.sleb128 0
 2406 0d58 00       		.byte	0
 2407 0d59 31       		.uleb128 0x31
 2408 0d5a 46000000 		.4byte	.LVL12
 2409 0d5e 690D0000 		.4byte	0xd69
 2410 0d62 32       		.uleb128 0x32
 2411 0d63 01       		.uleb128 0x1
 2412 0d64 50       		.byte	0x50
 2413 0d65 02       		.uleb128 0x2
 2414 0d66 75       		.byte	0x75
 2415 0d67 00       		.sleb128 0
 2416 0d68 00       		.byte	0
 2417 0d69 31       		.uleb128 0x31
 2418 0d6a 70000000 		.4byte	.LVL13
 2419 0d6e 790D0000 		.4byte	0xd79
 2420 0d72 32       		.uleb128 0x32
 2421 0d73 01       		.uleb128 0x1
 2422 0d74 50       		.byte	0x50
 2423 0d75 02       		.uleb128 0x2
 2424 0d76 75       		.byte	0x75
 2425 0d77 00       		.sleb128 0
 2426 0d78 00       		.byte	0
 2427 0d79 33       		.uleb128 0x33
 2428 0d7a 88000000 		.4byte	.LVL14
 2429 0d7e 32       		.uleb128 0x32
 2430 0d7f 01       		.uleb128 0x1
 2431 0d80 50       		.byte	0x50
 2432 0d81 02       		.uleb128 0x2
 2433 0d82 75       		.byte	0x75
 2434 0d83 00       		.sleb128 0
 2435 0d84 00       		.byte	0
 2436 0d85 00       		.byte	0
 2437 0d86 00       		.byte	0
 2438 0d87 34       		.uleb128 0x34
 2439 0d88 3E000000 		.4byte	.LVL11
 2440 0d8c 990F0000 		.4byte	0xf99
 2441 0d90 00       		.byte	0
 2442 0d91 35       		.uleb128 0x35
 2443 0d92 E2000000 		.4byte	.LASF183
 2444 0d96 01       		.byte	0x1
 2445 0d97 7701     		.2byte	0x177
 2446 0d99 00000000 		.4byte	.LFB259
 2447 0d9d 18000000 		.4byte	.LFE259-.LFB259
ARM GAS  /tmp/ccMLGXk8.s 			page 44


 2448 0da1 01       		.uleb128 0x1
 2449 0da2 9C       		.byte	0x9c
 2450 0da3 B80D0000 		.4byte	0xdb8
 2451 0da7 36       		.uleb128 0x36
 2452 0da8 0A000000 		.4byte	.LVL15
 2453 0dac A10F0000 		.4byte	0xfa1
 2454 0db0 32       		.uleb128 0x32
 2455 0db1 01       		.uleb128 0x1
 2456 0db2 50       		.byte	0x50
 2457 0db3 02       		.uleb128 0x2
 2458 0db4 74       		.byte	0x74
 2459 0db5 00       		.sleb128 0
 2460 0db6 00       		.byte	0
 2461 0db7 00       		.byte	0
 2462 0db8 35       		.uleb128 0x35
 2463 0db9 32090000 		.4byte	.LASF184
 2464 0dbd 01       		.byte	0x1
 2465 0dbe AB01     		.2byte	0x1ab
 2466 0dc0 00000000 		.4byte	.LFB260
 2467 0dc4 BC000000 		.4byte	.LFE260-.LFB260
 2468 0dc8 01       		.uleb128 0x1
 2469 0dc9 9C       		.byte	0x9c
 2470 0dca 0C0E0000 		.4byte	0xe0c
 2471 0dce 37       		.uleb128 0x37
 2472 0dcf 0B050000 		.4byte	.LASF178
 2473 0dd3 01       		.byte	0x1
 2474 0dd4 AB01     		.2byte	0x1ab
 2475 0dd6 96090000 		.4byte	0x996
 2476 0dda 79000000 		.4byte	.LLST4
 2477 0dde 38       		.uleb128 0x38
 2478 0ddf 70736300 		.ascii	"psc\000"
 2479 0de3 01       		.byte	0x1
 2480 0de4 AC01     		.2byte	0x1ac
 2481 0de6 B8000000 		.4byte	0xb8
 2482 0dea C3000000 		.4byte	.LLST5
 2483 0dee 39       		.uleb128 0x39
 2484 0def 92050000 		.4byte	.LASF179
 2485 0df3 1C0E0000 		.4byte	0xe1c
 2486 0df7 36       		.uleb128 0x36
 2487 0df8 A8000000 		.4byte	.LVL33
 2488 0dfc B20F0000 		.4byte	0xfb2
 2489 0e00 32       		.uleb128 0x32
 2490 0e01 01       		.uleb128 0x1
 2491 0e02 51       		.byte	0x51
 2492 0e03 01       		.uleb128 0x1
 2493 0e04 37       		.byte	0x37
 2494 0e05 32       		.uleb128 0x32
 2495 0e06 01       		.uleb128 0x1
 2496 0e07 50       		.byte	0x50
 2497 0e08 01       		.uleb128 0x1
 2498 0e09 4D       		.byte	0x4d
 2499 0e0a 00       		.byte	0
 2500 0e0b 00       		.byte	0
 2501 0e0c 10       		.uleb128 0x10
 2502 0e0d 9C080000 		.4byte	0x89c
 2503 0e11 1C0E0000 		.4byte	0xe1c
 2504 0e15 11       		.uleb128 0x11
ARM GAS  /tmp/ccMLGXk8.s 			page 45


 2505 0e16 74040000 		.4byte	0x474
 2506 0e1a 0D       		.byte	0xd
 2507 0e1b 00       		.byte	0
 2508 0e1c 18       		.uleb128 0x18
 2509 0e1d 0C0E0000 		.4byte	0xe0c
 2510 0e21 35       		.uleb128 0x35
 2511 0e22 16080000 		.4byte	.LASF185
 2512 0e26 01       		.byte	0x1
 2513 0e27 4502     		.2byte	0x245
 2514 0e29 00000000 		.4byte	.LFB261
 2515 0e2d 34000000 		.4byte	.LFE261-.LFB261
 2516 0e31 01       		.uleb128 0x1
 2517 0e32 9C       		.byte	0x9c
 2518 0e33 570E0000 		.4byte	0xe57
 2519 0e37 37       		.uleb128 0x37
 2520 0e38 0B050000 		.4byte	.LASF178
 2521 0e3c 01       		.byte	0x1
 2522 0e3d 4502     		.2byte	0x245
 2523 0e3f 96090000 		.4byte	0x996
 2524 0e43 7E010000 		.4byte	.LLST6
 2525 0e47 36       		.uleb128 0x36
 2526 0e48 20000000 		.4byte	.LVL38
 2527 0e4c C80F0000 		.4byte	0xfc8
 2528 0e50 32       		.uleb128 0x32
 2529 0e51 01       		.uleb128 0x1
 2530 0e52 50       		.byte	0x50
 2531 0e53 01       		.uleb128 0x1
 2532 0e54 4D       		.byte	0x4d
 2533 0e55 00       		.byte	0
 2534 0e56 00       		.byte	0
 2535 0e57 35       		.uleb128 0x35
 2536 0e58 D6030000 		.4byte	.LASF186
 2537 0e5c 01       		.byte	0x1
 2538 0e5d 8302     		.2byte	0x283
 2539 0e5f 00000000 		.4byte	.LFB262
 2540 0e63 14000000 		.4byte	.LFE262-.LFB262
 2541 0e67 01       		.uleb128 0x1
 2542 0e68 9C       		.byte	0x9c
 2543 0e69 7E0E0000 		.4byte	0xe7e
 2544 0e6d 37       		.uleb128 0x37
 2545 0e6e 0B050000 		.4byte	.LASF178
 2546 0e72 01       		.byte	0x1
 2547 0e73 8302     		.2byte	0x283
 2548 0e75 96090000 		.4byte	0x996
 2549 0e79 B8010000 		.4byte	.LLST7
 2550 0e7d 00       		.byte	0
 2551 0e7e 3A       		.uleb128 0x3a
 2552 0e7f 87080000 		.4byte	.LASF198
 2553 0e83 01       		.byte	0x1
 2554 0e84 9902     		.2byte	0x299
 2555 0e86 DA080000 		.4byte	0x8da
 2556 0e8a 00000000 		.4byte	.LFB263
 2557 0e8e 2A000000 		.4byte	.LFE263-.LFB263
 2558 0e92 01       		.uleb128 0x1
 2559 0e93 9C       		.byte	0x9c
 2560 0e94 F00E0000 		.4byte	0xef0
 2561 0e98 37       		.uleb128 0x37
ARM GAS  /tmp/ccMLGXk8.s 			page 46


 2562 0e99 0B050000 		.4byte	.LASF178
 2563 0e9d 01       		.byte	0x1
 2564 0e9e 9902     		.2byte	0x299
 2565 0ea0 96090000 		.4byte	0x996
 2566 0ea4 D9010000 		.4byte	.LLST8
 2567 0ea8 3B       		.uleb128 0x3b
 2568 0ea9 1C000000 		.4byte	.LVL44
 2569 0ead 430C0000 		.4byte	0xc43
 2570 0eb1 D10E0000 		.4byte	0xed1
 2571 0eb5 32       		.uleb128 0x32
 2572 0eb6 01       		.uleb128 0x1
 2573 0eb7 51       		.byte	0x51
 2574 0eb8 05       		.uleb128 0x5
 2575 0eb9 F3       		.byte	0xf3
 2576 0eba 01       		.uleb128 0x1
 2577 0ebb 50       		.byte	0x50
 2578 0ebc 23       		.byte	0x23
 2579 0ebd 0C       		.uleb128 0xc
 2580 0ebe 32       		.uleb128 0x32
 2581 0ebf 01       		.uleb128 0x1
 2582 0ec0 50       		.byte	0x50
 2583 0ec1 05       		.uleb128 0x5
 2584 0ec2 F3       		.byte	0xf3
 2585 0ec3 01       		.uleb128 0x1
 2586 0ec4 50       		.byte	0x50
 2587 0ec5 23       		.byte	0x23
 2588 0ec6 04       		.uleb128 0x4
 2589 0ec7 3C       		.uleb128 0x3c
 2590 0ec8 000C0000 		.4byte	0xc00
 2591 0ecc 03       		.uleb128 0x3
 2592 0ecd F3       		.byte	0xf3
 2593 0ece 01       		.uleb128 0x1
 2594 0ecf 50       		.byte	0x50
 2595 0ed0 00       		.byte	0
 2596 0ed1 36       		.uleb128 0x36
 2597 0ed2 24000000 		.4byte	.LVL46
 2598 0ed6 430C0000 		.4byte	0xc43
 2599 0eda 32       		.uleb128 0x32
 2600 0edb 01       		.uleb128 0x1
 2601 0edc 51       		.byte	0x51
 2602 0edd 02       		.uleb128 0x2
 2603 0ede 74       		.byte	0x74
 2604 0edf 00       		.sleb128 0
 2605 0ee0 32       		.uleb128 0x32
 2606 0ee1 01       		.uleb128 0x1
 2607 0ee2 50       		.byte	0x50
 2608 0ee3 02       		.uleb128 0x2
 2609 0ee4 75       		.byte	0x75
 2610 0ee5 00       		.sleb128 0
 2611 0ee6 3C       		.uleb128 0x3c
 2612 0ee7 000C0000 		.4byte	0xc00
 2613 0eeb 02       		.uleb128 0x2
 2614 0eec 74       		.byte	0x74
 2615 0eed 74       		.sleb128 -12
 2616 0eee 00       		.byte	0
 2617 0eef 00       		.byte	0
 2618 0ef0 35       		.uleb128 0x35
ARM GAS  /tmp/ccMLGXk8.s 			page 47


 2619 0ef1 84030000 		.4byte	.LASF187
 2620 0ef5 01       		.byte	0x1
 2621 0ef6 AC02     		.2byte	0x2ac
 2622 0ef8 00000000 		.4byte	.LFB264
 2623 0efc 10000000 		.4byte	.LFE264-.LFB264
 2624 0f00 01       		.uleb128 0x1
 2625 0f01 9C       		.byte	0x9c
 2626 0f02 150F0000 		.4byte	0xf15
 2627 0f06 3D       		.uleb128 0x3d
 2628 0f07 0B050000 		.4byte	.LASF178
 2629 0f0b 01       		.byte	0x1
 2630 0f0c AC02     		.2byte	0x2ac
 2631 0f0e 96090000 		.4byte	0x996
 2632 0f12 01       		.uleb128 0x1
 2633 0f13 50       		.byte	0x50
 2634 0f14 00       		.byte	0
 2635 0f15 35       		.uleb128 0x35
 2636 0f16 2F000000 		.4byte	.LASF188
 2637 0f1a 01       		.byte	0x1
 2638 0f1b BE02     		.2byte	0x2be
 2639 0f1d 00000000 		.4byte	.LFB265
 2640 0f21 3E000000 		.4byte	.LFE265-.LFB265
 2641 0f25 01       		.uleb128 0x1
 2642 0f26 9C       		.byte	0x9c
 2643 0f27 4C0F0000 		.4byte	0xf4c
 2644 0f2b 37       		.uleb128 0x37
 2645 0f2c 0B050000 		.4byte	.LASF178
 2646 0f30 01       		.byte	0x1
 2647 0f31 BE02     		.2byte	0x2be
 2648 0f33 96090000 		.4byte	0x996
 2649 0f37 2C020000 		.4byte	.LLST9
 2650 0f3b 3E       		.uleb128 0x3e
 2651 0f3c 95090000 		.4byte	.LASF170
 2652 0f40 01       		.byte	0x1
 2653 0f41 BF02     		.2byte	0x2bf
 2654 0f43 B8000000 		.4byte	0xb8
 2655 0f47 4D020000 		.4byte	.LLST10
 2656 0f4b 00       		.byte	0
 2657 0f4c 35       		.uleb128 0x35
 2658 0f4d B8030000 		.4byte	.LASF189
 2659 0f51 01       		.byte	0x1
 2660 0f52 EC02     		.2byte	0x2ec
 2661 0f54 00000000 		.4byte	.LFB266
 2662 0f58 0C000000 		.4byte	.LFE266-.LFB266
 2663 0f5c 01       		.uleb128 0x1
 2664 0f5d 9C       		.byte	0x9c
 2665 0f5e 710F0000 		.4byte	0xf71
 2666 0f62 3D       		.uleb128 0x3d
 2667 0f63 0B050000 		.4byte	.LASF178
 2668 0f67 01       		.byte	0x1
 2669 0f68 EC02     		.2byte	0x2ec
 2670 0f6a 96090000 		.4byte	0x996
 2671 0f6e 01       		.uleb128 0x1
 2672 0f6f 50       		.byte	0x50
 2673 0f70 00       		.byte	0
 2674 0f71 3F       		.uleb128 0x3f
 2675 0f72 05010000 		.4byte	.LASF190
ARM GAS  /tmp/ccMLGXk8.s 			page 48


 2676 0f76 13       		.byte	0x13
 2677 0f77 A706     		.2byte	0x6a7
 2678 0f79 CE000000 		.4byte	0xce
 2679 0f7d 40       		.uleb128 0x40
 2680 0f7e 636800   		.ascii	"ch\000"
 2681 0f81 08       		.byte	0x8
 2682 0f82 0902     		.2byte	0x209
 2683 0f84 0D040000 		.4byte	0x40d
 2684 0f88 41       		.uleb128 0x41
 2685 0f89 7B060000 		.4byte	.LASF191
 2686 0f8d 01       		.byte	0x1
 2687 0f8e 3E       		.byte	0x3e
 2688 0f8f 13090000 		.4byte	0x913
 2689 0f93 05       		.uleb128 0x5
 2690 0f94 03       		.byte	0x3
 2691 0f95 00000000 		.4byte	ICUD3
 2692 0f99 42       		.uleb128 0x42
 2693 0f9a 0A030000 		.4byte	.LASF199
 2694 0f9e 0B       		.byte	0xb
 2695 0f9f 6601     		.2byte	0x166
 2696 0fa1 43       		.uleb128 0x43
 2697 0fa2 32060000 		.4byte	.LASF192
 2698 0fa6 0F       		.byte	0xf
 2699 0fa7 DE       		.byte	0xde
 2700 0fa8 B20F0000 		.4byte	0xfb2
 2701 0fac 0D       		.uleb128 0xd
 2702 0fad 96090000 		.4byte	0x996
 2703 0fb1 00       		.byte	0
 2704 0fb2 43       		.uleb128 0x43
 2705 0fb3 45010000 		.4byte	.LASF193
 2706 0fb7 14       		.byte	0x14
 2707 0fb8 4E       		.byte	0x4e
 2708 0fb9 C80F0000 		.4byte	0xfc8
 2709 0fbd 0D       		.uleb128 0xd
 2710 0fbe B8000000 		.4byte	0xb8
 2711 0fc2 0D       		.uleb128 0xd
 2712 0fc3 B8000000 		.4byte	0xb8
 2713 0fc7 00       		.byte	0
 2714 0fc8 44       		.uleb128 0x44
 2715 0fc9 5F020000 		.4byte	.LASF200
 2716 0fcd 14       		.byte	0x14
 2717 0fce 4F       		.byte	0x4f
 2718 0fcf 0D       		.uleb128 0xd
 2719 0fd0 B8000000 		.4byte	0xb8
 2720 0fd4 00       		.byte	0
 2721 0fd5 00       		.byte	0
 2722              		.section	.debug_abbrev,"",%progbits
 2723              	.Ldebug_abbrev0:
 2724 0000 01       		.uleb128 0x1
 2725 0001 11       		.uleb128 0x11
 2726 0002 01       		.byte	0x1
 2727 0003 25       		.uleb128 0x25
 2728 0004 0E       		.uleb128 0xe
 2729 0005 13       		.uleb128 0x13
 2730 0006 0B       		.uleb128 0xb
 2731 0007 03       		.uleb128 0x3
 2732 0008 0E       		.uleb128 0xe
ARM GAS  /tmp/ccMLGXk8.s 			page 49


 2733 0009 1B       		.uleb128 0x1b
 2734 000a 0E       		.uleb128 0xe
 2735 000b 55       		.uleb128 0x55
 2736 000c 17       		.uleb128 0x17
 2737 000d 11       		.uleb128 0x11
 2738 000e 01       		.uleb128 0x1
 2739 000f 10       		.uleb128 0x10
 2740 0010 17       		.uleb128 0x17
 2741 0011 00       		.byte	0
 2742 0012 00       		.byte	0
 2743 0013 02       		.uleb128 0x2
 2744 0014 24       		.uleb128 0x24
 2745 0015 00       		.byte	0
 2746 0016 0B       		.uleb128 0xb
 2747 0017 0B       		.uleb128 0xb
 2748 0018 3E       		.uleb128 0x3e
 2749 0019 0B       		.uleb128 0xb
 2750 001a 03       		.uleb128 0x3
 2751 001b 0E       		.uleb128 0xe
 2752 001c 00       		.byte	0
 2753 001d 00       		.byte	0
 2754 001e 03       		.uleb128 0x3
 2755 001f 24       		.uleb128 0x24
 2756 0020 00       		.byte	0
 2757 0021 0B       		.uleb128 0xb
 2758 0022 0B       		.uleb128 0xb
 2759 0023 3E       		.uleb128 0x3e
 2760 0024 0B       		.uleb128 0xb
 2761 0025 03       		.uleb128 0x3
 2762 0026 08       		.uleb128 0x8
 2763 0027 00       		.byte	0
 2764 0028 00       		.byte	0
 2765 0029 04       		.uleb128 0x4
 2766 002a 16       		.uleb128 0x16
 2767 002b 00       		.byte	0
 2768 002c 03       		.uleb128 0x3
 2769 002d 0E       		.uleb128 0xe
 2770 002e 3A       		.uleb128 0x3a
 2771 002f 0B       		.uleb128 0xb
 2772 0030 3B       		.uleb128 0x3b
 2773 0031 0B       		.uleb128 0xb
 2774 0032 49       		.uleb128 0x49
 2775 0033 13       		.uleb128 0x13
 2776 0034 00       		.byte	0
 2777 0035 00       		.byte	0
 2778 0036 05       		.uleb128 0x5
 2779 0037 35       		.uleb128 0x35
 2780 0038 00       		.byte	0
 2781 0039 49       		.uleb128 0x49
 2782 003a 13       		.uleb128 0x13
 2783 003b 00       		.byte	0
 2784 003c 00       		.byte	0
 2785 003d 06       		.uleb128 0x6
 2786 003e 13       		.uleb128 0x13
 2787 003f 01       		.byte	0x1
 2788 0040 03       		.uleb128 0x3
 2789 0041 0E       		.uleb128 0xe
ARM GAS  /tmp/ccMLGXk8.s 			page 50


 2790 0042 0B       		.uleb128 0xb
 2791 0043 0B       		.uleb128 0xb
 2792 0044 3A       		.uleb128 0x3a
 2793 0045 0B       		.uleb128 0xb
 2794 0046 3B       		.uleb128 0x3b
 2795 0047 0B       		.uleb128 0xb
 2796 0048 01       		.uleb128 0x1
 2797 0049 13       		.uleb128 0x13
 2798 004a 00       		.byte	0
 2799 004b 00       		.byte	0
 2800 004c 07       		.uleb128 0x7
 2801 004d 0D       		.uleb128 0xd
 2802 004e 00       		.byte	0
 2803 004f 03       		.uleb128 0x3
 2804 0050 0E       		.uleb128 0xe
 2805 0051 3A       		.uleb128 0x3a
 2806 0052 0B       		.uleb128 0xb
 2807 0053 3B       		.uleb128 0x3b
 2808 0054 0B       		.uleb128 0xb
 2809 0055 49       		.uleb128 0x49
 2810 0056 13       		.uleb128 0x13
 2811 0057 38       		.uleb128 0x38
 2812 0058 0B       		.uleb128 0xb
 2813 0059 00       		.byte	0
 2814 005a 00       		.byte	0
 2815 005b 08       		.uleb128 0x8
 2816 005c 0D       		.uleb128 0xd
 2817 005d 00       		.byte	0
 2818 005e 03       		.uleb128 0x3
 2819 005f 08       		.uleb128 0x8
 2820 0060 3A       		.uleb128 0x3a
 2821 0061 0B       		.uleb128 0xb
 2822 0062 3B       		.uleb128 0x3b
 2823 0063 05       		.uleb128 0x5
 2824 0064 49       		.uleb128 0x49
 2825 0065 13       		.uleb128 0x13
 2826 0066 38       		.uleb128 0x38
 2827 0067 0B       		.uleb128 0xb
 2828 0068 00       		.byte	0
 2829 0069 00       		.byte	0
 2830 006a 09       		.uleb128 0x9
 2831 006b 0D       		.uleb128 0xd
 2832 006c 00       		.byte	0
 2833 006d 03       		.uleb128 0x3
 2834 006e 0E       		.uleb128 0xe
 2835 006f 3A       		.uleb128 0x3a
 2836 0070 0B       		.uleb128 0xb
 2837 0071 3B       		.uleb128 0x3b
 2838 0072 05       		.uleb128 0x5
 2839 0073 49       		.uleb128 0x49
 2840 0074 13       		.uleb128 0x13
 2841 0075 38       		.uleb128 0x38
 2842 0076 0B       		.uleb128 0xb
 2843 0077 00       		.byte	0
 2844 0078 00       		.byte	0
 2845 0079 0A       		.uleb128 0xa
 2846 007a 0F       		.uleb128 0xf
ARM GAS  /tmp/ccMLGXk8.s 			page 51


 2847 007b 00       		.byte	0
 2848 007c 0B       		.uleb128 0xb
 2849 007d 0B       		.uleb128 0xb
 2850 007e 49       		.uleb128 0x49
 2851 007f 13       		.uleb128 0x13
 2852 0080 00       		.byte	0
 2853 0081 00       		.byte	0
 2854 0082 0B       		.uleb128 0xb
 2855 0083 13       		.uleb128 0x13
 2856 0084 01       		.byte	0x1
 2857 0085 03       		.uleb128 0x3
 2858 0086 0E       		.uleb128 0xe
 2859 0087 0B       		.uleb128 0xb
 2860 0088 0B       		.uleb128 0xb
 2861 0089 3A       		.uleb128 0x3a
 2862 008a 0B       		.uleb128 0xb
 2863 008b 3B       		.uleb128 0x3b
 2864 008c 05       		.uleb128 0x5
 2865 008d 01       		.uleb128 0x1
 2866 008e 13       		.uleb128 0x13
 2867 008f 00       		.byte	0
 2868 0090 00       		.byte	0
 2869 0091 0C       		.uleb128 0xc
 2870 0092 15       		.uleb128 0x15
 2871 0093 01       		.byte	0x1
 2872 0094 27       		.uleb128 0x27
 2873 0095 19       		.uleb128 0x19
 2874 0096 01       		.uleb128 0x1
 2875 0097 13       		.uleb128 0x13
 2876 0098 00       		.byte	0
 2877 0099 00       		.byte	0
 2878 009a 0D       		.uleb128 0xd
 2879 009b 05       		.uleb128 0x5
 2880 009c 00       		.byte	0
 2881 009d 49       		.uleb128 0x49
 2882 009e 13       		.uleb128 0x13
 2883 009f 00       		.byte	0
 2884 00a0 00       		.byte	0
 2885 00a1 0E       		.uleb128 0xe
 2886 00a2 0F       		.uleb128 0xf
 2887 00a3 00       		.byte	0
 2888 00a4 0B       		.uleb128 0xb
 2889 00a5 0B       		.uleb128 0xb
 2890 00a6 00       		.byte	0
 2891 00a7 00       		.byte	0
 2892 00a8 0F       		.uleb128 0xf
 2893 00a9 13       		.uleb128 0x13
 2894 00aa 01       		.byte	0x1
 2895 00ab 03       		.uleb128 0x3
 2896 00ac 0E       		.uleb128 0xe
 2897 00ad 0B       		.uleb128 0xb
 2898 00ae 05       		.uleb128 0x5
 2899 00af 3A       		.uleb128 0x3a
 2900 00b0 0B       		.uleb128 0xb
 2901 00b1 3B       		.uleb128 0x3b
 2902 00b2 05       		.uleb128 0x5
 2903 00b3 01       		.uleb128 0x1
ARM GAS  /tmp/ccMLGXk8.s 			page 52


 2904 00b4 13       		.uleb128 0x13
 2905 00b5 00       		.byte	0
 2906 00b6 00       		.byte	0
 2907 00b7 10       		.uleb128 0x10
 2908 00b8 01       		.uleb128 0x1
 2909 00b9 01       		.byte	0x1
 2910 00ba 49       		.uleb128 0x49
 2911 00bb 13       		.uleb128 0x13
 2912 00bc 01       		.uleb128 0x1
 2913 00bd 13       		.uleb128 0x13
 2914 00be 00       		.byte	0
 2915 00bf 00       		.byte	0
 2916 00c0 11       		.uleb128 0x11
 2917 00c1 21       		.uleb128 0x21
 2918 00c2 00       		.byte	0
 2919 00c3 49       		.uleb128 0x49
 2920 00c4 13       		.uleb128 0x13
 2921 00c5 2F       		.uleb128 0x2f
 2922 00c6 0B       		.uleb128 0xb
 2923 00c7 00       		.byte	0
 2924 00c8 00       		.byte	0
 2925 00c9 12       		.uleb128 0x12
 2926 00ca 13       		.uleb128 0x13
 2927 00cb 01       		.byte	0x1
 2928 00cc 0B       		.uleb128 0xb
 2929 00cd 0B       		.uleb128 0xb
 2930 00ce 3A       		.uleb128 0x3a
 2931 00cf 0B       		.uleb128 0xb
 2932 00d0 3B       		.uleb128 0x3b
 2933 00d1 05       		.uleb128 0x5
 2934 00d2 01       		.uleb128 0x1
 2935 00d3 13       		.uleb128 0x13
 2936 00d4 00       		.byte	0
 2937 00d5 00       		.byte	0
 2938 00d6 13       		.uleb128 0x13
 2939 00d7 16       		.uleb128 0x16
 2940 00d8 00       		.byte	0
 2941 00d9 03       		.uleb128 0x3
 2942 00da 0E       		.uleb128 0xe
 2943 00db 3A       		.uleb128 0x3a
 2944 00dc 0B       		.uleb128 0xb
 2945 00dd 3B       		.uleb128 0x3b
 2946 00de 05       		.uleb128 0x5
 2947 00df 49       		.uleb128 0x49
 2948 00e0 13       		.uleb128 0x13
 2949 00e1 00       		.byte	0
 2950 00e2 00       		.byte	0
 2951 00e3 14       		.uleb128 0x14
 2952 00e4 0D       		.uleb128 0xd
 2953 00e5 00       		.byte	0
 2954 00e6 03       		.uleb128 0x3
 2955 00e7 08       		.uleb128 0x8
 2956 00e8 3A       		.uleb128 0x3a
 2957 00e9 0B       		.uleb128 0xb
 2958 00ea 3B       		.uleb128 0x3b
 2959 00eb 0B       		.uleb128 0xb
 2960 00ec 49       		.uleb128 0x49
ARM GAS  /tmp/ccMLGXk8.s 			page 53


 2961 00ed 13       		.uleb128 0x13
 2962 00ee 38       		.uleb128 0x38
 2963 00ef 0B       		.uleb128 0xb
 2964 00f0 00       		.byte	0
 2965 00f1 00       		.byte	0
 2966 00f2 15       		.uleb128 0x15
 2967 00f3 13       		.uleb128 0x13
 2968 00f4 01       		.byte	0x1
 2969 00f5 0B       		.uleb128 0xb
 2970 00f6 0B       		.uleb128 0xb
 2971 00f7 3A       		.uleb128 0x3a
 2972 00f8 0B       		.uleb128 0xb
 2973 00f9 3B       		.uleb128 0x3b
 2974 00fa 0B       		.uleb128 0xb
 2975 00fb 01       		.uleb128 0x1
 2976 00fc 13       		.uleb128 0x13
 2977 00fd 00       		.byte	0
 2978 00fe 00       		.byte	0
 2979 00ff 16       		.uleb128 0x16
 2980 0100 17       		.uleb128 0x17
 2981 0101 01       		.byte	0x1
 2982 0102 0B       		.uleb128 0xb
 2983 0103 0B       		.uleb128 0xb
 2984 0104 3A       		.uleb128 0x3a
 2985 0105 0B       		.uleb128 0xb
 2986 0106 3B       		.uleb128 0x3b
 2987 0107 0B       		.uleb128 0xb
 2988 0108 01       		.uleb128 0x1
 2989 0109 13       		.uleb128 0x13
 2990 010a 00       		.byte	0
 2991 010b 00       		.byte	0
 2992 010c 17       		.uleb128 0x17
 2993 010d 0D       		.uleb128 0xd
 2994 010e 00       		.byte	0
 2995 010f 03       		.uleb128 0x3
 2996 0110 0E       		.uleb128 0xe
 2997 0111 3A       		.uleb128 0x3a
 2998 0112 0B       		.uleb128 0xb
 2999 0113 3B       		.uleb128 0x3b
 3000 0114 05       		.uleb128 0x5
 3001 0115 49       		.uleb128 0x49
 3002 0116 13       		.uleb128 0x13
 3003 0117 00       		.byte	0
 3004 0118 00       		.byte	0
 3005 0119 18       		.uleb128 0x18
 3006 011a 26       		.uleb128 0x26
 3007 011b 00       		.byte	0
 3008 011c 49       		.uleb128 0x49
 3009 011d 13       		.uleb128 0x13
 3010 011e 00       		.byte	0
 3011 011f 00       		.byte	0
 3012 0120 19       		.uleb128 0x19
 3013 0121 04       		.uleb128 0x4
 3014 0122 01       		.byte	0x1
 3015 0123 0B       		.uleb128 0xb
 3016 0124 0B       		.uleb128 0xb
 3017 0125 3A       		.uleb128 0x3a
ARM GAS  /tmp/ccMLGXk8.s 			page 54


 3018 0126 0B       		.uleb128 0xb
 3019 0127 3B       		.uleb128 0x3b
 3020 0128 0B       		.uleb128 0xb
 3021 0129 01       		.uleb128 0x1
 3022 012a 13       		.uleb128 0x13
 3023 012b 00       		.byte	0
 3024 012c 00       		.byte	0
 3025 012d 1A       		.uleb128 0x1a
 3026 012e 28       		.uleb128 0x28
 3027 012f 00       		.byte	0
 3028 0130 03       		.uleb128 0x3
 3029 0131 0E       		.uleb128 0xe
 3030 0132 1C       		.uleb128 0x1c
 3031 0133 0D       		.uleb128 0xd
 3032 0134 00       		.byte	0
 3033 0135 00       		.byte	0
 3034 0136 1B       		.uleb128 0x1b
 3035 0137 2E       		.uleb128 0x2e
 3036 0138 01       		.byte	0x1
 3037 0139 03       		.uleb128 0x3
 3038 013a 0E       		.uleb128 0xe
 3039 013b 3A       		.uleb128 0x3a
 3040 013c 0B       		.uleb128 0xb
 3041 013d 3B       		.uleb128 0x3b
 3042 013e 05       		.uleb128 0x5
 3043 013f 27       		.uleb128 0x27
 3044 0140 19       		.uleb128 0x19
 3045 0141 20       		.uleb128 0x20
 3046 0142 0B       		.uleb128 0xb
 3047 0143 01       		.uleb128 0x1
 3048 0144 13       		.uleb128 0x13
 3049 0145 00       		.byte	0
 3050 0146 00       		.byte	0
 3051 0147 1C       		.uleb128 0x1c
 3052 0148 05       		.uleb128 0x5
 3053 0149 00       		.byte	0
 3054 014a 03       		.uleb128 0x3
 3055 014b 0E       		.uleb128 0xe
 3056 014c 3A       		.uleb128 0x3a
 3057 014d 0B       		.uleb128 0xb
 3058 014e 3B       		.uleb128 0x3b
 3059 014f 05       		.uleb128 0x5
 3060 0150 49       		.uleb128 0x49
 3061 0151 13       		.uleb128 0x13
 3062 0152 00       		.byte	0
 3063 0153 00       		.byte	0
 3064 0154 1D       		.uleb128 0x1d
 3065 0155 2E       		.uleb128 0x2e
 3066 0156 00       		.byte	0
 3067 0157 03       		.uleb128 0x3
 3068 0158 0E       		.uleb128 0xe
 3069 0159 3A       		.uleb128 0x3a
 3070 015a 0B       		.uleb128 0xb
 3071 015b 3B       		.uleb128 0x3b
 3072 015c 05       		.uleb128 0x5
 3073 015d 27       		.uleb128 0x27
 3074 015e 19       		.uleb128 0x19
ARM GAS  /tmp/ccMLGXk8.s 			page 55


 3075 015f 20       		.uleb128 0x20
 3076 0160 0B       		.uleb128 0xb
 3077 0161 00       		.byte	0
 3078 0162 00       		.byte	0
 3079 0163 1E       		.uleb128 0x1e
 3080 0164 34       		.uleb128 0x34
 3081 0165 00       		.byte	0
 3082 0166 03       		.uleb128 0x3
 3083 0167 0E       		.uleb128 0xe
 3084 0168 49       		.uleb128 0x49
 3085 0169 13       		.uleb128 0x13
 3086 016a 34       		.uleb128 0x34
 3087 016b 19       		.uleb128 0x19
 3088 016c 1C       		.uleb128 0x1c
 3089 016d 0E       		.uleb128 0xe
 3090 016e 00       		.byte	0
 3091 016f 00       		.byte	0
 3092 0170 1F       		.uleb128 0x1f
 3093 0171 2E       		.uleb128 0x2e
 3094 0172 01       		.byte	0x1
 3095 0173 03       		.uleb128 0x3
 3096 0174 0E       		.uleb128 0xe
 3097 0175 3A       		.uleb128 0x3a
 3098 0176 0B       		.uleb128 0xb
 3099 0177 3B       		.uleb128 0x3b
 3100 0178 0B       		.uleb128 0xb
 3101 0179 27       		.uleb128 0x27
 3102 017a 19       		.uleb128 0x19
 3103 017b 49       		.uleb128 0x49
 3104 017c 13       		.uleb128 0x13
 3105 017d 20       		.uleb128 0x20
 3106 017e 0B       		.uleb128 0xb
 3107 017f 01       		.uleb128 0x1
 3108 0180 13       		.uleb128 0x13
 3109 0181 00       		.byte	0
 3110 0182 00       		.byte	0
 3111 0183 20       		.uleb128 0x20
 3112 0184 05       		.uleb128 0x5
 3113 0185 00       		.byte	0
 3114 0186 03       		.uleb128 0x3
 3115 0187 0E       		.uleb128 0xe
 3116 0188 3A       		.uleb128 0x3a
 3117 0189 0B       		.uleb128 0xb
 3118 018a 3B       		.uleb128 0x3b
 3119 018b 0B       		.uleb128 0xb
 3120 018c 49       		.uleb128 0x49
 3121 018d 13       		.uleb128 0x13
 3122 018e 00       		.byte	0
 3123 018f 00       		.byte	0
 3124 0190 21       		.uleb128 0x21
 3125 0191 34       		.uleb128 0x34
 3126 0192 00       		.byte	0
 3127 0193 03       		.uleb128 0x3
 3128 0194 08       		.uleb128 0x8
 3129 0195 3A       		.uleb128 0x3a
 3130 0196 0B       		.uleb128 0xb
 3131 0197 3B       		.uleb128 0x3b
ARM GAS  /tmp/ccMLGXk8.s 			page 56


 3132 0198 0B       		.uleb128 0xb
 3133 0199 49       		.uleb128 0x49
 3134 019a 13       		.uleb128 0x13
 3135 019b 00       		.byte	0
 3136 019c 00       		.byte	0
 3137 019d 22       		.uleb128 0x22
 3138 019e 34       		.uleb128 0x34
 3139 019f 00       		.byte	0
 3140 01a0 03       		.uleb128 0x3
 3141 01a1 0E       		.uleb128 0xe
 3142 01a2 3A       		.uleb128 0x3a
 3143 01a3 0B       		.uleb128 0xb
 3144 01a4 3B       		.uleb128 0x3b
 3145 01a5 0B       		.uleb128 0xb
 3146 01a6 49       		.uleb128 0x49
 3147 01a7 13       		.uleb128 0x13
 3148 01a8 00       		.byte	0
 3149 01a9 00       		.byte	0
 3150 01aa 23       		.uleb128 0x23
 3151 01ab 2E       		.uleb128 0x2e
 3152 01ac 01       		.byte	0x1
 3153 01ad 03       		.uleb128 0x3
 3154 01ae 0E       		.uleb128 0xe
 3155 01af 3A       		.uleb128 0x3a
 3156 01b0 0B       		.uleb128 0xb
 3157 01b1 3B       		.uleb128 0x3b
 3158 01b2 0B       		.uleb128 0xb
 3159 01b3 27       		.uleb128 0x27
 3160 01b4 19       		.uleb128 0x19
 3161 01b5 20       		.uleb128 0x20
 3162 01b6 0B       		.uleb128 0xb
 3163 01b7 01       		.uleb128 0x1
 3164 01b8 13       		.uleb128 0x13
 3165 01b9 00       		.byte	0
 3166 01ba 00       		.byte	0
 3167 01bb 24       		.uleb128 0x24
 3168 01bc 2E       		.uleb128 0x2e
 3169 01bd 01       		.byte	0x1
 3170 01be 31       		.uleb128 0x31
 3171 01bf 13       		.uleb128 0x13
 3172 01c0 11       		.uleb128 0x11
 3173 01c1 01       		.uleb128 0x1
 3174 01c2 12       		.uleb128 0x12
 3175 01c3 06       		.uleb128 0x6
 3176 01c4 40       		.uleb128 0x40
 3177 01c5 18       		.uleb128 0x18
 3178 01c6 9742     		.uleb128 0x2117
 3179 01c8 19       		.uleb128 0x19
 3180 01c9 01       		.uleb128 0x1
 3181 01ca 13       		.uleb128 0x13
 3182 01cb 00       		.byte	0
 3183 01cc 00       		.byte	0
 3184 01cd 25       		.uleb128 0x25
 3185 01ce 05       		.uleb128 0x5
 3186 01cf 00       		.byte	0
 3187 01d0 31       		.uleb128 0x31
 3188 01d1 13       		.uleb128 0x13
ARM GAS  /tmp/ccMLGXk8.s 			page 57


 3189 01d2 02       		.uleb128 0x2
 3190 01d3 18       		.uleb128 0x18
 3191 01d4 00       		.byte	0
 3192 01d5 00       		.byte	0
 3193 01d6 26       		.uleb128 0x26
 3194 01d7 34       		.uleb128 0x34
 3195 01d8 00       		.byte	0
 3196 01d9 31       		.uleb128 0x31
 3197 01da 13       		.uleb128 0x13
 3198 01db 02       		.uleb128 0x2
 3199 01dc 17       		.uleb128 0x17
 3200 01dd 00       		.byte	0
 3201 01de 00       		.byte	0
 3202 01df 27       		.uleb128 0x27
 3203 01e0 1D       		.uleb128 0x1d
 3204 01e1 01       		.byte	0x1
 3205 01e2 31       		.uleb128 0x31
 3206 01e3 13       		.uleb128 0x13
 3207 01e4 11       		.uleb128 0x11
 3208 01e5 01       		.uleb128 0x1
 3209 01e6 12       		.uleb128 0x12
 3210 01e7 06       		.uleb128 0x6
 3211 01e8 58       		.uleb128 0x58
 3212 01e9 0B       		.uleb128 0xb
 3213 01ea 59       		.uleb128 0x59
 3214 01eb 0B       		.uleb128 0xb
 3215 01ec 01       		.uleb128 0x1
 3216 01ed 13       		.uleb128 0x13
 3217 01ee 00       		.byte	0
 3218 01ef 00       		.byte	0
 3219 01f0 28       		.uleb128 0x28
 3220 01f1 0B       		.uleb128 0xb
 3221 01f2 01       		.byte	0x1
 3222 01f3 11       		.uleb128 0x11
 3223 01f4 01       		.uleb128 0x1
 3224 01f5 12       		.uleb128 0x12
 3225 01f6 06       		.uleb128 0x6
 3226 01f7 00       		.byte	0
 3227 01f8 00       		.byte	0
 3228 01f9 29       		.uleb128 0x29
 3229 01fa 34       		.uleb128 0x34
 3230 01fb 00       		.byte	0
 3231 01fc 31       		.uleb128 0x31
 3232 01fd 13       		.uleb128 0x13
 3233 01fe 00       		.byte	0
 3234 01ff 00       		.byte	0
 3235 0200 2A       		.uleb128 0x2a
 3236 0201 1D       		.uleb128 0x1d
 3237 0202 01       		.byte	0x1
 3238 0203 31       		.uleb128 0x31
 3239 0204 13       		.uleb128 0x13
 3240 0205 11       		.uleb128 0x11
 3241 0206 01       		.uleb128 0x1
 3242 0207 12       		.uleb128 0x12
 3243 0208 06       		.uleb128 0x6
 3244 0209 58       		.uleb128 0x58
 3245 020a 0B       		.uleb128 0xb
ARM GAS  /tmp/ccMLGXk8.s 			page 58


 3246 020b 59       		.uleb128 0x59
 3247 020c 05       		.uleb128 0x5
 3248 020d 00       		.byte	0
 3249 020e 00       		.byte	0
 3250 020f 2B       		.uleb128 0x2b
 3251 0210 05       		.uleb128 0x5
 3252 0211 00       		.byte	0
 3253 0212 31       		.uleb128 0x31
 3254 0213 13       		.uleb128 0x13
 3255 0214 1C       		.uleb128 0x1c
 3256 0215 0B       		.uleb128 0xb
 3257 0216 00       		.byte	0
 3258 0217 00       		.byte	0
 3259 0218 2C       		.uleb128 0x2c
 3260 0219 1D       		.uleb128 0x1d
 3261 021a 01       		.byte	0x1
 3262 021b 31       		.uleb128 0x31
 3263 021c 13       		.uleb128 0x13
 3264 021d 11       		.uleb128 0x11
 3265 021e 01       		.uleb128 0x1
 3266 021f 12       		.uleb128 0x12
 3267 0220 06       		.uleb128 0x6
 3268 0221 58       		.uleb128 0x58
 3269 0222 0B       		.uleb128 0xb
 3270 0223 59       		.uleb128 0x59
 3271 0224 0B       		.uleb128 0xb
 3272 0225 00       		.byte	0
 3273 0226 00       		.byte	0
 3274 0227 2D       		.uleb128 0x2d
 3275 0228 05       		.uleb128 0x5
 3276 0229 00       		.byte	0
 3277 022a 31       		.uleb128 0x31
 3278 022b 13       		.uleb128 0x13
 3279 022c 02       		.uleb128 0x2
 3280 022d 17       		.uleb128 0x17
 3281 022e 00       		.byte	0
 3282 022f 00       		.byte	0
 3283 0230 2E       		.uleb128 0x2e
 3284 0231 2E       		.uleb128 0x2e
 3285 0232 01       		.byte	0x1
 3286 0233 3F       		.uleb128 0x3f
 3287 0234 19       		.uleb128 0x19
 3288 0235 03       		.uleb128 0x3
 3289 0236 0E       		.uleb128 0xe
 3290 0237 3A       		.uleb128 0x3a
 3291 0238 0B       		.uleb128 0xb
 3292 0239 3B       		.uleb128 0x3b
 3293 023a 0B       		.uleb128 0xb
 3294 023b 27       		.uleb128 0x27
 3295 023c 19       		.uleb128 0x19
 3296 023d 11       		.uleb128 0x11
 3297 023e 01       		.uleb128 0x1
 3298 023f 12       		.uleb128 0x12
 3299 0240 06       		.uleb128 0x6
 3300 0241 40       		.uleb128 0x40
 3301 0242 18       		.uleb128 0x18
 3302 0243 9742     		.uleb128 0x2117
ARM GAS  /tmp/ccMLGXk8.s 			page 59


 3303 0245 19       		.uleb128 0x19
 3304 0246 01       		.uleb128 0x1
 3305 0247 13       		.uleb128 0x13
 3306 0248 00       		.byte	0
 3307 0249 00       		.byte	0
 3308 024a 2F       		.uleb128 0x2f
 3309 024b 1D       		.uleb128 0x1d
 3310 024c 01       		.byte	0x1
 3311 024d 31       		.uleb128 0x31
 3312 024e 13       		.uleb128 0x13
 3313 024f 52       		.uleb128 0x52
 3314 0250 01       		.uleb128 0x1
 3315 0251 55       		.uleb128 0x55
 3316 0252 17       		.uleb128 0x17
 3317 0253 58       		.uleb128 0x58
 3318 0254 0B       		.uleb128 0xb
 3319 0255 59       		.uleb128 0x59
 3320 0256 0B       		.uleb128 0xb
 3321 0257 01       		.uleb128 0x1
 3322 0258 13       		.uleb128 0x13
 3323 0259 00       		.byte	0
 3324 025a 00       		.byte	0
 3325 025b 30       		.uleb128 0x30
 3326 025c 0B       		.uleb128 0xb
 3327 025d 01       		.byte	0x1
 3328 025e 55       		.uleb128 0x55
 3329 025f 17       		.uleb128 0x17
 3330 0260 00       		.byte	0
 3331 0261 00       		.byte	0
 3332 0262 31       		.uleb128 0x31
 3333 0263 898201   		.uleb128 0x4109
 3334 0266 01       		.byte	0x1
 3335 0267 11       		.uleb128 0x11
 3336 0268 01       		.uleb128 0x1
 3337 0269 01       		.uleb128 0x1
 3338 026a 13       		.uleb128 0x13
 3339 026b 00       		.byte	0
 3340 026c 00       		.byte	0
 3341 026d 32       		.uleb128 0x32
 3342 026e 8A8201   		.uleb128 0x410a
 3343 0271 00       		.byte	0
 3344 0272 02       		.uleb128 0x2
 3345 0273 18       		.uleb128 0x18
 3346 0274 9142     		.uleb128 0x2111
 3347 0276 18       		.uleb128 0x18
 3348 0277 00       		.byte	0
 3349 0278 00       		.byte	0
 3350 0279 33       		.uleb128 0x33
 3351 027a 898201   		.uleb128 0x4109
 3352 027d 01       		.byte	0x1
 3353 027e 11       		.uleb128 0x11
 3354 027f 01       		.uleb128 0x1
 3355 0280 00       		.byte	0
 3356 0281 00       		.byte	0
 3357 0282 34       		.uleb128 0x34
 3358 0283 898201   		.uleb128 0x4109
 3359 0286 00       		.byte	0
ARM GAS  /tmp/ccMLGXk8.s 			page 60


 3360 0287 11       		.uleb128 0x11
 3361 0288 01       		.uleb128 0x1
 3362 0289 9542     		.uleb128 0x2115
 3363 028b 19       		.uleb128 0x19
 3364 028c 31       		.uleb128 0x31
 3365 028d 13       		.uleb128 0x13
 3366 028e 00       		.byte	0
 3367 028f 00       		.byte	0
 3368 0290 35       		.uleb128 0x35
 3369 0291 2E       		.uleb128 0x2e
 3370 0292 01       		.byte	0x1
 3371 0293 3F       		.uleb128 0x3f
 3372 0294 19       		.uleb128 0x19
 3373 0295 03       		.uleb128 0x3
 3374 0296 0E       		.uleb128 0xe
 3375 0297 3A       		.uleb128 0x3a
 3376 0298 0B       		.uleb128 0xb
 3377 0299 3B       		.uleb128 0x3b
 3378 029a 05       		.uleb128 0x5
 3379 029b 27       		.uleb128 0x27
 3380 029c 19       		.uleb128 0x19
 3381 029d 11       		.uleb128 0x11
 3382 029e 01       		.uleb128 0x1
 3383 029f 12       		.uleb128 0x12
 3384 02a0 06       		.uleb128 0x6
 3385 02a1 40       		.uleb128 0x40
 3386 02a2 18       		.uleb128 0x18
 3387 02a3 9742     		.uleb128 0x2117
 3388 02a5 19       		.uleb128 0x19
 3389 02a6 01       		.uleb128 0x1
 3390 02a7 13       		.uleb128 0x13
 3391 02a8 00       		.byte	0
 3392 02a9 00       		.byte	0
 3393 02aa 36       		.uleb128 0x36
 3394 02ab 898201   		.uleb128 0x4109
 3395 02ae 01       		.byte	0x1
 3396 02af 11       		.uleb128 0x11
 3397 02b0 01       		.uleb128 0x1
 3398 02b1 31       		.uleb128 0x31
 3399 02b2 13       		.uleb128 0x13
 3400 02b3 00       		.byte	0
 3401 02b4 00       		.byte	0
 3402 02b5 37       		.uleb128 0x37
 3403 02b6 05       		.uleb128 0x5
 3404 02b7 00       		.byte	0
 3405 02b8 03       		.uleb128 0x3
 3406 02b9 0E       		.uleb128 0xe
 3407 02ba 3A       		.uleb128 0x3a
 3408 02bb 0B       		.uleb128 0xb
 3409 02bc 3B       		.uleb128 0x3b
 3410 02bd 05       		.uleb128 0x5
 3411 02be 49       		.uleb128 0x49
 3412 02bf 13       		.uleb128 0x13
 3413 02c0 02       		.uleb128 0x2
 3414 02c1 17       		.uleb128 0x17
 3415 02c2 00       		.byte	0
 3416 02c3 00       		.byte	0
ARM GAS  /tmp/ccMLGXk8.s 			page 61


 3417 02c4 38       		.uleb128 0x38
 3418 02c5 34       		.uleb128 0x34
 3419 02c6 00       		.byte	0
 3420 02c7 03       		.uleb128 0x3
 3421 02c8 08       		.uleb128 0x8
 3422 02c9 3A       		.uleb128 0x3a
 3423 02ca 0B       		.uleb128 0xb
 3424 02cb 3B       		.uleb128 0x3b
 3425 02cc 05       		.uleb128 0x5
 3426 02cd 49       		.uleb128 0x49
 3427 02ce 13       		.uleb128 0x13
 3428 02cf 02       		.uleb128 0x2
 3429 02d0 17       		.uleb128 0x17
 3430 02d1 00       		.byte	0
 3431 02d2 00       		.byte	0
 3432 02d3 39       		.uleb128 0x39
 3433 02d4 34       		.uleb128 0x34
 3434 02d5 00       		.byte	0
 3435 02d6 03       		.uleb128 0x3
 3436 02d7 0E       		.uleb128 0xe
 3437 02d8 49       		.uleb128 0x49
 3438 02d9 13       		.uleb128 0x13
 3439 02da 34       		.uleb128 0x34
 3440 02db 19       		.uleb128 0x19
 3441 02dc 00       		.byte	0
 3442 02dd 00       		.byte	0
 3443 02de 3A       		.uleb128 0x3a
 3444 02df 2E       		.uleb128 0x2e
 3445 02e0 01       		.byte	0x1
 3446 02e1 3F       		.uleb128 0x3f
 3447 02e2 19       		.uleb128 0x19
 3448 02e3 03       		.uleb128 0x3
 3449 02e4 0E       		.uleb128 0xe
 3450 02e5 3A       		.uleb128 0x3a
 3451 02e6 0B       		.uleb128 0xb
 3452 02e7 3B       		.uleb128 0x3b
 3453 02e8 05       		.uleb128 0x5
 3454 02e9 27       		.uleb128 0x27
 3455 02ea 19       		.uleb128 0x19
 3456 02eb 49       		.uleb128 0x49
 3457 02ec 13       		.uleb128 0x13
 3458 02ed 11       		.uleb128 0x11
 3459 02ee 01       		.uleb128 0x1
 3460 02ef 12       		.uleb128 0x12
 3461 02f0 06       		.uleb128 0x6
 3462 02f1 40       		.uleb128 0x40
 3463 02f2 18       		.uleb128 0x18
 3464 02f3 9742     		.uleb128 0x2117
 3465 02f5 19       		.uleb128 0x19
 3466 02f6 01       		.uleb128 0x1
 3467 02f7 13       		.uleb128 0x13
 3468 02f8 00       		.byte	0
 3469 02f9 00       		.byte	0
 3470 02fa 3B       		.uleb128 0x3b
 3471 02fb 898201   		.uleb128 0x4109
 3472 02fe 01       		.byte	0x1
 3473 02ff 11       		.uleb128 0x11
ARM GAS  /tmp/ccMLGXk8.s 			page 62


 3474 0300 01       		.uleb128 0x1
 3475 0301 9542     		.uleb128 0x2115
 3476 0303 19       		.uleb128 0x19
 3477 0304 31       		.uleb128 0x31
 3478 0305 13       		.uleb128 0x13
 3479 0306 01       		.uleb128 0x1
 3480 0307 13       		.uleb128 0x13
 3481 0308 00       		.byte	0
 3482 0309 00       		.byte	0
 3483 030a 3C       		.uleb128 0x3c
 3484 030b 8A8201   		.uleb128 0x410a
 3485 030e 00       		.byte	0
 3486 030f 31       		.uleb128 0x31
 3487 0310 13       		.uleb128 0x13
 3488 0311 9142     		.uleb128 0x2111
 3489 0313 18       		.uleb128 0x18
 3490 0314 00       		.byte	0
 3491 0315 00       		.byte	0
 3492 0316 3D       		.uleb128 0x3d
 3493 0317 05       		.uleb128 0x5
 3494 0318 00       		.byte	0
 3495 0319 03       		.uleb128 0x3
 3496 031a 0E       		.uleb128 0xe
 3497 031b 3A       		.uleb128 0x3a
 3498 031c 0B       		.uleb128 0xb
 3499 031d 3B       		.uleb128 0x3b
 3500 031e 05       		.uleb128 0x5
 3501 031f 49       		.uleb128 0x49
 3502 0320 13       		.uleb128 0x13
 3503 0321 02       		.uleb128 0x2
 3504 0322 18       		.uleb128 0x18
 3505 0323 00       		.byte	0
 3506 0324 00       		.byte	0
 3507 0325 3E       		.uleb128 0x3e
 3508 0326 34       		.uleb128 0x34
 3509 0327 00       		.byte	0
 3510 0328 03       		.uleb128 0x3
 3511 0329 0E       		.uleb128 0xe
 3512 032a 3A       		.uleb128 0x3a
 3513 032b 0B       		.uleb128 0xb
 3514 032c 3B       		.uleb128 0x3b
 3515 032d 05       		.uleb128 0x5
 3516 032e 49       		.uleb128 0x49
 3517 032f 13       		.uleb128 0x13
 3518 0330 02       		.uleb128 0x2
 3519 0331 17       		.uleb128 0x17
 3520 0332 00       		.byte	0
 3521 0333 00       		.byte	0
 3522 0334 3F       		.uleb128 0x3f
 3523 0335 34       		.uleb128 0x34
 3524 0336 00       		.byte	0
 3525 0337 03       		.uleb128 0x3
 3526 0338 0E       		.uleb128 0xe
 3527 0339 3A       		.uleb128 0x3a
 3528 033a 0B       		.uleb128 0xb
 3529 033b 3B       		.uleb128 0x3b
 3530 033c 05       		.uleb128 0x5
ARM GAS  /tmp/ccMLGXk8.s 			page 63


 3531 033d 49       		.uleb128 0x49
 3532 033e 13       		.uleb128 0x13
 3533 033f 3F       		.uleb128 0x3f
 3534 0340 19       		.uleb128 0x19
 3535 0341 3C       		.uleb128 0x3c
 3536 0342 19       		.uleb128 0x19
 3537 0343 00       		.byte	0
 3538 0344 00       		.byte	0
 3539 0345 40       		.uleb128 0x40
 3540 0346 34       		.uleb128 0x34
 3541 0347 00       		.byte	0
 3542 0348 03       		.uleb128 0x3
 3543 0349 08       		.uleb128 0x8
 3544 034a 3A       		.uleb128 0x3a
 3545 034b 0B       		.uleb128 0xb
 3546 034c 3B       		.uleb128 0x3b
 3547 034d 05       		.uleb128 0x5
 3548 034e 49       		.uleb128 0x49
 3549 034f 13       		.uleb128 0x13
 3550 0350 3F       		.uleb128 0x3f
 3551 0351 19       		.uleb128 0x19
 3552 0352 3C       		.uleb128 0x3c
 3553 0353 19       		.uleb128 0x19
 3554 0354 00       		.byte	0
 3555 0355 00       		.byte	0
 3556 0356 41       		.uleb128 0x41
 3557 0357 34       		.uleb128 0x34
 3558 0358 00       		.byte	0
 3559 0359 03       		.uleb128 0x3
 3560 035a 0E       		.uleb128 0xe
 3561 035b 3A       		.uleb128 0x3a
 3562 035c 0B       		.uleb128 0xb
 3563 035d 3B       		.uleb128 0x3b
 3564 035e 0B       		.uleb128 0xb
 3565 035f 49       		.uleb128 0x49
 3566 0360 13       		.uleb128 0x13
 3567 0361 3F       		.uleb128 0x3f
 3568 0362 19       		.uleb128 0x19
 3569 0363 02       		.uleb128 0x2
 3570 0364 18       		.uleb128 0x18
 3571 0365 00       		.byte	0
 3572 0366 00       		.byte	0
 3573 0367 42       		.uleb128 0x42
 3574 0368 2E       		.uleb128 0x2e
 3575 0369 00       		.byte	0
 3576 036a 3F       		.uleb128 0x3f
 3577 036b 19       		.uleb128 0x19
 3578 036c 03       		.uleb128 0x3
 3579 036d 0E       		.uleb128 0xe
 3580 036e 3A       		.uleb128 0x3a
 3581 036f 0B       		.uleb128 0xb
 3582 0370 3B       		.uleb128 0x3b
 3583 0371 05       		.uleb128 0x5
 3584 0372 27       		.uleb128 0x27
 3585 0373 19       		.uleb128 0x19
 3586 0374 3C       		.uleb128 0x3c
 3587 0375 19       		.uleb128 0x19
ARM GAS  /tmp/ccMLGXk8.s 			page 64


 3588 0376 00       		.byte	0
 3589 0377 00       		.byte	0
 3590 0378 43       		.uleb128 0x43
 3591 0379 2E       		.uleb128 0x2e
 3592 037a 01       		.byte	0x1
 3593 037b 3F       		.uleb128 0x3f
 3594 037c 19       		.uleb128 0x19
 3595 037d 03       		.uleb128 0x3
 3596 037e 0E       		.uleb128 0xe
 3597 037f 3A       		.uleb128 0x3a
 3598 0380 0B       		.uleb128 0xb
 3599 0381 3B       		.uleb128 0x3b
 3600 0382 0B       		.uleb128 0xb
 3601 0383 27       		.uleb128 0x27
 3602 0384 19       		.uleb128 0x19
 3603 0385 3C       		.uleb128 0x3c
 3604 0386 19       		.uleb128 0x19
 3605 0387 01       		.uleb128 0x1
 3606 0388 13       		.uleb128 0x13
 3607 0389 00       		.byte	0
 3608 038a 00       		.byte	0
 3609 038b 44       		.uleb128 0x44
 3610 038c 2E       		.uleb128 0x2e
 3611 038d 01       		.byte	0x1
 3612 038e 3F       		.uleb128 0x3f
 3613 038f 19       		.uleb128 0x19
 3614 0390 03       		.uleb128 0x3
 3615 0391 0E       		.uleb128 0xe
 3616 0392 3A       		.uleb128 0x3a
 3617 0393 0B       		.uleb128 0xb
 3618 0394 3B       		.uleb128 0x3b
 3619 0395 0B       		.uleb128 0xb
 3620 0396 27       		.uleb128 0x27
 3621 0397 19       		.uleb128 0x19
 3622 0398 3C       		.uleb128 0x3c
 3623 0399 19       		.uleb128 0x19
 3624 039a 00       		.byte	0
 3625 039b 00       		.byte	0
 3626 039c 00       		.byte	0
 3627              		.section	.debug_loc,"",%progbits
 3628              	.Ldebug_loc0:
 3629              	.LLST0:
 3630 0000 10000000 		.4byte	.LVL1
 3631 0004 26000000 		.4byte	.LVL3
 3632 0008 0100     		.2byte	0x1
 3633 000a 50       		.byte	0x50
 3634 000b 2E000000 		.4byte	.LVL5
 3635 000f 36000000 		.4byte	.LFE267
 3636 0013 0100     		.2byte	0x1
 3637 0015 50       		.byte	0x50
 3638 0016 00000000 		.4byte	0
 3639 001a 00000000 		.4byte	0
 3640              	.LLST1:
 3641 001e 14000000 		.4byte	.LVL2
 3642 0022 26000000 		.4byte	.LVL3
 3643 0026 0100     		.2byte	0x1
 3644 0028 50       		.byte	0x50
ARM GAS  /tmp/ccMLGXk8.s 			page 65


 3645 0029 00000000 		.4byte	0
 3646 002d 00000000 		.4byte	0
 3647              	.LLST2:
 3648 0031 14000000 		.4byte	.LVL2
 3649 0035 2A000000 		.4byte	.LVL4
 3650 0039 0300     		.2byte	0x3
 3651 003b 08       		.byte	0x8
 3652 003c 20       		.byte	0x20
 3653 003d 9F       		.byte	0x9f
 3654 003e 00000000 		.4byte	0
 3655 0042 00000000 		.4byte	0
 3656              	.LLST3:
 3657 0046 0A000000 		.4byte	.LVL7
 3658 004a 10000000 		.4byte	.LVL8
 3659 004e 0100     		.2byte	0x1
 3660 0050 52       		.byte	0x52
 3661 0051 10000000 		.4byte	.LVL8
 3662 0055 28000000 		.4byte	.LVL9
 3663 0059 0600     		.2byte	0x6
 3664 005b 74       		.byte	0x74
 3665 005c 00       		.sleb128 0
 3666 005d 08       		.byte	0x8
 3667 005e FF       		.byte	0xff
 3668 005f 1A       		.byte	0x1a
 3669 0060 9F       		.byte	0x9f
 3670 0061 3E000000 		.4byte	.LVL11
 3671 0065 9C000000 		.4byte	.LFE258
 3672 0069 0600     		.2byte	0x6
 3673 006b 74       		.byte	0x74
 3674 006c 00       		.sleb128 0
 3675 006d 08       		.byte	0x8
 3676 006e FF       		.byte	0xff
 3677 006f 1A       		.byte	0x1a
 3678 0070 9F       		.byte	0x9f
 3679 0071 00000000 		.4byte	0
 3680 0075 00000000 		.4byte	0
 3681              	.LLST4:
 3682 0079 00000000 		.4byte	.LVL16
 3683 007d 16000000 		.4byte	.LVL17
 3684 0081 0100     		.2byte	0x1
 3685 0083 50       		.byte	0x50
 3686 0084 16000000 		.4byte	.LVL17
 3687 0088 80000000 		.4byte	.LVL29
 3688 008c 0100     		.2byte	0x1
 3689 008e 54       		.byte	0x54
 3690 008f 80000000 		.4byte	.LVL29
 3691 0093 86000000 		.4byte	.LVL30
 3692 0097 0100     		.2byte	0x1
 3693 0099 50       		.byte	0x50
 3694 009a 86000000 		.4byte	.LVL30
 3695 009e 8A000000 		.4byte	.LVL31
 3696 00a2 0100     		.2byte	0x1
 3697 00a4 54       		.byte	0x54
 3698 00a5 8A000000 		.4byte	.LVL31
 3699 00a9 A0000000 		.4byte	.LVL32
 3700 00ad 0100     		.2byte	0x1
 3701 00af 50       		.byte	0x50
ARM GAS  /tmp/ccMLGXk8.s 			page 66


 3702 00b0 A0000000 		.4byte	.LVL32
 3703 00b4 BC000000 		.4byte	.LFE260
 3704 00b8 0100     		.2byte	0x1
 3705 00ba 54       		.byte	0x54
 3706 00bb 00000000 		.4byte	0
 3707 00bf 00000000 		.4byte	0
 3708              	.LLST5:
 3709 00c3 2A000000 		.4byte	.LVL18
 3710 00c7 3A000000 		.4byte	.LVL19
 3711 00cb 0100     		.2byte	0x1
 3712 00cd 52       		.byte	0x52
 3713 00ce 3A000000 		.4byte	.LVL19
 3714 00d2 42000000 		.4byte	.LVL20
 3715 00d6 1000     		.2byte	0x10
 3716 00d8 74       		.byte	0x74
 3717 00d9 08       		.sleb128 8
 3718 00da 06       		.byte	0x6
 3719 00db F7       		.byte	0xf7
 3720 00dc 25       		.uleb128 0x25
 3721 00dd 71       		.byte	0x71
 3722 00de 04       		.sleb128 4
 3723 00df 06       		.byte	0x6
 3724 00e0 F7       		.byte	0xf7
 3725 00e1 25       		.uleb128 0x25
 3726 00e2 1B       		.byte	0x1b
 3727 00e3 F7       		.byte	0xf7
 3728 00e4 00       		.uleb128 0
 3729 00e5 31       		.byte	0x31
 3730 00e6 1C       		.byte	0x1c
 3731 00e7 9F       		.byte	0x9f
 3732 00e8 42000000 		.4byte	.LVL20
 3733 00ec 4C000000 		.4byte	.LVL21
 3734 00f0 1300     		.2byte	0x13
 3735 00f2 74       		.byte	0x74
 3736 00f3 08       		.sleb128 8
 3737 00f4 06       		.byte	0x6
 3738 00f5 F7       		.byte	0xf7
 3739 00f6 25       		.uleb128 0x25
 3740 00f7 74       		.byte	0x74
 3741 00f8 04       		.sleb128 4
 3742 00f9 06       		.byte	0x6
 3743 00fa 23       		.byte	0x23
 3744 00fb 04       		.uleb128 0x4
 3745 00fc 06       		.byte	0x6
 3746 00fd F7       		.byte	0xf7
 3747 00fe 25       		.uleb128 0x25
 3748 00ff 1B       		.byte	0x1b
 3749 0100 F7       		.byte	0xf7
 3750 0101 00       		.uleb128 0
 3751 0102 31       		.byte	0x31
 3752 0103 1C       		.byte	0x1c
 3753 0104 9F       		.byte	0x9f
 3754 0105 58000000 		.4byte	.LVL22
 3755 0109 5E000000 		.4byte	.LVL23
 3756 010d 1000     		.2byte	0x10
 3757 010f 74       		.byte	0x74
 3758 0110 08       		.sleb128 8
ARM GAS  /tmp/ccMLGXk8.s 			page 67


 3759 0111 06       		.byte	0x6
 3760 0112 F7       		.byte	0xf7
 3761 0113 25       		.uleb128 0x25
 3762 0114 71       		.byte	0x71
 3763 0115 04       		.sleb128 4
 3764 0116 06       		.byte	0x6
 3765 0117 F7       		.byte	0xf7
 3766 0118 25       		.uleb128 0x25
 3767 0119 1B       		.byte	0x1b
 3768 011a F7       		.byte	0xf7
 3769 011b 00       		.uleb128 0
 3770 011c 31       		.byte	0x31
 3771 011d 1C       		.byte	0x1c
 3772 011e 9F       		.byte	0x9f
 3773 011f 5E000000 		.4byte	.LVL23
 3774 0123 68000000 		.4byte	.LVL24
 3775 0127 1300     		.2byte	0x13
 3776 0129 74       		.byte	0x74
 3777 012a 08       		.sleb128 8
 3778 012b 06       		.byte	0x6
 3779 012c F7       		.byte	0xf7
 3780 012d 25       		.uleb128 0x25
 3781 012e 74       		.byte	0x74
 3782 012f 04       		.sleb128 4
 3783 0130 06       		.byte	0x6
 3784 0131 23       		.byte	0x23
 3785 0132 04       		.uleb128 0x4
 3786 0133 06       		.byte	0x6
 3787 0134 F7       		.byte	0xf7
 3788 0135 25       		.uleb128 0x25
 3789 0136 1B       		.byte	0x1b
 3790 0137 F7       		.byte	0xf7
 3791 0138 00       		.uleb128 0
 3792 0139 31       		.byte	0x31
 3793 013a 1C       		.byte	0x1c
 3794 013b 9F       		.byte	0x9f
 3795 013c 74000000 		.4byte	.LVL25
 3796 0140 78000000 		.4byte	.LVL26
 3797 0144 1300     		.2byte	0x13
 3798 0146 74       		.byte	0x74
 3799 0147 08       		.sleb128 8
 3800 0148 06       		.byte	0x6
 3801 0149 F7       		.byte	0xf7
 3802 014a 25       		.uleb128 0x25
 3803 014b 74       		.byte	0x74
 3804 014c 04       		.sleb128 4
 3805 014d 06       		.byte	0x6
 3806 014e 23       		.byte	0x23
 3807 014f 04       		.uleb128 0x4
 3808 0150 06       		.byte	0x6
 3809 0151 F7       		.byte	0xf7
 3810 0152 25       		.uleb128 0x25
 3811 0153 1B       		.byte	0x1b
 3812 0154 F7       		.byte	0xf7
 3813 0155 00       		.uleb128 0
 3814 0156 31       		.byte	0x31
 3815 0157 1C       		.byte	0x1c
ARM GAS  /tmp/ccMLGXk8.s 			page 68


 3816 0158 9F       		.byte	0x9f
 3817 0159 7A000000 		.4byte	.LVL27
 3818 015d 7E000000 		.4byte	.LVL28
 3819 0161 1300     		.2byte	0x13
 3820 0163 74       		.byte	0x74
 3821 0164 08       		.sleb128 8
 3822 0165 06       		.byte	0x6
 3823 0166 F7       		.byte	0xf7
 3824 0167 25       		.uleb128 0x25
 3825 0168 74       		.byte	0x74
 3826 0169 04       		.sleb128 4
 3827 016a 06       		.byte	0x6
 3828 016b 23       		.byte	0x23
 3829 016c 04       		.uleb128 0x4
 3830 016d 06       		.byte	0x6
 3831 016e F7       		.byte	0xf7
 3832 016f 25       		.uleb128 0x25
 3833 0170 1B       		.byte	0x1b
 3834 0171 F7       		.byte	0xf7
 3835 0172 00       		.uleb128 0
 3836 0173 31       		.byte	0x31
 3837 0174 1C       		.byte	0x1c
 3838 0175 9F       		.byte	0x9f
 3839 0176 00000000 		.4byte	0
 3840 017a 00000000 		.4byte	0
 3841              	.LLST6:
 3842 017e 00000000 		.4byte	.LVL34
 3843 0182 08000000 		.4byte	.LVL35
 3844 0186 0100     		.2byte	0x1
 3845 0188 50       		.byte	0x50
 3846 0189 08000000 		.4byte	.LVL35
 3847 018d 0A000000 		.4byte	.LVL36
 3848 0191 0400     		.2byte	0x4
 3849 0193 F3       		.byte	0xf3
 3850 0194 01       		.uleb128 0x1
 3851 0195 50       		.byte	0x50
 3852 0196 9F       		.byte	0x9f
 3853 0197 0A000000 		.4byte	.LVL36
 3854 019b 1C000000 		.4byte	.LVL37
 3855 019f 0100     		.2byte	0x1
 3856 01a1 50       		.byte	0x50
 3857 01a2 1C000000 		.4byte	.LVL37
 3858 01a6 34000000 		.4byte	.LFE261
 3859 01aa 0400     		.2byte	0x4
 3860 01ac F3       		.byte	0xf3
 3861 01ad 01       		.uleb128 0x1
 3862 01ae 50       		.byte	0x50
 3863 01af 9F       		.byte	0x9f
 3864 01b0 00000000 		.4byte	0
 3865 01b4 00000000 		.4byte	0
 3866              	.LLST7:
 3867 01b8 00000000 		.4byte	.LVL39
 3868 01bc 06000000 		.4byte	.LVL40
 3869 01c0 0100     		.2byte	0x1
 3870 01c2 50       		.byte	0x50
 3871 01c3 06000000 		.4byte	.LVL40
 3872 01c7 14000000 		.4byte	.LFE262
ARM GAS  /tmp/ccMLGXk8.s 			page 69


 3873 01cb 0400     		.2byte	0x4
 3874 01cd F3       		.byte	0xf3
 3875 01ce 01       		.uleb128 0x1
 3876 01cf 50       		.byte	0x50
 3877 01d0 9F       		.byte	0x9f
 3878 01d1 00000000 		.4byte	0
 3879 01d5 00000000 		.4byte	0
 3880              	.LLST8:
 3881 01d9 00000000 		.4byte	.LVL41
 3882 01dd 10000000 		.4byte	.LVL42
 3883 01e1 0100     		.2byte	0x1
 3884 01e3 50       		.byte	0x50
 3885 01e4 10000000 		.4byte	.LVL42
 3886 01e8 18000000 		.4byte	.LVL43
 3887 01ec 0300     		.2byte	0x3
 3888 01ee 74       		.byte	0x74
 3889 01ef 74       		.sleb128 -12
 3890 01f0 9F       		.byte	0x9f
 3891 01f1 18000000 		.4byte	.LVL43
 3892 01f5 1B000000 		.4byte	.LVL44-1
 3893 01f9 0300     		.2byte	0x3
 3894 01fb 71       		.byte	0x71
 3895 01fc 74       		.sleb128 -12
 3896 01fd 9F       		.byte	0x9f
 3897 01fe 1B000000 		.4byte	.LVL44-1
 3898 0202 1C000000 		.4byte	.LVL44
 3899 0206 0400     		.2byte	0x4
 3900 0208 F3       		.byte	0xf3
 3901 0209 01       		.uleb128 0x1
 3902 020a 50       		.byte	0x50
 3903 020b 9F       		.byte	0x9f
 3904 020c 1C000000 		.4byte	.LVL44
 3905 0210 1E000000 		.4byte	.LVL45
 3906 0214 0100     		.2byte	0x1
 3907 0216 50       		.byte	0x50
 3908 0217 1E000000 		.4byte	.LVL45
 3909 021b 2A000000 		.4byte	.LFE263
 3910 021f 0300     		.2byte	0x3
 3911 0221 74       		.byte	0x74
 3912 0222 74       		.sleb128 -12
 3913 0223 9F       		.byte	0x9f
 3914 0224 00000000 		.4byte	0
 3915 0228 00000000 		.4byte	0
 3916              	.LLST9:
 3917 022c 00000000 		.4byte	.LVL48
 3918 0230 12000000 		.4byte	.LVL50
 3919 0234 0100     		.2byte	0x1
 3920 0236 50       		.byte	0x50
 3921 0237 12000000 		.4byte	.LVL50
 3922 023b 3E000000 		.4byte	.LFE265
 3923 023f 0400     		.2byte	0x4
 3924 0241 F3       		.byte	0xf3
 3925 0242 01       		.uleb128 0x1
 3926 0243 50       		.byte	0x50
 3927 0244 9F       		.byte	0x9f
 3928 0245 00000000 		.4byte	0
 3929 0249 00000000 		.4byte	0
ARM GAS  /tmp/ccMLGXk8.s 			page 70


 3930              	.LLST10:
 3931 024d 04000000 		.4byte	.LVL49
 3932 0251 14000000 		.4byte	.LVL51
 3933 0255 0100     		.2byte	0x1
 3934 0257 53       		.byte	0x53
 3935 0258 14000000 		.4byte	.LVL51
 3936 025c 18000000 		.4byte	.LVL52
 3937 0260 0500     		.2byte	0x5
 3938 0262 73       		.byte	0x73
 3939 0263 00       		.sleb128 0
 3940 0264 34       		.byte	0x34
 3941 0265 21       		.byte	0x21
 3942 0266 9F       		.byte	0x9f
 3943 0267 1C000000 		.4byte	.LVL53
 3944 026b 2C000000 		.4byte	.LVL55
 3945 026f 0100     		.2byte	0x1
 3946 0271 53       		.byte	0x53
 3947 0272 2C000000 		.4byte	.LVL55
 3948 0276 36000000 		.4byte	.LVL56
 3949 027a 0500     		.2byte	0x5
 3950 027c 73       		.byte	0x73
 3951 027d 00       		.sleb128 0
 3952 027e 32       		.byte	0x32
 3953 027f 21       		.byte	0x21
 3954 0280 9F       		.byte	0x9f
 3955 0281 36000000 		.4byte	.LVL56
 3956 0285 38000000 		.4byte	.LVL57
 3957 0289 0100     		.2byte	0x1
 3958 028b 53       		.byte	0x53
 3959 028c 38000000 		.4byte	.LVL57
 3960 0290 3C000000 		.4byte	.LVL58
 3961 0294 0500     		.2byte	0x5
 3962 0296 73       		.byte	0x73
 3963 0297 00       		.sleb128 0
 3964 0298 34       		.byte	0x34
 3965 0299 21       		.byte	0x21
 3966 029a 9F       		.byte	0x9f
 3967 029b 00000000 		.4byte	0
 3968 029f 00000000 		.4byte	0
 3969              		.section	.debug_aranges,"",%progbits
 3970 0000 64000000 		.4byte	0x64
 3971 0004 0200     		.2byte	0x2
 3972 0006 00000000 		.4byte	.Ldebug_info0
 3973 000a 04       		.byte	0x4
 3974 000b 00       		.byte	0
 3975 000c 0000     		.2byte	0
 3976 000e 0000     		.2byte	0
 3977 0010 00000000 		.4byte	.LFB267
 3978 0014 36000000 		.4byte	.LFE267-.LFB267
 3979 0018 00000000 		.4byte	.LFB258
 3980 001c 9C000000 		.4byte	.LFE258-.LFB258
 3981 0020 00000000 		.4byte	.LFB259
 3982 0024 18000000 		.4byte	.LFE259-.LFB259
 3983 0028 00000000 		.4byte	.LFB260
 3984 002c BC000000 		.4byte	.LFE260-.LFB260
 3985 0030 00000000 		.4byte	.LFB261
 3986 0034 34000000 		.4byte	.LFE261-.LFB261
ARM GAS  /tmp/ccMLGXk8.s 			page 71


 3987 0038 00000000 		.4byte	.LFB262
 3988 003c 14000000 		.4byte	.LFE262-.LFB262
 3989 0040 00000000 		.4byte	.LFB263
 3990 0044 2A000000 		.4byte	.LFE263-.LFB263
 3991 0048 00000000 		.4byte	.LFB264
 3992 004c 10000000 		.4byte	.LFE264-.LFB264
 3993 0050 00000000 		.4byte	.LFB265
 3994 0054 3E000000 		.4byte	.LFE265-.LFB265
 3995 0058 00000000 		.4byte	.LFB266
 3996 005c 0C000000 		.4byte	.LFE266-.LFB266
 3997 0060 00000000 		.4byte	0
 3998 0064 00000000 		.4byte	0
 3999              		.section	.debug_ranges,"",%progbits
 4000              	.Ldebug_ranges0:
 4001 0000 02000000 		.4byte	.LBB44
 4002 0004 36000000 		.4byte	.LBE44
 4003 0008 3E000000 		.4byte	.LBB47
 4004 000c 9C000000 		.4byte	.LBE47
 4005 0010 00000000 		.4byte	0
 4006 0014 00000000 		.4byte	0
 4007 0018 00000000 		.4byte	.LFB267
 4008 001c 36000000 		.4byte	.LFE267
 4009 0020 00000000 		.4byte	.LFB258
 4010 0024 9C000000 		.4byte	.LFE258
 4011 0028 00000000 		.4byte	.LFB259
 4012 002c 18000000 		.4byte	.LFE259
 4013 0030 00000000 		.4byte	.LFB260
 4014 0034 BC000000 		.4byte	.LFE260
 4015 0038 00000000 		.4byte	.LFB261
 4016 003c 34000000 		.4byte	.LFE261
 4017 0040 00000000 		.4byte	.LFB262
 4018 0044 14000000 		.4byte	.LFE262
 4019 0048 00000000 		.4byte	.LFB263
 4020 004c 2A000000 		.4byte	.LFE263
 4021 0050 00000000 		.4byte	.LFB264
 4022 0054 10000000 		.4byte	.LFE264
 4023 0058 00000000 		.4byte	.LFB265
 4024 005c 3E000000 		.4byte	.LFE265
 4025 0060 00000000 		.4byte	.LFB266
 4026 0064 0C000000 		.4byte	.LFE266
 4027 0068 00000000 		.4byte	0
 4028 006c 00000000 		.4byte	0
 4029              		.section	.debug_line,"",%progbits
 4030              	.Ldebug_line0:
 4031 0000 13040000 		.section	.debug_str,"MS",%progbits,1
 4031      0200A502 
 4031      00000201 
 4031      FB0E0D00 
 4031      01010101 
 4032              	.LASF157:
 4033 0000 4943555F 		.ascii	"ICU_INPUT_ACTIVE_HIGH\000"
 4033      494E5055 
 4033      545F4143 
 4033      54495645 
 4033      5F484947 
 4034              	.LASF54:
 4035 0016 72656164 		.ascii	"ready_list_t\000"
ARM GAS  /tmp/ccMLGXk8.s 			page 72


 4035      795F6C69 
 4035      73745F74 
 4035      00
 4036              	.LASF148:
 4037 0023 44494552 		.ascii	"DIER\000"
 4037      00
 4038              	.LASF2:
 4039 0028 73697A65 		.ascii	"size_t\000"
 4039      5F7400
 4040              	.LASF188:
 4041 002f 6963755F 		.ascii	"icu_lld_enable_notifications\000"
 4041      6C6C645F 
 4041      656E6162 
 4041      6C655F6E 
 4041      6F746966 
 4042              	.LASF17:
 4043 004c 75696E74 		.ascii	"uint64_t\000"
 4043      36345F74 
 4043      00
 4044              	.LASF137:
 4045 0055 4943555F 		.ascii	"ICU_WAITING\000"
 4045      57414954 
 4045      494E4700 
 4046              	.LASF138:
 4047 0061 4943555F 		.ascii	"ICU_ACTIVE\000"
 4047      41435449 
 4047      564500
 4048              	.LASF3:
 4049 006c 5F5F7569 		.ascii	"__uint8_t\000"
 4049      6E74385F 
 4049      7400
 4050              	.LASF114:
 4051 0076 706F7274 		.ascii	"port_intctx\000"
 4051      5F696E74 
 4051      63747800 
 4052              	.LASF53:
 4053 0082 63685F74 		.ascii	"ch_threads_queue\000"
 4053      68726561 
 4053      64735F71 
 4053      75657565 
 4053      00
 4054              	.LASF73:
 4055 0093 73797374 		.ascii	"system_debug_t\000"
 4055      656D5F64 
 4055      65627567 
 4055      5F7400
 4056              	.LASF172:
 4057 00a2 706F7274 		.ascii	"port_lock\000"
 4057      5F6C6F63 
 4057      6B00
 4058              	.LASF139:
 4059 00ac 69637573 		.ascii	"icustate_t\000"
 4059      74617465 
 4059      5F7400
 4060              	.LASF13:
 4061 00b7 6C6F6E67 		.ascii	"long long unsigned int\000"
 4061      206C6F6E 
ARM GAS  /tmp/ccMLGXk8.s 			page 73


 4061      6720756E 
 4061      7369676E 
 4061      65642069 
 4062              	.LASF118:
 4063 00ce 65786974 		.ascii	"exitcode\000"
 4063      636F6465 
 4063      00
 4064              	.LASF80:
 4065 00d7 6D61696E 		.ascii	"mainthread\000"
 4065      74687265 
 4065      616400
 4066              	.LASF183:
 4067 00e2 6963755F 		.ascii	"icu_lld_init\000"
 4067      6C6C645F 
 4067      696E6974 
 4067      00
 4068              	.LASF70:
 4069 00ef 76697274 		.ascii	"virtual_timers_list_t\000"
 4069      75616C5F 
 4069      74696D65 
 4069      72735F6C 
 4069      6973745F 
 4070              	.LASF190:
 4071 0105 49544D5F 		.ascii	"ITM_RxBuffer\000"
 4071      52784275 
 4071      66666572 
 4071      00
 4072              	.LASF152:
 4073 0112 42445452 		.ascii	"BDTR\000"
 4073      00
 4074              	.LASF165:
 4075 0117 66726571 		.ascii	"frequency\000"
 4075      75656E63 
 4075      7900
 4076              	.LASF99:
 4077 0121 41484231 		.ascii	"AHB1LPENR\000"
 4077      4C50454E 
 4077      5200
 4078              	.LASF31:
 4079 012b 705F7072 		.ascii	"p_prio\000"
 4079      696F00
 4080              	.LASF6:
 4081 0132 73686F72 		.ascii	"short unsigned int\000"
 4081      7420756E 
 4081      7369676E 
 4081      65642069 
 4081      6E7400
 4082              	.LASF193:
 4083 0145 6E766963 		.ascii	"nvicEnableVector\000"
 4083      456E6162 
 4083      6C655665 
 4083      63746F72 
 4083      00
 4084              	.LASF149:
 4085 0156 43434D52 		.ascii	"CCMR1\000"
 4085      3100
 4086              	.LASF150:
ARM GAS  /tmp/ccMLGXk8.s 			page 74


 4087 015c 43434D52 		.ascii	"CCMR2\000"
 4087      3200
 4088              	.LASF154:
 4089 0162 43434D52 		.ascii	"CCMR3\000"
 4089      3300
 4090              	.LASF1:
 4091 0168 7369676E 		.ascii	"signed char\000"
 4091      65642063 
 4091      68617200 
 4092              	.LASF85:
 4093 0174 41484231 		.ascii	"AHB1RSTR\000"
 4093      52535452 
 4093      00
 4094              	.LASF128:
 4095 017d 6D5F7175 		.ascii	"m_queue\000"
 4095      65756500 
 4096              	.LASF79:
 4097 0185 76746C69 		.ascii	"vtlist\000"
 4097      737400
 4098              	.LASF173:
 4099 018c 706F7274 		.ascii	"port_unlock\000"
 4099      5F756E6C 
 4099      6F636B00 
 4100              	.LASF22:
 4101 0198 74736C69 		.ascii	"tslices_t\000"
 4101      6365735F 
 4101      7400
 4102              	.LASF182:
 4103 01a2 56656374 		.ascii	"VectorB4\000"
 4103      6F724234 
 4103      00
 4104              	.LASF141:
 4105 01ab 73746174 		.ascii	"state\000"
 4105      6500
 4106              	.LASF77:
 4107 01b1 63685F73 		.ascii	"ch_system\000"
 4107      79737465 
 4107      6D00
 4108              	.LASF8:
 4109 01bb 6C6F6E67 		.ascii	"long int\000"
 4109      20696E74 
 4109      00
 4110              	.LASF90:
 4111 01c4 41504232 		.ascii	"APB2RSTR\000"
 4111      52535452 
 4111      00
 4112              	.LASF103:
 4113 01cd 41504231 		.ascii	"APB1LPENR\000"
 4113      4C50454E 
 4113      5200
 4114              	.LASF20:
 4115 01d7 74737461 		.ascii	"tstate_t\000"
 4115      74655F74 
 4115      00
 4116              	.LASF33:
 4117 01e0 705F6E65 		.ascii	"p_newer\000"
 4117      77657200 
ARM GAS  /tmp/ccMLGXk8.s 			page 75


 4118              	.LASF83:
 4119 01e8 504C4C43 		.ascii	"PLLCFGR\000"
 4119      46475200 
 4120              	.LASF171:
 4121 01f0 49435543 		.ascii	"ICUConfig\000"
 4121      6F6E6669 
 4121      6700
 4122              	.LASF59:
 4123 01fa 725F6E65 		.ascii	"r_newer\000"
 4123      77657200 
 4124              	.LASF47:
 4125 0202 705F6D70 		.ascii	"p_mpool\000"
 4125      6F6F6C00 
 4126              	.LASF111:
 4127 020a 72656761 		.ascii	"regarm_t\000"
 4127      726D5F74 
 4127      00
 4128              	.LASF66:
 4129 0213 76745F70 		.ascii	"vt_prev\000"
 4129      72657600 
 4130              	.LASF78:
 4131 021b 726C6973 		.ascii	"rlist\000"
 4131      7400
 4132              	.LASF11:
 4133 0221 6C6F6E67 		.ascii	"long long int\000"
 4133      206C6F6E 
 4133      6720696E 
 4133      7400
 4134              	.LASF177:
 4135 022f 76616C75 		.ascii	"value\000"
 4135      6500
 4136              	.LASF81:
 4137 0235 69646C65 		.ascii	"idle_thread_wa\000"
 4137      5F746872 
 4137      6561645F 
 4137      776100
 4138              	.LASF26:
 4139 0244 636E745F 		.ascii	"cnt_t\000"
 4139      7400
 4140              	.LASF0:
 4141 024a 756E7369 		.ascii	"unsigned int\000"
 4141      676E6564 
 4141      20696E74 
 4141      00
 4142              	.LASF65:
 4143 0257 76745F6E 		.ascii	"vt_next\000"
 4143      65787400 
 4144              	.LASF200:
 4145 025f 6E766963 		.ascii	"nvicDisableVector\000"
 4145      44697361 
 4145      626C6556 
 4145      6563746F 
 4145      7200
 4146              	.LASF40:
 4147 0271 705F7469 		.ascii	"p_time\000"
 4147      6D6500
 4148              	.LASF121:
ARM GAS  /tmp/ccMLGXk8.s 			page 76


 4149 0278 77747365 		.ascii	"wtsemp\000"
 4149      6D7000
 4150              	.LASF72:
 4151 027f 76745F73 		.ascii	"vt_systime\000"
 4151      79737469 
 4151      6D6500
 4152              	.LASF67:
 4153 028a 76745F64 		.ascii	"vt_delta\000"
 4153      656C7461 
 4153      00
 4154              	.LASF42:
 4155 0293 705F6D73 		.ascii	"p_msgqueue\000"
 4155      67717565 
 4155      756500
 4156              	.LASF146:
 4157 029e 69637563 		.ascii	"icucallback_t\000"
 4157      616C6C62 
 4157      61636B5F 
 4157      7400
 4158              	.LASF110:
 4159 02ac 5243435F 		.ascii	"RCC_TypeDef\000"
 4159      54797065 
 4159      44656600 
 4160              	.LASF50:
 4161 02b8 63685F74 		.ascii	"ch_thread\000"
 4161      68726561 
 4161      6400
 4162              	.LASF167:
 4163 02c2 70657269 		.ascii	"period_cb\000"
 4163      6F645F63 
 4163      6200
 4164              	.LASF181:
 4165 02cc 6963755F 		.ascii	"icu_lld_serve_interrupt\000"
 4165      6C6C645F 
 4165      73657276 
 4165      655F696E 
 4165      74657272 
 4166              	.LASF168:
 4167 02e4 6F766572 		.ascii	"overflow_cb\000"
 4167      666C6F77 
 4167      5F636200 
 4168              	.LASF109:
 4169 02f0 504C4C49 		.ascii	"PLLI2SCFGR\000"
 4169      32534346 
 4169      475200
 4170              	.LASF24:
 4171 02fb 6D73675F 		.ascii	"msg_t\000"
 4171      7400
 4172              	.LASF87:
 4173 0301 41484233 		.ascii	"AHB3RSTR\000"
 4173      52535452 
 4173      00
 4174              	.LASF199:
 4175 030a 5F706F72 		.ascii	"_port_irq_epilogue\000"
 4175      745F6972 
 4175      715F6570 
 4175      696C6F67 
ARM GAS  /tmp/ccMLGXk8.s 			page 77


 4175      756500
 4176              	.LASF140:
 4177 031d 49435544 		.ascii	"ICUDriver\000"
 4177      72697665 
 4177      7200
 4178              	.LASF93:
 4179 0327 41484232 		.ascii	"AHB2ENR\000"
 4179      454E5200 
 4180              	.LASF156:
 4181 032f 73746D33 		.ascii	"stm32_tim_t\000"
 4181      325F7469 
 4181      6D5F7400 
 4182              	.LASF104:
 4183 033b 41504232 		.ascii	"APB2LPENR\000"
 4183      4C50454E 
 4183      5200
 4184              	.LASF145:
 4185 0345 70636372 		.ascii	"pccrp\000"
 4185      7000
 4186              	.LASF55:
 4187 034b 63685F72 		.ascii	"ch_ready_list\000"
 4187      65616479 
 4187      5F6C6973 
 4187      7400
 4188              	.LASF25:
 4189 0359 6576656E 		.ascii	"eventmask_t\000"
 4189      746D6173 
 4189      6B5F7400 
 4190              	.LASF7:
 4191 0365 5F5F696E 		.ascii	"__int32_t\000"
 4191      7433325F 
 4191      7400
 4192              	.LASF136:
 4193 036f 4943555F 		.ascii	"ICU_READY\000"
 4193      52454144 
 4193      5900
 4194              	.LASF112:
 4195 0379 73746B61 		.ascii	"stkalign_t\000"
 4195      6C69676E 
 4195      5F7400
 4196              	.LASF187:
 4197 0384 6963755F 		.ascii	"icu_lld_stop_capture\000"
 4197      6C6C645F 
 4197      73746F70 
 4197      5F636170 
 4197      74757265 
 4198              	.LASF49:
 4199 0399 74687265 		.ascii	"threads_list_t\000"
 4199      6164735F 
 4199      6C697374 
 4199      5F7400
 4200              	.LASF63:
 4201 03a8 76697274 		.ascii	"virtual_timer_t\000"
 4201      75616C5F 
 4201      74696D65 
 4201      725F7400 
 4202              	.LASF189:
ARM GAS  /tmp/ccMLGXk8.s 			page 78


 4203 03b8 6963755F 		.ascii	"icu_lld_disable_notifications\000"
 4203      6C6C645F 
 4203      64697361 
 4203      626C655F 
 4203      6E6F7469 
 4204              	.LASF186:
 4205 03d6 6963755F 		.ascii	"icu_lld_start_capture\000"
 4205      6C6C645F 
 4205      73746172 
 4205      745F6361 
 4205      70747572 
 4206              	.LASF41:
 4207 03ec 705F7761 		.ascii	"p_waiting\000"
 4207      6974696E 
 4207      6700
 4208              	.LASF82:
 4209 03f6 73697A65 		.ascii	"sizetype\000"
 4209      74797065 
 4209      00
 4210              	.LASF48:
 4211 03ff 74687265 		.ascii	"thread_reference_t\000"
 4211      61645F72 
 4211      65666572 
 4211      656E6365 
 4211      5F7400
 4212              	.LASF71:
 4213 0412 63685F76 		.ascii	"ch_virtual_timers_list\000"
 4213      69727475 
 4213      616C5F74 
 4213      696D6572 
 4213      735F6C69 
 4214              	.LASF120:
 4215 0429 77747472 		.ascii	"wttrp\000"
 4215      7000
 4216              	.LASF147:
 4217 042f 534D4352 		.ascii	"SMCR\000"
 4217      00
 4218              	.LASF29:
 4219 0434 705F6E65 		.ascii	"p_next\000"
 4219      787400
 4220              	.LASF166:
 4221 043b 77696474 		.ascii	"width_cb\000"
 4221      685F6362 
 4221      00
 4222              	.LASF94:
 4223 0444 41484233 		.ascii	"AHB3ENR\000"
 4223      454E5200 
 4224              	.LASF34:
 4225 044c 705F6F6C 		.ascii	"p_older\000"
 4225      64657200 
 4226              	.LASF117:
 4227 0454 7264796D 		.ascii	"rdymsg\000"
 4227      736700
 4228              	.LASF58:
 4229 045b 725F6374 		.ascii	"r_ctx\000"
 4229      7800
 4230              	.LASF100:
ARM GAS  /tmp/ccMLGXk8.s 			page 79


 4231 0461 41484232 		.ascii	"AHB2LPENR\000"
 4231      4C50454E 
 4231      5200
 4232              	.LASF135:
 4233 046b 4943555F 		.ascii	"ICU_STOP\000"
 4233      53544F50 
 4233      00
 4234              	.LASF116:
 4235 0474 746D5F63 		.ascii	"tm_calibration_t\000"
 4235      616C6962 
 4235      72617469 
 4235      6F6E5F74 
 4235      00
 4236              	.LASF158:
 4237 0485 4943555F 		.ascii	"ICU_INPUT_ACTIVE_LOW\000"
 4237      494E5055 
 4237      545F4143 
 4237      54495645 
 4237      5F4C4F57 
 4238              	.LASF61:
 4239 049a 725F6375 		.ascii	"r_current\000"
 4239      7272656E 
 4239      7400
 4240              	.LASF89:
 4241 04a4 41504231 		.ascii	"APB1RSTR\000"
 4241      52535452 
 4241      00
 4242              	.LASF12:
 4243 04ad 5F5F7569 		.ascii	"__uint64_t\000"
 4243      6E743634 
 4243      5F7400
 4244              	.LASF21:
 4245 04b8 74726566 		.ascii	"trefs_t\000"
 4245      735F7400 
 4246              	.LASF88:
 4247 04c0 52455345 		.ascii	"RESERVED0\000"
 4247      52564544 
 4247      3000
 4248              	.LASF91:
 4249 04ca 52455345 		.ascii	"RESERVED1\000"
 4249      52564544 
 4249      3100
 4250              	.LASF95:
 4251 04d4 52455345 		.ascii	"RESERVED2\000"
 4251      52564544 
 4251      3200
 4252              	.LASF98:
 4253 04de 52455345 		.ascii	"RESERVED3\000"
 4253      52564544 
 4253      3300
 4254              	.LASF102:
 4255 04e8 52455345 		.ascii	"RESERVED4\000"
 4255      52564544 
 4255      3400
 4256              	.LASF30:
 4257 04f2 705F7072 		.ascii	"p_prev\000"
 4257      657600
ARM GAS  /tmp/ccMLGXk8.s 			page 80


 4258              	.LASF107:
 4259 04f9 52455345 		.ascii	"RESERVED6\000"
 4259      52564544 
 4259      3600
 4260              	.LASF23:
 4261 0503 74707269 		.ascii	"tprio_t\000"
 4261      6F5F7400 
 4262              	.LASF178:
 4263 050b 69637570 		.ascii	"icup\000"
 4263      00
 4264              	.LASF74:
 4265 0510 63685F73 		.ascii	"ch_system_debug\000"
 4265      79737465 
 4265      6D5F6465 
 4265      62756700 
 4266              	.LASF133:
 4267 0520 5F426F6F 		.ascii	"_Bool\000"
 4267      6C00
 4268              	.LASF15:
 4269 0526 696E7433 		.ascii	"int32_t\000"
 4269      325F7400 
 4270              	.LASF4:
 4271 052e 756E7369 		.ascii	"unsigned char\000"
 4271      676E6564 
 4271      20636861 
 4271      7200
 4272              	.LASF159:
 4273 053c 6963756D 		.ascii	"icumode_t\000"
 4273      6F64655F 
 4273      7400
 4274              	.LASF126:
 4275 0546 735F636E 		.ascii	"s_cnt\000"
 4275      7400
 4276              	.LASF45:
 4277 054c 705F6D74 		.ascii	"p_mtxlist\000"
 4277      786C6973 
 4277      7400
 4278              	.LASF5:
 4279 0556 73686F72 		.ascii	"short int\000"
 4279      7420696E 
 4279      7400
 4280              	.LASF36:
 4281 0560 705F7374 		.ascii	"p_state\000"
 4281      61746500 
 4282              	.LASF39:
 4283 0568 705F7072 		.ascii	"p_preempt\000"
 4283      65656D70 
 4283      7400
 4284              	.LASF101:
 4285 0572 41484233 		.ascii	"AHB3LPENR\000"
 4285      4C50454E 
 4285      5200
 4286              	.LASF57:
 4287 057c 725F7072 		.ascii	"r_prio\000"
 4287      696F00
 4288              	.LASF123:
 4289 0583 65776D61 		.ascii	"ewmask\000"
ARM GAS  /tmp/ccMLGXk8.s 			page 81


 4289      736B00
 4290              	.LASF37:
 4291 058a 705F666C 		.ascii	"p_flags\000"
 4291      61677300 
 4292              	.LASF179:
 4293 0592 5F5F6675 		.ascii	"__func__\000"
 4293      6E635F5F 
 4293      00
 4294              	.LASF35:
 4295 059b 705F6E61 		.ascii	"p_name\000"
 4295      6D6500
 4296              	.LASF176:
 4297 05a2 63685379 		.ascii	"chSysLock\000"
 4297      734C6F63 
 4297      6B00
 4298              	.LASF196:
 4299 05ac 2F686F6D 		.ascii	"/home/sivert/Documents/GitHub/BLDC/bldc-firmware\000"
 4299      652F7369 
 4299      76657274 
 4299      2F446F63 
 4299      756D656E 
 4300              	.LASF97:
 4301 05dd 41504232 		.ascii	"APB2ENR\000"
 4301      454E5200 
 4302              	.LASF163:
 4303 05e5 69637563 		.ascii	"icuchannel_t\000"
 4303      68616E6E 
 4303      656C5F74 
 4303      00
 4304              	.LASF169:
 4305 05f2 6368616E 		.ascii	"channel\000"
 4305      6E656C00 
 4306              	.LASF64:
 4307 05fa 63685F76 		.ascii	"ch_virtual_timer\000"
 4307      69727475 
 4307      616C5F74 
 4307      696D6572 
 4307      00
 4308              	.LASF124:
 4309 060b 63685F73 		.ascii	"ch_semaphore\000"
 4309      656D6170 
 4309      686F7265 
 4309      00
 4310              	.LASF155:
 4311 0618 43435852 		.ascii	"CCXR\000"
 4311      00
 4312              	.LASF44:
 4313 061d 705F6570 		.ascii	"p_epending\000"
 4313      656E6469 
 4313      6E6700
 4314              	.LASF105:
 4315 0628 52455345 		.ascii	"RESERVED5\000"
 4315      52564544 
 4315      3500
 4316              	.LASF192:
 4317 0632 6963754F 		.ascii	"icuObjectInit\000"
 4317      626A6563 
ARM GAS  /tmp/ccMLGXk8.s 			page 82


 4317      74496E69 
 4317      7400
 4318              	.LASF122:
 4319 0640 77746D74 		.ascii	"wtmtxp\000"
 4319      787000
 4320              	.LASF56:
 4321 0647 725F7175 		.ascii	"r_queue\000"
 4321      65756500 
 4322              	.LASF51:
 4323 064f 63685F74 		.ascii	"ch_threads_list\000"
 4323      68726561 
 4323      64735F6C 
 4323      69737400 
 4324              	.LASF10:
 4325 065f 6C6F6E67 		.ascii	"long unsigned int\000"
 4325      20756E73 
 4325      69676E65 
 4325      6420696E 
 4325      7400
 4326              	.LASF131:
 4327 0671 63686172 		.ascii	"char\000"
 4327      00
 4328              	.LASF164:
 4329 0676 6D6F6465 		.ascii	"mode\000"
 4329      00
 4330              	.LASF191:
 4331 067b 49435544 		.ascii	"ICUD3\000"
 4331      3300
 4332              	.LASF142:
 4333 0681 636F6E66 		.ascii	"config\000"
 4333      696700
 4334              	.LASF153:
 4335 0688 444D4152 		.ascii	"DMAR\000"
 4335      00
 4336              	.LASF86:
 4337 068d 41484232 		.ascii	"AHB2RSTR\000"
 4337      52535452 
 4337      00
 4338              	.LASF194:
 4339 0696 474E5520 		.ascii	"GNU C 4.9.3 20150529 (release) [ARM/embedded-4_9-br"
 4339      4320342E 
 4339      392E3320 
 4339      32303135 
 4339      30353239 
 4340 06c9 616E6368 		.ascii	"anch revision 227977] -mcpu=cortex-m4 -mfloat-abi=h"
 4340      20726576 
 4340      6973696F 
 4340      6E203232 
 4340      37393737 
 4341 06fc 61726420 		.ascii	"ard -mfpu=fpv4-sp-d16 -mno-thumb-interwork -mthumb "
 4341      2D6D6670 
 4341      753D6670 
 4341      76342D73 
 4341      702D6431 
 4342 072f 2D676764 		.ascii	"-ggdb -O2 -std=gnu99 -fomit-frame-pointer -falign-f"
 4342      62202D4F 
 4342      32202D73 
ARM GAS  /tmp/ccMLGXk8.s 			page 83


 4342      74643D67 
 4342      6E753939 
 4343 0762 756E6374 		.ascii	"unctions=16 -ffunction-sections -fdata-sections -fn"
 4343      696F6E73 
 4343      3D313620 
 4343      2D666675 
 4343      6E637469 
 4344 0795 6F2D636F 		.ascii	"o-common -fsingle-precision-constant\000"
 4344      6D6D6F6E 
 4344      202D6673 
 4344      696E676C 
 4344      652D7072 
 4345              	.LASF151:
 4346 07ba 43434552 		.ascii	"CCER\000"
 4346      00
 4347              	.LASF130:
 4348 07bf 6D5F6E65 		.ascii	"m_next\000"
 4348      787400
 4349              	.LASF27:
 4350 07c6 73797374 		.ascii	"systime_t\000"
 4350      696D655F 
 4350      7400
 4351              	.LASF46:
 4352 07d0 705F7265 		.ascii	"p_realprio\000"
 4352      616C7072 
 4352      696F00
 4353              	.LASF62:
 4354 07db 76746675 		.ascii	"vtfunc_t\000"
 4354      6E635F74 
 4354      00
 4355              	.LASF9:
 4356 07e4 5F5F7569 		.ascii	"__uint32_t\000"
 4356      6E743332 
 4356      5F7400
 4357              	.LASF174:
 4358 07ef 5F5F7365 		.ascii	"__set_BASEPRI\000"
 4358      745F4241 
 4358      53455052 
 4358      4900
 4359              	.LASF75:
 4360 07fd 70616E69 		.ascii	"panic_msg\000"
 4360      635F6D73 
 4360      6700
 4361              	.LASF115:
 4362 0807 6F666673 		.ascii	"offset\000"
 4362      657400
 4363              	.LASF96:
 4364 080e 41504231 		.ascii	"APB1ENR\000"
 4364      454E5200 
 4365              	.LASF185:
 4366 0816 6963755F 		.ascii	"icu_lld_stop\000"
 4366      6C6C645F 
 4366      73746F70 
 4366      00
 4367              	.LASF113:
 4368 0823 636F6E74 		.ascii	"context\000"
 4368      65787400 
ARM GAS  /tmp/ccMLGXk8.s 			page 84


 4369              	.LASF60:
 4370 082b 725F6F6C 		.ascii	"r_older\000"
 4370      64657200 
 4371              	.LASF76:
 4372 0833 63685F73 		.ascii	"ch_system_t\000"
 4372      79737465 
 4372      6D5F7400 
 4373              	.LASF160:
 4374 083f 69637566 		.ascii	"icufreq_t\000"
 4374      7265715F 
 4374      7400
 4375              	.LASF18:
 4376 0849 7274636E 		.ascii	"rtcnt_t\000"
 4376      745F7400 
 4377              	.LASF69:
 4378 0851 76745F70 		.ascii	"vt_par\000"
 4378      617200
 4379              	.LASF16:
 4380 0858 75696E74 		.ascii	"uint32_t\000"
 4380      33325F74 
 4380      00
 4381              	.LASF108:
 4382 0861 53534347 		.ascii	"SSCGR\000"
 4382      5200
 4383              	.LASF52:
 4384 0867 74687265 		.ascii	"threads_queue_t\000"
 4384      6164735F 
 4384      71756575 
 4384      655F7400 
 4385              	.LASF127:
 4386 0877 63685F6D 		.ascii	"ch_mutex\000"
 4386      75746578 
 4386      00
 4387              	.LASF38:
 4388 0880 705F7265 		.ascii	"p_refs\000"
 4388      667300
 4389              	.LASF198:
 4390 0887 6963755F 		.ascii	"icu_lld_wait_capture\000"
 4390      6C6C645F 
 4390      77616974 
 4390      5F636170 
 4390      74757265 
 4391              	.LASF28:
 4392 089c 74687265 		.ascii	"thread_t\000"
 4392      61645F74 
 4392      00
 4393              	.LASF106:
 4394 08a5 42444352 		.ascii	"BDCR\000"
 4394      00
 4395              	.LASF134:
 4396 08aa 4943555F 		.ascii	"ICU_UNINIT\000"
 4396      554E494E 
 4396      495400
 4397              	.LASF161:
 4398 08b5 4943555F 		.ascii	"ICU_CHANNEL_1\000"
 4398      4348414E 
 4398      4E454C5F 
ARM GAS  /tmp/ccMLGXk8.s 			page 85


 4398      3100
 4399              	.LASF162:
 4400 08c3 4943555F 		.ascii	"ICU_CHANNEL_2\000"
 4400      4348414E 
 4400      4E454C5F 
 4400      3200
 4401              	.LASF14:
 4402 08d1 75696E74 		.ascii	"uint8_t\000"
 4402      385F7400 
 4403              	.LASF119:
 4404 08d9 77746F62 		.ascii	"wtobjp\000"
 4404      6A7000
 4405              	.LASF195:
 4406 08e0 43686962 		.ascii	"ChibiOS_3.0.2/os/hal/ports/STM32/LLD/TIMv1/icu_lld."
 4406      694F535F 
 4406      332E302E 
 4406      322F6F73 
 4406      2F68616C 
 4407 0913 6300     		.ascii	"c\000"
 4408              	.LASF92:
 4409 0915 41484231 		.ascii	"AHB1ENR\000"
 4409      454E5200 
 4410              	.LASF84:
 4411 091d 43464752 		.ascii	"CFGR\000"
 4411      00
 4412              	.LASF19:
 4413 0922 746D6F64 		.ascii	"tmode_t\000"
 4413      655F7400 
 4414              	.LASF125:
 4415 092a 735F7175 		.ascii	"s_queue\000"
 4415      65756500 
 4416              	.LASF184:
 4417 0932 6963755F 		.ascii	"icu_lld_start\000"
 4417      6C6C645F 
 4417      73746172 
 4417      7400
 4418              	.LASF175:
 4419 0940 63685379 		.ascii	"chSysUnlock\000"
 4419      73556E6C 
 4419      6F636B00 
 4420              	.LASF43:
 4421 094c 705F6D73 		.ascii	"p_msg\000"
 4421      6700
 4422              	.LASF143:
 4423 0952 636C6F63 		.ascii	"clock\000"
 4423      6B00
 4424              	.LASF197:
 4425 0958 6963755F 		.ascii	"icu_lld_wait_edge\000"
 4425      6C6C645F 
 4425      77616974 
 4425      5F656467 
 4425      6500
 4426              	.LASF144:
 4427 096a 77636372 		.ascii	"wccrp\000"
 4427      7000
 4428              	.LASF132:
 4429 0970 6D757465 		.ascii	"mutex_t\000"
ARM GAS  /tmp/ccMLGXk8.s 			page 86


 4429      785F7400 
 4430              	.LASF129:
 4431 0978 6D5F6F77 		.ascii	"m_owner\000"
 4431      6E657200 
 4432              	.LASF180:
 4433 0980 72657375 		.ascii	"result\000"
 4433      6C7400
 4434              	.LASF32:
 4435 0987 705F6374 		.ascii	"p_ctx\000"
 4435      7800
 4436              	.LASF68:
 4437 098d 76745F66 		.ascii	"vt_func\000"
 4437      756E6300 
 4438              	.LASF170:
 4439 0995 64696572 		.ascii	"dier\000"
 4439      00
 4440              		.ident	"GCC: (GNU Tools for ARM Embedded Processors) 4.9.3 20150529 (release) [ARM/embedded-4_9-br
ARM GAS  /tmp/ccMLGXk8.s 			page 87


DEFINED SYMBOLS
                            *ABS*:0000000000000000 icu_lld.c
     /tmp/ccMLGXk8.s:21     .text.icu_lld_wait_edge.isra.0:0000000000000000 $t
     /tmp/ccMLGXk8.s:26     .text.icu_lld_wait_edge.isra.0:0000000000000000 icu_lld_wait_edge.isra.0
     /tmp/ccMLGXk8.s:104    .text.VectorB4:0000000000000000 $t
     /tmp/ccMLGXk8.s:110    .text.VectorB4:0000000000000000 VectorB4
     /tmp/ccMLGXk8.s:257    .text.VectorB4:0000000000000098 $d
     /tmp/ccMLGXk8.s:264    .text.icu_lld_init:0000000000000000 $t
     /tmp/ccMLGXk8.s:270    .text.icu_lld_init:0000000000000000 icu_lld_init
     /tmp/ccMLGXk8.s:292    .text.icu_lld_init:0000000000000010 $d
     /tmp/ccMLGXk8.s:298    .text.icu_lld_start:0000000000000000 $t
     /tmp/ccMLGXk8.s:304    .text.icu_lld_start:0000000000000000 icu_lld_start
     /tmp/ccMLGXk8.s:475    .text.icu_lld_start:00000000000000b0 $d
     /tmp/ccMLGXk8.s:482    .text.icu_lld_stop:0000000000000000 $t
     /tmp/ccMLGXk8.s:488    .text.icu_lld_stop:0000000000000000 icu_lld_stop
     /tmp/ccMLGXk8.s:537    .text.icu_lld_stop:000000000000002c $d
     /tmp/ccMLGXk8.s:543    .text.icu_lld_start_capture:0000000000000000 $t
     /tmp/ccMLGXk8.s:549    .text.icu_lld_start_capture:0000000000000000 icu_lld_start_capture
     /tmp/ccMLGXk8.s:578    .text.icu_lld_wait_capture:0000000000000000 $t
     /tmp/ccMLGXk8.s:584    .text.icu_lld_wait_capture:0000000000000000 icu_lld_wait_capture
     /tmp/ccMLGXk8.s:636    .text.icu_lld_stop_capture:0000000000000000 $t
     /tmp/ccMLGXk8.s:642    .text.icu_lld_stop_capture:0000000000000000 icu_lld_stop_capture
     /tmp/ccMLGXk8.s:663    .text.icu_lld_enable_notifications:0000000000000000 $t
     /tmp/ccMLGXk8.s:669    .text.icu_lld_enable_notifications:0000000000000000 icu_lld_enable_notifications
     /tmp/ccMLGXk8.s:743    .text.icu_lld_disable_notifications:0000000000000000 $t
     /tmp/ccMLGXk8.s:749    .text.icu_lld_disable_notifications:0000000000000000 icu_lld_disable_notifications
     /tmp/ccMLGXk8.s:772    .bss.ICUD3:0000000000000000 ICUD3
     /tmp/ccMLGXk8.s:768    .bss.ICUD3:0000000000000000 $d
                     .debug_frame:0000000000000010 $d

UNDEFINED SYMBOLS
_port_irq_epilogue
icuObjectInit
nvicEnableVector
nvicDisableVector
