ARM GAS  /tmp/cc8AvK23.s 			page 1


   1              		.syntax unified
   2              		.cpu cortex-m4
   3              		.eabi_attribute 27, 1
   4              		.eabi_attribute 28, 1
   5              		.fpu fpv4-sp-d16
   6              		.eabi_attribute 20, 1
   7              		.eabi_attribute 21, 1
   8              		.eabi_attribute 23, 3
   9              		.eabi_attribute 24, 1
  10              		.eabi_attribute 25, 1
  11              		.eabi_attribute 26, 1
  12              		.eabi_attribute 30, 2
  13              		.eabi_attribute 34, 1
  14              		.eabi_attribute 18, 4
  15              		.thumb
  16              		.file	"irq_handlers.c"
  17              		.text
  18              	.Ltext0:
  19              		.cfi_sections	.debug_frame
  20              		.section	.text.Vector88,"ax",%progbits
  21              		.align	2
  22              		.p2align 4,,15
  23              		.global	Vector88
  24              		.thumb
  25              		.thumb_func
  26              		.type	Vector88, %function
  27              	Vector88:
  28              	.LFB256:
  29              		.file 1 "irq_handlers.c"
  30              		.loc 1 36 0
  31              		.cfi_startproc
  32              		@ args = 0, pretend = 0, frame = 0
  33              		@ frame_needed = 0, uses_anonymous_args = 0
  34 0000 08B5     		push	{r3, lr}
  35              		.cfi_def_cfa_offset 8
  36              		.cfi_offset 3, -8
  37              		.cfi_offset 14, -4
  38              		.loc 1 38 0
  39 0002 0548     		ldr	r0, .L3
  40 0004 40F20741 		movw	r1, #1031
  41 0008 FFF7FEFF 		bl	ADC_ClearITPendingBit
  42              	.LVL0:
  43              		.loc 1 39 0
  44 000c FFF7FEFF 		bl	mc_interface_adc_inj_int_handler
  45              	.LVL1:
  46              		.loc 1 41 0
  47 0010 BDE80840 		pop	{r3, lr}
  48              		.cfi_restore 14
  49              		.cfi_restore 3
  50              		.cfi_def_cfa_offset 0
  51              		.loc 1 40 0
  52 0014 FFF7FEBF 		b	_port_irq_epilogue
  53              	.LVL2:
  54              	.L4:
  55              		.align	2
  56              	.L3:
  57 0018 00200140 		.word	1073815552
ARM GAS  /tmp/cc8AvK23.s 			page 2


  58              		.cfi_endproc
  59              	.LFE256:
  60              		.size	Vector88, .-Vector88
  61              		.section	.text.VectorE0,"ax",%progbits
  62              		.align	2
  63              		.p2align 4,,15
  64              		.global	VectorE0
  65              		.thumb
  66              		.thumb_func
  67              		.type	VectorE0, %function
  68              	VectorE0:
  69              	.LFB257:
  70              		.loc 1 43 0
  71              		.cfi_startproc
  72              		@ args = 0, pretend = 0, frame = 0
  73              		@ frame_needed = 0, uses_anonymous_args = 0
  74 0000 08B5     		push	{r3, lr}
  75              		.cfi_def_cfa_offset 8
  76              		.cfi_offset 3, -8
  77              		.cfi_offset 14, -4
  78              		.loc 1 44 0
  79 0002 4FF40060 		mov	r0, #2048
  80 0006 FFF7FEFF 		bl	EXTI_GetITStatus
  81              	.LVL3:
  82 000a 00B9     		cbnz	r0, .L9
  83 000c 08BD     		pop	{r3, pc}
  84              	.L9:
  85              		.loc 1 45 0
  86 000e FFF7FEFF 		bl	encoder_reset
  87              	.LVL4:
  88              		.loc 1 48 0
  89 0012 4FF40060 		mov	r0, #2048
  90              		.loc 1 50 0
  91 0016 BDE80840 		pop	{r3, lr}
  92              		.cfi_restore 14
  93              		.cfi_restore 3
  94              		.cfi_def_cfa_offset 0
  95              		.loc 1 48 0
  96 001a FFF7FEBF 		b	EXTI_ClearITPendingBit
  97              	.LVL5:
  98              		.cfi_endproc
  99              	.LFE257:
 100              		.size	VectorE0, .-VectorE0
 101 001e 00BF     		.text
 102              	.Letext0:
 103              		.file 2 "/usr/arm-none-eabi/include/machine/_default_types.h"
 104              		.file 3 "/usr/arm-none-eabi/include/sys/_stdint.h"
 105              		.file 4 "ChibiOS_3.0.2/os/rt/ports/ARMCMx/compilers/GCC/chtypes.h"
 106              		.file 5 "ChibiOS_3.0.2/os/rt/include/chsystypes.h"
 107              		.file 6 "ChibiOS_3.0.2/os/rt/include/chschd.h"
 108              		.file 7 "ChibiOS_3.0.2/os/ext/CMSIS/ST/stm32f407xx.h"
 109              		.file 8 "ChibiOS_3.0.2/os/ext/CMSIS/ST/stm32f4xx.h"
 110              		.file 9 "ChibiOS_3.0.2/os/rt/ports/ARMCMx/chcore.h"
 111              		.file 10 "ChibiOS_3.0.2/os/rt/ports/ARMCMx/chcore_v7m.h"
 112              		.file 11 "ChibiOS_3.0.2/os/rt/include/chtm.h"
 113              		.file 12 "ChibiOS_3.0.2/os/rt/include/chsem.h"
 114              		.file 13 "ChibiOS_3.0.2/os/rt/include/chmtx.h"
ARM GAS  /tmp/cc8AvK23.s 			page 3


 115              		.file 14 "mc_interface.h"
 116              		.file 15 "encoder.h"
 117              		.file 16 "ChibiOS_3.0.2/os/ext/CMSIS/include/core_cm4.h"
 118              		.file 17 "ChibiOS_3.0.2/ext/stdperiph_stm32f4/inc/stm32f4xx_adc.h"
 119              		.file 18 "ChibiOS_3.0.2/ext/stdperiph_stm32f4/inc/stm32f4xx_exti.h"