ARM GAS  /tmp/cc0TOxRm.s 			page 1


   1              		.syntax unified
   2              		.cpu cortex-m4
   3              		.eabi_attribute 27, 1
   4              		.eabi_attribute 28, 1
   5              		.fpu fpv4-sp-d16
   6              		.eabi_attribute 20, 1
   7              		.eabi_attribute 21, 1
   8              		.eabi_attribute 23, 3
   9              		.eabi_attribute 24, 1
  10              		.eabi_attribute 25, 1
  11              		.eabi_attribute 26, 1
  12              		.eabi_attribute 30, 2
  13              		.eabi_attribute 34, 1
  14              		.eabi_attribute 18, 4
  15              		.thumb
  16              		.file	"led_external.c"
  17              		.text
  18              	.Ltext0:
  19              		.cfi_sections	.debug_frame
  20              		.section	.text.wait_for_state_change,"ax",%progbits
  21              		.align	2
  22              		.p2align 4,,15
  23              		.thumb
  24              		.thumb_func
  25              		.type	wait_for_state_change, %function
  26              	wait_for_state_change:
  27              	.LFB261:
  28              		.file 1 "led_external.c"
  29              		.loc 1 206 0
  30              		.cfi_startproc
  31              		@ args = 0, pretend = 0, frame = 0
  32              		@ frame_needed = 0, uses_anonymous_args = 0
  33 0000 F8B5     		push	{r3, r4, r5, r6, r7, lr}
  34              		.cfi_def_cfa_offset 24
  35              		.cfi_offset 3, -24
  36              		.cfi_offset 4, -20
  37              		.cfi_offset 5, -16
  38              		.cfi_offset 6, -12
  39              		.cfi_offset 7, -8
  40              		.cfi_offset 14, -4
  41              		.loc 1 207 0
  42 0002 0E4E     		ldr	r6, .L10
  43              		.loc 1 208 0
  44 0004 0E4F     		ldr	r7, .L10+4
  45              		.loc 1 207 0
  46 0006 3378     		ldrb	r3, [r6]	@ zero_extendqisi2
  47              	.LVL0:
  48              		.loc 1 208 0
  49 0008 3D78     		ldrb	r5, [r7]	@ zero_extendqisi2
  50              		.loc 1 209 0
  51 000a 3478     		ldrb	r4, [r6]	@ zero_extendqisi2
  52 000c E4B2     		uxtb	r4, r4
  53 000e 9C42     		cmp	r4, r3
  54              		.loc 1 208 0
  55 0010 EDB2     		uxtb	r5, r5
  56              	.LVL1:
  57              		.loc 1 209 0
ARM GAS  /tmp/cc0TOxRm.s 			page 2


  58 0012 10D1     		bne	.L1
  59 0014 3B78     		ldrb	r3, [r7]	@ zero_extendqisi2
  60              	.LVL2:
  61 0016 9D42     		cmp	r5, r3
  62 0018 09D0     		beq	.L6
  63 001a 0DE0     		b	.L9
  64              	.L5:
  65              		.loc 1 210 0
  66 001c 6420     		movs	r0, #100
  67 001e FFF7FEFF 		bl	chThdSleep
  68              	.LVL3:
  69              		.loc 1 209 0
  70 0022 3378     		ldrb	r3, [r6]	@ zero_extendqisi2
  71 0024 A342     		cmp	r3, r4
  72 0026 06D1     		bne	.L1
  73              		.loc 1 209 0 is_stmt 0 discriminator 1
  74 0028 3B78     		ldrb	r3, [r7]	@ zero_extendqisi2
  75 002a 9D42     		cmp	r5, r3
  76 002c 03D1     		bne	.L1
  77              	.L6:
  78              		.loc 1 209 0 discriminator 2
  79 002e FFF7FEFF 		bl	mc_interface_get_fault
  80              	.LVL4:
  81 0032 0028     		cmp	r0, #0
  82 0034 F2D0     		beq	.L5
  83              	.L1:
  84 0036 F8BD     		pop	{r3, r4, r5, r6, r7, pc}
  85              	.LVL5:
  86              	.L9:
  87 0038 F8BD     		pop	{r3, r4, r5, r6, r7, pc}
  88              	.LVL6:
  89              	.L11:
  90 003a 00BF     		.align	2
  91              	.L10:
  92 003c 00000000 		.word	.LANCHOR0
  93 0040 00000000 		.word	.LANCHOR1
  94              		.cfi_endproc
  95              	.LFE261:
  96              		.size	wait_for_state_change, .-wait_for_state_change
  97              		.section	.text.set_led_wrapper,"ax",%progbits
  98              		.align	2
  99              		.p2align 4,,15
 100              		.thumb
 101              		.thumb_func
 102              		.type	set_led_wrapper, %function
 103              	set_led_wrapper:
 104              	.LFB262:
 105              		.loc 1 214 0 is_stmt 1
 106              		.cfi_startproc
 107              		@ args = 0, pretend = 0, frame = 0
 108              		@ frame_needed = 0, uses_anonymous_args = 0
 109              		@ link register save eliminated.
 110              	.LVL7:
 111              		.loc 1 215 0
 112 0000 064B     		ldr	r3, .L15
 113 0002 1A78     		ldrb	r2, [r3]	@ zero_extendqisi2
 114 0004 3AB1     		cbz	r2, .L13
ARM GAS  /tmp/cc0TOxRm.s 			page 3


 115              		.loc 1 216 0
 116 0006 0D28     		cmp	r0, #13
 117 0008 02DC     		bgt	.L14
 118              		.loc 1 217 0
 119 000a 0E30     		adds	r0, r0, #14
 120              	.LVL8:
 121 000c FFF7FEBF 		b	ws2811_set_led_color
 122              	.LVL9:
 123              	.L14:
 124              		.loc 1 219 0
 125 0010 0E38     		subs	r0, r0, #14
 126              	.LVL10:
 127 0012 FFF7FEBF 		b	ws2811_set_led_color
 128              	.LVL11:
 129              	.L13:
 130              		.loc 1 222 0
 131 0016 FFF7FEBF 		b	ws2811_set_led_color
 132              	.LVL12:
 133              	.L16:
 134 001a 00BF     		.align	2
 135              	.L15:
 136 001c 00000000 		.word	.LANCHOR1
 137              		.cfi_endproc
 138              	.LFE262:
 139              		.size	set_led_wrapper, .-set_led_wrapper
 140              		.section	.text.led_thread,"ax",%progbits
 141              		.align	2
 142              		.p2align 4,,15
 143              		.thumb
 144              		.thumb_func
 145              		.type	led_thread, %function
 146              	led_thread:
 147              	.LFB259:
 148              		.loc 1 61 0
 149              		.cfi_startproc
 150              		@ args = 0, pretend = 0, frame = 0
 151              		@ frame_needed = 0, uses_anonymous_args = 0
 152              	.LVL13:
 153 0000 2DE9F84F 		push	{r3, r4, r5, r6, r7, r8, r9, r10, fp, lr}
 154              		.cfi_def_cfa_offset 40
 155              		.cfi_offset 3, -40
 156              		.cfi_offset 4, -36
 157              		.cfi_offset 5, -32
 158              		.cfi_offset 6, -28
 159              		.cfi_offset 7, -24
 160              		.cfi_offset 8, -20
 161              		.cfi_offset 9, -16
 162              		.cfi_offset 10, -12
 163              		.cfi_offset 11, -8
 164              		.cfi_offset 14, -4
 165              	.LBB110:
 166              	.LBB111:
 167              		.file 2 "ChibiOS_3.0.2/os/rt/include/chregistry.h"
 168              		.loc 2 135 0
 169 0004 DFF86893 		ldr	r9, .L85+44
 170 0008 CE4A     		ldr	r2, .L85
 171 000a D9F81830 		ldr	r3, [r9, #24]
ARM GAS  /tmp/cc0TOxRm.s 			page 4


 172 000e CE4F     		ldr	r7, .L85+4
 173 0010 DFF86083 		ldr	r8, .L85+48
 174              	.LBE111:
 175              	.LBE110:
 176              	.LBB113:
 177              	.LBB114:
 178              		.loc 1 149 0
 179 0014 DFF860A3 		ldr	r10, .L85+52
 180              	.LBE114:
 181              	.LBE113:
 182              		.loc 1 61 0
 183 0018 2DED068B 		fstmfdd	sp!, {d8, d9, d10}
 184              		.cfi_def_cfa_offset 64
 185              		.cfi_offset 80, -64
 186              		.cfi_offset 81, -60
 187              		.cfi_offset 82, -56
 188              		.cfi_offset 83, -52
 189              		.cfi_offset 84, -48
 190              		.cfi_offset 85, -44
 191              	.LBB177:
 192              	.LBB112:
 193              		.loc 2 135 0
 194 001c 9A61     		str	r2, [r3, #24]
 195              	.LVL14:
 196              	.LBE112:
 197              	.LBE177:
 198              	.LBB178:
 199              		.loc 1 68 0
 200 001e FFF7FEFF 		bl	mc_interface_get_fault
 201              	.LVL15:
 202              	.LBB160:
 203              		.loc 1 162 0
 204 0022 DFEDCAAA 		flds	s21, .L85+8
 205 0026 9FEDCAAA 		flds	s20, .L85+12
 206              	.LBE160:
 207              		.loc 1 69 0
 208 002a 0546     		mov	r5, r0
 209 002c 0028     		cmp	r0, #0
 210 002e 45D0     		beq	.L18
 211              	.LVL16:
 212              	.L77:
 213              	.LBB161:
 214              		.loc 1 70 0
 215 0030 0020     		movs	r0, #0
 216              	.LVL17:
 217 0032 FFF7FEFF 		bl	ws2811_set_all
 218              	.LVL18:
 219              	.LBB162:
 220              		.loc 1 71 0
 221 0036 0024     		movs	r4, #0
 222              	.LVL19:
 223              	.L19:
 224              		.loc 1 72 0 discriminator 3
 225 0038 2046     		mov	r0, r4
 226 003a 4FF47F01 		mov	r1, #16711680
 227 003e FFF7FEFF 		bl	set_led_wrapper
 228              	.LVL20:
ARM GAS  /tmp/cc0TOxRm.s 			page 5


 229              		.loc 1 71 0 discriminator 3
 230 0042 0134     		adds	r4, r4, #1
 231              	.LVL21:
 232              		.loc 1 73 0 discriminator 3
 233 0044 4FF4FA60 		mov	r0, #2000
 234 0048 FFF7FEFF 		bl	chThdSleep
 235              	.LVL22:
 236              		.loc 1 71 0 discriminator 3
 237 004c AC42     		cmp	r4, r5
 238 004e F3D1     		bne	.L19
 239              	.LBE162:
 240              		.loc 1 76 0
 241 0050 42F21070 		movw	r0, #10000
 242 0054 FFF7FEFF 		bl	chThdSleep
 243              	.LVL23:
 244              	.LBB163:
 245              	.LBB164:
 246              		.loc 1 80 0
 247 0058 DFEDBE9A 		flds	s19, .L85+16
 248              	.LBB165:
 249              	.LBB166:
 250              		.loc 1 200 0
 251 005c 9FEDBE9A 		flds	s18, .L85+20
 252              		.loc 1 199 0
 253 0060 DFEDBE8A 		flds	s17, .L85+24
 254              	.LBE166:
 255              	.LBE165:
 256              	.LBE164:
 257              	.LBE163:
 258              		.loc 1 76 0
 259 0064 3226     		movs	r6, #50
 260              		.loc 1 78 0
 261 0066 B7EE008A 		fconsts	s16, #112
 262              	.LVL24:
 263              	.L20:
 264              	.LBB172:
 265              	.LBB171:
 266              		.loc 1 80 0
 267 006a 38EE698A 		fsubs	s16, s16, s19
 268              	.LVL25:
 269              	.LBB168:
 270              		.loc 1 82 0
 271 006e 4FF0000B 		mov	fp, #0
 272              	.LBE168:
 273              	.LBB169:
 274              	.LBB167:
 275              		.loc 1 200 0
 276 0072 68EE097A 		fmuls	s15, s16, s18
 277              		.loc 1 199 0
 278 0076 28EE287A 		fmuls	s14, s16, s17
 279              		.loc 1 200 0
 280 007a FCEEE77A 		ftouizs	s15, s15
 281 007e 17EE904A 		fmrs	r4, s15	@ int
 282              	.LVL26:
 283              		.loc 1 199 0
 284 0082 FCEEC77A 		ftouizs	s15, s14
 285              		.loc 1 203 0
ARM GAS  /tmp/cc0TOxRm.s 			page 6


 286 0086 2102     		lsls	r1, r4, #8
 287              		.loc 1 199 0
 288 0088 17EE902A 		fmrs	r2, s15	@ int
 289              		.loc 1 203 0
 290 008c 41EA0242 		orr	r2, r1, r2, lsl #16
 291 0090 1443     		orrs	r4, r4, r2
 292              	.LVL27:
 293              	.L22:
 294              	.LBE167:
 295              	.LBE169:
 296              	.LBB170:
 297              		.loc 1 83 0 discriminator 3
 298 0092 5846     		mov	r0, fp
 299 0094 2146     		mov	r1, r4
 300              		.loc 1 82 0 discriminator 3
 301 0096 0BF1010B 		add	fp, fp, #1
 302              	.LVL28:
 303              		.loc 1 83 0 discriminator 3
 304 009a FFF7FEFF 		bl	set_led_wrapper
 305              	.LVL29:
 306              		.loc 1 82 0 discriminator 3
 307 009e AB45     		cmp	fp, r5
 308 00a0 F7D1     		bne	.L22
 309              	.LBE170:
 310              		.loc 1 85 0 discriminator 2
 311 00a2 6420     		movs	r0, #100
 312 00a4 FFF7FEFF 		bl	chThdSleep
 313              	.LVL30:
 314              	.LBE171:
 315              		.loc 1 79 0 discriminator 2
 316 00a8 013E     		subs	r6, r6, #1
 317              	.LVL31:
 318 00aa DED1     		bne	.L20
 319              	.LVL32:
 320              	.L23:
 321              	.LBE172:
 322              	.LBE161:
 323              		.loc 1 190 0
 324 00ac 0A20     		movs	r0, #10
 325 00ae FFF7FEFF 		bl	chThdSleep
 326              	.LVL33:
 327              	.L80:
 328              		.loc 1 68 0
 329 00b2 FFF7FEFF 		bl	mc_interface_get_fault
 330              	.LVL34:
 331              		.loc 1 69 0
 332 00b6 0546     		mov	r5, r0
 333 00b8 0028     		cmp	r0, #0
 334 00ba B9D1     		bne	.L77
 335              	.L18:
 336              	.LVL35:
 337              	.LBB173:
 338              		.loc 1 89 0
 339 00bc 3C78     		ldrb	r4, [r7]	@ zero_extendqisi2
 340              		.loc 1 90 0
 341 00be 98F80050 		ldrb	r5, [r8]	@ zero_extendqisi2
 342              		.loc 1 92 0
ARM GAS  /tmp/cc0TOxRm.s 			page 7


 343 00c2 3B78     		ldrb	r3, [r7]	@ zero_extendqisi2
 344              		.loc 1 89 0
 345 00c4 E4B2     		uxtb	r4, r4
 346              	.LVL36:
 347              		.loc 1 90 0
 348 00c6 EDB2     		uxtb	r5, r5
 349              	.LVL37:
 350              		.loc 1 92 0
 351 00c8 072B     		cmp	r3, #7
 352 00ca 00F26181 		bhi	.L24
 353 00ce DFE803F0 		tbb	[pc, r3]
 354              	.L26:
 355 00d2 C3       		.byte	(.L25-.L26)/2
 356 00d3 B1       		.byte	(.L55-.L26)/2
 357 00d4 9C       		.byte	(.L56-.L26)/2
 358 00d5 4E       		.byte	(.L57-.L26)/2
 359 00d6 04       		.byte	(.L58-.L26)/2
 360 00d7 4E       		.byte	(.L57-.L26)/2
 361 00d8 04       		.byte	(.L58-.L26)/2
 362 00d9 CC       		.byte	(.L31-.L26)/2
 363              		.p2align 1
 364              	.L58:
 365 00da 0026     		movs	r6, #0
 366              	.LVL38:
 367              	.L30:
 368              	.LBB115:
 369              		.loc 1 140 0
 370 00dc 3B78     		ldrb	r3, [r7]	@ zero_extendqisi2
 371 00de 042B     		cmp	r3, #4
 372              		.loc 1 143 0
 373 00e0 3046     		mov	r0, r6
 374 00e2 4FF47F01 		mov	r1, #16711680
 375              		.loc 1 141 0
 376 00e6 08BF     		it	eq
 377 00e8 4FF4FE01 		moveq	r1, #8323072
 378              		.loc 1 143 0
 379 00ec FFF7FEFF 		bl	set_led_wrapper
 380              	.LVL39:
 381              		.loc 1 145 0
 382 00f0 06F10E00 		add	r0, r6, #14
 383 00f4 6FF07F41 		mvn	r1, #-16777216
 384              		.loc 1 139 0
 385 00f8 0136     		adds	r6, r6, #1
 386              	.LVL40:
 387              		.loc 1 145 0
 388 00fa FFF7FEFF 		bl	set_led_wrapper
 389              	.LVL41:
 390              		.loc 1 139 0
 391 00fe 0E2E     		cmp	r6, #14
 392 0100 ECD1     		bne	.L30
 393              	.LBE115:
 394              		.loc 1 148 0
 395 0102 3E78     		ldrb	r6, [r7]	@ zero_extendqisi2
 396              	.LVL42:
 397 0104 F6B2     		uxtb	r6, r6
 398 0106 A642     		cmp	r6, r4
 399 0108 D0D1     		bne	.L23
ARM GAS  /tmp/cc0TOxRm.s 			page 8


 400 010a 98F80030 		ldrb	r3, [r8]	@ zero_extendqisi2
 401 010e 9D42     		cmp	r5, r3
 402              	.LBB116:
 403              	.LBB117:
 404              	.LBB118:
 405              	.LBB119:
 406              	.LBB120:
 407              	.LBB121:
 408              		.file 3 "ChibiOS_3.0.2/os/ext/CMSIS/include/core_cmFunc.h"
 409              		.loc 3 546 0
 410 0110 08BF     		it	eq
 411 0112 2024     		moveq	r4, #32
 412              	.LVL43:
 413              	.LBE121:
 414              	.LBE120:
 415              	.LBE119:
 416              	.LBE118:
 417              	.LBE117:
 418              	.LBE116:
 419              		.loc 1 148 0
 420 0114 10D0     		beq	.L71
 421 0116 C9E7     		b	.L23
 422              	.LVL44:
 423              	.L78:
 424              		.loc 1 150 0
 425 0118 FFF7FEFF 		bl	set_led_wrapper
 426              	.LVL45:
 427              		.loc 1 151 0
 428 011c 1B20     		movs	r0, #27
 429 011e 9049     		ldr	r1, .L85+28
 430 0120 FFF7FEFF 		bl	set_led_wrapper
 431              	.LVL46:
 432              	.L45:
 433              		.loc 1 156 0
 434 0124 6420     		movs	r0, #100
 435 0126 FFF7FEFF 		bl	chThdSleep
 436              	.LVL47:
 437              		.loc 1 148 0
 438 012a 3B78     		ldrb	r3, [r7]	@ zero_extendqisi2
 439 012c B342     		cmp	r3, r6
 440 012e BDD1     		bne	.L23
 441              		.loc 1 148 0 is_stmt 0 discriminator 1
 442 0130 98F80030 		ldrb	r3, [r8]	@ zero_extendqisi2
 443 0134 9D42     		cmp	r5, r3
 444 0136 B9D1     		bne	.L23
 445              	.LVL48:
 446              	.L71:
 447              		.loc 1 148 0 discriminator 2
 448 0138 FFF7FEFF 		bl	mc_interface_get_fault
 449              	.LVL49:
 450 013c 0246     		mov	r2, r0
 451 013e 0028     		cmp	r0, #0
 452 0140 B4D1     		bne	.L23
 453              	.LBB134:
 454              	.LBB133:
 455              	.LBB125:
 456              	.LBB124:
ARM GAS  /tmp/cc0TOxRm.s 			page 9


 457              	.LBB123:
 458              	.LBB122:
 459              		.loc 3 546 0 is_stmt 1
 460              	@ 546 "ChibiOS_3.0.2/os/ext/CMSIS/include/core_cmFunc.h" 1
 461 0142 84F31188 		MSR basepri, r4
 462              	@ 0 "" 2
 463              		.thumb
 464              	.LBE122:
 465              	.LBE123:
 466              	.LBE124:
 467              	.LBE125:
 468              	.LBB126:
 469              	.LBB127:
 470              		.file 4 "ChibiOS_3.0.2/os/rt/include/chvt.h"
 471              		.loc 4 231 0
 472 0146 D9F82830 		ldr	r3, [r9, #40]
 473              	.LVL50:
 474              	.LBE127:
 475              	.LBE126:
 476              	.LBB128:
 477              	.LBB129:
 478              	.LBB130:
 479              	.LBB131:
 480              	.LBB132:
 481              		.loc 3 546 0
 482              	@ 546 "ChibiOS_3.0.2/os/ext/CMSIS/include/core_cmFunc.h" 1
 483 014a 82F31188 		MSR basepri, r2
 484              	@ 0 "" 2
 485              		.thumb
 486              	.LBE132:
 487              	.LBE131:
 488              	.LBE130:
 489              	.LBE129:
 490              	.LBE128:
 491              	.LBE133:
 492              	.LBE134:
 493              		.loc 1 149 0
 494 014e AAFB0323 		umull	r2, r3, r10, r3
 495 0152 C3F3003B 		ubfx	fp, r3, #12, #1
 496              		.loc 1 150 0
 497 0156 8249     		ldr	r1, .L85+28
 498              		.loc 1 149 0
 499 0158 BBF1000F 		cmp	fp, #0
 500 015c DCD1     		bne	.L78
 501              		.loc 1 153 0
 502 015e 5946     		mov	r1, fp
 503 0160 FFF7FEFF 		bl	set_led_wrapper
 504              	.LVL51:
 505              		.loc 1 154 0
 506 0164 5946     		mov	r1, fp
 507 0166 1B20     		movs	r0, #27
 508 0168 FFF7FEFF 		bl	set_led_wrapper
 509              	.LVL52:
 510 016c DAE7     		b	.L45
 511              	.LVL53:
 512              	.L57:
 513              		.loc 1 92 0
ARM GAS  /tmp/cc0TOxRm.s 			page 10


 514 016e 0026     		movs	r6, #0
 515              	.LVL54:
 516              	.L29:
 517              	.LBB135:
 518              		.loc 1 117 0
 519 0170 3B78     		ldrb	r3, [r7]	@ zero_extendqisi2
 520 0172 032B     		cmp	r3, #3
 521              		.loc 1 120 0
 522 0174 3046     		mov	r0, r6
 523 0176 4FF47F01 		mov	r1, #16711680
 524              		.loc 1 118 0
 525 017a 08BF     		it	eq
 526 017c 4FF4FE01 		moveq	r1, #8323072
 527              		.loc 1 120 0
 528 0180 FFF7FEFF 		bl	set_led_wrapper
 529              	.LVL55:
 530              		.loc 1 122 0
 531 0184 06F10E00 		add	r0, r6, #14
 532 0188 6FF07F41 		mvn	r1, #-16777216
 533              		.loc 1 116 0
 534 018c 0136     		adds	r6, r6, #1
 535              	.LVL56:
 536              		.loc 1 122 0
 537 018e FFF7FEFF 		bl	set_led_wrapper
 538              	.LVL57:
 539              		.loc 1 116 0
 540 0192 0E2E     		cmp	r6, #14
 541 0194 ECD1     		bne	.L29
 542              	.LBE135:
 543              		.loc 1 125 0
 544 0196 3E78     		ldrb	r6, [r7]	@ zero_extendqisi2
 545              	.LVL58:
 546 0198 F6B2     		uxtb	r6, r6
 547 019a A642     		cmp	r6, r4
 548 019c 86D1     		bne	.L23
 549 019e 98F80030 		ldrb	r3, [r8]	@ zero_extendqisi2
 550 01a2 9D42     		cmp	r5, r3
 551              	.LBB136:
 552              	.LBB137:
 553              	.LBB138:
 554              	.LBB139:
 555              	.LBB140:
 556              	.LBB141:
 557              		.loc 3 546 0
 558 01a4 08BF     		it	eq
 559 01a6 2024     		moveq	r4, #32
 560              	.LVL59:
 561              	.LBE141:
 562              	.LBE140:
 563              	.LBE139:
 564              	.LBE138:
 565              	.LBE137:
 566              	.LBE136:
 567              		.loc 1 125 0
 568 01a8 12D0     		beq	.L70
 569 01aa 7FE7     		b	.L23
 570              	.LVL60:
ARM GAS  /tmp/cc0TOxRm.s 			page 11


 571              	.L79:
 572              		.loc 1 127 0
 573 01ac FFF7FEFF 		bl	set_led_wrapper
 574              	.LVL61:
 575              		.loc 1 128 0
 576 01b0 0E20     		movs	r0, #14
 577 01b2 6B49     		ldr	r1, .L85+28
 578 01b4 FFF7FEFF 		bl	set_led_wrapper
 579              	.LVL62:
 580              	.L39:
 581              		.loc 1 133 0
 582 01b8 6420     		movs	r0, #100
 583 01ba FFF7FEFF 		bl	chThdSleep
 584              	.LVL63:
 585              		.loc 1 125 0
 586 01be 3B78     		ldrb	r3, [r7]	@ zero_extendqisi2
 587 01c0 B342     		cmp	r3, r6
 588 01c2 7FF473AF 		bne	.L23
 589              		.loc 1 125 0 is_stmt 0 discriminator 1
 590 01c6 98F80030 		ldrb	r3, [r8]	@ zero_extendqisi2
 591 01ca 9D42     		cmp	r5, r3
 592 01cc 7FF46EAF 		bne	.L23
 593              	.LVL64:
 594              	.L70:
 595              		.loc 1 125 0 discriminator 2
 596 01d0 FFF7FEFF 		bl	mc_interface_get_fault
 597              	.LVL65:
 598 01d4 0028     		cmp	r0, #0
 599 01d6 7FF469AF 		bne	.L23
 600              	.LBB154:
 601              	.LBB153:
 602              	.LBB145:
 603              	.LBB144:
 604              	.LBB143:
 605              	.LBB142:
 606              		.loc 3 546 0 is_stmt 1
 607              	@ 546 "ChibiOS_3.0.2/os/ext/CMSIS/include/core_cmFunc.h" 1
 608 01da 84F31188 		MSR basepri, r4
 609              	@ 0 "" 2
 610              		.thumb
 611              	.LBE142:
 612              	.LBE143:
 613              	.LBE144:
 614              	.LBE145:
 615              	.LBB146:
 616              	.LBB147:
 617              		.loc 4 231 0
 618 01de D9F82830 		ldr	r3, [r9, #40]
 619              	.LVL66:
 620              	.LBE147:
 621              	.LBE146:
 622              	.LBB148:
 623              	.LBB149:
 624              	.LBB150:
 625              	.LBB151:
 626              	.LBB152:
 627              		.loc 3 546 0
ARM GAS  /tmp/cc0TOxRm.s 			page 12


 628              	@ 546 "ChibiOS_3.0.2/os/ext/CMSIS/include/core_cmFunc.h" 1
 629 01e2 80F31188 		MSR basepri, r0
 630              	@ 0 "" 2
 631              		.thumb
 632              	.LBE152:
 633              	.LBE151:
 634              	.LBE150:
 635              	.LBE149:
 636              	.LBE148:
 637              	.LBE153:
 638              	.LBE154:
 639              		.loc 1 126 0
 640 01e6 AAFB0323 		umull	r2, r3, r10, r3
 641 01ea C3F3003B 		ubfx	fp, r3, #12, #1
 642              		.loc 1 127 0
 643 01ee 0D20     		movs	r0, #13
 644 01f0 5B49     		ldr	r1, .L85+28
 645              		.loc 1 126 0
 646 01f2 BBF1000F 		cmp	fp, #0
 647 01f6 D9D1     		bne	.L79
 648              		.loc 1 130 0
 649 01f8 5946     		mov	r1, fp
 650 01fa 0D20     		movs	r0, #13
 651 01fc FFF7FEFF 		bl	set_led_wrapper
 652              	.LVL67:
 653              		.loc 1 131 0
 654 0200 5946     		mov	r1, fp
 655 0202 0E20     		movs	r0, #14
 656 0204 FFF7FEFF 		bl	set_led_wrapper
 657              	.LVL68:
 658 0208 D6E7     		b	.L39
 659              	.LVL69:
 660              	.L56:
 661              		.loc 1 92 0
 662 020a 0024     		movs	r4, #0
 663              	.LVL70:
 664              	.L28:
 665              	.LBB155:
 666              		.loc 1 108 0 discriminator 3
 667 020c 2046     		mov	r0, r4
 668 020e 4FF47F01 		mov	r1, #16711680
 669 0212 FFF7FEFF 		bl	set_led_wrapper
 670              	.LVL71:
 671              		.loc 1 109 0 discriminator 3
 672 0216 04F10E00 		add	r0, r4, #14
 673 021a 6FF07F41 		mvn	r1, #-16777216
 674              		.loc 1 107 0 discriminator 3
 675 021e 0134     		adds	r4, r4, #1
 676              	.LVL72:
 677              		.loc 1 109 0 discriminator 3
 678 0220 FFF7FEFF 		bl	set_led_wrapper
 679              	.LVL73:
 680              		.loc 1 107 0 discriminator 3
 681 0224 0E2C     		cmp	r4, #14
 682 0226 F1D1     		bne	.L28
 683              	.LBE155:
 684              		.loc 1 103 0
ARM GAS  /tmp/cc0TOxRm.s 			page 13


 685 0228 FFF7FEFF 		bl	wait_for_state_change
 686              	.LVL74:
 687              	.L81:
 688              	.LBE173:
 689              		.loc 1 190 0
 690 022c 0A20     		movs	r0, #10
 691 022e FFF7FEFF 		bl	chThdSleep
 692              	.LVL75:
 693 0232 3EE7     		b	.L80
 694              	.LVL76:
 695              	.L55:
 696              	.LBB174:
 697              		.loc 1 92 0
 698 0234 0024     		movs	r4, #0
 699              	.LVL77:
 700              	.L27:
 701              	.LBB156:
 702              		.loc 1 100 0 discriminator 3
 703 0236 2046     		mov	r0, r4
 704 0238 4FF4FE01 		mov	r1, #8323072
 705 023c FFF7FEFF 		bl	set_led_wrapper
 706              	.LVL78:
 707              		.loc 1 101 0 discriminator 3
 708 0240 04F10E00 		add	r0, r4, #14
 709 0244 6FF07F41 		mvn	r1, #-16777216
 710              		.loc 1 99 0 discriminator 3
 711 0248 0134     		adds	r4, r4, #1
 712              	.LVL79:
 713              		.loc 1 101 0 discriminator 3
 714 024a FFF7FEFF 		bl	set_led_wrapper
 715              	.LVL80:
 716              		.loc 1 99 0 discriminator 3
 717 024e 0E2C     		cmp	r4, #14
 718 0250 F1D1     		bne	.L27
 719              	.LBE156:
 720              		.loc 1 103 0
 721 0252 FFF7FEFF 		bl	wait_for_state_change
 722              	.LVL81:
 723 0256 E9E7     		b	.L81
 724              	.LVL82:
 725              	.L25:
 726              		.loc 1 94 0
 727 0258 0020     		movs	r0, #0
 728              	.LVL83:
 729 025a FFF7FEFF 		bl	ws2811_set_all
 730              	.LVL84:
 731              		.loc 1 95 0
 732 025e FFF7FEFF 		bl	wait_for_state_change
 733              	.LVL85:
 734              	.LBE174:
 735              		.loc 1 190 0
 736 0262 0A20     		movs	r0, #10
 737 0264 FFF7FEFF 		bl	chThdSleep
 738              	.LVL86:
 739 0268 23E7     		b	.L80
 740              	.LVL87:
 741              	.L31:
ARM GAS  /tmp/cc0TOxRm.s 			page 14


 742              	.LBB175:
 743              		.loc 1 161 0
 744 026a 3E78     		ldrb	r6, [r7]	@ zero_extendqisi2
 745 026c F6B2     		uxtb	r6, r6
 746 026e A642     		cmp	r6, r4
 747 0270 7FF41CAF 		bne	.L23
 748              	.LVL88:
 749              	.L74:
 750              		.loc 1 161 0 is_stmt 0 discriminator 1
 751 0274 98F80030 		ldrb	r3, [r8]	@ zero_extendqisi2
 752 0278 9D42     		cmp	r5, r3
 753 027a 7FF417AF 		bne	.L23
 754              		.loc 1 161 0 discriminator 2
 755 027e FFF7FEFF 		bl	mc_interface_get_fault
 756              	.LVL89:
 757 0282 0446     		mov	r4, r0
 758 0284 0028     		cmp	r0, #0
 759 0286 7FF411AF 		bne	.L23
 760              		.loc 1 162 0 is_stmt 1
 761 028a 364B     		ldr	r3, .L85+32
 762 028c 9FED361A 		flds	s2, .L85+36
 763 0290 1B8A     		ldrh	r3, [r3, #16]
 764 0292 DFED311A 		flds	s3, .L85+20
 765 0296 9BB2     		uxth	r3, r3
 766 0298 07EE903A 		fmsr	s15, r3	@ int
 767 029c B8EE670A 		fuitos	s0, s15
 768 02a0 F3EE0C0A 		fconsts	s1, #60
 769 02a4 20EE2A0A 		fmuls	s0, s0, s21
 770 02a8 B7EE002A 		fconsts	s4, #112
 771 02ac 20EE0A0A 		fmuls	s0, s0, s20
 772 02b0 FFF7FEFF 		bl	utils_map
 773              	.LVL90:
 774 02b4 B2EE0C8A 		fconsts	s16, #44
 775              	.LBB157:
 776              		.loc 1 163 0
 777 02b8 A346     		mov	fp, r4
 778 02ba 20EE088A 		fmuls	s16, s0, s16
 779              	.LBE157:
 780              		.loc 1 162 0
 781 02be 1B24     		movs	r4, #27
 782 02c0 13E0     		b	.L52
 783              	.LVL91:
 784              	.L84:
 785              	.LBB158:
 786              		.loc 1 165 0
 787 02c2 BBF1030F 		cmp	fp, #3
 788              		.loc 1 169 0
 789 02c6 2949     		ldr	r1, .L85+40
 790              		.loc 1 165 0
 791 02c8 58DD     		ble	.L82
 792              		.loc 1 168 0
 793 02ca BBF1080F 		cmp	fp, #8
 794 02ce 2EDC     		bgt	.L51
 795              		.loc 1 169 0
 796 02d0 FFF7FEFF 		bl	set_led_wrapper
 797              	.LVL92:
 798              		.loc 1 170 0
ARM GAS  /tmp/cc0TOxRm.s 			page 15


 799 02d4 2046     		mov	r0, r4
 800 02d6 2549     		ldr	r1, .L85+40
 801 02d8 FFF7FEFF 		bl	set_led_wrapper
 802              	.LVL93:
 803              	.L50:
 804              		.loc 1 163 0 discriminator 2
 805 02dc 0BF1010B 		add	fp, fp, #1
 806              	.LVL94:
 807 02e0 BBF10E0F 		cmp	fp, #14
 808 02e4 04F1FF34 		add	r4, r4, #-1
 809 02e8 17D0     		beq	.L83
 810              	.LVL95:
 811              	.L52:
 812              		.loc 1 164 0
 813 02ea 07EE90BA 		fmsr	s15, fp	@ int
 814 02ee F8EEE77A 		fsitos	s15, s15
 815              		.loc 1 169 0
 816 02f2 5846     		mov	r0, fp
 817              		.loc 1 164 0
 818 02f4 B4EEE78A 		fcmpes	s16, s15
 819 02f8 F1EE10FA 		fmstat
 820 02fc E1DC     		bgt	.L84
 821              		.loc 1 176 0
 822 02fe 0021     		movs	r1, #0
 823 0300 FFF7FEFF 		bl	set_led_wrapper
 824              	.LVL96:
 825              		.loc 1 163 0
 826 0304 0BF1010B 		add	fp, fp, #1
 827              	.LVL97:
 828              		.loc 1 177 0
 829 0308 2046     		mov	r0, r4
 830 030a 0021     		movs	r1, #0
 831 030c FFF7FEFF 		bl	set_led_wrapper
 832              	.LVL98:
 833              		.loc 1 163 0
 834 0310 BBF10E0F 		cmp	fp, #14
 835 0314 04F1FF34 		add	r4, r4, #-1
 836 0318 E7D1     		bne	.L52
 837              	.L83:
 838              	.LBE158:
 839              		.loc 1 180 0
 840 031a 6420     		movs	r0, #100
 841 031c FFF7FEFF 		bl	chThdSleep
 842              	.LVL99:
 843              		.loc 1 161 0
 844 0320 3B78     		ldrb	r3, [r7]	@ zero_extendqisi2
 845 0322 9E42     		cmp	r6, r3
 846 0324 A6D0     		beq	.L74
 847              	.LBE175:
 848              		.loc 1 190 0
 849 0326 0A20     		movs	r0, #10
 850 0328 FFF7FEFF 		bl	chThdSleep
 851              	.LVL100:
 852 032c C1E6     		b	.L80
 853              	.LVL101:
 854              	.L51:
 855              	.LBB176:
ARM GAS  /tmp/cc0TOxRm.s 			page 16


 856              	.LBB159:
 857              		.loc 1 172 0
 858 032e 5846     		mov	r0, fp
 859              	.LVL102:
 860 0330 4FF47F41 		mov	r1, #65280
 861 0334 FFF7FEFF 		bl	set_led_wrapper
 862              	.LVL103:
 863              		.loc 1 173 0
 864 0338 2046     		mov	r0, r4
 865 033a 4FF47F41 		mov	r1, #65280
 866 033e FFF7FEFF 		bl	set_led_wrapper
 867              	.LVL104:
 868 0342 CBE7     		b	.L50
 869              	.L86:
 870              		.align	2
 871              	.L85:
 872 0344 00000000 		.word	.LC0
 873 0348 00000000 		.word	.LANCHOR0
 874 034c 6740533A 		.word	978534503
 875 0350 74D19541 		.word	1100337524
 876 0354 0AD7A33C 		.word	1017370378
 877 0358 00000000 		.word	0
 878 035c 00007F43 		.word	1132396544
 879 0360 00A5FF00 		.word	16753920
 880 0364 00000000 		.word	ADC_Value
 881 0368 00000442 		.word	1107558400
 882 036c 00FFFF00 		.word	16776960
 883 0370 00000000 		.word	ch
 884 0374 00000000 		.word	.LANCHOR1
 885 0378 5917B7D1 		.word	-776530087
 886              	.LVL105:
 887              	.L82:
 888              		.loc 1 166 0
 889 037c 4FF47F01 		mov	r1, #16711680
 890 0380 FFF7FEFF 		bl	set_led_wrapper
 891              	.LVL106:
 892              		.loc 1 167 0
 893 0384 2046     		mov	r0, r4
 894 0386 4FF47F01 		mov	r1, #16711680
 895 038a FFF7FEFF 		bl	set_led_wrapper
 896              	.LVL107:
 897 038e A5E7     		b	.L50
 898              	.LVL108:
 899              	.L24:
 900              	.LBE159:
 901              		.loc 1 185 0
 902 0390 6420     		movs	r0, #100
 903              	.LVL109:
 904 0392 FFF7FEFF 		bl	chThdSleep
 905              	.LVL110:
 906              	.LBE176:
 907              		.loc 1 190 0
 908 0396 0A20     		movs	r0, #10
 909 0398 FFF7FEFF 		bl	chThdSleep
 910              	.LVL111:
 911 039c 89E6     		b	.L80
 912              	.LBE178:
ARM GAS  /tmp/cc0TOxRm.s 			page 17


 913              		.cfi_endproc
 914              	.LFE259:
 915              		.size	led_thread, .-led_thread
 916 039e 00BF     		.section	.text.led_external_init,"ax",%progbits
 917              		.align	2
 918              		.p2align 4,,15
 919              		.global	led_external_init
 920              		.thumb
 921              		.thumb_func
 922              		.type	led_external_init, %function
 923              	led_external_init:
 924              	.LFB256:
 925              		.loc 1 47 0
 926              		.cfi_startproc
 927              		@ args = 0, pretend = 0, frame = 0
 928              		@ frame_needed = 0, uses_anonymous_args = 0
 929 0000 70B5     		push	{r4, r5, r6, lr}
 930              		.cfi_def_cfa_offset 16
 931              		.cfi_offset 4, -16
 932              		.cfi_offset 5, -12
 933              		.cfi_offset 6, -8
 934              		.cfi_offset 14, -4
 935 0002 82B0     		sub	sp, sp, #8
 936              		.cfi_def_cfa_offset 24
 937              		.loc 1 48 0
 938 0004 0024     		movs	r4, #0
 939 0006 074E     		ldr	r6, .L89
 940              		.loc 1 49 0
 941 0008 074D     		ldr	r5, .L89+4
 942              		.loc 1 50 0
 943 000a 084B     		ldr	r3, .L89+8
 944 000c 0094     		str	r4, [sp]
 945 000e 4FF4B361 		mov	r1, #1432
 946 0012 0222     		movs	r2, #2
 947 0014 0648     		ldr	r0, .L89+12
 948              		.loc 1 48 0
 949 0016 3470     		strb	r4, [r6]
 950              		.loc 1 49 0
 951 0018 2C70     		strb	r4, [r5]
 952              		.loc 1 50 0
 953 001a FFF7FEFF 		bl	chThdCreateStatic
 954              	.LVL112:
 955              		.loc 1 51 0
 956 001e 02B0     		add	sp, sp, #8
 957              		.cfi_def_cfa_offset 16
 958              		@ sp needed
 959 0020 70BD     		pop	{r4, r5, r6, pc}
 960              	.L90:
 961 0022 00BF     		.align	2
 962              	.L89:
 963 0024 00000000 		.word	.LANCHOR1
 964 0028 00000000 		.word	.LANCHOR0
 965 002c 00000000 		.word	led_thread
 966 0030 00000000 		.word	.LANCHOR2
 967              		.cfi_endproc
 968              	.LFE256:
 969              		.size	led_external_init, .-led_external_init
ARM GAS  /tmp/cc0TOxRm.s 			page 18


 970              		.section	.text.led_external_set_state,"ax",%progbits
 971              		.align	2
 972              		.p2align 4,,15
 973              		.global	led_external_set_state
 974              		.thumb
 975              		.thumb_func
 976              		.type	led_external_set_state, %function
 977              	led_external_set_state:
 978              	.LFB257:
 979              		.loc 1 53 0
 980              		.cfi_startproc
 981              		@ args = 0, pretend = 0, frame = 0
 982              		@ frame_needed = 0, uses_anonymous_args = 0
 983              		@ link register save eliminated.
 984              	.LVL113:
 985              		.loc 1 54 0
 986 0000 014B     		ldr	r3, .L92
 987 0002 1870     		strb	r0, [r3]
 988 0004 7047     		bx	lr
 989              	.L93:
 990 0006 00BF     		.align	2
 991              	.L92:
 992 0008 00000000 		.word	.LANCHOR0
 993              		.cfi_endproc
 994              	.LFE257:
 995              		.size	led_external_set_state, .-led_external_set_state
 996              		.section	.text.led_external_set_reversed,"ax",%progbits
 997              		.align	2
 998              		.p2align 4,,15
 999              		.global	led_external_set_reversed
 1000              		.thumb
 1001              		.thumb_func
 1002              		.type	led_external_set_reversed, %function
 1003              	led_external_set_reversed:
 1004              	.LFB258:
 1005              		.loc 1 57 0
 1006              		.cfi_startproc
 1007              		@ args = 0, pretend = 0, frame = 0
 1008              		@ frame_needed = 0, uses_anonymous_args = 0
 1009              		@ link register save eliminated.
 1010              	.LVL114:
 1011              		.loc 1 58 0
 1012 0000 014B     		ldr	r3, .L95
 1013 0002 1870     		strb	r0, [r3]
 1014 0004 7047     		bx	lr
 1015              	.L96:
 1016 0006 00BF     		.align	2
 1017              	.L95:
 1018 0008 00000000 		.word	.LANCHOR1
 1019              		.cfi_endproc
 1020              	.LFE258:
 1021              		.size	led_external_set_reversed, .-led_external_set_reversed
 1022              		.section	.bss.reverse_leds,"aw",%nobits
 1023              		.set	.LANCHOR1,. + 0
 1024              		.type	reverse_leds, %object
 1025              		.size	reverse_leds, 1
 1026              	reverse_leds:
ARM GAS  /tmp/cc0TOxRm.s 			page 19


 1027 0000 00       		.space	1
 1028              		.section	.bss.state,"aw",%nobits
 1029              		.set	.LANCHOR0,. + 0
 1030              		.type	state, %object
 1031              		.size	state, 1
 1032              	state:
 1033 0000 00       		.space	1
 1034              		.section	.rodata.str1.4,"aMS",%progbits,1
 1035              		.align	2
 1036              	.LC0:
 1037 0000 4C454473 		.ascii	"LEDs External\000"
 1037      20457874 
 1037      65726E61 
 1037      6C00
 1038              		.section	.bss.led_thread_wa,"aw",%nobits
 1039              		.align	3
 1040              		.set	.LANCHOR2,. + 0
 1041              		.type	led_thread_wa, %object
 1042              		.size	led_thread_wa, 1432
 1043              	led_thread_wa:
 1044 0000 00000000 		.space	1432
 1044      00000000 
 1044      00000000 
 1044      00000000 
 1044      00000000 
 1045              		.text
 1046              	.Letext0:
 1047              		.file 5 "/usr/arm-none-eabi/include/machine/_default_types.h"
 1048              		.file 6 "/usr/arm-none-eabi/include/sys/_stdint.h"
 1049              		.file 7 "/usr/lib/gcc/arm-none-eabi/4.9.3/include/stddef.h"
 1050              		.file 8 "ChibiOS_3.0.2/os/rt/ports/ARMCMx/compilers/GCC/chtypes.h"
 1051              		.file 9 "ChibiOS_3.0.2/os/rt/include/chsystypes.h"
 1052              		.file 10 "ChibiOS_3.0.2/os/rt/include/chschd.h"
 1053              		.file 11 "ChibiOS_3.0.2/os/rt/ports/ARMCMx/chcore.h"
 1054              		.file 12 "ChibiOS_3.0.2/os/rt/ports/ARMCMx/chcore_v7m.h"
 1055              		.file 13 "ChibiOS_3.0.2/os/rt/include/chtm.h"
 1056              		.file 14 "ChibiOS_3.0.2/os/rt/include/chsem.h"
 1057              		.file 15 "ChibiOS_3.0.2/os/rt/include/chmtx.h"
 1058              		.file 16 "ChibiOS_3.0.2/os/rt/include/chthreads.h"
 1059              		.file 17 "datatypes.h"
 1060              		.file 18 "ChibiOS_3.0.2/os/rt/include/chsys.h"
 1061              		.file 19 "ChibiOS_3.0.2/os/ext/CMSIS/include/core_cm4.h"
 1062              		.file 20 "mc_interface.h"
 1063              		.file 21 "ws2811.h"
 1064              		.file 22 "utils.h"
 1065              		.section	.debug_info,"",%progbits
 1066              	.Ldebug_info0:
 1067 0000 3F120000 		.4byte	0x123f
 1068 0004 0400     		.2byte	0x4
 1069 0006 00000000 		.4byte	.Ldebug_abbrev0
 1070 000a 04       		.byte	0x4
 1071 000b 01       		.uleb128 0x1
 1072 000c 07070000 		.4byte	.LASF164
 1073 0010 01       		.byte	0x1
 1074 0011 01010000 		.4byte	.LASF165
 1075 0015 CF050000 		.4byte	.LASF166
 1076 0019 48010000 		.4byte	.Ldebug_ranges0+0x148
ARM GAS  /tmp/cc0TOxRm.s 			page 20


 1077 001d 00000000 		.4byte	0
 1078 0021 00000000 		.4byte	.Ldebug_line0
 1079 0025 02       		.uleb128 0x2
 1080 0026 04       		.byte	0x4
 1081 0027 04       		.byte	0x4
 1082 0028 65040000 		.4byte	.LASF0
 1083 002c 02       		.uleb128 0x2
 1084 002d 04       		.byte	0x4
 1085 002e 07       		.byte	0x7
 1086 002f 50020000 		.4byte	.LASF1
 1087 0033 02       		.uleb128 0x2
 1088 0034 01       		.byte	0x1
 1089 0035 06       		.byte	0x6
 1090 0036 1E010000 		.4byte	.LASF2
 1091 003a 03       		.uleb128 0x3
 1092 003b 58000000 		.4byte	.LASF5
 1093 003f 05       		.byte	0x5
 1094 0040 1D       		.byte	0x1d
 1095 0041 45000000 		.4byte	0x45
 1096 0045 02       		.uleb128 0x2
 1097 0046 01       		.byte	0x1
 1098 0047 08       		.byte	0x8
 1099 0048 E2040000 		.4byte	.LASF3
 1100 004c 02       		.uleb128 0x2
 1101 004d 02       		.byte	0x2
 1102 004e 05       		.byte	0x5
 1103 004f 0B050000 		.4byte	.LASF4
 1104 0053 03       		.uleb128 0x3
 1105 0054 24060000 		.4byte	.LASF6
 1106 0058 05       		.byte	0x5
 1107 0059 2B       		.byte	0x2b
 1108 005a 5E000000 		.4byte	0x5e
 1109 005e 02       		.uleb128 0x2
 1110 005f 02       		.byte	0x2
 1111 0060 07       		.byte	0x7
 1112 0061 87060000 		.4byte	.LASF7
 1113 0065 03       		.uleb128 0x3
 1114 0066 4A030000 		.4byte	.LASF8
 1115 006a 05       		.byte	0x5
 1116 006b 3F       		.byte	0x3f
 1117 006c 70000000 		.4byte	0x70
 1118 0070 02       		.uleb128 0x2
 1119 0071 04       		.byte	0x4
 1120 0072 05       		.byte	0x5
 1121 0073 77010000 		.4byte	.LASF9
 1122 0077 03       		.uleb128 0x3
 1123 0078 5D060000 		.4byte	.LASF10
 1124 007c 05       		.byte	0x5
 1125 007d 41       		.byte	0x41
 1126 007e 82000000 		.4byte	0x82
 1127 0082 02       		.uleb128 0x2
 1128 0083 04       		.byte	0x4
 1129 0084 07       		.byte	0x7
 1130 0085 00060000 		.4byte	.LASF11
 1131 0089 02       		.uleb128 0x2
 1132 008a 08       		.byte	0x8
 1133 008b 05       		.byte	0x5
ARM GAS  /tmp/cc0TOxRm.s 			page 21


 1134 008c 10010000 		.4byte	.LASF12
 1135 0090 03       		.uleb128 0x3
 1136 0091 5A040000 		.4byte	.LASF13
 1137 0095 05       		.byte	0x5
 1138 0096 5B       		.byte	0x5b
 1139 0097 9B000000 		.4byte	0x9b
 1140 009b 02       		.uleb128 0x2
 1141 009c 08       		.byte	0x8
 1142 009d 07       		.byte	0x7
 1143 009e 8B000000 		.4byte	.LASF14
 1144 00a2 04       		.uleb128 0x4
 1145 00a3 04       		.byte	0x4
 1146 00a4 05       		.byte	0x5
 1147 00a5 696E7400 		.ascii	"int\000"
 1148 00a9 03       		.uleb128 0x3
 1149 00aa F6060000 		.4byte	.LASF15
 1150 00ae 06       		.byte	0x6
 1151 00af 14       		.byte	0x14
 1152 00b0 3A000000 		.4byte	0x3a
 1153 00b4 03       		.uleb128 0x3
 1154 00b5 BF010000 		.4byte	.LASF16
 1155 00b9 06       		.byte	0x6
 1156 00ba 1A       		.byte	0x1a
 1157 00bb 53000000 		.4byte	0x53
 1158 00bf 03       		.uleb128 0x3
 1159 00c0 DA040000 		.4byte	.LASF17
 1160 00c4 06       		.byte	0x6
 1161 00c5 1F       		.byte	0x1f
 1162 00c6 65000000 		.4byte	0x65
 1163 00ca 03       		.uleb128 0x3
 1164 00cb 9C050000 		.4byte	.LASF18
 1165 00cf 06       		.byte	0x6
 1166 00d0 20       		.byte	0x20
 1167 00d1 77000000 		.4byte	0x77
 1168 00d5 03       		.uleb128 0x3
 1169 00d6 37000000 		.4byte	.LASF19
 1170 00da 06       		.byte	0x6
 1171 00db 26       		.byte	0x26
 1172 00dc 90000000 		.4byte	0x90
 1173 00e0 03       		.uleb128 0x3
 1174 00e1 1B000000 		.4byte	.LASF20
 1175 00e5 07       		.byte	0x7
 1176 00e6 D4       		.byte	0xd4
 1177 00e7 2C000000 		.4byte	0x2c
 1178 00eb 05       		.uleb128 0x5
 1179 00ec BF000000 		.4byte	0xbf
 1180 00f0 03       		.uleb128 0x3
 1181 00f1 9A060000 		.4byte	.LASF21
 1182 00f5 08       		.byte	0x8
 1183 00f6 45       		.byte	0x45
 1184 00f7 CA000000 		.4byte	0xca
 1185 00fb 03       		.uleb128 0x3
 1186 00fc 20030000 		.4byte	.LASF22
 1187 0100 08       		.byte	0x8
 1188 0101 48       		.byte	0x48
 1189 0102 A9000000 		.4byte	0xa9
 1190 0106 03       		.uleb128 0x3
ARM GAS  /tmp/cc0TOxRm.s 			page 22


 1191 0107 C8010000 		.4byte	.LASF23
 1192 010b 08       		.byte	0x8
 1193 010c 49       		.byte	0x49
 1194 010d A9000000 		.4byte	0xa9
 1195 0111 03       		.uleb128 0x3
 1196 0112 6B040000 		.4byte	.LASF24
 1197 0116 08       		.byte	0x8
 1198 0117 4A       		.byte	0x4a
 1199 0118 A9000000 		.4byte	0xa9
 1200 011c 03       		.uleb128 0x3
 1201 011d 56010000 		.4byte	.LASF25
 1202 0121 08       		.byte	0x8
 1203 0122 4B       		.byte	0x4b
 1204 0123 A9000000 		.4byte	0xa9
 1205 0127 03       		.uleb128 0x3
 1206 0128 A4040000 		.4byte	.LASF26
 1207 012c 08       		.byte	0x8
 1208 012d 4C       		.byte	0x4c
 1209 012e CA000000 		.4byte	0xca
 1210 0132 03       		.uleb128 0x3
 1211 0133 CC020000 		.4byte	.LASF27
 1212 0137 08       		.byte	0x8
 1213 0138 4D       		.byte	0x4d
 1214 0139 BF000000 		.4byte	0xbf
 1215 013d 03       		.uleb128 0x3
 1216 013e 3E030000 		.4byte	.LASF28
 1217 0142 08       		.byte	0x8
 1218 0143 4F       		.byte	0x4f
 1219 0144 CA000000 		.4byte	0xca
 1220 0148 03       		.uleb128 0x3
 1221 0149 37020000 		.4byte	.LASF29
 1222 014d 08       		.byte	0x8
 1223 014e 51       		.byte	0x51
 1224 014f BF000000 		.4byte	0xbf
 1225 0153 03       		.uleb128 0x3
 1226 0154 3F060000 		.4byte	.LASF30
 1227 0158 09       		.byte	0x9
 1228 0159 33       		.byte	0x33
 1229 015a CA000000 		.4byte	0xca
 1230 015e 03       		.uleb128 0x3
 1231 015f 2F060000 		.4byte	.LASF31
 1232 0163 09       		.byte	0x9
 1233 0164 3F       		.byte	0x3f
 1234 0165 69010000 		.4byte	0x169
 1235 0169 06       		.uleb128 0x6
 1236 016a C2020000 		.4byte	.LASF53
 1237 016e 48       		.byte	0x48
 1238 016f 0A       		.byte	0xa
 1239 0170 C2       		.byte	0xc2
 1240 0171 6E020000 		.4byte	0x26e
 1241 0175 07       		.uleb128 0x7
 1242 0176 26050000 		.4byte	.LASF32
 1243 017a 0A       		.byte	0xa
 1244 017b C3       		.byte	0xc3
 1245 017c 79020000 		.4byte	0x279
 1246 0180 00       		.byte	0
 1247 0181 07       		.uleb128 0x7
ARM GAS  /tmp/cc0TOxRm.s 			page 23


 1248 0182 90030000 		.4byte	.LASF33
 1249 0186 0A       		.byte	0xa
 1250 0187 C5       		.byte	0xc5
 1251 0188 79020000 		.4byte	0x279
 1252 018c 04       		.byte	0x4
 1253 018d 07       		.uleb128 0x7
 1254 018e FA000000 		.4byte	.LASF34
 1255 0192 0A       		.byte	0xa
 1256 0193 C7       		.byte	0xc7
 1257 0194 27010000 		.4byte	0x127
 1258 0198 08       		.byte	0x8
 1259 0199 07       		.uleb128 0x7
 1260 019a F2080000 		.4byte	.LASF35
 1261 019e 0A       		.byte	0xa
 1262 019f C8       		.byte	0xc8
 1263 01a0 A9040000 		.4byte	0x4a9
 1264 01a4 0C       		.byte	0xc
 1265 01a5 07       		.uleb128 0x7
 1266 01a6 D1010000 		.4byte	.LASF36
 1267 01aa 0A       		.byte	0xa
 1268 01ab CA       		.byte	0xca
 1269 01ac 79020000 		.4byte	0x279
 1270 01b0 10       		.byte	0x10
 1271 01b1 07       		.uleb128 0x7
 1272 01b2 F5030000 		.4byte	.LASF37
 1273 01b6 0A       		.byte	0xa
 1274 01b7 CB       		.byte	0xcb
 1275 01b8 79020000 		.4byte	0x279
 1276 01bc 14       		.byte	0x14
 1277 01bd 07       		.uleb128 0x7
 1278 01be 42080000 		.4byte	.LASF38
 1279 01c2 0A       		.byte	0xa
 1280 01c3 D2       		.byte	0xd2
 1281 01c4 EE060000 		.4byte	0x6ee
 1282 01c8 18       		.byte	0x18
 1283 01c9 07       		.uleb128 0x7
 1284 01ca F9040000 		.4byte	.LASF39
 1285 01ce 0A       		.byte	0xa
 1286 01cf DD       		.byte	0xdd
 1287 01d0 06010000 		.4byte	0x106
 1288 01d4 1C       		.byte	0x1c
 1289 01d5 07       		.uleb128 0x7
 1290 01d6 2D050000 		.4byte	.LASF40
 1291 01da 0A       		.byte	0xa
 1292 01db E1       		.byte	0xe1
 1293 01dc FB000000 		.4byte	0xfb
 1294 01e0 1D       		.byte	0x1d
 1295 01e1 07       		.uleb128 0x7
 1296 01e2 CB060000 		.4byte	.LASF41
 1297 01e6 0A       		.byte	0xa
 1298 01e7 E6       		.byte	0xe6
 1299 01e8 11010000 		.4byte	0x111
 1300 01ec 1E       		.byte	0x1e
 1301 01ed 07       		.uleb128 0x7
 1302 01ee 15050000 		.4byte	.LASF42
 1303 01f2 0A       		.byte	0xa
 1304 01f3 EC       		.byte	0xec
ARM GAS  /tmp/cc0TOxRm.s 			page 24


 1305 01f4 1C010000 		.4byte	0x11c
 1306 01f8 1F       		.byte	0x1f
 1307 01f9 07       		.uleb128 0x7
 1308 01fa 65020000 		.4byte	.LASF43
 1309 01fe 0A       		.byte	0xa
 1310 01ff F3       		.byte	0xf3
 1311 0200 00070000 		.4byte	0x700
 1312 0204 20       		.byte	0x20
 1313 0205 08       		.uleb128 0x8
 1314 0206 705F7500 		.ascii	"p_u\000"
 1315 020a 0A       		.byte	0xa
 1316 020b 3101     		.2byte	0x131
 1317 020d 29060000 		.4byte	0x629
 1318 0211 24       		.byte	0x24
 1319 0212 09       		.uleb128 0x9
 1320 0213 F8080000 		.4byte	.LASF44
 1321 0217 0A       		.byte	0xa
 1322 0218 3601     		.2byte	0x136
 1323 021a 7F020000 		.4byte	0x27f
 1324 021e 28       		.byte	0x28
 1325 021f 09       		.uleb128 0x9
 1326 0220 AE060000 		.4byte	.LASF45
 1327 0224 0A       		.byte	0xa
 1328 0225 3C01     		.2byte	0x13c
 1329 0227 A3020000 		.4byte	0x2a3
 1330 022b 2C       		.byte	0x2c
 1331 022c 09       		.uleb128 0x9
 1332 022d 7B080000 		.4byte	.LASF46
 1333 0231 0A       		.byte	0xa
 1334 0232 4001     		.2byte	0x140
 1335 0234 32010000 		.4byte	0x132
 1336 0238 34       		.byte	0x34
 1337 0239 09       		.uleb128 0x9
 1338 023a 84050000 		.4byte	.LASF47
 1339 023e 0A       		.byte	0xa
 1340 023f 4601     		.2byte	0x146
 1341 0241 3D010000 		.4byte	0x13d
 1342 0245 38       		.byte	0x38
 1343 0246 09       		.uleb128 0x9
 1344 0247 01050000 		.4byte	.LASF48
 1345 024b 0A       		.byte	0xa
 1346 024c 4D01     		.2byte	0x14d
 1347 024e E8060000 		.4byte	0x6e8
 1348 0252 3C       		.byte	0x3c
 1349 0253 09       		.uleb128 0x9
 1350 0254 49060000 		.4byte	.LASF49
 1351 0258 0A       		.byte	0xa
 1352 0259 5101     		.2byte	0x151
 1353 025b 27010000 		.4byte	0x127
 1354 025f 40       		.byte	0x40
 1355 0260 09       		.uleb128 0x9
 1356 0261 34010000 		.4byte	.LASF50
 1357 0265 0A       		.byte	0xa
 1358 0266 5801     		.2byte	0x158
 1359 0268 56030000 		.4byte	0x356
 1360 026c 44       		.byte	0x44
 1361 026d 00       		.byte	0
ARM GAS  /tmp/cc0TOxRm.s 			page 25


 1362 026e 03       		.uleb128 0x3
 1363 026f AF030000 		.4byte	.LASF51
 1364 0273 09       		.byte	0x9
 1365 0274 44       		.byte	0x44
 1366 0275 79020000 		.4byte	0x279
 1367 0279 0A       		.uleb128 0xa
 1368 027a 04       		.byte	0x4
 1369 027b 5E010000 		.4byte	0x15e
 1370 027f 03       		.uleb128 0x3
 1371 0280 60080000 		.4byte	.LASF52
 1372 0284 09       		.byte	0x9
 1373 0285 49       		.byte	0x49
 1374 0286 8A020000 		.4byte	0x28a
 1375 028a 06       		.uleb128 0x6
 1376 028b BF050000 		.4byte	.LASF54
 1377 028f 04       		.byte	0x4
 1378 0290 0A       		.byte	0xa
 1379 0291 B0       		.byte	0xb0
 1380 0292 A3020000 		.4byte	0x2a3
 1381 0296 07       		.uleb128 0x7
 1382 0297 26050000 		.4byte	.LASF32
 1383 029b 0A       		.byte	0xa
 1384 029c B1       		.byte	0xb1
 1385 029d 79020000 		.4byte	0x279
 1386 02a1 00       		.byte	0
 1387 02a2 00       		.byte	0
 1388 02a3 03       		.uleb128 0x3
 1389 02a4 56050000 		.4byte	.LASF55
 1390 02a8 09       		.byte	0x9
 1391 02a9 50       		.byte	0x50
 1392 02aa AE020000 		.4byte	0x2ae
 1393 02ae 06       		.uleb128 0x6
 1394 02af D0000000 		.4byte	.LASF56
 1395 02b3 08       		.byte	0x8
 1396 02b4 0A       		.byte	0xa
 1397 02b5 B7       		.byte	0xb7
 1398 02b6 D3020000 		.4byte	0x2d3
 1399 02ba 07       		.uleb128 0x7
 1400 02bb 26050000 		.4byte	.LASF32
 1401 02bf 0A       		.byte	0xa
 1402 02c0 B8       		.byte	0xb8
 1403 02c1 79020000 		.4byte	0x279
 1404 02c5 00       		.byte	0
 1405 02c6 07       		.uleb128 0x7
 1406 02c7 90030000 		.4byte	.LASF33
 1407 02cb 0A       		.byte	0xa
 1408 02cc B9       		.byte	0xb9
 1409 02cd 79020000 		.4byte	0x279
 1410 02d1 04       		.byte	0x4
 1411 02d2 00       		.byte	0
 1412 02d3 03       		.uleb128 0x3
 1413 02d4 0E000000 		.4byte	.LASF57
 1414 02d8 09       		.byte	0x9
 1415 02d9 57       		.byte	0x57
 1416 02da DE020000 		.4byte	0x2de
 1417 02de 0B       		.uleb128 0xb
 1418 02df 30030000 		.4byte	.LASF58
ARM GAS  /tmp/cc0TOxRm.s 			page 26


 1419 02e3 1C       		.byte	0x1c
 1420 02e4 0A       		.byte	0xa
 1421 02e5 9001     		.2byte	0x190
 1422 02e7 3A030000 		.4byte	0x33a
 1423 02eb 09       		.uleb128 0x9
 1424 02ec AC050000 		.4byte	.LASF59
 1425 02f0 0A       		.byte	0xa
 1426 02f1 9101     		.2byte	0x191
 1427 02f3 A3020000 		.4byte	0x2a3
 1428 02f7 00       		.byte	0
 1429 02f8 09       		.uleb128 0x9
 1430 02f9 77030000 		.4byte	.LASF60
 1431 02fd 0A       		.byte	0xa
 1432 02fe 9201     		.2byte	0x192
 1433 0300 27010000 		.4byte	0x127
 1434 0304 08       		.byte	0x8
 1435 0305 09       		.uleb128 0x9
 1436 0306 FD030000 		.4byte	.LASF61
 1437 030a 0A       		.byte	0xa
 1438 030b 9401     		.2byte	0x194
 1439 030d A9040000 		.4byte	0x4a9
 1440 0311 0C       		.byte	0xc
 1441 0312 09       		.uleb128 0x9
 1442 0313 EA010000 		.4byte	.LASF62
 1443 0317 0A       		.byte	0xa
 1444 0318 9701     		.2byte	0x197
 1445 031a 79020000 		.4byte	0x279
 1446 031e 10       		.byte	0x10
 1447 031f 09       		.uleb128 0x9
 1448 0320 37040000 		.4byte	.LASF63
 1449 0324 0A       		.byte	0xa
 1450 0325 9801     		.2byte	0x198
 1451 0327 79020000 		.4byte	0x279
 1452 032b 14       		.byte	0x14
 1453 032c 09       		.uleb128 0x9
 1454 032d 2D040000 		.4byte	.LASF64
 1455 0331 0A       		.byte	0xa
 1456 0332 9B01     		.2byte	0x19b
 1457 0334 79020000 		.4byte	0x279
 1458 0338 18       		.byte	0x18
 1459 0339 00       		.byte	0
 1460 033a 03       		.uleb128 0x3
 1461 033b 54060000 		.4byte	.LASF65
 1462 033f 09       		.byte	0x9
 1463 0340 5C       		.byte	0x5c
 1464 0341 45030000 		.4byte	0x345
 1465 0345 0A       		.uleb128 0xa
 1466 0346 04       		.byte	0x4
 1467 0347 4B030000 		.4byte	0x34b
 1468 034b 0C       		.uleb128 0xc
 1469 034c 56030000 		.4byte	0x356
 1470 0350 0D       		.uleb128 0xd
 1471 0351 56030000 		.4byte	0x356
 1472 0355 00       		.byte	0
 1473 0356 0E       		.uleb128 0xe
 1474 0357 04       		.byte	0x4
 1475 0358 03       		.uleb128 0x3
ARM GAS  /tmp/cc0TOxRm.s 			page 27


 1476 0359 85040000 		.4byte	.LASF66
 1477 035d 09       		.byte	0x9
 1478 035e 61       		.byte	0x61
 1479 035f 63030000 		.4byte	0x363
 1480 0363 0B       		.uleb128 0xb
 1481 0364 66050000 		.4byte	.LASF67
 1482 0368 14       		.byte	0x14
 1483 0369 0A       		.byte	0xa
 1484 036a 6B01     		.2byte	0x16b
 1485 036c B2030000 		.4byte	0x3b2
 1486 0370 09       		.uleb128 0x9
 1487 0371 5D020000 		.4byte	.LASF68
 1488 0375 0A       		.byte	0xa
 1489 0376 6C01     		.2byte	0x16c
 1490 0378 05070000 		.4byte	0x705
 1491 037c 00       		.byte	0
 1492 037d 09       		.uleb128 0x9
 1493 037e FB010000 		.4byte	.LASF69
 1494 0382 0A       		.byte	0xa
 1495 0383 6D01     		.2byte	0x16d
 1496 0385 05070000 		.4byte	0x705
 1497 0389 04       		.byte	0x4
 1498 038a 09       		.uleb128 0x9
 1499 038b 73020000 		.4byte	.LASF70
 1500 038f 0A       		.byte	0xa
 1501 0390 6E01     		.2byte	0x16e
 1502 0392 53010000 		.4byte	0x153
 1503 0396 08       		.byte	0x8
 1504 0397 09       		.uleb128 0x9
 1505 0398 13040000 		.4byte	.LASF71
 1506 039c 0A       		.byte	0xa
 1507 039d 6F01     		.2byte	0x16f
 1508 039f 3A030000 		.4byte	0x33a
 1509 03a3 0C       		.byte	0xc
 1510 03a4 09       		.uleb128 0x9
 1511 03a5 B9060000 		.4byte	.LASF72
 1512 03a9 0A       		.byte	0xa
 1513 03aa 7101     		.2byte	0x171
 1514 03ac 56030000 		.4byte	0x356
 1515 03b0 10       		.byte	0x10
 1516 03b1 00       		.byte	0
 1517 03b2 03       		.uleb128 0x3
 1518 03b3 AD000000 		.4byte	.LASF73
 1519 03b7 09       		.byte	0x9
 1520 03b8 66       		.byte	0x66
 1521 03b9 BD030000 		.4byte	0x3bd
 1522 03bd 0B       		.uleb128 0xb
 1523 03be 20020000 		.4byte	.LASF74
 1524 03c2 10       		.byte	0x10
 1525 03c3 0A       		.byte	0xa
 1526 03c4 7B01     		.2byte	0x17b
 1527 03c6 FF030000 		.4byte	0x3ff
 1528 03ca 09       		.uleb128 0x9
 1529 03cb 5D020000 		.4byte	.LASF68
 1530 03cf 0A       		.byte	0xa
 1531 03d0 7C01     		.2byte	0x17c
 1532 03d2 05070000 		.4byte	0x705
ARM GAS  /tmp/cc0TOxRm.s 			page 28


 1533 03d6 00       		.byte	0
 1534 03d7 09       		.uleb128 0x9
 1535 03d8 FB010000 		.4byte	.LASF69
 1536 03dc 0A       		.byte	0xa
 1537 03dd 7E01     		.2byte	0x17e
 1538 03df 05070000 		.4byte	0x705
 1539 03e3 04       		.byte	0x4
 1540 03e4 09       		.uleb128 0x9
 1541 03e5 73020000 		.4byte	.LASF70
 1542 03e9 0A       		.byte	0xa
 1543 03ea 8001     		.2byte	0x180
 1544 03ec 53010000 		.4byte	0x153
 1545 03f0 08       		.byte	0x8
 1546 03f1 09       		.uleb128 0x9
 1547 03f2 B4050000 		.4byte	.LASF75
 1548 03f6 0A       		.byte	0xa
 1549 03f7 8201     		.2byte	0x182
 1550 03f9 00070000 		.4byte	0x700
 1551 03fd 0C       		.byte	0xc
 1552 03fe 00       		.byte	0
 1553 03ff 03       		.uleb128 0x3
 1554 0400 7C020000 		.4byte	.LASF76
 1555 0404 09       		.byte	0x9
 1556 0405 6B       		.byte	0x6b
 1557 0406 0A040000 		.4byte	0x40a
 1558 040a 0B       		.uleb128 0xb
 1559 040b C4040000 		.4byte	.LASF77
 1560 040f 04       		.byte	0x4
 1561 0410 0A       		.byte	0xa
 1562 0411 A201     		.2byte	0x1a2
 1563 0413 25040000 		.4byte	0x425
 1564 0417 09       		.uleb128 0x9
 1565 0418 76060000 		.4byte	.LASF78
 1566 041c 0A       		.byte	0xa
 1567 041d AA01     		.2byte	0x1aa
 1568 041f 0B070000 		.4byte	0x70b
 1569 0423 00       		.byte	0
 1570 0424 00       		.byte	0
 1571 0425 03       		.uleb128 0x3
 1572 0426 FE020000 		.4byte	.LASF79
 1573 042a 09       		.byte	0x9
 1574 042b 70       		.byte	0x70
 1575 042c 30040000 		.4byte	0x430
 1576 0430 0F       		.uleb128 0xf
 1577 0431 6D010000 		.4byte	.LASF80
 1578 0435 5802     		.2byte	0x258
 1579 0437 0A       		.byte	0xa
 1580 0438 C201     		.2byte	0x1c2
 1581 043a 8C040000 		.4byte	0x48c
 1582 043e 09       		.uleb128 0x9
 1583 043f DD060000 		.4byte	.LASF81
 1584 0443 0A       		.byte	0xa
 1585 0444 C601     		.2byte	0x1c6
 1586 0446 D3020000 		.4byte	0x2d3
 1587 044a 00       		.byte	0
 1588 044b 09       		.uleb128 0x9
 1589 044c 6E000000 		.4byte	.LASF82
ARM GAS  /tmp/cc0TOxRm.s 			page 29


 1590 0450 0A       		.byte	0xa
 1591 0451 CA01     		.2byte	0x1ca
 1592 0453 B2030000 		.4byte	0x3b2
 1593 0457 1C       		.byte	0x1c
 1594 0458 08       		.uleb128 0x8
 1595 0459 64626700 		.ascii	"dbg\000"
 1596 045d 0A       		.byte	0xa
 1597 045e CE01     		.2byte	0x1ce
 1598 0460 FF030000 		.4byte	0x3ff
 1599 0464 2C       		.byte	0x2c
 1600 0465 09       		.uleb128 0x9
 1601 0466 A2000000 		.4byte	.LASF83
 1602 046a 0A       		.byte	0xa
 1603 046b D201     		.2byte	0x1d2
 1604 046d 5E010000 		.4byte	0x15e
 1605 0471 30       		.byte	0x30
 1606 0472 08       		.uleb128 0x8
 1607 0473 746D00   		.ascii	"tm\000"
 1608 0476 0A       		.byte	0xa
 1609 0477 D701     		.2byte	0x1d7
 1610 0479 1E060000 		.4byte	0x61e
 1611 047d 78       		.byte	0x78
 1612 047e 09       		.uleb128 0x9
 1613 047f 11020000 		.4byte	.LASF84
 1614 0483 0A       		.byte	0xa
 1615 0484 E301     		.2byte	0x1e3
 1616 0486 10070000 		.4byte	0x710
 1617 048a 80       		.byte	0x80
 1618 048b 00       		.byte	0
 1619 048c 02       		.uleb128 0x2
 1620 048d 04       		.byte	0x4
 1621 048e 07       		.byte	0x7
 1622 048f FE060000 		.4byte	.LASF85
 1623 0493 03       		.uleb128 0x3
 1624 0494 F2010000 		.4byte	.LASF86
 1625 0498 0B       		.byte	0xb
 1626 0499 65       		.byte	0x65
 1627 049a 56030000 		.4byte	0x356
 1628 049e 03       		.uleb128 0x3
 1629 049f 5A030000 		.4byte	.LASF87
 1630 04a3 0B       		.byte	0xb
 1631 04a4 6D       		.byte	0x6d
 1632 04a5 D5000000 		.4byte	0xd5
 1633 04a9 06       		.uleb128 0x6
 1634 04aa A1020000 		.4byte	.LASF88
 1635 04ae 04       		.byte	0x4
 1636 04af 0B       		.byte	0xb
 1637 04b0 89       		.byte	0x89
 1638 04b1 C2040000 		.4byte	0x4c2
 1639 04b5 10       		.uleb128 0x10
 1640 04b6 72313300 		.ascii	"r13\000"
 1641 04ba 0B       		.byte	0xb
 1642 04bb 8A       		.byte	0x8a
 1643 04bc 03060000 		.4byte	0x603
 1644 04c0 00       		.byte	0
 1645 04c1 00       		.byte	0
 1646 04c2 06       		.uleb128 0x6
ARM GAS  /tmp/cc0TOxRm.s 			page 30


 1647 04c3 62000000 		.4byte	.LASF89
 1648 04c7 64       		.byte	0x64
 1649 04c8 0C       		.byte	0xc
 1650 04c9 F4       		.byte	0xf4
 1651 04ca 03060000 		.4byte	0x603
 1652 04ce 10       		.uleb128 0x10
 1653 04cf 73313600 		.ascii	"s16\000"
 1654 04d3 0C       		.byte	0xc
 1655 04d4 F6       		.byte	0xf6
 1656 04d5 93040000 		.4byte	0x493
 1657 04d9 00       		.byte	0
 1658 04da 10       		.uleb128 0x10
 1659 04db 73313700 		.ascii	"s17\000"
 1660 04df 0C       		.byte	0xc
 1661 04e0 F7       		.byte	0xf7
 1662 04e1 93040000 		.4byte	0x493
 1663 04e5 04       		.byte	0x4
 1664 04e6 10       		.uleb128 0x10
 1665 04e7 73313800 		.ascii	"s18\000"
 1666 04eb 0C       		.byte	0xc
 1667 04ec F8       		.byte	0xf8
 1668 04ed 93040000 		.4byte	0x493
 1669 04f1 08       		.byte	0x8
 1670 04f2 10       		.uleb128 0x10
 1671 04f3 73313900 		.ascii	"s19\000"
 1672 04f7 0C       		.byte	0xc
 1673 04f8 F9       		.byte	0xf9
 1674 04f9 93040000 		.4byte	0x493
 1675 04fd 0C       		.byte	0xc
 1676 04fe 10       		.uleb128 0x10
 1677 04ff 73323000 		.ascii	"s20\000"
 1678 0503 0C       		.byte	0xc
 1679 0504 FA       		.byte	0xfa
 1680 0505 93040000 		.4byte	0x493
 1681 0509 10       		.byte	0x10
 1682 050a 10       		.uleb128 0x10
 1683 050b 73323100 		.ascii	"s21\000"
 1684 050f 0C       		.byte	0xc
 1685 0510 FB       		.byte	0xfb
 1686 0511 93040000 		.4byte	0x493
 1687 0515 14       		.byte	0x14
 1688 0516 10       		.uleb128 0x10
 1689 0517 73323200 		.ascii	"s22\000"
 1690 051b 0C       		.byte	0xc
 1691 051c FC       		.byte	0xfc
 1692 051d 93040000 		.4byte	0x493
 1693 0521 18       		.byte	0x18
 1694 0522 10       		.uleb128 0x10
 1695 0523 73323300 		.ascii	"s23\000"
 1696 0527 0C       		.byte	0xc
 1697 0528 FD       		.byte	0xfd
 1698 0529 93040000 		.4byte	0x493
 1699 052d 1C       		.byte	0x1c
 1700 052e 10       		.uleb128 0x10
 1701 052f 73323400 		.ascii	"s24\000"
 1702 0533 0C       		.byte	0xc
 1703 0534 FE       		.byte	0xfe
ARM GAS  /tmp/cc0TOxRm.s 			page 31


 1704 0535 93040000 		.4byte	0x493
 1705 0539 20       		.byte	0x20
 1706 053a 10       		.uleb128 0x10
 1707 053b 73323500 		.ascii	"s25\000"
 1708 053f 0C       		.byte	0xc
 1709 0540 FF       		.byte	0xff
 1710 0541 93040000 		.4byte	0x493
 1711 0545 24       		.byte	0x24
 1712 0546 08       		.uleb128 0x8
 1713 0547 73323600 		.ascii	"s26\000"
 1714 054b 0C       		.byte	0xc
 1715 054c 0001     		.2byte	0x100
 1716 054e 93040000 		.4byte	0x493
 1717 0552 28       		.byte	0x28
 1718 0553 08       		.uleb128 0x8
 1719 0554 73323700 		.ascii	"s27\000"
 1720 0558 0C       		.byte	0xc
 1721 0559 0101     		.2byte	0x101
 1722 055b 93040000 		.4byte	0x493
 1723 055f 2C       		.byte	0x2c
 1724 0560 08       		.uleb128 0x8
 1725 0561 73323800 		.ascii	"s28\000"
 1726 0565 0C       		.byte	0xc
 1727 0566 0201     		.2byte	0x102
 1728 0568 93040000 		.4byte	0x493
 1729 056c 30       		.byte	0x30
 1730 056d 08       		.uleb128 0x8
 1731 056e 73323900 		.ascii	"s29\000"
 1732 0572 0C       		.byte	0xc
 1733 0573 0301     		.2byte	0x103
 1734 0575 93040000 		.4byte	0x493
 1735 0579 34       		.byte	0x34
 1736 057a 08       		.uleb128 0x8
 1737 057b 73333000 		.ascii	"s30\000"
 1738 057f 0C       		.byte	0xc
 1739 0580 0401     		.2byte	0x104
 1740 0582 93040000 		.4byte	0x493
 1741 0586 38       		.byte	0x38
 1742 0587 08       		.uleb128 0x8
 1743 0588 73333100 		.ascii	"s31\000"
 1744 058c 0C       		.byte	0xc
 1745 058d 0501     		.2byte	0x105
 1746 058f 93040000 		.4byte	0x493
 1747 0593 3C       		.byte	0x3c
 1748 0594 08       		.uleb128 0x8
 1749 0595 723400   		.ascii	"r4\000"
 1750 0598 0C       		.byte	0xc
 1751 0599 0701     		.2byte	0x107
 1752 059b 93040000 		.4byte	0x493
 1753 059f 40       		.byte	0x40
 1754 05a0 08       		.uleb128 0x8
 1755 05a1 723500   		.ascii	"r5\000"
 1756 05a4 0C       		.byte	0xc
 1757 05a5 0801     		.2byte	0x108
 1758 05a7 93040000 		.4byte	0x493
 1759 05ab 44       		.byte	0x44
 1760 05ac 08       		.uleb128 0x8
ARM GAS  /tmp/cc0TOxRm.s 			page 32


 1761 05ad 723600   		.ascii	"r6\000"
 1762 05b0 0C       		.byte	0xc
 1763 05b1 0901     		.2byte	0x109
 1764 05b3 93040000 		.4byte	0x493
 1765 05b7 48       		.byte	0x48
 1766 05b8 08       		.uleb128 0x8
 1767 05b9 723700   		.ascii	"r7\000"
 1768 05bc 0C       		.byte	0xc
 1769 05bd 0A01     		.2byte	0x10a
 1770 05bf 93040000 		.4byte	0x493
 1771 05c3 4C       		.byte	0x4c
 1772 05c4 08       		.uleb128 0x8
 1773 05c5 723800   		.ascii	"r8\000"
 1774 05c8 0C       		.byte	0xc
 1775 05c9 0B01     		.2byte	0x10b
 1776 05cb 93040000 		.4byte	0x493
 1777 05cf 50       		.byte	0x50
 1778 05d0 08       		.uleb128 0x8
 1779 05d1 723900   		.ascii	"r9\000"
 1780 05d4 0C       		.byte	0xc
 1781 05d5 0C01     		.2byte	0x10c
 1782 05d7 93040000 		.4byte	0x493
 1783 05db 54       		.byte	0x54
 1784 05dc 08       		.uleb128 0x8
 1785 05dd 72313000 		.ascii	"r10\000"
 1786 05e1 0C       		.byte	0xc
 1787 05e2 0D01     		.2byte	0x10d
 1788 05e4 93040000 		.4byte	0x493
 1789 05e8 58       		.byte	0x58
 1790 05e9 08       		.uleb128 0x8
 1791 05ea 72313100 		.ascii	"r11\000"
 1792 05ee 0C       		.byte	0xc
 1793 05ef 0E01     		.2byte	0x10e
 1794 05f1 93040000 		.4byte	0x493
 1795 05f5 5C       		.byte	0x5c
 1796 05f6 08       		.uleb128 0x8
 1797 05f7 6C7200   		.ascii	"lr\000"
 1798 05fa 0C       		.byte	0xc
 1799 05fb 0F01     		.2byte	0x10f
 1800 05fd 93040000 		.4byte	0x493
 1801 0601 60       		.byte	0x60
 1802 0602 00       		.byte	0
 1803 0603 0A       		.uleb128 0xa
 1804 0604 04       		.byte	0x4
 1805 0605 C2040000 		.4byte	0x4c2
 1806 0609 11       		.uleb128 0x11
 1807 060a 04       		.byte	0x4
 1808 060b 0D       		.byte	0xd
 1809 060c 38       		.byte	0x38
 1810 060d 1E060000 		.4byte	0x61e
 1811 0611 07       		.uleb128 0x7
 1812 0612 80060000 		.4byte	.LASF90
 1813 0616 0D       		.byte	0xd
 1814 0617 3C       		.byte	0x3c
 1815 0618 F0000000 		.4byte	0xf0
 1816 061c 00       		.byte	0
 1817 061d 00       		.byte	0
ARM GAS  /tmp/cc0TOxRm.s 			page 33


 1818 061e 03       		.uleb128 0x3
 1819 061f DA030000 		.4byte	.LASF91
 1820 0623 0D       		.byte	0xd
 1821 0624 3D       		.byte	0x3d
 1822 0625 09060000 		.4byte	0x609
 1823 0629 12       		.uleb128 0x12
 1824 062a 04       		.byte	0x4
 1825 062b 0A       		.byte	0xa
 1826 062c FA       		.byte	0xfa
 1827 062d 86060000 		.4byte	0x686
 1828 0631 13       		.uleb128 0x13
 1829 0632 22000000 		.4byte	.LASF92
 1830 0636 0A       		.byte	0xa
 1831 0637 0101     		.2byte	0x101
 1832 0639 32010000 		.4byte	0x132
 1833 063d 13       		.uleb128 0x13
 1834 063e E1010000 		.4byte	.LASF93
 1835 0642 0A       		.byte	0xa
 1836 0643 0801     		.2byte	0x108
 1837 0645 32010000 		.4byte	0x132
 1838 0649 13       		.uleb128 0x13
 1839 064a 60010000 		.4byte	.LASF94
 1840 064e 0A       		.byte	0xa
 1841 064f 0F01     		.2byte	0x10f
 1842 0651 56030000 		.4byte	0x356
 1843 0655 13       		.uleb128 0x13
 1844 0656 CB030000 		.4byte	.LASF95
 1845 065a 0A       		.byte	0xa
 1846 065b 1601     		.2byte	0x116
 1847 065d 86060000 		.4byte	0x686
 1848 0661 13       		.uleb128 0x13
 1849 0662 6C020000 		.4byte	.LASF96
 1850 0666 0A       		.byte	0xa
 1851 0667 1E01     		.2byte	0x11e
 1852 0669 B1060000 		.4byte	0x6b1
 1853 066d 13       		.uleb128 0x13
 1854 066e A5050000 		.4byte	.LASF97
 1855 0672 0A       		.byte	0xa
 1856 0673 2701     		.2byte	0x127
 1857 0675 E8060000 		.4byte	0x6e8
 1858 0679 13       		.uleb128 0x13
 1859 067a 1F050000 		.4byte	.LASF98
 1860 067e 0A       		.byte	0xa
 1861 067f 2F01     		.2byte	0x12f
 1862 0681 3D010000 		.4byte	0x13d
 1863 0685 00       		.byte	0
 1864 0686 0A       		.uleb128 0xa
 1865 0687 04       		.byte	0x4
 1866 0688 6E020000 		.4byte	0x26e
 1867 068c 06       		.uleb128 0x6
 1868 068d 77050000 		.4byte	.LASF99
 1869 0691 0C       		.byte	0xc
 1870 0692 0E       		.byte	0xe
 1871 0693 34       		.byte	0x34
 1872 0694 B1060000 		.4byte	0x6b1
 1873 0698 07       		.uleb128 0x7
 1874 0699 D9010000 		.4byte	.LASF100
ARM GAS  /tmp/cc0TOxRm.s 			page 34


 1875 069d 0E       		.byte	0xe
 1876 069e 35       		.byte	0x35
 1877 069f A3020000 		.4byte	0x2a3
 1878 06a3 00       		.byte	0
 1879 06a4 07       		.uleb128 0x7
 1880 06a5 96020000 		.4byte	.LASF101
 1881 06a9 0E       		.byte	0xe
 1882 06aa 37       		.byte	0x37
 1883 06ab 48010000 		.4byte	0x148
 1884 06af 08       		.byte	0x8
 1885 06b0 00       		.byte	0
 1886 06b1 0A       		.uleb128 0xa
 1887 06b2 04       		.byte	0x4
 1888 06b3 8C060000 		.4byte	0x68c
 1889 06b7 06       		.uleb128 0x6
 1890 06b8 39080000 		.4byte	.LASF102
 1891 06bc 10       		.byte	0x10
 1892 06bd 0F       		.byte	0xf
 1893 06be 39       		.byte	0x39
 1894 06bf E8060000 		.4byte	0x6e8
 1895 06c3 07       		.uleb128 0x7
 1896 06c4 3C010000 		.4byte	.LASF103
 1897 06c8 0F       		.byte	0xf
 1898 06c9 3A       		.byte	0x3a
 1899 06ca A3020000 		.4byte	0x2a3
 1900 06ce 00       		.byte	0
 1901 06cf 07       		.uleb128 0x7
 1902 06d0 DC080000 		.4byte	.LASF104
 1903 06d4 0F       		.byte	0xf
 1904 06d5 3C       		.byte	0x3c
 1905 06d6 79020000 		.4byte	0x279
 1906 06da 08       		.byte	0x8
 1907 06db 07       		.uleb128 0x7
 1908 06dc 38060000 		.4byte	.LASF105
 1909 06e0 0F       		.byte	0xf
 1910 06e1 3E       		.byte	0x3e
 1911 06e2 36070000 		.4byte	0x736
 1912 06e6 0C       		.byte	0xc
 1913 06e7 00       		.byte	0
 1914 06e8 0A       		.uleb128 0xa
 1915 06e9 04       		.byte	0x4
 1916 06ea B7060000 		.4byte	0x6b7
 1917 06ee 0A       		.uleb128 0xa
 1918 06ef 04       		.byte	0x4
 1919 06f0 F4060000 		.4byte	0x6f4
 1920 06f4 14       		.uleb128 0x14
 1921 06f5 F9060000 		.4byte	0x6f9
 1922 06f9 02       		.uleb128 0x2
 1923 06fa 01       		.byte	0x1
 1924 06fb 08       		.byte	0x8
 1925 06fc 1F060000 		.4byte	.LASF106
 1926 0700 05       		.uleb128 0x5
 1927 0701 53010000 		.4byte	0x153
 1928 0705 0A       		.uleb128 0xa
 1929 0706 04       		.byte	0x4
 1930 0707 58030000 		.4byte	0x358
 1931 070b 05       		.uleb128 0x5
ARM GAS  /tmp/cc0TOxRm.s 			page 35


 1932 070c EE060000 		.4byte	0x6ee
 1933 0710 15       		.uleb128 0x15
 1934 0711 9E040000 		.4byte	0x49e
 1935 0715 20070000 		.4byte	0x720
 1936 0719 16       		.uleb128 0x16
 1937 071a 8C040000 		.4byte	0x48c
 1938 071e 3A       		.byte	0x3a
 1939 071f 00       		.byte	0
 1940 0720 03       		.uleb128 0x3
 1941 0721 00000000 		.4byte	.LASF107
 1942 0725 10       		.byte	0x10
 1943 0726 34       		.byte	0x34
 1944 0727 45030000 		.4byte	0x345
 1945 072b 03       		.uleb128 0x3
 1946 072c 03020000 		.4byte	.LASF108
 1947 0730 0F       		.byte	0xf
 1948 0731 34       		.byte	0x34
 1949 0732 B7060000 		.4byte	0x6b7
 1950 0736 0A       		.uleb128 0xa
 1951 0737 04       		.byte	0x4
 1952 0738 2B070000 		.4byte	0x72b
 1953 073c 17       		.uleb128 0x17
 1954 073d 01       		.byte	0x1
 1955 073e 11       		.byte	0x11
 1956 073f 45       		.byte	0x45
 1957 0740 6F070000 		.4byte	0x76f
 1958 0744 18       		.uleb128 0x18
 1959 0745 03040000 		.4byte	.LASF109
 1960 0749 00       		.sleb128 0
 1961 074a 18       		.uleb128 0x18
 1962 074b 40000000 		.4byte	.LASF110
 1963 074f 01       		.sleb128 1
 1964 0750 18       		.uleb128 0x18
 1965 0751 E1000000 		.4byte	.LASF111
 1966 0755 02       		.sleb128 2
 1967 0756 18       		.uleb128 0x18
 1968 0757 E3060000 		.4byte	.LASF112
 1969 075b 03       		.sleb128 3
 1970 075c 18       		.uleb128 0x18
 1971 075d 80010000 		.4byte	.LASF113
 1972 0761 04       		.sleb128 4
 1973 0762 18       		.uleb128 0x18
 1974 0763 A9020000 		.4byte	.LASF114
 1975 0767 05       		.sleb128 5
 1976 0768 18       		.uleb128 0x18
 1977 0769 3F040000 		.4byte	.LASF115
 1978 076d 06       		.sleb128 6
 1979 076e 00       		.byte	0
 1980 076f 03       		.uleb128 0x3
 1981 0770 2B080000 		.4byte	.LASF116
 1982 0774 11       		.byte	0x11
 1983 0775 4D       		.byte	0x4d
 1984 0776 3C070000 		.4byte	0x73c
 1985 077a 02       		.uleb128 0x2
 1986 077b 01       		.byte	0x1
 1987 077c 02       		.byte	0x2
 1988 077d D4040000 		.4byte	.LASF117
ARM GAS  /tmp/cc0TOxRm.s 			page 36


 1989 0781 19       		.uleb128 0x19
 1990 0782 01       		.byte	0x1
 1991 0783 11       		.byte	0x11
 1992 0784 C101     		.2byte	0x1c1
 1993 0786 BB070000 		.4byte	0x7bb
 1994 078a 18       		.uleb128 0x18
 1995 078b 7F000000 		.4byte	.LASF118
 1996 078f 00       		.sleb128 0
 1997 0790 18       		.uleb128 0x18
 1998 0791 95040000 		.4byte	.LASF119
 1999 0795 01       		.sleb128 1
 2000 0796 18       		.uleb128 0x18
 2001 0797 3E050000 		.4byte	.LASF120
 2002 079b 02       		.sleb128 2
 2003 079c 18       		.uleb128 0x18
 2004 079d 73040000 		.4byte	.LASF121
 2005 07a1 03       		.sleb128 3
 2006 07a2 18       		.uleb128 0x18
 2007 07a3 A6080000 		.4byte	.LASF122
 2008 07a7 04       		.sleb128 4
 2009 07a8 18       		.uleb128 0x18
 2010 07a9 AC040000 		.4byte	.LASF123
 2011 07ad 05       		.sleb128 5
 2012 07ae 18       		.uleb128 0x18
 2013 07af A6010000 		.4byte	.LASF124
 2014 07b3 06       		.sleb128 6
 2015 07b4 18       		.uleb128 0x18
 2016 07b5 8F050000 		.4byte	.LASF125
 2017 07b9 07       		.sleb128 7
 2018 07ba 00       		.byte	0
 2019 07bb 1A       		.uleb128 0x1a
 2020 07bc 29000000 		.4byte	.LASF126
 2021 07c0 11       		.byte	0x11
 2022 07c1 CA01     		.2byte	0x1ca
 2023 07c3 81070000 		.4byte	0x781
 2024 07c7 1B       		.uleb128 0x1b
 2025 07c8 68060000 		.4byte	.LASF130
 2026 07cc 03       		.byte	0x3
 2027 07cd 2002     		.2byte	0x220
 2028 07cf 03       		.byte	0x3
 2029 07d0 E1070000 		.4byte	0x7e1
 2030 07d4 1C       		.uleb128 0x1c
 2031 07d5 0B020000 		.4byte	.LASF133
 2032 07d9 03       		.byte	0x3
 2033 07da 2002     		.2byte	0x220
 2034 07dc CA000000 		.4byte	0xca
 2035 07e0 00       		.byte	0
 2036 07e1 1D       		.uleb128 0x1d
 2037 07e2 75000000 		.4byte	.LASF127
 2038 07e6 0C       		.byte	0xc
 2039 07e7 BC01     		.2byte	0x1bc
 2040 07e9 03       		.byte	0x3
 2041 07ea 1D       		.uleb128 0x1d
 2042 07eb 4A010000 		.4byte	.LASF128
 2043 07ef 0C       		.byte	0xc
 2044 07f0 CA01     		.2byte	0x1ca
 2045 07f2 03       		.byte	0x3
ARM GAS  /tmp/cc0TOxRm.s 			page 37


 2046 07f3 1D       		.uleb128 0x1d
 2047 07f4 4C050000 		.4byte	.LASF129
 2048 07f8 12       		.byte	0x12
 2049 07f9 5A01     		.2byte	0x15a
 2050 07fb 03       		.byte	0x3
 2051 07fc 1E       		.uleb128 0x1e
 2052 07fd 3D020000 		.4byte	.LASF167
 2053 0801 04       		.byte	0x4
 2054 0802 E4       		.byte	0xe4
 2055 0803 53010000 		.4byte	0x153
 2056 0807 03       		.byte	0x3
 2057 0808 1B       		.uleb128 0x1b
 2058 0809 6F080000 		.4byte	.LASF131
 2059 080d 12       		.byte	0x12
 2060 080e 6601     		.2byte	0x166
 2061 0810 03       		.byte	0x3
 2062 0811 23080000 		.4byte	0x823
 2063 0815 1F       		.uleb128 0x1f
 2064 0816 35050000 		.4byte	.LASF135
 2065 081a 33080000 		.4byte	0x833
 2066 081e 6F080000 		.4byte	.LASF131
 2067 0822 00       		.byte	0
 2068 0823 15       		.uleb128 0x15
 2069 0824 F9060000 		.4byte	0x6f9
 2070 0828 33080000 		.4byte	0x833
 2071 082c 16       		.uleb128 0x16
 2072 082d 8C040000 		.4byte	0x48c
 2073 0831 0B       		.byte	0xb
 2074 0832 00       		.byte	0
 2075 0833 14       		.uleb128 0x14
 2076 0834 23080000 		.4byte	0x823
 2077 0838 20       		.uleb128 0x20
 2078 0839 B9080000 		.4byte	.LASF132
 2079 083d 02       		.byte	0x2
 2080 083e 84       		.byte	0x84
 2081 083f 03       		.byte	0x3
 2082 0840 50080000 		.4byte	0x850
 2083 0844 21       		.uleb128 0x21
 2084 0845 9C020000 		.4byte	.LASF134
 2085 0849 02       		.byte	0x2
 2086 084a 84       		.byte	0x84
 2087 084b EE060000 		.4byte	0x6ee
 2088 084f 00       		.byte	0
 2089 0850 22       		.uleb128 0x22
 2090 0851 1B040000 		.4byte	.LASF137
 2091 0855 04       		.byte	0x4
 2092 0856 F7       		.byte	0xf7
 2093 0857 53010000 		.4byte	0x153
 2094 085b 03       		.byte	0x3
 2095 085c 6C080000 		.4byte	0x86c
 2096 0860 23       		.uleb128 0x23
 2097 0861 28030000 		.4byte	.LASF136
 2098 0865 04       		.byte	0x4
 2099 0866 F8       		.byte	0xf8
 2100 0867 53010000 		.4byte	0x153
 2101 086b 00       		.byte	0
 2102 086c 22       		.uleb128 0x22
ARM GAS  /tmp/cc0TOxRm.s 			page 38


 2103 086d A2060000 		.4byte	.LASF138
 2104 0871 01       		.byte	0x1
 2105 0872 C2       		.byte	0xc2
 2106 0873 CA000000 		.4byte	0xca
 2107 0877 01       		.byte	0x1
 2108 0878 AE080000 		.4byte	0x8ae
 2109 087c 21       		.uleb128 0x21
 2110 087d 54030000 		.4byte	.LASF139
 2111 0881 01       		.byte	0x1
 2112 0882 C2       		.byte	0xc2
 2113 0883 CA000000 		.4byte	0xca
 2114 0887 21       		.uleb128 0x21
 2115 0888 08000000 		.4byte	.LASF140
 2116 088c 01       		.byte	0x1
 2117 088d C2       		.byte	0xc2
 2118 088e 25000000 		.4byte	0x25
 2119 0892 24       		.uleb128 0x24
 2120 0893 7200     		.ascii	"r\000"
 2121 0895 01       		.byte	0x1
 2122 0896 C3       		.byte	0xc3
 2123 0897 CA000000 		.4byte	0xca
 2124 089b 24       		.uleb128 0x24
 2125 089c 6700     		.ascii	"g\000"
 2126 089e 01       		.byte	0x1
 2127 089f C4       		.byte	0xc4
 2128 08a0 CA000000 		.4byte	0xca
 2129 08a4 24       		.uleb128 0x24
 2130 08a5 6200     		.ascii	"b\000"
 2131 08a7 01       		.byte	0x1
 2132 08a8 C5       		.byte	0xc5
 2133 08a9 CA000000 		.4byte	0xca
 2134 08ad 00       		.byte	0
 2135 08ae 25       		.uleb128 0x25
 2136 08af 0A030000 		.4byte	.LASF142
 2137 08b3 01       		.byte	0x1
 2138 08b4 CE       		.byte	0xce
 2139 08b5 00000000 		.4byte	.LFB261
 2140 08b9 44000000 		.4byte	.LFE261-.LFB261
 2141 08bd 01       		.uleb128 0x1
 2142 08be 9C       		.byte	0x9c
 2143 08bf FE080000 		.4byte	0x8fe
 2144 08c3 26       		.uleb128 0x26
 2145 08c4 737400   		.ascii	"st\000"
 2146 08c7 01       		.byte	0x1
 2147 08c8 CF       		.byte	0xcf
 2148 08c9 BB070000 		.4byte	0x7bb
 2149 08cd 00000000 		.4byte	.LLST0
 2150 08d1 27       		.uleb128 0x27
 2151 08d2 C2030000 		.4byte	.LASF141
 2152 08d6 01       		.byte	0x1
 2153 08d7 D0       		.byte	0xd0
 2154 08d8 7A070000 		.4byte	0x77a
 2155 08dc 13000000 		.4byte	.LLST1
 2156 08e0 28       		.uleb128 0x28
 2157 08e1 22000000 		.4byte	.LVL3
 2158 08e5 B1110000 		.4byte	0x11b1
 2159 08e9 F4080000 		.4byte	0x8f4
ARM GAS  /tmp/cc0TOxRm.s 			page 39


 2160 08ed 29       		.uleb128 0x29
 2161 08ee 01       		.uleb128 0x1
 2162 08ef 50       		.byte	0x50
 2163 08f0 02       		.uleb128 0x2
 2164 08f1 08       		.byte	0x8
 2165 08f2 64       		.byte	0x64
 2166 08f3 00       		.byte	0
 2167 08f4 2A       		.uleb128 0x2a
 2168 08f5 32000000 		.4byte	.LVL4
 2169 08f9 C2110000 		.4byte	0x11c2
 2170 08fd 00       		.byte	0
 2171 08fe 25       		.uleb128 0x25
 2172 08ff CC080000 		.4byte	.LASF143
 2173 0903 01       		.byte	0x1
 2174 0904 D6       		.byte	0xd6
 2175 0905 00000000 		.4byte	.LFB262
 2176 0909 20000000 		.4byte	.LFE262-.LFB262
 2177 090d 01       		.uleb128 0x1
 2178 090e 9C       		.byte	0x9c
 2179 090f 70090000 		.4byte	0x970
 2180 0913 2B       		.uleb128 0x2b
 2181 0914 6C656400 		.ascii	"led\000"
 2182 0918 01       		.byte	0x1
 2183 0919 D6       		.byte	0xd6
 2184 091a A2000000 		.4byte	0xa2
 2185 091e 26000000 		.4byte	.LLST2
 2186 0922 2C       		.uleb128 0x2c
 2187 0923 54030000 		.4byte	.LASF139
 2188 0927 01       		.byte	0x1
 2189 0928 D6       		.byte	0xd6
 2190 0929 CA000000 		.4byte	0xca
 2191 092d 93000000 		.4byte	.LLST3
 2192 0931 2D       		.uleb128 0x2d
 2193 0932 10000000 		.4byte	.LVL9
 2194 0936 CD110000 		.4byte	0x11cd
 2195 093a 4F090000 		.4byte	0x94f
 2196 093e 29       		.uleb128 0x29
 2197 093f 01       		.uleb128 0x1
 2198 0940 51       		.byte	0x51
 2199 0941 03       		.uleb128 0x3
 2200 0942 F3       		.byte	0xf3
 2201 0943 01       		.uleb128 0x1
 2202 0944 51       		.byte	0x51
 2203 0945 29       		.uleb128 0x29
 2204 0946 01       		.uleb128 0x1
 2205 0947 50       		.byte	0x50
 2206 0948 05       		.uleb128 0x5
 2207 0949 F3       		.byte	0xf3
 2208 094a 01       		.uleb128 0x1
 2209 094b 50       		.byte	0x50
 2210 094c 23       		.byte	0x23
 2211 094d 0E       		.uleb128 0xe
 2212 094e 00       		.byte	0
 2213 094f 2D       		.uleb128 0x2d
 2214 0950 16000000 		.4byte	.LVL11
 2215 0954 CD110000 		.4byte	0x11cd
 2216 0958 66090000 		.4byte	0x966
ARM GAS  /tmp/cc0TOxRm.s 			page 40


 2217 095c 29       		.uleb128 0x29
 2218 095d 01       		.uleb128 0x1
 2219 095e 50       		.byte	0x50
 2220 095f 05       		.uleb128 0x5
 2221 0960 F3       		.byte	0xf3
 2222 0961 01       		.uleb128 0x1
 2223 0962 50       		.byte	0x50
 2224 0963 3E       		.byte	0x3e
 2225 0964 1C       		.byte	0x1c
 2226 0965 00       		.byte	0
 2227 0966 2E       		.uleb128 0x2e
 2228 0967 1A000000 		.4byte	.LVL12
 2229 096b CD110000 		.4byte	0x11cd
 2230 096f 00       		.byte	0
 2231 0970 25       		.uleb128 0x25
 2232 0971 D2060000 		.4byte	.LASF144
 2233 0975 01       		.byte	0x1
 2234 0976 3D       		.byte	0x3d
 2235 0977 00000000 		.4byte	.LFB259
 2236 097b 9E030000 		.4byte	.LFE259-.LFB259
 2237 097f 01       		.uleb128 0x1
 2238 0980 9C       		.byte	0x9c
 2239 0981 A7100000 		.4byte	0x10a7
 2240 0985 2B       		.uleb128 0x2b
 2241 0986 61726700 		.ascii	"arg\000"
 2242 098a 01       		.byte	0x1
 2243 098b 3D       		.byte	0x3d
 2244 098c 56030000 		.4byte	0x356
 2245 0990 E6000000 		.4byte	.LLST4
 2246 0994 27       		.uleb128 0x27
 2247 0995 8B020000 		.4byte	.LASF145
 2248 0999 01       		.byte	0x1
 2249 099a 41       		.byte	0x41
 2250 099b 25000000 		.4byte	0x25
 2251 099f 07010000 		.4byte	.LLST5
 2252 09a3 2F       		.uleb128 0x2f
 2253 09a4 38080000 		.4byte	0x838
 2254 09a8 04000000 		.4byte	.LBB110
 2255 09ac 00000000 		.4byte	.Ldebug_ranges0+0
 2256 09b0 01       		.byte	0x1
 2257 09b1 3F       		.byte	0x3f
 2258 09b2 C3090000 		.4byte	0x9c3
 2259 09b6 30       		.uleb128 0x30
 2260 09b7 44080000 		.4byte	0x844
 2261 09bb 06       		.uleb128 0x6
 2262 09bc 03       		.byte	0x3
 2263 09bd 00000000 		.4byte	.LC0
 2264 09c1 9F       		.byte	0x9f
 2265 09c2 00       		.byte	0
 2266 09c3 31       		.uleb128 0x31
 2267 09c4 18000000 		.4byte	.Ldebug_ranges0+0x18
 2268 09c8 27       		.uleb128 0x27
 2269 09c9 44010000 		.4byte	.LASF146
 2270 09cd 01       		.byte	0x1
 2271 09ce 44       		.byte	0x44
 2272 09cf 6F070000 		.4byte	0x76f
 2273 09d3 2B010000 		.4byte	.LLST6
ARM GAS  /tmp/cc0TOxRm.s 			page 41


 2274 09d7 32       		.uleb128 0x32
 2275 09d8 30000000 		.4byte	.Ldebug_ranges0+0x30
 2276 09dc 030F0000 		.4byte	0xf03
 2277 09e0 23       		.uleb128 0x23
 2278 09e1 97030000 		.4byte	.LASF147
 2279 09e5 01       		.byte	0x1
 2280 09e6 58       		.byte	0x58
 2281 09e7 CA000000 		.4byte	0xca
 2282 09eb 27       		.uleb128 0x27
 2283 09ec 9B080000 		.4byte	.LASF148
 2284 09f0 01       		.byte	0x1
 2285 09f1 59       		.byte	0x59
 2286 09f2 BB070000 		.4byte	0x7bb
 2287 09f6 8B010000 		.4byte	.LLST7
 2288 09fa 33       		.uleb128 0x33
 2289 09fb D1030000 		.4byte	.LASF149
 2290 09ff 01       		.byte	0x1
 2291 0a00 5A       		.byte	0x5a
 2292 0a01 7A070000 		.4byte	0x77a
 2293 0a05 01       		.uleb128 0x1
 2294 0a06 55       		.byte	0x55
 2295 0a07 34       		.uleb128 0x34
 2296 0a08 DC000000 		.4byte	.LBB115
 2297 0a0c 26000000 		.4byte	.LBE115-.LBB115
 2298 0a10 4F0A0000 		.4byte	0xa4f
 2299 0a14 26       		.uleb128 0x26
 2300 0a15 6900     		.ascii	"i\000"
 2301 0a17 01       		.byte	0x1
 2302 0a18 8B       		.byte	0x8b
 2303 0a19 A2000000 		.4byte	0xa2
 2304 0a1d D5010000 		.4byte	.LLST8
 2305 0a21 28       		.uleb128 0x28
 2306 0a22 F0000000 		.4byte	.LVL39
 2307 0a26 FE080000 		.4byte	0x8fe
 2308 0a2a 350A0000 		.4byte	0xa35
 2309 0a2e 29       		.uleb128 0x29
 2310 0a2f 01       		.uleb128 0x1
 2311 0a30 50       		.byte	0x50
 2312 0a31 02       		.uleb128 0x2
 2313 0a32 76       		.byte	0x76
 2314 0a33 00       		.sleb128 0
 2315 0a34 00       		.byte	0
 2316 0a35 35       		.uleb128 0x35
 2317 0a36 FE000000 		.4byte	.LVL41
 2318 0a3a FE080000 		.4byte	0x8fe
 2319 0a3e 29       		.uleb128 0x29
 2320 0a3f 01       		.uleb128 0x1
 2321 0a40 51       		.byte	0x51
 2322 0a41 05       		.uleb128 0x5
 2323 0a42 0C       		.byte	0xc
 2324 0a43 FFFFFF00 		.4byte	0xffffff
 2325 0a47 29       		.uleb128 0x29
 2326 0a48 01       		.uleb128 0x1
 2327 0a49 50       		.byte	0x50
 2328 0a4a 02       		.uleb128 0x2
 2329 0a4b 76       		.byte	0x76
 2330 0a4c 0D       		.sleb128 13
ARM GAS  /tmp/cc0TOxRm.s 			page 42


 2331 0a4d 00       		.byte	0
 2332 0a4e 00       		.byte	0
 2333 0a4f 2F       		.uleb128 0x2f
 2334 0a50 50080000 		.4byte	0x850
 2335 0a54 10010000 		.4byte	.LBB116
 2336 0a58 68000000 		.4byte	.Ldebug_ranges0+0x68
 2337 0a5c 01       		.byte	0x1
 2338 0a5d 95       		.byte	0x95
 2339 0a5e 060B0000 		.4byte	0xb06
 2340 0a62 31       		.uleb128 0x31
 2341 0a63 68000000 		.4byte	.Ldebug_ranges0+0x68
 2342 0a67 36       		.uleb128 0x36
 2343 0a68 60080000 		.4byte	0x860
 2344 0a6c 2F       		.uleb128 0x2f
 2345 0a6d F3070000 		.4byte	0x7f3
 2346 0a71 10010000 		.4byte	.LBB118
 2347 0a75 80000000 		.4byte	.Ldebug_ranges0+0x80
 2348 0a79 04       		.byte	0x4
 2349 0a7a FA       		.byte	0xfa
 2350 0a7b AB0A0000 		.4byte	0xaab
 2351 0a7f 37       		.uleb128 0x37
 2352 0a80 E1070000 		.4byte	0x7e1
 2353 0a84 10010000 		.4byte	.LBB119
 2354 0a88 80000000 		.4byte	.Ldebug_ranges0+0x80
 2355 0a8c 12       		.byte	0x12
 2356 0a8d 5C01     		.2byte	0x15c
 2357 0a8f 37       		.uleb128 0x37
 2358 0a90 C7070000 		.4byte	0x7c7
 2359 0a94 10010000 		.4byte	.LBB120
 2360 0a98 80000000 		.4byte	.Ldebug_ranges0+0x80
 2361 0a9c 0C       		.byte	0xc
 2362 0a9d BF01     		.2byte	0x1bf
 2363 0a9f 38       		.uleb128 0x38
 2364 0aa0 D4070000 		.4byte	0x7d4
 2365 0aa4 00020000 		.4byte	.LLST9
 2366 0aa8 00       		.byte	0
 2367 0aa9 00       		.byte	0
 2368 0aaa 00       		.byte	0
 2369 0aab 39       		.uleb128 0x39
 2370 0aac FC070000 		.4byte	0x7fc
 2371 0ab0 46010000 		.4byte	.LBB126
 2372 0ab4 04000000 		.4byte	.LBE126-.LBB126
 2373 0ab8 04       		.byte	0x4
 2374 0ab9 FB       		.byte	0xfb
 2375 0aba 3A       		.uleb128 0x3a
 2376 0abb 08080000 		.4byte	0x808
 2377 0abf 4A010000 		.4byte	.LBB128
 2378 0ac3 04000000 		.4byte	.LBE128-.LBB128
 2379 0ac7 04       		.byte	0x4
 2380 0ac8 FC       		.byte	0xfc
 2381 0ac9 3B       		.uleb128 0x3b
 2382 0aca 4A010000 		.4byte	.LBB129
 2383 0ace 04000000 		.4byte	.LBE129-.LBB129
 2384 0ad2 36       		.uleb128 0x36
 2385 0ad3 15080000 		.4byte	0x815
 2386 0ad7 3C       		.uleb128 0x3c
 2387 0ad8 EA070000 		.4byte	0x7ea
ARM GAS  /tmp/cc0TOxRm.s 			page 43


 2388 0adc 4A010000 		.4byte	.LBB130
 2389 0ae0 04000000 		.4byte	.LBE130-.LBB130
 2390 0ae4 12       		.byte	0x12
 2391 0ae5 7301     		.2byte	0x173
 2392 0ae7 3C       		.uleb128 0x3c
 2393 0ae8 C7070000 		.4byte	0x7c7
 2394 0aec 4A010000 		.4byte	.LBB131
 2395 0af0 04000000 		.4byte	.LBE131-.LBB131
 2396 0af4 0C       		.byte	0xc
 2397 0af5 CD01     		.2byte	0x1cd
 2398 0af7 38       		.uleb128 0x38
 2399 0af8 D4070000 		.4byte	0x7d4
 2400 0afc 22020000 		.4byte	.LLST10
 2401 0b00 00       		.byte	0
 2402 0b01 00       		.byte	0
 2403 0b02 00       		.byte	0
 2404 0b03 00       		.byte	0
 2405 0b04 00       		.byte	0
 2406 0b05 00       		.byte	0
 2407 0b06 34       		.uleb128 0x34
 2408 0b07 70010000 		.4byte	.LBB135
 2409 0b0b 26000000 		.4byte	.LBE135-.LBB135
 2410 0b0f 4E0B0000 		.4byte	0xb4e
 2411 0b13 26       		.uleb128 0x26
 2412 0b14 6900     		.ascii	"i\000"
 2413 0b16 01       		.byte	0x1
 2414 0b17 74       		.byte	0x74
 2415 0b18 A2000000 		.4byte	0xa2
 2416 0b1c 42020000 		.4byte	.LLST11
 2417 0b20 28       		.uleb128 0x28
 2418 0b21 84010000 		.4byte	.LVL55
 2419 0b25 FE080000 		.4byte	0x8fe
 2420 0b29 340B0000 		.4byte	0xb34
 2421 0b2d 29       		.uleb128 0x29
 2422 0b2e 01       		.uleb128 0x1
 2423 0b2f 50       		.byte	0x50
 2424 0b30 02       		.uleb128 0x2
 2425 0b31 76       		.byte	0x76
 2426 0b32 00       		.sleb128 0
 2427 0b33 00       		.byte	0
 2428 0b34 35       		.uleb128 0x35
 2429 0b35 92010000 		.4byte	.LVL57
 2430 0b39 FE080000 		.4byte	0x8fe
 2431 0b3d 29       		.uleb128 0x29
 2432 0b3e 01       		.uleb128 0x1
 2433 0b3f 51       		.byte	0x51
 2434 0b40 05       		.uleb128 0x5
 2435 0b41 0C       		.byte	0xc
 2436 0b42 FFFFFF00 		.4byte	0xffffff
 2437 0b46 29       		.uleb128 0x29
 2438 0b47 01       		.uleb128 0x1
 2439 0b48 50       		.byte	0x50
 2440 0b49 02       		.uleb128 0x2
 2441 0b4a 76       		.byte	0x76
 2442 0b4b 0D       		.sleb128 13
 2443 0b4c 00       		.byte	0
 2444 0b4d 00       		.byte	0
ARM GAS  /tmp/cc0TOxRm.s 			page 44


 2445 0b4e 2F       		.uleb128 0x2f
 2446 0b4f 50080000 		.4byte	0x850
 2447 0b53 A4010000 		.4byte	.LBB136
 2448 0b57 98000000 		.4byte	.Ldebug_ranges0+0x98
 2449 0b5b 01       		.byte	0x1
 2450 0b5c 7E       		.byte	0x7e
 2451 0b5d 050C0000 		.4byte	0xc05
 2452 0b61 31       		.uleb128 0x31
 2453 0b62 98000000 		.4byte	.Ldebug_ranges0+0x98
 2454 0b66 36       		.uleb128 0x36
 2455 0b67 60080000 		.4byte	0x860
 2456 0b6b 2F       		.uleb128 0x2f
 2457 0b6c F3070000 		.4byte	0x7f3
 2458 0b70 A4010000 		.4byte	.LBB138
 2459 0b74 B0000000 		.4byte	.Ldebug_ranges0+0xb0
 2460 0b78 04       		.byte	0x4
 2461 0b79 FA       		.byte	0xfa
 2462 0b7a AA0B0000 		.4byte	0xbaa
 2463 0b7e 37       		.uleb128 0x37
 2464 0b7f E1070000 		.4byte	0x7e1
 2465 0b83 A4010000 		.4byte	.LBB139
 2466 0b87 B0000000 		.4byte	.Ldebug_ranges0+0xb0
 2467 0b8b 12       		.byte	0x12
 2468 0b8c 5C01     		.2byte	0x15c
 2469 0b8e 37       		.uleb128 0x37
 2470 0b8f C7070000 		.4byte	0x7c7
 2471 0b93 A4010000 		.4byte	.LBB140
 2472 0b97 B0000000 		.4byte	.Ldebug_ranges0+0xb0
 2473 0b9b 0C       		.byte	0xc
 2474 0b9c BF01     		.2byte	0x1bf
 2475 0b9e 38       		.uleb128 0x38
 2476 0b9f D4070000 		.4byte	0x7d4
 2477 0ba3 6D020000 		.4byte	.LLST12
 2478 0ba7 00       		.byte	0
 2479 0ba8 00       		.byte	0
 2480 0ba9 00       		.byte	0
 2481 0baa 39       		.uleb128 0x39
 2482 0bab FC070000 		.4byte	0x7fc
 2483 0baf DE010000 		.4byte	.LBB146
 2484 0bb3 04000000 		.4byte	.LBE146-.LBB146
 2485 0bb7 04       		.byte	0x4
 2486 0bb8 FB       		.byte	0xfb
 2487 0bb9 3A       		.uleb128 0x3a
 2488 0bba 08080000 		.4byte	0x808
 2489 0bbe E2010000 		.4byte	.LBB148
 2490 0bc2 04000000 		.4byte	.LBE148-.LBB148
 2491 0bc6 04       		.byte	0x4
 2492 0bc7 FC       		.byte	0xfc
 2493 0bc8 3B       		.uleb128 0x3b
 2494 0bc9 E2010000 		.4byte	.LBB149
 2495 0bcd 04000000 		.4byte	.LBE149-.LBB149
 2496 0bd1 36       		.uleb128 0x36
 2497 0bd2 15080000 		.4byte	0x815
 2498 0bd6 3C       		.uleb128 0x3c
 2499 0bd7 EA070000 		.4byte	0x7ea
 2500 0bdb E2010000 		.4byte	.LBB150
 2501 0bdf 04000000 		.4byte	.LBE150-.LBB150
ARM GAS  /tmp/cc0TOxRm.s 			page 45


 2502 0be3 12       		.byte	0x12
 2503 0be4 7301     		.2byte	0x173
 2504 0be6 3C       		.uleb128 0x3c
 2505 0be7 C7070000 		.4byte	0x7c7
 2506 0beb E2010000 		.4byte	.LBB151
 2507 0bef 04000000 		.4byte	.LBE151-.LBB151
 2508 0bf3 0C       		.byte	0xc
 2509 0bf4 CD01     		.2byte	0x1cd
 2510 0bf6 38       		.uleb128 0x38
 2511 0bf7 D4070000 		.4byte	0x7d4
 2512 0bfb 8F020000 		.4byte	.LLST13
 2513 0bff 00       		.byte	0
 2514 0c00 00       		.byte	0
 2515 0c01 00       		.byte	0
 2516 0c02 00       		.byte	0
 2517 0c03 00       		.byte	0
 2518 0c04 00       		.byte	0
 2519 0c05 34       		.uleb128 0x34
 2520 0c06 0C020000 		.4byte	.LBB155
 2521 0c0a 1C000000 		.4byte	.LBE155-.LBB155
 2522 0c0e 550C0000 		.4byte	0xc55
 2523 0c12 26       		.uleb128 0x26
 2524 0c13 6900     		.ascii	"i\000"
 2525 0c15 01       		.byte	0x1
 2526 0c16 6B       		.byte	0x6b
 2527 0c17 A2000000 		.4byte	0xa2
 2528 0c1b AF020000 		.4byte	.LLST14
 2529 0c1f 28       		.uleb128 0x28
 2530 0c20 16020000 		.4byte	.LVL71
 2531 0c24 FE080000 		.4byte	0x8fe
 2532 0c28 3B0C0000 		.4byte	0xc3b
 2533 0c2c 29       		.uleb128 0x29
 2534 0c2d 01       		.uleb128 0x1
 2535 0c2e 51       		.byte	0x51
 2536 0c2f 04       		.uleb128 0x4
 2537 0c30 08       		.byte	0x8
 2538 0c31 FF       		.byte	0xff
 2539 0c32 40       		.byte	0x40
 2540 0c33 24       		.byte	0x24
 2541 0c34 29       		.uleb128 0x29
 2542 0c35 01       		.uleb128 0x1
 2543 0c36 50       		.byte	0x50
 2544 0c37 02       		.uleb128 0x2
 2545 0c38 74       		.byte	0x74
 2546 0c39 00       		.sleb128 0
 2547 0c3a 00       		.byte	0
 2548 0c3b 35       		.uleb128 0x35
 2549 0c3c 24020000 		.4byte	.LVL73
 2550 0c40 FE080000 		.4byte	0x8fe
 2551 0c44 29       		.uleb128 0x29
 2552 0c45 01       		.uleb128 0x1
 2553 0c46 51       		.byte	0x51
 2554 0c47 05       		.uleb128 0x5
 2555 0c48 0C       		.byte	0xc
 2556 0c49 FFFFFF00 		.4byte	0xffffff
 2557 0c4d 29       		.uleb128 0x29
 2558 0c4e 01       		.uleb128 0x1
ARM GAS  /tmp/cc0TOxRm.s 			page 46


 2559 0c4f 50       		.byte	0x50
 2560 0c50 02       		.uleb128 0x2
 2561 0c51 74       		.byte	0x74
 2562 0c52 0D       		.sleb128 13
 2563 0c53 00       		.byte	0
 2564 0c54 00       		.byte	0
 2565 0c55 34       		.uleb128 0x34
 2566 0c56 36020000 		.4byte	.LBB156
 2567 0c5a 1C000000 		.4byte	.LBE156-.LBB156
 2568 0c5e A50C0000 		.4byte	0xca5
 2569 0c62 26       		.uleb128 0x26
 2570 0c63 6900     		.ascii	"i\000"
 2571 0c65 01       		.byte	0x1
 2572 0c66 63       		.byte	0x63
 2573 0c67 A2000000 		.4byte	0xa2
 2574 0c6b DA020000 		.4byte	.LLST15
 2575 0c6f 28       		.uleb128 0x28
 2576 0c70 40020000 		.4byte	.LVL78
 2577 0c74 FE080000 		.4byte	0x8fe
 2578 0c78 8B0C0000 		.4byte	0xc8b
 2579 0c7c 29       		.uleb128 0x29
 2580 0c7d 01       		.uleb128 0x1
 2581 0c7e 51       		.byte	0x51
 2582 0c7f 04       		.uleb128 0x4
 2583 0c80 08       		.byte	0x8
 2584 0c81 FE       		.byte	0xfe
 2585 0c82 3F       		.byte	0x3f
 2586 0c83 24       		.byte	0x24
 2587 0c84 29       		.uleb128 0x29
 2588 0c85 01       		.uleb128 0x1
 2589 0c86 50       		.byte	0x50
 2590 0c87 02       		.uleb128 0x2
 2591 0c88 74       		.byte	0x74
 2592 0c89 00       		.sleb128 0
 2593 0c8a 00       		.byte	0
 2594 0c8b 35       		.uleb128 0x35
 2595 0c8c 4E020000 		.4byte	.LVL80
 2596 0c90 FE080000 		.4byte	0x8fe
 2597 0c94 29       		.uleb128 0x29
 2598 0c95 01       		.uleb128 0x1
 2599 0c96 51       		.byte	0x51
 2600 0c97 05       		.uleb128 0x5
 2601 0c98 0C       		.byte	0xc
 2602 0c99 FFFFFF00 		.4byte	0xffffff
 2603 0c9d 29       		.uleb128 0x29
 2604 0c9e 01       		.uleb128 0x1
 2605 0c9f 50       		.byte	0x50
 2606 0ca0 02       		.uleb128 0x2
 2607 0ca1 74       		.byte	0x74
 2608 0ca2 0D       		.sleb128 13
 2609 0ca3 00       		.byte	0
 2610 0ca4 00       		.byte	0
 2611 0ca5 32       		.uleb128 0x32
 2612 0ca6 C8000000 		.4byte	.Ldebug_ranges0+0xc8
 2613 0caa 860D0000 		.4byte	0xd86
 2614 0cae 26       		.uleb128 0x26
 2615 0caf 6900     		.ascii	"i\000"
ARM GAS  /tmp/cc0TOxRm.s 			page 47


 2616 0cb1 01       		.byte	0x1
 2617 0cb2 A3       		.byte	0xa3
 2618 0cb3 A2000000 		.4byte	0xa2
 2619 0cb7 05030000 		.4byte	.LLST16
 2620 0cbb 28       		.uleb128 0x28
 2621 0cbc D4020000 		.4byte	.LVL92
 2622 0cc0 FE080000 		.4byte	0x8fe
 2623 0cc4 D20C0000 		.4byte	0xcd2
 2624 0cc8 29       		.uleb128 0x29
 2625 0cc9 01       		.uleb128 0x1
 2626 0cca 51       		.byte	0x51
 2627 0ccb 05       		.uleb128 0x5
 2628 0ccc 0C       		.byte	0xc
 2629 0ccd 00FFFF00 		.4byte	0xffff00
 2630 0cd1 00       		.byte	0
 2631 0cd2 28       		.uleb128 0x28
 2632 0cd3 DC020000 		.4byte	.LVL93
 2633 0cd7 FE080000 		.4byte	0x8fe
 2634 0cdb EF0C0000 		.4byte	0xcef
 2635 0cdf 29       		.uleb128 0x29
 2636 0ce0 01       		.uleb128 0x1
 2637 0ce1 51       		.byte	0x51
 2638 0ce2 05       		.uleb128 0x5
 2639 0ce3 0C       		.byte	0xc
 2640 0ce4 00FFFF00 		.4byte	0xffff00
 2641 0ce8 29       		.uleb128 0x29
 2642 0ce9 01       		.uleb128 0x1
 2643 0cea 50       		.byte	0x50
 2644 0ceb 02       		.uleb128 0x2
 2645 0cec 74       		.byte	0x74
 2646 0ced 00       		.sleb128 0
 2647 0cee 00       		.byte	0
 2648 0cef 28       		.uleb128 0x28
 2649 0cf0 04030000 		.4byte	.LVL96
 2650 0cf4 FE080000 		.4byte	0x8fe
 2651 0cf8 080D0000 		.4byte	0xd08
 2652 0cfc 29       		.uleb128 0x29
 2653 0cfd 01       		.uleb128 0x1
 2654 0cfe 51       		.byte	0x51
 2655 0cff 01       		.uleb128 0x1
 2656 0d00 30       		.byte	0x30
 2657 0d01 29       		.uleb128 0x29
 2658 0d02 01       		.uleb128 0x1
 2659 0d03 50       		.byte	0x50
 2660 0d04 02       		.uleb128 0x2
 2661 0d05 7B       		.byte	0x7b
 2662 0d06 00       		.sleb128 0
 2663 0d07 00       		.byte	0
 2664 0d08 28       		.uleb128 0x28
 2665 0d09 10030000 		.4byte	.LVL98
 2666 0d0d FE080000 		.4byte	0x8fe
 2667 0d11 210D0000 		.4byte	0xd21
 2668 0d15 29       		.uleb128 0x29
 2669 0d16 01       		.uleb128 0x1
 2670 0d17 51       		.byte	0x51
 2671 0d18 01       		.uleb128 0x1
 2672 0d19 30       		.byte	0x30
ARM GAS  /tmp/cc0TOxRm.s 			page 48


 2673 0d1a 29       		.uleb128 0x29
 2674 0d1b 01       		.uleb128 0x1
 2675 0d1c 50       		.byte	0x50
 2676 0d1d 02       		.uleb128 0x2
 2677 0d1e 74       		.byte	0x74
 2678 0d1f 00       		.sleb128 0
 2679 0d20 00       		.byte	0
 2680 0d21 28       		.uleb128 0x28
 2681 0d22 38030000 		.4byte	.LVL103
 2682 0d26 FE080000 		.4byte	0x8fe
 2683 0d2a 3C0D0000 		.4byte	0xd3c
 2684 0d2e 29       		.uleb128 0x29
 2685 0d2f 01       		.uleb128 0x1
 2686 0d30 51       		.byte	0x51
 2687 0d31 03       		.uleb128 0x3
 2688 0d32 0A       		.byte	0xa
 2689 0d33 00FF     		.2byte	0xff00
 2690 0d35 29       		.uleb128 0x29
 2691 0d36 01       		.uleb128 0x1
 2692 0d37 50       		.byte	0x50
 2693 0d38 02       		.uleb128 0x2
 2694 0d39 7B       		.byte	0x7b
 2695 0d3a 00       		.sleb128 0
 2696 0d3b 00       		.byte	0
 2697 0d3c 28       		.uleb128 0x28
 2698 0d3d 42030000 		.4byte	.LVL104
 2699 0d41 FE080000 		.4byte	0x8fe
 2700 0d45 570D0000 		.4byte	0xd57
 2701 0d49 29       		.uleb128 0x29
 2702 0d4a 01       		.uleb128 0x1
 2703 0d4b 51       		.byte	0x51
 2704 0d4c 03       		.uleb128 0x3
 2705 0d4d 0A       		.byte	0xa
 2706 0d4e 00FF     		.2byte	0xff00
 2707 0d50 29       		.uleb128 0x29
 2708 0d51 01       		.uleb128 0x1
 2709 0d52 50       		.byte	0x50
 2710 0d53 02       		.uleb128 0x2
 2711 0d54 74       		.byte	0x74
 2712 0d55 00       		.sleb128 0
 2713 0d56 00       		.byte	0
 2714 0d57 28       		.uleb128 0x28
 2715 0d58 84030000 		.4byte	.LVL106
 2716 0d5c FE080000 		.4byte	0x8fe
 2717 0d60 6D0D0000 		.4byte	0xd6d
 2718 0d64 29       		.uleb128 0x29
 2719 0d65 01       		.uleb128 0x1
 2720 0d66 51       		.byte	0x51
 2721 0d67 04       		.uleb128 0x4
 2722 0d68 08       		.byte	0x8
 2723 0d69 FF       		.byte	0xff
 2724 0d6a 40       		.byte	0x40
 2725 0d6b 24       		.byte	0x24
 2726 0d6c 00       		.byte	0
 2727 0d6d 35       		.uleb128 0x35
 2728 0d6e 8E030000 		.4byte	.LVL107
 2729 0d72 FE080000 		.4byte	0x8fe
ARM GAS  /tmp/cc0TOxRm.s 			page 49


 2730 0d76 29       		.uleb128 0x29
 2731 0d77 01       		.uleb128 0x1
 2732 0d78 51       		.byte	0x51
 2733 0d79 04       		.uleb128 0x4
 2734 0d7a 08       		.byte	0x8
 2735 0d7b FF       		.byte	0xff
 2736 0d7c 40       		.byte	0x40
 2737 0d7d 24       		.byte	0x24
 2738 0d7e 29       		.uleb128 0x29
 2739 0d7f 01       		.uleb128 0x1
 2740 0d80 50       		.byte	0x50
 2741 0d81 02       		.uleb128 0x2
 2742 0d82 74       		.byte	0x74
 2743 0d83 00       		.sleb128 0
 2744 0d84 00       		.byte	0
 2745 0d85 00       		.byte	0
 2746 0d86 2A       		.uleb128 0x2a
 2747 0d87 1C010000 		.4byte	.LVL45
 2748 0d8b FE080000 		.4byte	0x8fe
 2749 0d8f 28       		.uleb128 0x28
 2750 0d90 24010000 		.4byte	.LVL46
 2751 0d94 FE080000 		.4byte	0x8fe
 2752 0d98 AB0D0000 		.4byte	0xdab
 2753 0d9c 29       		.uleb128 0x29
 2754 0d9d 01       		.uleb128 0x1
 2755 0d9e 51       		.byte	0x51
 2756 0d9f 05       		.uleb128 0x5
 2757 0da0 0C       		.byte	0xc
 2758 0da1 00A5FF00 		.4byte	0xffa500
 2759 0da5 29       		.uleb128 0x29
 2760 0da6 01       		.uleb128 0x1
 2761 0da7 50       		.byte	0x50
 2762 0da8 01       		.uleb128 0x1
 2763 0da9 4B       		.byte	0x4b
 2764 0daa 00       		.byte	0
 2765 0dab 28       		.uleb128 0x28
 2766 0dac 2A010000 		.4byte	.LVL47
 2767 0db0 B1110000 		.4byte	0x11b1
 2768 0db4 BF0D0000 		.4byte	0xdbf
 2769 0db8 29       		.uleb128 0x29
 2770 0db9 01       		.uleb128 0x1
 2771 0dba 50       		.byte	0x50
 2772 0dbb 02       		.uleb128 0x2
 2773 0dbc 08       		.byte	0x8
 2774 0dbd 64       		.byte	0x64
 2775 0dbe 00       		.byte	0
 2776 0dbf 2A       		.uleb128 0x2a
 2777 0dc0 3C010000 		.4byte	.LVL49
 2778 0dc4 C2110000 		.4byte	0x11c2
 2779 0dc8 28       		.uleb128 0x28
 2780 0dc9 64010000 		.4byte	.LVL51
 2781 0dcd FE080000 		.4byte	0x8fe
 2782 0dd1 DC0D0000 		.4byte	0xddc
 2783 0dd5 29       		.uleb128 0x29
 2784 0dd6 01       		.uleb128 0x1
 2785 0dd7 51       		.byte	0x51
 2786 0dd8 02       		.uleb128 0x2
ARM GAS  /tmp/cc0TOxRm.s 			page 50


 2787 0dd9 7B       		.byte	0x7b
 2788 0dda 00       		.sleb128 0
 2789 0ddb 00       		.byte	0
 2790 0ddc 28       		.uleb128 0x28
 2791 0ddd 6C010000 		.4byte	.LVL52
 2792 0de1 FE080000 		.4byte	0x8fe
 2793 0de5 F50D0000 		.4byte	0xdf5
 2794 0de9 29       		.uleb128 0x29
 2795 0dea 01       		.uleb128 0x1
 2796 0deb 51       		.byte	0x51
 2797 0dec 02       		.uleb128 0x2
 2798 0ded 7B       		.byte	0x7b
 2799 0dee 00       		.sleb128 0
 2800 0def 29       		.uleb128 0x29
 2801 0df0 01       		.uleb128 0x1
 2802 0df1 50       		.byte	0x50
 2803 0df2 01       		.uleb128 0x1
 2804 0df3 4B       		.byte	0x4b
 2805 0df4 00       		.byte	0
 2806 0df5 2A       		.uleb128 0x2a
 2807 0df6 B0010000 		.4byte	.LVL61
 2808 0dfa FE080000 		.4byte	0x8fe
 2809 0dfe 28       		.uleb128 0x28
 2810 0dff B8010000 		.4byte	.LVL62
 2811 0e03 FE080000 		.4byte	0x8fe
 2812 0e07 1A0E0000 		.4byte	0xe1a
 2813 0e0b 29       		.uleb128 0x29
 2814 0e0c 01       		.uleb128 0x1
 2815 0e0d 51       		.byte	0x51
 2816 0e0e 05       		.uleb128 0x5
 2817 0e0f 0C       		.byte	0xc
 2818 0e10 00A5FF00 		.4byte	0xffa500
 2819 0e14 29       		.uleb128 0x29
 2820 0e15 01       		.uleb128 0x1
 2821 0e16 50       		.byte	0x50
 2822 0e17 01       		.uleb128 0x1
 2823 0e18 3E       		.byte	0x3e
 2824 0e19 00       		.byte	0
 2825 0e1a 28       		.uleb128 0x28
 2826 0e1b BE010000 		.4byte	.LVL63
 2827 0e1f B1110000 		.4byte	0x11b1
 2828 0e23 2E0E0000 		.4byte	0xe2e
 2829 0e27 29       		.uleb128 0x29
 2830 0e28 01       		.uleb128 0x1
 2831 0e29 50       		.byte	0x50
 2832 0e2a 02       		.uleb128 0x2
 2833 0e2b 08       		.byte	0x8
 2834 0e2c 64       		.byte	0x64
 2835 0e2d 00       		.byte	0
 2836 0e2e 2A       		.uleb128 0x2a
 2837 0e2f D4010000 		.4byte	.LVL65
 2838 0e33 C2110000 		.4byte	0x11c2
 2839 0e37 28       		.uleb128 0x28
 2840 0e38 00020000 		.4byte	.LVL67
 2841 0e3c FE080000 		.4byte	0x8fe
 2842 0e40 500E0000 		.4byte	0xe50
 2843 0e44 29       		.uleb128 0x29
ARM GAS  /tmp/cc0TOxRm.s 			page 51


 2844 0e45 01       		.uleb128 0x1
 2845 0e46 51       		.byte	0x51
 2846 0e47 02       		.uleb128 0x2
 2847 0e48 7B       		.byte	0x7b
 2848 0e49 00       		.sleb128 0
 2849 0e4a 29       		.uleb128 0x29
 2850 0e4b 01       		.uleb128 0x1
 2851 0e4c 50       		.byte	0x50
 2852 0e4d 01       		.uleb128 0x1
 2853 0e4e 3D       		.byte	0x3d
 2854 0e4f 00       		.byte	0
 2855 0e50 28       		.uleb128 0x28
 2856 0e51 08020000 		.4byte	.LVL68
 2857 0e55 FE080000 		.4byte	0x8fe
 2858 0e59 690E0000 		.4byte	0xe69
 2859 0e5d 29       		.uleb128 0x29
 2860 0e5e 01       		.uleb128 0x1
 2861 0e5f 51       		.byte	0x51
 2862 0e60 02       		.uleb128 0x2
 2863 0e61 7B       		.byte	0x7b
 2864 0e62 00       		.sleb128 0
 2865 0e63 29       		.uleb128 0x29
 2866 0e64 01       		.uleb128 0x1
 2867 0e65 50       		.byte	0x50
 2868 0e66 01       		.uleb128 0x1
 2869 0e67 3E       		.byte	0x3e
 2870 0e68 00       		.byte	0
 2871 0e69 2A       		.uleb128 0x2a
 2872 0e6a 2C020000 		.4byte	.LVL74
 2873 0e6e AE080000 		.4byte	0x8ae
 2874 0e72 2A       		.uleb128 0x2a
 2875 0e73 56020000 		.4byte	.LVL81
 2876 0e77 AE080000 		.4byte	0x8ae
 2877 0e7b 28       		.uleb128 0x28
 2878 0e7c 5E020000 		.4byte	.LVL84
 2879 0e80 E3110000 		.4byte	0x11e3
 2880 0e84 8E0E0000 		.4byte	0xe8e
 2881 0e88 29       		.uleb128 0x29
 2882 0e89 01       		.uleb128 0x1
 2883 0e8a 50       		.byte	0x50
 2884 0e8b 01       		.uleb128 0x1
 2885 0e8c 30       		.byte	0x30
 2886 0e8d 00       		.byte	0
 2887 0e8e 2A       		.uleb128 0x2a
 2888 0e8f 62020000 		.4byte	.LVL85
 2889 0e93 AE080000 		.4byte	0x8ae
 2890 0e97 2A       		.uleb128 0x2a
 2891 0e98 82020000 		.4byte	.LVL89
 2892 0e9c C2110000 		.4byte	0x11c2
 2893 0ea0 28       		.uleb128 0x28
 2894 0ea1 B4020000 		.4byte	.LVL90
 2895 0ea5 F4110000 		.4byte	0x11f4
 2896 0ea9 DE0E0000 		.4byte	0xede
 2897 0ead 29       		.uleb128 0x29
 2898 0eae 02       		.uleb128 0x2
 2899 0eaf 90       		.byte	0x90
 2900 0eb0 44       		.uleb128 0x44
ARM GAS  /tmp/cc0TOxRm.s 			page 52


 2901 0eb1 07       		.uleb128 0x7
 2902 0eb2 F4       		.byte	0xf4
 2903 0eb3 25       		.uleb128 0x25
 2904 0eb4 04       		.byte	0x4
 2905 0eb5 0000803F 		.4byte	0x3f800000
 2906 0eb9 29       		.uleb128 0x29
 2907 0eba 02       		.uleb128 0x2
 2908 0ebb 90       		.byte	0x90
 2909 0ebc 43       		.uleb128 0x43
 2910 0ebd 07       		.uleb128 0x7
 2911 0ebe F4       		.byte	0xf4
 2912 0ebf 25       		.uleb128 0x25
 2913 0ec0 04       		.byte	0x4
 2914 0ec1 00000000 		.4byte	0
 2915 0ec5 29       		.uleb128 0x29
 2916 0ec6 02       		.uleb128 0x2
 2917 0ec7 90       		.byte	0x90
 2918 0ec8 42       		.uleb128 0x42
 2919 0ec9 07       		.uleb128 0x7
 2920 0eca F4       		.byte	0xf4
 2921 0ecb 25       		.uleb128 0x25
 2922 0ecc 04       		.byte	0x4
 2923 0ecd 00000442 		.4byte	0x42040000
 2924 0ed1 29       		.uleb128 0x29
 2925 0ed2 02       		.uleb128 0x2
 2926 0ed3 90       		.byte	0x90
 2927 0ed4 41       		.uleb128 0x41
 2928 0ed5 07       		.uleb128 0x7
 2929 0ed6 F4       		.byte	0xf4
 2930 0ed7 25       		.uleb128 0x25
 2931 0ed8 04       		.byte	0x4
 2932 0ed9 0000E041 		.4byte	0x41e00000
 2933 0edd 00       		.byte	0
 2934 0ede 28       		.uleb128 0x28
 2935 0edf 20030000 		.4byte	.LVL99
 2936 0ee3 B1110000 		.4byte	0x11b1
 2937 0ee7 F20E0000 		.4byte	0xef2
 2938 0eeb 29       		.uleb128 0x29
 2939 0eec 01       		.uleb128 0x1
 2940 0eed 50       		.byte	0x50
 2941 0eee 02       		.uleb128 0x2
 2942 0eef 08       		.byte	0x8
 2943 0ef0 64       		.byte	0x64
 2944 0ef1 00       		.byte	0
 2945 0ef2 35       		.uleb128 0x35
 2946 0ef3 96030000 		.4byte	.LVL110
 2947 0ef7 B1110000 		.4byte	0x11b1
 2948 0efb 29       		.uleb128 0x29
 2949 0efc 01       		.uleb128 0x1
 2950 0efd 50       		.byte	0x50
 2951 0efe 02       		.uleb128 0x2
 2952 0eff 08       		.byte	0x8
 2953 0f00 64       		.byte	0x64
 2954 0f01 00       		.byte	0
 2955 0f02 00       		.byte	0
 2956 0f03 34       		.uleb128 0x34
 2957 0f04 30000000 		.4byte	.LBB161
ARM GAS  /tmp/cc0TOxRm.s 			page 53


 2958 0f08 7C000000 		.4byte	.LBE161-.LBB161
 2959 0f0c 38100000 		.4byte	0x1038
 2960 0f10 27       		.uleb128 0x27
 2961 0f11 08000000 		.4byte	.LASF140
 2962 0f15 01       		.byte	0x1
 2963 0f16 4E       		.byte	0x4e
 2964 0f17 25000000 		.4byte	0x25
 2965 0f1b 73030000 		.4byte	.LLST17
 2966 0f1f 34       		.uleb128 0x34
 2967 0f20 36000000 		.4byte	.LBB162
 2968 0f24 1A000000 		.4byte	.LBE162-.LBB162
 2969 0f28 670F0000 		.4byte	0xf67
 2970 0f2c 26       		.uleb128 0x26
 2971 0f2d 6900     		.ascii	"i\000"
 2972 0f2f 01       		.byte	0x1
 2973 0f30 47       		.byte	0x47
 2974 0f31 A2000000 		.4byte	0xa2
 2975 0f35 97030000 		.4byte	.LLST18
 2976 0f39 28       		.uleb128 0x28
 2977 0f3a 42000000 		.4byte	.LVL20
 2978 0f3e FE080000 		.4byte	0x8fe
 2979 0f42 550F0000 		.4byte	0xf55
 2980 0f46 29       		.uleb128 0x29
 2981 0f47 01       		.uleb128 0x1
 2982 0f48 51       		.byte	0x51
 2983 0f49 04       		.uleb128 0x4
 2984 0f4a 08       		.byte	0x8
 2985 0f4b FF       		.byte	0xff
 2986 0f4c 40       		.byte	0x40
 2987 0f4d 24       		.byte	0x24
 2988 0f4e 29       		.uleb128 0x29
 2989 0f4f 01       		.uleb128 0x1
 2990 0f50 50       		.byte	0x50
 2991 0f51 02       		.uleb128 0x2
 2992 0f52 74       		.byte	0x74
 2993 0f53 00       		.sleb128 0
 2994 0f54 00       		.byte	0
 2995 0f55 35       		.uleb128 0x35
 2996 0f56 4C000000 		.4byte	.LVL22
 2997 0f5a B1110000 		.4byte	0x11b1
 2998 0f5e 29       		.uleb128 0x29
 2999 0f5f 01       		.uleb128 0x1
 3000 0f60 50       		.byte	0x50
 3001 0f61 03       		.uleb128 0x3
 3002 0f62 0A       		.byte	0xa
 3003 0f63 D007     		.2byte	0x7d0
 3004 0f65 00       		.byte	0
 3005 0f66 00       		.byte	0
 3006 0f67 32       		.uleb128 0x32
 3007 0f68 E8000000 		.4byte	.Ldebug_ranges0+0xe8
 3008 0f6c 13100000 		.4byte	0x1013
 3009 0f70 26       		.uleb128 0x26
 3010 0f71 6900     		.ascii	"i\000"
 3011 0f73 01       		.byte	0x1
 3012 0f74 4F       		.byte	0x4f
 3013 0f75 A2000000 		.4byte	0xa2
 3014 0f79 CE030000 		.4byte	.LLST19
ARM GAS  /tmp/cc0TOxRm.s 			page 54


 3015 0f7d 31       		.uleb128 0x31
 3016 0f7e 00010000 		.4byte	.Ldebug_ranges0+0x100
 3017 0f82 23       		.uleb128 0x23
 3018 0f83 54030000 		.4byte	.LASF139
 3019 0f87 01       		.byte	0x1
 3020 0f88 51       		.byte	0x51
 3021 0f89 CA000000 		.4byte	0xca
 3022 0f8d 2F       		.uleb128 0x2f
 3023 0f8e 6C080000 		.4byte	0x86c
 3024 0f92 5C000000 		.4byte	.LBB165
 3025 0f96 18010000 		.4byte	.Ldebug_ranges0+0x118
 3026 0f9a 01       		.byte	0x1
 3027 0f9b 51       		.byte	0x51
 3028 0f9c D40F0000 		.4byte	0xfd4
 3029 0fa0 38       		.uleb128 0x38
 3030 0fa1 7C080000 		.4byte	0x87c
 3031 0fa5 12040000 		.4byte	.LLST20
 3032 0fa9 38       		.uleb128 0x38
 3033 0faa 87080000 		.4byte	0x887
 3034 0fae 29040000 		.4byte	.LLST21
 3035 0fb2 31       		.uleb128 0x31
 3036 0fb3 18010000 		.4byte	.Ldebug_ranges0+0x118
 3037 0fb7 3D       		.uleb128 0x3d
 3038 0fb8 92080000 		.4byte	0x892
 3039 0fbc 3D040000 		.4byte	.LLST22
 3040 0fc0 3D       		.uleb128 0x3d
 3041 0fc1 9B080000 		.4byte	0x89b
 3042 0fc5 5D040000 		.4byte	.LLST23
 3043 0fc9 3D       		.uleb128 0x3d
 3044 0fca A4080000 		.4byte	0x8a4
 3045 0fce 5D040000 		.4byte	.LLST23
 3046 0fd2 00       		.byte	0
 3047 0fd3 00       		.byte	0
 3048 0fd4 32       		.uleb128 0x32
 3049 0fd5 30010000 		.4byte	.Ldebug_ranges0+0x130
 3050 0fd9 01100000 		.4byte	0x1001
 3051 0fdd 26       		.uleb128 0x26
 3052 0fde 6900     		.ascii	"i\000"
 3053 0fe0 01       		.byte	0x1
 3054 0fe1 52       		.byte	0x52
 3055 0fe2 A2000000 		.4byte	0xa2
 3056 0fe6 92040000 		.4byte	.LLST25
 3057 0fea 35       		.uleb128 0x35
 3058 0feb 9E000000 		.4byte	.LVL29
 3059 0fef FE080000 		.4byte	0x8fe
 3060 0ff3 29       		.uleb128 0x29
 3061 0ff4 01       		.uleb128 0x1
 3062 0ff5 51       		.byte	0x51
 3063 0ff6 02       		.uleb128 0x2
 3064 0ff7 74       		.byte	0x74
 3065 0ff8 00       		.sleb128 0
 3066 0ff9 29       		.uleb128 0x29
 3067 0ffa 01       		.uleb128 0x1
 3068 0ffb 50       		.byte	0x50
 3069 0ffc 02       		.uleb128 0x2
 3070 0ffd 7B       		.byte	0x7b
 3071 0ffe 7F       		.sleb128 -1
ARM GAS  /tmp/cc0TOxRm.s 			page 55


 3072 0fff 00       		.byte	0
 3073 1000 00       		.byte	0
 3074 1001 35       		.uleb128 0x35
 3075 1002 A8000000 		.4byte	.LVL30
 3076 1006 B1110000 		.4byte	0x11b1
 3077 100a 29       		.uleb128 0x29
 3078 100b 01       		.uleb128 0x1
 3079 100c 50       		.byte	0x50
 3080 100d 02       		.uleb128 0x2
 3081 100e 08       		.byte	0x8
 3082 100f 64       		.byte	0x64
 3083 1010 00       		.byte	0
 3084 1011 00       		.byte	0
 3085 1012 00       		.byte	0
 3086 1013 28       		.uleb128 0x28
 3087 1014 36000000 		.4byte	.LVL18
 3088 1018 E3110000 		.4byte	0x11e3
 3089 101c 26100000 		.4byte	0x1026
 3090 1020 29       		.uleb128 0x29
 3091 1021 01       		.uleb128 0x1
 3092 1022 50       		.byte	0x50
 3093 1023 01       		.uleb128 0x1
 3094 1024 30       		.byte	0x30
 3095 1025 00       		.byte	0
 3096 1026 35       		.uleb128 0x35
 3097 1027 58000000 		.4byte	.LVL23
 3098 102b B1110000 		.4byte	0x11b1
 3099 102f 29       		.uleb128 0x29
 3100 1030 01       		.uleb128 0x1
 3101 1031 50       		.byte	0x50
 3102 1032 03       		.uleb128 0x3
 3103 1033 0A       		.byte	0xa
 3104 1034 1027     		.2byte	0x2710
 3105 1036 00       		.byte	0
 3106 1037 00       		.byte	0
 3107 1038 2A       		.uleb128 0x2a
 3108 1039 22000000 		.4byte	.LVL15
 3109 103d C2110000 		.4byte	0x11c2
 3110 1041 28       		.uleb128 0x28
 3111 1042 B2000000 		.4byte	.LVL33
 3112 1046 B1110000 		.4byte	0x11b1
 3113 104a 54100000 		.4byte	0x1054
 3114 104e 29       		.uleb128 0x29
 3115 104f 01       		.uleb128 0x1
 3116 1050 50       		.byte	0x50
 3117 1051 01       		.uleb128 0x1
 3118 1052 3A       		.byte	0x3a
 3119 1053 00       		.byte	0
 3120 1054 2A       		.uleb128 0x2a
 3121 1055 B6000000 		.4byte	.LVL34
 3122 1059 C2110000 		.4byte	0x11c2
 3123 105d 28       		.uleb128 0x28
 3124 105e 32020000 		.4byte	.LVL75
 3125 1062 B1110000 		.4byte	0x11b1
 3126 1066 70100000 		.4byte	0x1070
 3127 106a 29       		.uleb128 0x29
 3128 106b 01       		.uleb128 0x1
ARM GAS  /tmp/cc0TOxRm.s 			page 56


 3129 106c 50       		.byte	0x50
 3130 106d 01       		.uleb128 0x1
 3131 106e 3A       		.byte	0x3a
 3132 106f 00       		.byte	0
 3133 1070 28       		.uleb128 0x28
 3134 1071 68020000 		.4byte	.LVL86
 3135 1075 B1110000 		.4byte	0x11b1
 3136 1079 83100000 		.4byte	0x1083
 3137 107d 29       		.uleb128 0x29
 3138 107e 01       		.uleb128 0x1
 3139 107f 50       		.byte	0x50
 3140 1080 01       		.uleb128 0x1
 3141 1081 3A       		.byte	0x3a
 3142 1082 00       		.byte	0
 3143 1083 28       		.uleb128 0x28
 3144 1084 2C030000 		.4byte	.LVL100
 3145 1088 B1110000 		.4byte	0x11b1
 3146 108c 96100000 		.4byte	0x1096
 3147 1090 29       		.uleb128 0x29
 3148 1091 01       		.uleb128 0x1
 3149 1092 50       		.byte	0x50
 3150 1093 01       		.uleb128 0x1
 3151 1094 3A       		.byte	0x3a
 3152 1095 00       		.byte	0
 3153 1096 35       		.uleb128 0x35
 3154 1097 9C030000 		.4byte	.LVL111
 3155 109b B1110000 		.4byte	0x11b1
 3156 109f 29       		.uleb128 0x29
 3157 10a0 01       		.uleb128 0x1
 3158 10a1 50       		.byte	0x50
 3159 10a2 01       		.uleb128 0x1
 3160 10a3 3A       		.byte	0x3a
 3161 10a4 00       		.byte	0
 3162 10a5 00       		.byte	0
 3163 10a6 00       		.byte	0
 3164 10a7 3E       		.uleb128 0x3e
 3165 10a8 7E030000 		.4byte	.LASF150
 3166 10ac 01       		.byte	0x1
 3167 10ad 2F       		.byte	0x2f
 3168 10ae 00000000 		.4byte	.LFB256
 3169 10b2 34000000 		.4byte	.LFE256-.LFB256
 3170 10b6 01       		.uleb128 0x1
 3171 10b7 9C       		.byte	0x9c
 3172 10b8 EC100000 		.4byte	0x10ec
 3173 10bc 35       		.uleb128 0x35
 3174 10bd 1E000000 		.4byte	.LVL112
 3175 10c1 1D120000 		.4byte	0x121d
 3176 10c5 29       		.uleb128 0x29
 3177 10c6 01       		.uleb128 0x1
 3178 10c7 53       		.byte	0x53
 3179 10c8 05       		.uleb128 0x5
 3180 10c9 03       		.byte	0x3
 3181 10ca 00000000 		.4byte	led_thread
 3182 10ce 29       		.uleb128 0x29
 3183 10cf 01       		.uleb128 0x1
 3184 10d0 52       		.byte	0x52
 3185 10d1 01       		.uleb128 0x1
ARM GAS  /tmp/cc0TOxRm.s 			page 57


 3186 10d2 32       		.byte	0x32
 3187 10d3 29       		.uleb128 0x29
 3188 10d4 01       		.uleb128 0x1
 3189 10d5 51       		.byte	0x51
 3190 10d6 03       		.uleb128 0x3
 3191 10d7 0A       		.byte	0xa
 3192 10d8 9805     		.2byte	0x598
 3193 10da 29       		.uleb128 0x29
 3194 10db 01       		.uleb128 0x1
 3195 10dc 50       		.byte	0x50
 3196 10dd 05       		.uleb128 0x5
 3197 10de 03       		.byte	0x3
 3198 10df 00000000 		.4byte	.LANCHOR2
 3199 10e3 29       		.uleb128 0x29
 3200 10e4 02       		.uleb128 0x2
 3201 10e5 7D       		.byte	0x7d
 3202 10e6 00       		.sleb128 0
 3203 10e7 02       		.uleb128 0x2
 3204 10e8 74       		.byte	0x74
 3205 10e9 00       		.sleb128 0
 3206 10ea 00       		.byte	0
 3207 10eb 00       		.byte	0
 3208 10ec 3E       		.uleb128 0x3e
 3209 10ed D2020000 		.4byte	.LASF151
 3210 10f1 01       		.byte	0x1
 3211 10f2 35       		.byte	0x35
 3212 10f3 00000000 		.4byte	.LFB257
 3213 10f7 0C000000 		.4byte	.LFE257-.LFB257
 3214 10fb 01       		.uleb128 0x1
 3215 10fc 9C       		.byte	0x9c
 3216 10fd 0F110000 		.4byte	0x110f
 3217 1101 3F       		.uleb128 0x3f
 3218 1102 2A010000 		.4byte	.LASF152
 3219 1106 01       		.byte	0x1
 3220 1107 35       		.byte	0x35
 3221 1108 BB070000 		.4byte	0x7bb
 3222 110c 01       		.uleb128 0x1
 3223 110d 50       		.byte	0x50
 3224 110e 00       		.byte	0
 3225 110f 3E       		.uleb128 0x3e
 3226 1110 81080000 		.4byte	.LASF153
 3227 1114 01       		.byte	0x1
 3228 1115 39       		.byte	0x39
 3229 1116 00000000 		.4byte	.LFB258
 3230 111a 0C000000 		.4byte	.LFE258-.LFB258
 3231 111e 01       		.uleb128 0x1
 3232 111f 9C       		.byte	0x9c
 3233 1120 32110000 		.4byte	0x1132
 3234 1124 3F       		.uleb128 0x3f
 3235 1125 F0040000 		.4byte	.LASF154
 3236 1129 01       		.byte	0x1
 3237 112a 39       		.byte	0x39
 3238 112b 7A070000 		.4byte	0x77a
 3239 112f 01       		.uleb128 0x1
 3240 1130 50       		.byte	0x50
 3241 1131 00       		.byte	0
 3242 1132 15       		.uleb128 0x15
ARM GAS  /tmp/cc0TOxRm.s 			page 58


 3243 1133 9E040000 		.4byte	0x49e
 3244 1137 42110000 		.4byte	0x1142
 3245 113b 16       		.uleb128 0x16
 3246 113c 8C040000 		.4byte	0x48c
 3247 1140 B2       		.byte	0xb2
 3248 1141 00       		.byte	0
 3249 1142 33       		.uleb128 0x33
 3250 1143 E4080000 		.4byte	.LASF155
 3251 1147 01       		.byte	0x1
 3252 1148 25       		.byte	0x25
 3253 1149 32110000 		.4byte	0x1132
 3254 114d 05       		.uleb128 0x5
 3255 114e 03       		.byte	0x3
 3256 114f 00000000 		.4byte	led_thread_wa
 3257 1153 33       		.uleb128 0x33
 3258 1154 67010000 		.4byte	.LASF156
 3259 1158 01       		.byte	0x1
 3260 1159 26       		.byte	0x26
 3261 115a 64110000 		.4byte	0x1164
 3262 115e 05       		.uleb128 0x5
 3263 115f 03       		.byte	0x3
 3264 1160 00000000 		.4byte	state
 3265 1164 05       		.uleb128 0x5
 3266 1165 BB070000 		.4byte	0x7bb
 3267 1169 33       		.uleb128 0x33
 3268 116a 12060000 		.4byte	.LASF157
 3269 116e 01       		.byte	0x1
 3270 116f 27       		.byte	0x27
 3271 1170 7A110000 		.4byte	0x117a
 3272 1174 05       		.uleb128 0x5
 3273 1175 03       		.byte	0x3
 3274 1176 00000000 		.4byte	reverse_leds
 3275 117a 05       		.uleb128 0x5
 3276 117b 7A070000 		.4byte	0x77a
 3277 117f 40       		.uleb128 0x40
 3278 1180 C3000000 		.4byte	.LASF158
 3279 1184 13       		.byte	0x13
 3280 1185 A706     		.2byte	0x6a7
 3281 1187 EB000000 		.4byte	0xeb
 3282 118b 41       		.uleb128 0x41
 3283 118c 636800   		.ascii	"ch\000"
 3284 118f 0A       		.byte	0xa
 3285 1190 0902     		.2byte	0x209
 3286 1192 25040000 		.4byte	0x425
 3287 1196 15       		.uleb128 0x15
 3288 1197 B4000000 		.4byte	0xb4
 3289 119b A1110000 		.4byte	0x11a1
 3290 119f 42       		.uleb128 0x42
 3291 11a0 00       		.byte	0
 3292 11a1 43       		.uleb128 0x43
 3293 11a2 EB030000 		.4byte	.LASF159
 3294 11a6 14       		.byte	0x14
 3295 11a7 52       		.byte	0x52
 3296 11a8 AC110000 		.4byte	0x11ac
 3297 11ac 05       		.uleb128 0x5
 3298 11ad 96110000 		.4byte	0x1196
 3299 11b1 44       		.uleb128 0x44
ARM GAS  /tmp/cc0TOxRm.s 			page 59


 3300 11b2 C0060000 		.4byte	.LASF160
 3301 11b6 10       		.byte	0x10
 3302 11b7 96       		.byte	0x96
 3303 11b8 C2110000 		.4byte	0x11c2
 3304 11bc 0D       		.uleb128 0xd
 3305 11bd 53010000 		.4byte	0x153
 3306 11c1 00       		.byte	0
 3307 11c2 45       		.uleb128 0x45
 3308 11c3 49080000 		.4byte	.LASF168
 3309 11c7 14       		.byte	0x14
 3310 11c8 26       		.byte	0x26
 3311 11c9 6F070000 		.4byte	0x76f
 3312 11cd 44       		.uleb128 0x44
 3313 11ce E9020000 		.4byte	.LASF161
 3314 11d2 15       		.byte	0x15
 3315 11d3 4B       		.byte	0x4b
 3316 11d4 E3110000 		.4byte	0x11e3
 3317 11d8 0D       		.uleb128 0xd
 3318 11d9 A2000000 		.4byte	0xa2
 3319 11dd 0D       		.uleb128 0xd
 3320 11de CA000000 		.4byte	0xca
 3321 11e2 00       		.byte	0
 3322 11e3 44       		.uleb128 0x44
 3323 11e4 A0030000 		.4byte	.LASF162
 3324 11e8 15       		.byte	0x15
 3325 11e9 4E       		.byte	0x4e
 3326 11ea F4110000 		.4byte	0x11f4
 3327 11ee 0D       		.uleb128 0xd
 3328 11ef CA000000 		.4byte	0xca
 3329 11f3 00       		.byte	0
 3330 11f4 46       		.uleb128 0x46
 3331 11f5 9C010000 		.4byte	.LASF169
 3332 11f9 16       		.byte	0x16
 3333 11fa 23       		.byte	0x23
 3334 11fb 25000000 		.4byte	0x25
 3335 11ff 1D120000 		.4byte	0x121d
 3336 1203 0D       		.uleb128 0xd
 3337 1204 25000000 		.4byte	0x25
 3338 1208 0D       		.uleb128 0xd
 3339 1209 25000000 		.4byte	0x25
 3340 120d 0D       		.uleb128 0xd
 3341 120e 25000000 		.4byte	0x25
 3342 1212 0D       		.uleb128 0xd
 3343 1213 25000000 		.4byte	0x25
 3344 1217 0D       		.uleb128 0xd
 3345 1218 25000000 		.4byte	0x25
 3346 121c 00       		.byte	0
 3347 121d 47       		.uleb128 0x47
 3348 121e 65030000 		.4byte	.LASF163
 3349 1222 10       		.byte	0x10
 3350 1223 89       		.byte	0x89
 3351 1224 79020000 		.4byte	0x279
 3352 1228 0D       		.uleb128 0xd
 3353 1229 56030000 		.4byte	0x356
 3354 122d 0D       		.uleb128 0xd
 3355 122e E0000000 		.4byte	0xe0
 3356 1232 0D       		.uleb128 0xd
ARM GAS  /tmp/cc0TOxRm.s 			page 60


 3357 1233 27010000 		.4byte	0x127
 3358 1237 0D       		.uleb128 0xd
 3359 1238 20070000 		.4byte	0x720
 3360 123c 0D       		.uleb128 0xd
 3361 123d 56030000 		.4byte	0x356
 3362 1241 00       		.byte	0
 3363 1242 00       		.byte	0
 3364              		.section	.debug_abbrev,"",%progbits
 3365              	.Ldebug_abbrev0:
 3366 0000 01       		.uleb128 0x1
 3367 0001 11       		.uleb128 0x11
 3368 0002 01       		.byte	0x1
 3369 0003 25       		.uleb128 0x25
 3370 0004 0E       		.uleb128 0xe
 3371 0005 13       		.uleb128 0x13
 3372 0006 0B       		.uleb128 0xb
 3373 0007 03       		.uleb128 0x3
 3374 0008 0E       		.uleb128 0xe
 3375 0009 1B       		.uleb128 0x1b
 3376 000a 0E       		.uleb128 0xe
 3377 000b 55       		.uleb128 0x55
 3378 000c 17       		.uleb128 0x17
 3379 000d 11       		.uleb128 0x11
 3380 000e 01       		.uleb128 0x1
 3381 000f 10       		.uleb128 0x10
 3382 0010 17       		.uleb128 0x17
 3383 0011 00       		.byte	0
 3384 0012 00       		.byte	0
 3385 0013 02       		.uleb128 0x2
 3386 0014 24       		.uleb128 0x24
 3387 0015 00       		.byte	0
 3388 0016 0B       		.uleb128 0xb
 3389 0017 0B       		.uleb128 0xb
 3390 0018 3E       		.uleb128 0x3e
 3391 0019 0B       		.uleb128 0xb
 3392 001a 03       		.uleb128 0x3
 3393 001b 0E       		.uleb128 0xe
 3394 001c 00       		.byte	0
 3395 001d 00       		.byte	0
 3396 001e 03       		.uleb128 0x3
 3397 001f 16       		.uleb128 0x16
 3398 0020 00       		.byte	0
 3399 0021 03       		.uleb128 0x3
 3400 0022 0E       		.uleb128 0xe
 3401 0023 3A       		.uleb128 0x3a
 3402 0024 0B       		.uleb128 0xb
 3403 0025 3B       		.uleb128 0x3b
 3404 0026 0B       		.uleb128 0xb
 3405 0027 49       		.uleb128 0x49
 3406 0028 13       		.uleb128 0x13
 3407 0029 00       		.byte	0
 3408 002a 00       		.byte	0
 3409 002b 04       		.uleb128 0x4
 3410 002c 24       		.uleb128 0x24
 3411 002d 00       		.byte	0
 3412 002e 0B       		.uleb128 0xb
 3413 002f 0B       		.uleb128 0xb
ARM GAS  /tmp/cc0TOxRm.s 			page 61


 3414 0030 3E       		.uleb128 0x3e
 3415 0031 0B       		.uleb128 0xb
 3416 0032 03       		.uleb128 0x3
 3417 0033 08       		.uleb128 0x8
 3418 0034 00       		.byte	0
 3419 0035 00       		.byte	0
 3420 0036 05       		.uleb128 0x5
 3421 0037 35       		.uleb128 0x35
 3422 0038 00       		.byte	0
 3423 0039 49       		.uleb128 0x49
 3424 003a 13       		.uleb128 0x13
 3425 003b 00       		.byte	0
 3426 003c 00       		.byte	0
 3427 003d 06       		.uleb128 0x6
 3428 003e 13       		.uleb128 0x13
 3429 003f 01       		.byte	0x1
 3430 0040 03       		.uleb128 0x3
 3431 0041 0E       		.uleb128 0xe
 3432 0042 0B       		.uleb128 0xb
 3433 0043 0B       		.uleb128 0xb
 3434 0044 3A       		.uleb128 0x3a
 3435 0045 0B       		.uleb128 0xb
 3436 0046 3B       		.uleb128 0x3b
 3437 0047 0B       		.uleb128 0xb
 3438 0048 01       		.uleb128 0x1
 3439 0049 13       		.uleb128 0x13
 3440 004a 00       		.byte	0
 3441 004b 00       		.byte	0
 3442 004c 07       		.uleb128 0x7
 3443 004d 0D       		.uleb128 0xd
 3444 004e 00       		.byte	0
 3445 004f 03       		.uleb128 0x3
 3446 0050 0E       		.uleb128 0xe
 3447 0051 3A       		.uleb128 0x3a
 3448 0052 0B       		.uleb128 0xb
 3449 0053 3B       		.uleb128 0x3b
 3450 0054 0B       		.uleb128 0xb
 3451 0055 49       		.uleb128 0x49
 3452 0056 13       		.uleb128 0x13
 3453 0057 38       		.uleb128 0x38
 3454 0058 0B       		.uleb128 0xb
 3455 0059 00       		.byte	0
 3456 005a 00       		.byte	0
 3457 005b 08       		.uleb128 0x8
 3458 005c 0D       		.uleb128 0xd
 3459 005d 00       		.byte	0
 3460 005e 03       		.uleb128 0x3
 3461 005f 08       		.uleb128 0x8
 3462 0060 3A       		.uleb128 0x3a
 3463 0061 0B       		.uleb128 0xb
 3464 0062 3B       		.uleb128 0x3b
 3465 0063 05       		.uleb128 0x5
 3466 0064 49       		.uleb128 0x49
 3467 0065 13       		.uleb128 0x13
 3468 0066 38       		.uleb128 0x38
 3469 0067 0B       		.uleb128 0xb
 3470 0068 00       		.byte	0
ARM GAS  /tmp/cc0TOxRm.s 			page 62


 3471 0069 00       		.byte	0
 3472 006a 09       		.uleb128 0x9
 3473 006b 0D       		.uleb128 0xd
 3474 006c 00       		.byte	0
 3475 006d 03       		.uleb128 0x3
 3476 006e 0E       		.uleb128 0xe
 3477 006f 3A       		.uleb128 0x3a
 3478 0070 0B       		.uleb128 0xb
 3479 0071 3B       		.uleb128 0x3b
 3480 0072 05       		.uleb128 0x5
 3481 0073 49       		.uleb128 0x49
 3482 0074 13       		.uleb128 0x13
 3483 0075 38       		.uleb128 0x38
 3484 0076 0B       		.uleb128 0xb
 3485 0077 00       		.byte	0
 3486 0078 00       		.byte	0
 3487 0079 0A       		.uleb128 0xa
 3488 007a 0F       		.uleb128 0xf
 3489 007b 00       		.byte	0
 3490 007c 0B       		.uleb128 0xb
 3491 007d 0B       		.uleb128 0xb
 3492 007e 49       		.uleb128 0x49
 3493 007f 13       		.uleb128 0x13
 3494 0080 00       		.byte	0
 3495 0081 00       		.byte	0
 3496 0082 0B       		.uleb128 0xb
 3497 0083 13       		.uleb128 0x13
 3498 0084 01       		.byte	0x1
 3499 0085 03       		.uleb128 0x3
 3500 0086 0E       		.uleb128 0xe
 3501 0087 0B       		.uleb128 0xb
 3502 0088 0B       		.uleb128 0xb
 3503 0089 3A       		.uleb128 0x3a
 3504 008a 0B       		.uleb128 0xb
 3505 008b 3B       		.uleb128 0x3b
 3506 008c 05       		.uleb128 0x5
 3507 008d 01       		.uleb128 0x1
 3508 008e 13       		.uleb128 0x13
 3509 008f 00       		.byte	0
 3510 0090 00       		.byte	0
 3511 0091 0C       		.uleb128 0xc
 3512 0092 15       		.uleb128 0x15
 3513 0093 01       		.byte	0x1
 3514 0094 27       		.uleb128 0x27
 3515 0095 19       		.uleb128 0x19
 3516 0096 01       		.uleb128 0x1
 3517 0097 13       		.uleb128 0x13
 3518 0098 00       		.byte	0
 3519 0099 00       		.byte	0
 3520 009a 0D       		.uleb128 0xd
 3521 009b 05       		.uleb128 0x5
 3522 009c 00       		.byte	0
 3523 009d 49       		.uleb128 0x49
 3524 009e 13       		.uleb128 0x13
 3525 009f 00       		.byte	0
 3526 00a0 00       		.byte	0
 3527 00a1 0E       		.uleb128 0xe
ARM GAS  /tmp/cc0TOxRm.s 			page 63


 3528 00a2 0F       		.uleb128 0xf
 3529 00a3 00       		.byte	0
 3530 00a4 0B       		.uleb128 0xb
 3531 00a5 0B       		.uleb128 0xb
 3532 00a6 00       		.byte	0
 3533 00a7 00       		.byte	0
 3534 00a8 0F       		.uleb128 0xf
 3535 00a9 13       		.uleb128 0x13
 3536 00aa 01       		.byte	0x1
 3537 00ab 03       		.uleb128 0x3
 3538 00ac 0E       		.uleb128 0xe
 3539 00ad 0B       		.uleb128 0xb
 3540 00ae 05       		.uleb128 0x5
 3541 00af 3A       		.uleb128 0x3a
 3542 00b0 0B       		.uleb128 0xb
 3543 00b1 3B       		.uleb128 0x3b
 3544 00b2 05       		.uleb128 0x5
 3545 00b3 01       		.uleb128 0x1
 3546 00b4 13       		.uleb128 0x13
 3547 00b5 00       		.byte	0
 3548 00b6 00       		.byte	0
 3549 00b7 10       		.uleb128 0x10
 3550 00b8 0D       		.uleb128 0xd
 3551 00b9 00       		.byte	0
 3552 00ba 03       		.uleb128 0x3
 3553 00bb 08       		.uleb128 0x8
 3554 00bc 3A       		.uleb128 0x3a
 3555 00bd 0B       		.uleb128 0xb
 3556 00be 3B       		.uleb128 0x3b
 3557 00bf 0B       		.uleb128 0xb
 3558 00c0 49       		.uleb128 0x49
 3559 00c1 13       		.uleb128 0x13
 3560 00c2 38       		.uleb128 0x38
 3561 00c3 0B       		.uleb128 0xb
 3562 00c4 00       		.byte	0
 3563 00c5 00       		.byte	0
 3564 00c6 11       		.uleb128 0x11
 3565 00c7 13       		.uleb128 0x13
 3566 00c8 01       		.byte	0x1
 3567 00c9 0B       		.uleb128 0xb
 3568 00ca 0B       		.uleb128 0xb
 3569 00cb 3A       		.uleb128 0x3a
 3570 00cc 0B       		.uleb128 0xb
 3571 00cd 3B       		.uleb128 0x3b
 3572 00ce 0B       		.uleb128 0xb
 3573 00cf 01       		.uleb128 0x1
 3574 00d0 13       		.uleb128 0x13
 3575 00d1 00       		.byte	0
 3576 00d2 00       		.byte	0
 3577 00d3 12       		.uleb128 0x12
 3578 00d4 17       		.uleb128 0x17
 3579 00d5 01       		.byte	0x1
 3580 00d6 0B       		.uleb128 0xb
 3581 00d7 0B       		.uleb128 0xb
 3582 00d8 3A       		.uleb128 0x3a
 3583 00d9 0B       		.uleb128 0xb
 3584 00da 3B       		.uleb128 0x3b
ARM GAS  /tmp/cc0TOxRm.s 			page 64


 3585 00db 0B       		.uleb128 0xb
 3586 00dc 01       		.uleb128 0x1
 3587 00dd 13       		.uleb128 0x13
 3588 00de 00       		.byte	0
 3589 00df 00       		.byte	0
 3590 00e0 13       		.uleb128 0x13
 3591 00e1 0D       		.uleb128 0xd
 3592 00e2 00       		.byte	0
 3593 00e3 03       		.uleb128 0x3
 3594 00e4 0E       		.uleb128 0xe
 3595 00e5 3A       		.uleb128 0x3a
 3596 00e6 0B       		.uleb128 0xb
 3597 00e7 3B       		.uleb128 0x3b
 3598 00e8 05       		.uleb128 0x5
 3599 00e9 49       		.uleb128 0x49
 3600 00ea 13       		.uleb128 0x13
 3601 00eb 00       		.byte	0
 3602 00ec 00       		.byte	0
 3603 00ed 14       		.uleb128 0x14
 3604 00ee 26       		.uleb128 0x26
 3605 00ef 00       		.byte	0
 3606 00f0 49       		.uleb128 0x49
 3607 00f1 13       		.uleb128 0x13
 3608 00f2 00       		.byte	0
 3609 00f3 00       		.byte	0
 3610 00f4 15       		.uleb128 0x15
 3611 00f5 01       		.uleb128 0x1
 3612 00f6 01       		.byte	0x1
 3613 00f7 49       		.uleb128 0x49
 3614 00f8 13       		.uleb128 0x13
 3615 00f9 01       		.uleb128 0x1
 3616 00fa 13       		.uleb128 0x13
 3617 00fb 00       		.byte	0
 3618 00fc 00       		.byte	0
 3619 00fd 16       		.uleb128 0x16
 3620 00fe 21       		.uleb128 0x21
 3621 00ff 00       		.byte	0
 3622 0100 49       		.uleb128 0x49
 3623 0101 13       		.uleb128 0x13
 3624 0102 2F       		.uleb128 0x2f
 3625 0103 0B       		.uleb128 0xb
 3626 0104 00       		.byte	0
 3627 0105 00       		.byte	0
 3628 0106 17       		.uleb128 0x17
 3629 0107 04       		.uleb128 0x4
 3630 0108 01       		.byte	0x1
 3631 0109 0B       		.uleb128 0xb
 3632 010a 0B       		.uleb128 0xb
 3633 010b 3A       		.uleb128 0x3a
 3634 010c 0B       		.uleb128 0xb
 3635 010d 3B       		.uleb128 0x3b
 3636 010e 0B       		.uleb128 0xb
 3637 010f 01       		.uleb128 0x1
 3638 0110 13       		.uleb128 0x13
 3639 0111 00       		.byte	0
 3640 0112 00       		.byte	0
 3641 0113 18       		.uleb128 0x18
ARM GAS  /tmp/cc0TOxRm.s 			page 65


 3642 0114 28       		.uleb128 0x28
 3643 0115 00       		.byte	0
 3644 0116 03       		.uleb128 0x3
 3645 0117 0E       		.uleb128 0xe
 3646 0118 1C       		.uleb128 0x1c
 3647 0119 0D       		.uleb128 0xd
 3648 011a 00       		.byte	0
 3649 011b 00       		.byte	0
 3650 011c 19       		.uleb128 0x19
 3651 011d 04       		.uleb128 0x4
 3652 011e 01       		.byte	0x1
 3653 011f 0B       		.uleb128 0xb
 3654 0120 0B       		.uleb128 0xb
 3655 0121 3A       		.uleb128 0x3a
 3656 0122 0B       		.uleb128 0xb
 3657 0123 3B       		.uleb128 0x3b
 3658 0124 05       		.uleb128 0x5
 3659 0125 01       		.uleb128 0x1
 3660 0126 13       		.uleb128 0x13
 3661 0127 00       		.byte	0
 3662 0128 00       		.byte	0
 3663 0129 1A       		.uleb128 0x1a
 3664 012a 16       		.uleb128 0x16
 3665 012b 00       		.byte	0
 3666 012c 03       		.uleb128 0x3
 3667 012d 0E       		.uleb128 0xe
 3668 012e 3A       		.uleb128 0x3a
 3669 012f 0B       		.uleb128 0xb
 3670 0130 3B       		.uleb128 0x3b
 3671 0131 05       		.uleb128 0x5
 3672 0132 49       		.uleb128 0x49
 3673 0133 13       		.uleb128 0x13
 3674 0134 00       		.byte	0
 3675 0135 00       		.byte	0
 3676 0136 1B       		.uleb128 0x1b
 3677 0137 2E       		.uleb128 0x2e
 3678 0138 01       		.byte	0x1
 3679 0139 03       		.uleb128 0x3
 3680 013a 0E       		.uleb128 0xe
 3681 013b 3A       		.uleb128 0x3a
 3682 013c 0B       		.uleb128 0xb
 3683 013d 3B       		.uleb128 0x3b
 3684 013e 05       		.uleb128 0x5
 3685 013f 27       		.uleb128 0x27
 3686 0140 19       		.uleb128 0x19
 3687 0141 20       		.uleb128 0x20
 3688 0142 0B       		.uleb128 0xb
 3689 0143 01       		.uleb128 0x1
 3690 0144 13       		.uleb128 0x13
 3691 0145 00       		.byte	0
 3692 0146 00       		.byte	0
 3693 0147 1C       		.uleb128 0x1c
 3694 0148 05       		.uleb128 0x5
 3695 0149 00       		.byte	0
 3696 014a 03       		.uleb128 0x3
 3697 014b 0E       		.uleb128 0xe
 3698 014c 3A       		.uleb128 0x3a
ARM GAS  /tmp/cc0TOxRm.s 			page 66


 3699 014d 0B       		.uleb128 0xb
 3700 014e 3B       		.uleb128 0x3b
 3701 014f 05       		.uleb128 0x5
 3702 0150 49       		.uleb128 0x49
 3703 0151 13       		.uleb128 0x13
 3704 0152 00       		.byte	0
 3705 0153 00       		.byte	0
 3706 0154 1D       		.uleb128 0x1d
 3707 0155 2E       		.uleb128 0x2e
 3708 0156 00       		.byte	0
 3709 0157 03       		.uleb128 0x3
 3710 0158 0E       		.uleb128 0xe
 3711 0159 3A       		.uleb128 0x3a
 3712 015a 0B       		.uleb128 0xb
 3713 015b 3B       		.uleb128 0x3b
 3714 015c 05       		.uleb128 0x5
 3715 015d 27       		.uleb128 0x27
 3716 015e 19       		.uleb128 0x19
 3717 015f 20       		.uleb128 0x20
 3718 0160 0B       		.uleb128 0xb
 3719 0161 00       		.byte	0
 3720 0162 00       		.byte	0
 3721 0163 1E       		.uleb128 0x1e
 3722 0164 2E       		.uleb128 0x2e
 3723 0165 00       		.byte	0
 3724 0166 03       		.uleb128 0x3
 3725 0167 0E       		.uleb128 0xe
 3726 0168 3A       		.uleb128 0x3a
 3727 0169 0B       		.uleb128 0xb
 3728 016a 3B       		.uleb128 0x3b
 3729 016b 0B       		.uleb128 0xb
 3730 016c 27       		.uleb128 0x27
 3731 016d 19       		.uleb128 0x19
 3732 016e 49       		.uleb128 0x49
 3733 016f 13       		.uleb128 0x13
 3734 0170 20       		.uleb128 0x20
 3735 0171 0B       		.uleb128 0xb
 3736 0172 00       		.byte	0
 3737 0173 00       		.byte	0
 3738 0174 1F       		.uleb128 0x1f
 3739 0175 34       		.uleb128 0x34
 3740 0176 00       		.byte	0
 3741 0177 03       		.uleb128 0x3
 3742 0178 0E       		.uleb128 0xe
 3743 0179 49       		.uleb128 0x49
 3744 017a 13       		.uleb128 0x13
 3745 017b 34       		.uleb128 0x34
 3746 017c 19       		.uleb128 0x19
 3747 017d 1C       		.uleb128 0x1c
 3748 017e 0E       		.uleb128 0xe
 3749 017f 00       		.byte	0
 3750 0180 00       		.byte	0
 3751 0181 20       		.uleb128 0x20
 3752 0182 2E       		.uleb128 0x2e
 3753 0183 01       		.byte	0x1
 3754 0184 03       		.uleb128 0x3
 3755 0185 0E       		.uleb128 0xe
ARM GAS  /tmp/cc0TOxRm.s 			page 67


 3756 0186 3A       		.uleb128 0x3a
 3757 0187 0B       		.uleb128 0xb
 3758 0188 3B       		.uleb128 0x3b
 3759 0189 0B       		.uleb128 0xb
 3760 018a 27       		.uleb128 0x27
 3761 018b 19       		.uleb128 0x19
 3762 018c 20       		.uleb128 0x20
 3763 018d 0B       		.uleb128 0xb
 3764 018e 01       		.uleb128 0x1
 3765 018f 13       		.uleb128 0x13
 3766 0190 00       		.byte	0
 3767 0191 00       		.byte	0
 3768 0192 21       		.uleb128 0x21
 3769 0193 05       		.uleb128 0x5
 3770 0194 00       		.byte	0
 3771 0195 03       		.uleb128 0x3
 3772 0196 0E       		.uleb128 0xe
 3773 0197 3A       		.uleb128 0x3a
 3774 0198 0B       		.uleb128 0xb
 3775 0199 3B       		.uleb128 0x3b
 3776 019a 0B       		.uleb128 0xb
 3777 019b 49       		.uleb128 0x49
 3778 019c 13       		.uleb128 0x13
 3779 019d 00       		.byte	0
 3780 019e 00       		.byte	0
 3781 019f 22       		.uleb128 0x22
 3782 01a0 2E       		.uleb128 0x2e
 3783 01a1 01       		.byte	0x1
 3784 01a2 03       		.uleb128 0x3
 3785 01a3 0E       		.uleb128 0xe
 3786 01a4 3A       		.uleb128 0x3a
 3787 01a5 0B       		.uleb128 0xb
 3788 01a6 3B       		.uleb128 0x3b
 3789 01a7 0B       		.uleb128 0xb
 3790 01a8 27       		.uleb128 0x27
 3791 01a9 19       		.uleb128 0x19
 3792 01aa 49       		.uleb128 0x49
 3793 01ab 13       		.uleb128 0x13
 3794 01ac 20       		.uleb128 0x20
 3795 01ad 0B       		.uleb128 0xb
 3796 01ae 01       		.uleb128 0x1
 3797 01af 13       		.uleb128 0x13
 3798 01b0 00       		.byte	0
 3799 01b1 00       		.byte	0
 3800 01b2 23       		.uleb128 0x23
 3801 01b3 34       		.uleb128 0x34
 3802 01b4 00       		.byte	0
 3803 01b5 03       		.uleb128 0x3
 3804 01b6 0E       		.uleb128 0xe
 3805 01b7 3A       		.uleb128 0x3a
 3806 01b8 0B       		.uleb128 0xb
 3807 01b9 3B       		.uleb128 0x3b
 3808 01ba 0B       		.uleb128 0xb
 3809 01bb 49       		.uleb128 0x49
 3810 01bc 13       		.uleb128 0x13
 3811 01bd 00       		.byte	0
 3812 01be 00       		.byte	0
ARM GAS  /tmp/cc0TOxRm.s 			page 68


 3813 01bf 24       		.uleb128 0x24
 3814 01c0 34       		.uleb128 0x34
 3815 01c1 00       		.byte	0
 3816 01c2 03       		.uleb128 0x3
 3817 01c3 08       		.uleb128 0x8
 3818 01c4 3A       		.uleb128 0x3a
 3819 01c5 0B       		.uleb128 0xb
 3820 01c6 3B       		.uleb128 0x3b
 3821 01c7 0B       		.uleb128 0xb
 3822 01c8 49       		.uleb128 0x49
 3823 01c9 13       		.uleb128 0x13
 3824 01ca 00       		.byte	0
 3825 01cb 00       		.byte	0
 3826 01cc 25       		.uleb128 0x25
 3827 01cd 2E       		.uleb128 0x2e
 3828 01ce 01       		.byte	0x1
 3829 01cf 03       		.uleb128 0x3
 3830 01d0 0E       		.uleb128 0xe
 3831 01d1 3A       		.uleb128 0x3a
 3832 01d2 0B       		.uleb128 0xb
 3833 01d3 3B       		.uleb128 0x3b
 3834 01d4 0B       		.uleb128 0xb
 3835 01d5 27       		.uleb128 0x27
 3836 01d6 19       		.uleb128 0x19
 3837 01d7 11       		.uleb128 0x11
 3838 01d8 01       		.uleb128 0x1
 3839 01d9 12       		.uleb128 0x12
 3840 01da 06       		.uleb128 0x6
 3841 01db 40       		.uleb128 0x40
 3842 01dc 18       		.uleb128 0x18
 3843 01dd 9742     		.uleb128 0x2117
 3844 01df 19       		.uleb128 0x19
 3845 01e0 01       		.uleb128 0x1
 3846 01e1 13       		.uleb128 0x13
 3847 01e2 00       		.byte	0
 3848 01e3 00       		.byte	0
 3849 01e4 26       		.uleb128 0x26
 3850 01e5 34       		.uleb128 0x34
 3851 01e6 00       		.byte	0
 3852 01e7 03       		.uleb128 0x3
 3853 01e8 08       		.uleb128 0x8
 3854 01e9 3A       		.uleb128 0x3a
 3855 01ea 0B       		.uleb128 0xb
 3856 01eb 3B       		.uleb128 0x3b
 3857 01ec 0B       		.uleb128 0xb
 3858 01ed 49       		.uleb128 0x49
 3859 01ee 13       		.uleb128 0x13
 3860 01ef 02       		.uleb128 0x2
 3861 01f0 17       		.uleb128 0x17
 3862 01f1 00       		.byte	0
 3863 01f2 00       		.byte	0
 3864 01f3 27       		.uleb128 0x27
 3865 01f4 34       		.uleb128 0x34
 3866 01f5 00       		.byte	0
 3867 01f6 03       		.uleb128 0x3
 3868 01f7 0E       		.uleb128 0xe
 3869 01f8 3A       		.uleb128 0x3a
ARM GAS  /tmp/cc0TOxRm.s 			page 69


 3870 01f9 0B       		.uleb128 0xb
 3871 01fa 3B       		.uleb128 0x3b
 3872 01fb 0B       		.uleb128 0xb
 3873 01fc 49       		.uleb128 0x49
 3874 01fd 13       		.uleb128 0x13
 3875 01fe 02       		.uleb128 0x2
 3876 01ff 17       		.uleb128 0x17
 3877 0200 00       		.byte	0
 3878 0201 00       		.byte	0
 3879 0202 28       		.uleb128 0x28
 3880 0203 898201   		.uleb128 0x4109
 3881 0206 01       		.byte	0x1
 3882 0207 11       		.uleb128 0x11
 3883 0208 01       		.uleb128 0x1
 3884 0209 31       		.uleb128 0x31
 3885 020a 13       		.uleb128 0x13
 3886 020b 01       		.uleb128 0x1
 3887 020c 13       		.uleb128 0x13
 3888 020d 00       		.byte	0
 3889 020e 00       		.byte	0
 3890 020f 29       		.uleb128 0x29
 3891 0210 8A8201   		.uleb128 0x410a
 3892 0213 00       		.byte	0
 3893 0214 02       		.uleb128 0x2
 3894 0215 18       		.uleb128 0x18
 3895 0216 9142     		.uleb128 0x2111
 3896 0218 18       		.uleb128 0x18
 3897 0219 00       		.byte	0
 3898 021a 00       		.byte	0
 3899 021b 2A       		.uleb128 0x2a
 3900 021c 898201   		.uleb128 0x4109
 3901 021f 00       		.byte	0
 3902 0220 11       		.uleb128 0x11
 3903 0221 01       		.uleb128 0x1
 3904 0222 31       		.uleb128 0x31
 3905 0223 13       		.uleb128 0x13
 3906 0224 00       		.byte	0
 3907 0225 00       		.byte	0
 3908 0226 2B       		.uleb128 0x2b
 3909 0227 05       		.uleb128 0x5
 3910 0228 00       		.byte	0
 3911 0229 03       		.uleb128 0x3
 3912 022a 08       		.uleb128 0x8
 3913 022b 3A       		.uleb128 0x3a
 3914 022c 0B       		.uleb128 0xb
 3915 022d 3B       		.uleb128 0x3b
 3916 022e 0B       		.uleb128 0xb
 3917 022f 49       		.uleb128 0x49
 3918 0230 13       		.uleb128 0x13
 3919 0231 02       		.uleb128 0x2
 3920 0232 17       		.uleb128 0x17
 3921 0233 00       		.byte	0
 3922 0234 00       		.byte	0
 3923 0235 2C       		.uleb128 0x2c
 3924 0236 05       		.uleb128 0x5
 3925 0237 00       		.byte	0
 3926 0238 03       		.uleb128 0x3
ARM GAS  /tmp/cc0TOxRm.s 			page 70


 3927 0239 0E       		.uleb128 0xe
 3928 023a 3A       		.uleb128 0x3a
 3929 023b 0B       		.uleb128 0xb
 3930 023c 3B       		.uleb128 0x3b
 3931 023d 0B       		.uleb128 0xb
 3932 023e 49       		.uleb128 0x49
 3933 023f 13       		.uleb128 0x13
 3934 0240 02       		.uleb128 0x2
 3935 0241 17       		.uleb128 0x17
 3936 0242 00       		.byte	0
 3937 0243 00       		.byte	0
 3938 0244 2D       		.uleb128 0x2d
 3939 0245 898201   		.uleb128 0x4109
 3940 0248 01       		.byte	0x1
 3941 0249 11       		.uleb128 0x11
 3942 024a 01       		.uleb128 0x1
 3943 024b 9542     		.uleb128 0x2115
 3944 024d 19       		.uleb128 0x19
 3945 024e 31       		.uleb128 0x31
 3946 024f 13       		.uleb128 0x13
 3947 0250 01       		.uleb128 0x1
 3948 0251 13       		.uleb128 0x13
 3949 0252 00       		.byte	0
 3950 0253 00       		.byte	0
 3951 0254 2E       		.uleb128 0x2e
 3952 0255 898201   		.uleb128 0x4109
 3953 0258 00       		.byte	0
 3954 0259 11       		.uleb128 0x11
 3955 025a 01       		.uleb128 0x1
 3956 025b 9542     		.uleb128 0x2115
 3957 025d 19       		.uleb128 0x19
 3958 025e 31       		.uleb128 0x31
 3959 025f 13       		.uleb128 0x13
 3960 0260 00       		.byte	0
 3961 0261 00       		.byte	0
 3962 0262 2F       		.uleb128 0x2f
 3963 0263 1D       		.uleb128 0x1d
 3964 0264 01       		.byte	0x1
 3965 0265 31       		.uleb128 0x31
 3966 0266 13       		.uleb128 0x13
 3967 0267 52       		.uleb128 0x52
 3968 0268 01       		.uleb128 0x1
 3969 0269 55       		.uleb128 0x55
 3970 026a 17       		.uleb128 0x17
 3971 026b 58       		.uleb128 0x58
 3972 026c 0B       		.uleb128 0xb
 3973 026d 59       		.uleb128 0x59
 3974 026e 0B       		.uleb128 0xb
 3975 026f 01       		.uleb128 0x1
 3976 0270 13       		.uleb128 0x13
 3977 0271 00       		.byte	0
 3978 0272 00       		.byte	0
 3979 0273 30       		.uleb128 0x30
 3980 0274 05       		.uleb128 0x5
 3981 0275 00       		.byte	0
 3982 0276 31       		.uleb128 0x31
 3983 0277 13       		.uleb128 0x13
ARM GAS  /tmp/cc0TOxRm.s 			page 71


 3984 0278 02       		.uleb128 0x2
 3985 0279 18       		.uleb128 0x18
 3986 027a 00       		.byte	0
 3987 027b 00       		.byte	0
 3988 027c 31       		.uleb128 0x31
 3989 027d 0B       		.uleb128 0xb
 3990 027e 01       		.byte	0x1
 3991 027f 55       		.uleb128 0x55
 3992 0280 17       		.uleb128 0x17
 3993 0281 00       		.byte	0
 3994 0282 00       		.byte	0
 3995 0283 32       		.uleb128 0x32
 3996 0284 0B       		.uleb128 0xb
 3997 0285 01       		.byte	0x1
 3998 0286 55       		.uleb128 0x55
 3999 0287 17       		.uleb128 0x17
 4000 0288 01       		.uleb128 0x1
 4001 0289 13       		.uleb128 0x13
 4002 028a 00       		.byte	0
 4003 028b 00       		.byte	0
 4004 028c 33       		.uleb128 0x33
 4005 028d 34       		.uleb128 0x34
 4006 028e 00       		.byte	0
 4007 028f 03       		.uleb128 0x3
 4008 0290 0E       		.uleb128 0xe
 4009 0291 3A       		.uleb128 0x3a
 4010 0292 0B       		.uleb128 0xb
 4011 0293 3B       		.uleb128 0x3b
 4012 0294 0B       		.uleb128 0xb
 4013 0295 49       		.uleb128 0x49
 4014 0296 13       		.uleb128 0x13
 4015 0297 02       		.uleb128 0x2
 4016 0298 18       		.uleb128 0x18
 4017 0299 00       		.byte	0
 4018 029a 00       		.byte	0
 4019 029b 34       		.uleb128 0x34
 4020 029c 0B       		.uleb128 0xb
 4021 029d 01       		.byte	0x1
 4022 029e 11       		.uleb128 0x11
 4023 029f 01       		.uleb128 0x1
 4024 02a0 12       		.uleb128 0x12
 4025 02a1 06       		.uleb128 0x6
 4026 02a2 01       		.uleb128 0x1
 4027 02a3 13       		.uleb128 0x13
 4028 02a4 00       		.byte	0
 4029 02a5 00       		.byte	0
 4030 02a6 35       		.uleb128 0x35
 4031 02a7 898201   		.uleb128 0x4109
 4032 02aa 01       		.byte	0x1
 4033 02ab 11       		.uleb128 0x11
 4034 02ac 01       		.uleb128 0x1
 4035 02ad 31       		.uleb128 0x31
 4036 02ae 13       		.uleb128 0x13
 4037 02af 00       		.byte	0
 4038 02b0 00       		.byte	0
 4039 02b1 36       		.uleb128 0x36
 4040 02b2 34       		.uleb128 0x34
ARM GAS  /tmp/cc0TOxRm.s 			page 72


 4041 02b3 00       		.byte	0
 4042 02b4 31       		.uleb128 0x31
 4043 02b5 13       		.uleb128 0x13
 4044 02b6 00       		.byte	0
 4045 02b7 00       		.byte	0
 4046 02b8 37       		.uleb128 0x37
 4047 02b9 1D       		.uleb128 0x1d
 4048 02ba 01       		.byte	0x1
 4049 02bb 31       		.uleb128 0x31
 4050 02bc 13       		.uleb128 0x13
 4051 02bd 52       		.uleb128 0x52
 4052 02be 01       		.uleb128 0x1
 4053 02bf 55       		.uleb128 0x55
 4054 02c0 17       		.uleb128 0x17
 4055 02c1 58       		.uleb128 0x58
 4056 02c2 0B       		.uleb128 0xb
 4057 02c3 59       		.uleb128 0x59
 4058 02c4 05       		.uleb128 0x5
 4059 02c5 00       		.byte	0
 4060 02c6 00       		.byte	0
 4061 02c7 38       		.uleb128 0x38
 4062 02c8 05       		.uleb128 0x5
 4063 02c9 00       		.byte	0
 4064 02ca 31       		.uleb128 0x31
 4065 02cb 13       		.uleb128 0x13
 4066 02cc 02       		.uleb128 0x2
 4067 02cd 17       		.uleb128 0x17
 4068 02ce 00       		.byte	0
 4069 02cf 00       		.byte	0
 4070 02d0 39       		.uleb128 0x39
 4071 02d1 1D       		.uleb128 0x1d
 4072 02d2 00       		.byte	0
 4073 02d3 31       		.uleb128 0x31
 4074 02d4 13       		.uleb128 0x13
 4075 02d5 11       		.uleb128 0x11
 4076 02d6 01       		.uleb128 0x1
 4077 02d7 12       		.uleb128 0x12
 4078 02d8 06       		.uleb128 0x6
 4079 02d9 58       		.uleb128 0x58
 4080 02da 0B       		.uleb128 0xb
 4081 02db 59       		.uleb128 0x59
 4082 02dc 0B       		.uleb128 0xb
 4083 02dd 00       		.byte	0
 4084 02de 00       		.byte	0
 4085 02df 3A       		.uleb128 0x3a
 4086 02e0 1D       		.uleb128 0x1d
 4087 02e1 01       		.byte	0x1
 4088 02e2 31       		.uleb128 0x31
 4089 02e3 13       		.uleb128 0x13
 4090 02e4 11       		.uleb128 0x11
 4091 02e5 01       		.uleb128 0x1
 4092 02e6 12       		.uleb128 0x12
 4093 02e7 06       		.uleb128 0x6
 4094 02e8 58       		.uleb128 0x58
 4095 02e9 0B       		.uleb128 0xb
 4096 02ea 59       		.uleb128 0x59
 4097 02eb 0B       		.uleb128 0xb
ARM GAS  /tmp/cc0TOxRm.s 			page 73


 4098 02ec 00       		.byte	0
 4099 02ed 00       		.byte	0
 4100 02ee 3B       		.uleb128 0x3b
 4101 02ef 0B       		.uleb128 0xb
 4102 02f0 01       		.byte	0x1
 4103 02f1 11       		.uleb128 0x11
 4104 02f2 01       		.uleb128 0x1
 4105 02f3 12       		.uleb128 0x12
 4106 02f4 06       		.uleb128 0x6
 4107 02f5 00       		.byte	0
 4108 02f6 00       		.byte	0
 4109 02f7 3C       		.uleb128 0x3c
 4110 02f8 1D       		.uleb128 0x1d
 4111 02f9 01       		.byte	0x1
 4112 02fa 31       		.uleb128 0x31
 4113 02fb 13       		.uleb128 0x13
 4114 02fc 11       		.uleb128 0x11
 4115 02fd 01       		.uleb128 0x1
 4116 02fe 12       		.uleb128 0x12
 4117 02ff 06       		.uleb128 0x6
 4118 0300 58       		.uleb128 0x58
 4119 0301 0B       		.uleb128 0xb
 4120 0302 59       		.uleb128 0x59
 4121 0303 05       		.uleb128 0x5
 4122 0304 00       		.byte	0
 4123 0305 00       		.byte	0
 4124 0306 3D       		.uleb128 0x3d
 4125 0307 34       		.uleb128 0x34
 4126 0308 00       		.byte	0
 4127 0309 31       		.uleb128 0x31
 4128 030a 13       		.uleb128 0x13
 4129 030b 02       		.uleb128 0x2
 4130 030c 17       		.uleb128 0x17
 4131 030d 00       		.byte	0
 4132 030e 00       		.byte	0
 4133 030f 3E       		.uleb128 0x3e
 4134 0310 2E       		.uleb128 0x2e
 4135 0311 01       		.byte	0x1
 4136 0312 3F       		.uleb128 0x3f
 4137 0313 19       		.uleb128 0x19
 4138 0314 03       		.uleb128 0x3
 4139 0315 0E       		.uleb128 0xe
 4140 0316 3A       		.uleb128 0x3a
 4141 0317 0B       		.uleb128 0xb
 4142 0318 3B       		.uleb128 0x3b
 4143 0319 0B       		.uleb128 0xb
 4144 031a 27       		.uleb128 0x27
 4145 031b 19       		.uleb128 0x19
 4146 031c 11       		.uleb128 0x11
 4147 031d 01       		.uleb128 0x1
 4148 031e 12       		.uleb128 0x12
 4149 031f 06       		.uleb128 0x6
 4150 0320 40       		.uleb128 0x40
 4151 0321 18       		.uleb128 0x18
 4152 0322 9742     		.uleb128 0x2117
 4153 0324 19       		.uleb128 0x19
 4154 0325 01       		.uleb128 0x1
ARM GAS  /tmp/cc0TOxRm.s 			page 74


 4155 0326 13       		.uleb128 0x13
 4156 0327 00       		.byte	0
 4157 0328 00       		.byte	0
 4158 0329 3F       		.uleb128 0x3f
 4159 032a 05       		.uleb128 0x5
 4160 032b 00       		.byte	0
 4161 032c 03       		.uleb128 0x3
 4162 032d 0E       		.uleb128 0xe
 4163 032e 3A       		.uleb128 0x3a
 4164 032f 0B       		.uleb128 0xb
 4165 0330 3B       		.uleb128 0x3b
 4166 0331 0B       		.uleb128 0xb
 4167 0332 49       		.uleb128 0x49
 4168 0333 13       		.uleb128 0x13
 4169 0334 02       		.uleb128 0x2
 4170 0335 18       		.uleb128 0x18
 4171 0336 00       		.byte	0
 4172 0337 00       		.byte	0
 4173 0338 40       		.uleb128 0x40
 4174 0339 34       		.uleb128 0x34
 4175 033a 00       		.byte	0
 4176 033b 03       		.uleb128 0x3
 4177 033c 0E       		.uleb128 0xe
 4178 033d 3A       		.uleb128 0x3a
 4179 033e 0B       		.uleb128 0xb
 4180 033f 3B       		.uleb128 0x3b
 4181 0340 05       		.uleb128 0x5
 4182 0341 49       		.uleb128 0x49
 4183 0342 13       		.uleb128 0x13
 4184 0343 3F       		.uleb128 0x3f
 4185 0344 19       		.uleb128 0x19
 4186 0345 3C       		.uleb128 0x3c
 4187 0346 19       		.uleb128 0x19
 4188 0347 00       		.byte	0
 4189 0348 00       		.byte	0
 4190 0349 41       		.uleb128 0x41
 4191 034a 34       		.uleb128 0x34
 4192 034b 00       		.byte	0
 4193 034c 03       		.uleb128 0x3
 4194 034d 08       		.uleb128 0x8
 4195 034e 3A       		.uleb128 0x3a
 4196 034f 0B       		.uleb128 0xb
 4197 0350 3B       		.uleb128 0x3b
 4198 0351 05       		.uleb128 0x5
 4199 0352 49       		.uleb128 0x49
 4200 0353 13       		.uleb128 0x13
 4201 0354 3F       		.uleb128 0x3f
 4202 0355 19       		.uleb128 0x19
 4203 0356 3C       		.uleb128 0x3c
 4204 0357 19       		.uleb128 0x19
 4205 0358 00       		.byte	0
 4206 0359 00       		.byte	0
 4207 035a 42       		.uleb128 0x42
 4208 035b 21       		.uleb128 0x21
 4209 035c 00       		.byte	0
 4210 035d 00       		.byte	0
 4211 035e 00       		.byte	0
ARM GAS  /tmp/cc0TOxRm.s 			page 75


 4212 035f 43       		.uleb128 0x43
 4213 0360 34       		.uleb128 0x34
 4214 0361 00       		.byte	0
 4215 0362 03       		.uleb128 0x3
 4216 0363 0E       		.uleb128 0xe
 4217 0364 3A       		.uleb128 0x3a
 4218 0365 0B       		.uleb128 0xb
 4219 0366 3B       		.uleb128 0x3b
 4220 0367 0B       		.uleb128 0xb
 4221 0368 49       		.uleb128 0x49
 4222 0369 13       		.uleb128 0x13
 4223 036a 3F       		.uleb128 0x3f
 4224 036b 19       		.uleb128 0x19
 4225 036c 3C       		.uleb128 0x3c
 4226 036d 19       		.uleb128 0x19
 4227 036e 00       		.byte	0
 4228 036f 00       		.byte	0
 4229 0370 44       		.uleb128 0x44
 4230 0371 2E       		.uleb128 0x2e
 4231 0372 01       		.byte	0x1
 4232 0373 3F       		.uleb128 0x3f
 4233 0374 19       		.uleb128 0x19
 4234 0375 03       		.uleb128 0x3
 4235 0376 0E       		.uleb128 0xe
 4236 0377 3A       		.uleb128 0x3a
 4237 0378 0B       		.uleb128 0xb
 4238 0379 3B       		.uleb128 0x3b
 4239 037a 0B       		.uleb128 0xb
 4240 037b 27       		.uleb128 0x27
 4241 037c 19       		.uleb128 0x19
 4242 037d 3C       		.uleb128 0x3c
 4243 037e 19       		.uleb128 0x19
 4244 037f 01       		.uleb128 0x1
 4245 0380 13       		.uleb128 0x13
 4246 0381 00       		.byte	0
 4247 0382 00       		.byte	0
 4248 0383 45       		.uleb128 0x45
 4249 0384 2E       		.uleb128 0x2e
 4250 0385 00       		.byte	0
 4251 0386 3F       		.uleb128 0x3f
 4252 0387 19       		.uleb128 0x19
 4253 0388 03       		.uleb128 0x3
 4254 0389 0E       		.uleb128 0xe
 4255 038a 3A       		.uleb128 0x3a
 4256 038b 0B       		.uleb128 0xb
 4257 038c 3B       		.uleb128 0x3b
 4258 038d 0B       		.uleb128 0xb
 4259 038e 27       		.uleb128 0x27
 4260 038f 19       		.uleb128 0x19
 4261 0390 49       		.uleb128 0x49
 4262 0391 13       		.uleb128 0x13
 4263 0392 3C       		.uleb128 0x3c
 4264 0393 19       		.uleb128 0x19
 4265 0394 00       		.byte	0
 4266 0395 00       		.byte	0
 4267 0396 46       		.uleb128 0x46
 4268 0397 2E       		.uleb128 0x2e
ARM GAS  /tmp/cc0TOxRm.s 			page 76


 4269 0398 01       		.byte	0x1
 4270 0399 3F       		.uleb128 0x3f
 4271 039a 19       		.uleb128 0x19
 4272 039b 03       		.uleb128 0x3
 4273 039c 0E       		.uleb128 0xe
 4274 039d 3A       		.uleb128 0x3a
 4275 039e 0B       		.uleb128 0xb
 4276 039f 3B       		.uleb128 0x3b
 4277 03a0 0B       		.uleb128 0xb
 4278 03a1 27       		.uleb128 0x27
 4279 03a2 19       		.uleb128 0x19
 4280 03a3 49       		.uleb128 0x49
 4281 03a4 13       		.uleb128 0x13
 4282 03a5 3C       		.uleb128 0x3c
 4283 03a6 19       		.uleb128 0x19
 4284 03a7 01       		.uleb128 0x1
 4285 03a8 13       		.uleb128 0x13
 4286 03a9 00       		.byte	0
 4287 03aa 00       		.byte	0
 4288 03ab 47       		.uleb128 0x47
 4289 03ac 2E       		.uleb128 0x2e
 4290 03ad 01       		.byte	0x1
 4291 03ae 3F       		.uleb128 0x3f
 4292 03af 19       		.uleb128 0x19
 4293 03b0 03       		.uleb128 0x3
 4294 03b1 0E       		.uleb128 0xe
 4295 03b2 3A       		.uleb128 0x3a
 4296 03b3 0B       		.uleb128 0xb
 4297 03b4 3B       		.uleb128 0x3b
 4298 03b5 0B       		.uleb128 0xb
 4299 03b6 27       		.uleb128 0x27
 4300 03b7 19       		.uleb128 0x19
 4301 03b8 49       		.uleb128 0x49
 4302 03b9 13       		.uleb128 0x13
 4303 03ba 3C       		.uleb128 0x3c
 4304 03bb 19       		.uleb128 0x19
 4305 03bc 00       		.byte	0
 4306 03bd 00       		.byte	0
 4307 03be 00       		.byte	0
 4308              		.section	.debug_loc,"",%progbits
 4309              	.Ldebug_loc0:
 4310              	.LLST0:
 4311 0000 08000000 		.4byte	.LVL0
 4312 0004 16000000 		.4byte	.LVL2
 4313 0008 0100     		.2byte	0x1
 4314 000a 53       		.byte	0x53
 4315 000b 00000000 		.4byte	0
 4316 000f 00000000 		.4byte	0
 4317              	.LLST1:
 4318 0013 12000000 		.4byte	.LVL1
 4319 0017 3A000000 		.4byte	.LVL6
 4320 001b 0100     		.2byte	0x1
 4321 001d 55       		.byte	0x55
 4322 001e 00000000 		.4byte	0
 4323 0022 00000000 		.4byte	0
 4324              	.LLST2:
 4325 0026 00000000 		.4byte	.LVL7
ARM GAS  /tmp/cc0TOxRm.s 			page 77


 4326 002a 0C000000 		.4byte	.LVL8
 4327 002e 0100     		.2byte	0x1
 4328 0030 50       		.byte	0x50
 4329 0031 0C000000 		.4byte	.LVL8
 4330 0035 0F000000 		.4byte	.LVL9-1
 4331 0039 0300     		.2byte	0x3
 4332 003b 70       		.byte	0x70
 4333 003c 72       		.sleb128 -14
 4334 003d 9F       		.byte	0x9f
 4335 003e 0F000000 		.4byte	.LVL9-1
 4336 0042 10000000 		.4byte	.LVL9
 4337 0046 0400     		.2byte	0x4
 4338 0048 F3       		.byte	0xf3
 4339 0049 01       		.uleb128 0x1
 4340 004a 50       		.byte	0x50
 4341 004b 9F       		.byte	0x9f
 4342 004c 10000000 		.4byte	.LVL9
 4343 0050 12000000 		.4byte	.LVL10
 4344 0054 0100     		.2byte	0x1
 4345 0056 50       		.byte	0x50
 4346 0057 12000000 		.4byte	.LVL10
 4347 005b 15000000 		.4byte	.LVL11-1
 4348 005f 0300     		.2byte	0x3
 4349 0061 70       		.byte	0x70
 4350 0062 0E       		.sleb128 14
 4351 0063 9F       		.byte	0x9f
 4352 0064 15000000 		.4byte	.LVL11-1
 4353 0068 16000000 		.4byte	.LVL11
 4354 006c 0400     		.2byte	0x4
 4355 006e F3       		.byte	0xf3
 4356 006f 01       		.uleb128 0x1
 4357 0070 50       		.byte	0x50
 4358 0071 9F       		.byte	0x9f
 4359 0072 16000000 		.4byte	.LVL11
 4360 0076 19000000 		.4byte	.LVL12-1
 4361 007a 0100     		.2byte	0x1
 4362 007c 50       		.byte	0x50
 4363 007d 19000000 		.4byte	.LVL12-1
 4364 0081 20000000 		.4byte	.LFE262
 4365 0085 0400     		.2byte	0x4
 4366 0087 F3       		.byte	0xf3
 4367 0088 01       		.uleb128 0x1
 4368 0089 50       		.byte	0x50
 4369 008a 9F       		.byte	0x9f
 4370 008b 00000000 		.4byte	0
 4371 008f 00000000 		.4byte	0
 4372              	.LLST3:
 4373 0093 00000000 		.4byte	.LVL7
 4374 0097 0F000000 		.4byte	.LVL9-1
 4375 009b 0100     		.2byte	0x1
 4376 009d 51       		.byte	0x51
 4377 009e 0F000000 		.4byte	.LVL9-1
 4378 00a2 10000000 		.4byte	.LVL9
 4379 00a6 0400     		.2byte	0x4
 4380 00a8 F3       		.byte	0xf3
 4381 00a9 01       		.uleb128 0x1
 4382 00aa 51       		.byte	0x51
ARM GAS  /tmp/cc0TOxRm.s 			page 78


 4383 00ab 9F       		.byte	0x9f
 4384 00ac 10000000 		.4byte	.LVL9
 4385 00b0 15000000 		.4byte	.LVL11-1
 4386 00b4 0100     		.2byte	0x1
 4387 00b6 51       		.byte	0x51
 4388 00b7 15000000 		.4byte	.LVL11-1
 4389 00bb 16000000 		.4byte	.LVL11
 4390 00bf 0400     		.2byte	0x4
 4391 00c1 F3       		.byte	0xf3
 4392 00c2 01       		.uleb128 0x1
 4393 00c3 51       		.byte	0x51
 4394 00c4 9F       		.byte	0x9f
 4395 00c5 16000000 		.4byte	.LVL11
 4396 00c9 19000000 		.4byte	.LVL12-1
 4397 00cd 0100     		.2byte	0x1
 4398 00cf 51       		.byte	0x51
 4399 00d0 19000000 		.4byte	.LVL12-1
 4400 00d4 20000000 		.4byte	.LFE262
 4401 00d8 0400     		.2byte	0x4
 4402 00da F3       		.byte	0xf3
 4403 00db 01       		.uleb128 0x1
 4404 00dc 51       		.byte	0x51
 4405 00dd 9F       		.byte	0x9f
 4406 00de 00000000 		.4byte	0
 4407 00e2 00000000 		.4byte	0
 4408              	.LLST4:
 4409 00e6 00000000 		.4byte	.LVL13
 4410 00ea 21000000 		.4byte	.LVL15-1
 4411 00ee 0100     		.2byte	0x1
 4412 00f0 50       		.byte	0x50
 4413 00f1 21000000 		.4byte	.LVL15-1
 4414 00f5 9E030000 		.4byte	.LFE259
 4415 00f9 0400     		.2byte	0x4
 4416 00fb F3       		.byte	0xf3
 4417 00fc 01       		.uleb128 0x1
 4418 00fd 50       		.byte	0x50
 4419 00fe 9F       		.byte	0x9f
 4420 00ff 00000000 		.4byte	0
 4421 0103 00000000 		.4byte	0
 4422              	.LLST5:
 4423 0107 1E000000 		.4byte	.LVL14
 4424 010b 30000000 		.4byte	.LVL16
 4425 010f 0600     		.2byte	0x6
 4426 0111 9E       		.byte	0x9e
 4427 0112 04       		.uleb128 0x4
 4428 0113 00000000 		.4byte	0
 4429 0117 B4020000 		.4byte	.LVL90
 4430 011b C2020000 		.4byte	.LVL91
 4431 011f 0200     		.2byte	0x2
 4432 0121 90       		.byte	0x90
 4433 0122 40       		.uleb128 0x40
 4434 0123 00000000 		.4byte	0
 4435 0127 00000000 		.4byte	0
 4436              	.LLST6:
 4437 012b 22000000 		.4byte	.LVL15
 4438 012f 32000000 		.4byte	.LVL17
 4439 0133 0100     		.2byte	0x1
ARM GAS  /tmp/cc0TOxRm.s 			page 79


 4440 0135 50       		.byte	0x50
 4441 0136 B6000000 		.4byte	.LVL34
 4442 013a DC000000 		.4byte	.LVL38
 4443 013e 0100     		.2byte	0x1
 4444 0140 50       		.byte	0x50
 4445 0141 6E010000 		.4byte	.LVL53
 4446 0145 70010000 		.4byte	.LVL54
 4447 0149 0100     		.2byte	0x1
 4448 014b 50       		.byte	0x50
 4449 014c 0A020000 		.4byte	.LVL69
 4450 0150 0C020000 		.4byte	.LVL70
 4451 0154 0100     		.2byte	0x1
 4452 0156 50       		.byte	0x50
 4453 0157 34020000 		.4byte	.LVL76
 4454 015b 36020000 		.4byte	.LVL77
 4455 015f 0100     		.2byte	0x1
 4456 0161 50       		.byte	0x50
 4457 0162 58020000 		.4byte	.LVL82
 4458 0166 5A020000 		.4byte	.LVL83
 4459 016a 0100     		.2byte	0x1
 4460 016c 50       		.byte	0x50
 4461 016d 6A020000 		.4byte	.LVL87
 4462 0171 74020000 		.4byte	.LVL88
 4463 0175 0100     		.2byte	0x1
 4464 0177 50       		.byte	0x50
 4465 0178 90030000 		.4byte	.LVL108
 4466 017c 92030000 		.4byte	.LVL109
 4467 0180 0100     		.2byte	0x1
 4468 0182 50       		.byte	0x50
 4469 0183 00000000 		.4byte	0
 4470 0187 00000000 		.4byte	0
 4471              	.LLST7:
 4472 018b C6000000 		.4byte	.LVL36
 4473 018f 14010000 		.4byte	.LVL43
 4474 0193 0100     		.2byte	0x1
 4475 0195 54       		.byte	0x54
 4476 0196 6E010000 		.4byte	.LVL53
 4477 019a A8010000 		.4byte	.LVL59
 4478 019e 0100     		.2byte	0x1
 4479 01a0 54       		.byte	0x54
 4480 01a1 0A020000 		.4byte	.LVL69
 4481 01a5 0C020000 		.4byte	.LVL70
 4482 01a9 0100     		.2byte	0x1
 4483 01ab 54       		.byte	0x54
 4484 01ac 34020000 		.4byte	.LVL76
 4485 01b0 36020000 		.4byte	.LVL77
 4486 01b4 0100     		.2byte	0x1
 4487 01b6 54       		.byte	0x54
 4488 01b7 58020000 		.4byte	.LVL82
 4489 01bb 74020000 		.4byte	.LVL88
 4490 01bf 0100     		.2byte	0x1
 4491 01c1 54       		.byte	0x54
 4492 01c2 90030000 		.4byte	.LVL108
 4493 01c6 9E030000 		.4byte	.LFE259
 4494 01ca 0100     		.2byte	0x1
 4495 01cc 54       		.byte	0x54
 4496 01cd 00000000 		.4byte	0
ARM GAS  /tmp/cc0TOxRm.s 			page 80


 4497 01d1 00000000 		.4byte	0
 4498              	.LLST8:
 4499 01d5 DC000000 		.4byte	.LVL38
 4500 01d9 FA000000 		.4byte	.LVL40
 4501 01dd 0100     		.2byte	0x1
 4502 01df 56       		.byte	0x56
 4503 01e0 FA000000 		.4byte	.LVL40
 4504 01e4 FE000000 		.4byte	.LVL41
 4505 01e8 0300     		.2byte	0x3
 4506 01ea 76       		.byte	0x76
 4507 01eb 7F       		.sleb128 -1
 4508 01ec 9F       		.byte	0x9f
 4509 01ed FE000000 		.4byte	.LVL41
 4510 01f1 04010000 		.4byte	.LVL42
 4511 01f5 0100     		.2byte	0x1
 4512 01f7 56       		.byte	0x56
 4513 01f8 00000000 		.4byte	0
 4514 01fc 00000000 		.4byte	0
 4515              	.LLST9:
 4516 0200 18010000 		.4byte	.LVL44
 4517 0204 38010000 		.4byte	.LVL48
 4518 0208 0300     		.2byte	0x3
 4519 020a 08       		.byte	0x8
 4520 020b 20       		.byte	0x20
 4521 020c 9F       		.byte	0x9f
 4522 020d 3C010000 		.4byte	.LVL49
 4523 0211 6E010000 		.4byte	.LVL53
 4524 0215 0300     		.2byte	0x3
 4525 0217 08       		.byte	0x8
 4526 0218 20       		.byte	0x20
 4527 0219 9F       		.byte	0x9f
 4528 021a 00000000 		.4byte	0
 4529 021e 00000000 		.4byte	0
 4530              	.LLST10:
 4531 0222 18010000 		.4byte	.LVL44
 4532 0226 38010000 		.4byte	.LVL48
 4533 022a 0200     		.2byte	0x2
 4534 022c 30       		.byte	0x30
 4535 022d 9F       		.byte	0x9f
 4536 022e 4A010000 		.4byte	.LVL50
 4537 0232 6E010000 		.4byte	.LVL53
 4538 0236 0200     		.2byte	0x2
 4539 0238 30       		.byte	0x30
 4540 0239 9F       		.byte	0x9f
 4541 023a 00000000 		.4byte	0
 4542 023e 00000000 		.4byte	0
 4543              	.LLST11:
 4544 0242 70010000 		.4byte	.LVL54
 4545 0246 8E010000 		.4byte	.LVL56
 4546 024a 0100     		.2byte	0x1
 4547 024c 56       		.byte	0x56
 4548 024d 8E010000 		.4byte	.LVL56
 4549 0251 92010000 		.4byte	.LVL57
 4550 0255 0300     		.2byte	0x3
 4551 0257 76       		.byte	0x76
 4552 0258 7F       		.sleb128 -1
 4553 0259 9F       		.byte	0x9f
ARM GAS  /tmp/cc0TOxRm.s 			page 81


 4554 025a 92010000 		.4byte	.LVL57
 4555 025e 98010000 		.4byte	.LVL58
 4556 0262 0100     		.2byte	0x1
 4557 0264 56       		.byte	0x56
 4558 0265 00000000 		.4byte	0
 4559 0269 00000000 		.4byte	0
 4560              	.LLST12:
 4561 026d AC010000 		.4byte	.LVL60
 4562 0271 D0010000 		.4byte	.LVL64
 4563 0275 0300     		.2byte	0x3
 4564 0277 08       		.byte	0x8
 4565 0278 20       		.byte	0x20
 4566 0279 9F       		.byte	0x9f
 4567 027a D4010000 		.4byte	.LVL65
 4568 027e 0A020000 		.4byte	.LVL69
 4569 0282 0300     		.2byte	0x3
 4570 0284 08       		.byte	0x8
 4571 0285 20       		.byte	0x20
 4572 0286 9F       		.byte	0x9f
 4573 0287 00000000 		.4byte	0
 4574 028b 00000000 		.4byte	0
 4575              	.LLST13:
 4576 028f AC010000 		.4byte	.LVL60
 4577 0293 D0010000 		.4byte	.LVL64
 4578 0297 0200     		.2byte	0x2
 4579 0299 30       		.byte	0x30
 4580 029a 9F       		.byte	0x9f
 4581 029b E2010000 		.4byte	.LVL66
 4582 029f 0A020000 		.4byte	.LVL69
 4583 02a3 0200     		.2byte	0x2
 4584 02a5 30       		.byte	0x30
 4585 02a6 9F       		.byte	0x9f
 4586 02a7 00000000 		.4byte	0
 4587 02ab 00000000 		.4byte	0
 4588              	.LLST14:
 4589 02af 0C020000 		.4byte	.LVL70
 4590 02b3 20020000 		.4byte	.LVL72
 4591 02b7 0100     		.2byte	0x1
 4592 02b9 54       		.byte	0x54
 4593 02ba 20020000 		.4byte	.LVL72
 4594 02be 24020000 		.4byte	.LVL73
 4595 02c2 0300     		.2byte	0x3
 4596 02c4 74       		.byte	0x74
 4597 02c5 7F       		.sleb128 -1
 4598 02c6 9F       		.byte	0x9f
 4599 02c7 24020000 		.4byte	.LVL73
 4600 02cb 2C020000 		.4byte	.LVL74
 4601 02cf 0100     		.2byte	0x1
 4602 02d1 54       		.byte	0x54
 4603 02d2 00000000 		.4byte	0
 4604 02d6 00000000 		.4byte	0
 4605              	.LLST15:
 4606 02da 36020000 		.4byte	.LVL77
 4607 02de 4A020000 		.4byte	.LVL79
 4608 02e2 0100     		.2byte	0x1
 4609 02e4 54       		.byte	0x54
 4610 02e5 4A020000 		.4byte	.LVL79
ARM GAS  /tmp/cc0TOxRm.s 			page 82


 4611 02e9 4E020000 		.4byte	.LVL80
 4612 02ed 0300     		.2byte	0x3
 4613 02ef 74       		.byte	0x74
 4614 02f0 7F       		.sleb128 -1
 4615 02f1 9F       		.byte	0x9f
 4616 02f2 4E020000 		.4byte	.LVL80
 4617 02f6 58020000 		.4byte	.LVL82
 4618 02fa 0100     		.2byte	0x1
 4619 02fc 54       		.byte	0x54
 4620 02fd 00000000 		.4byte	0
 4621 0301 00000000 		.4byte	0
 4622              	.LLST16:
 4623 0305 B4020000 		.4byte	.LVL90
 4624 0309 C2020000 		.4byte	.LVL91
 4625 030d 0200     		.2byte	0x2
 4626 030f 30       		.byte	0x30
 4627 0310 9F       		.byte	0x9f
 4628 0311 C2020000 		.4byte	.LVL91
 4629 0315 D3020000 		.4byte	.LVL92-1
 4630 0319 0100     		.2byte	0x1
 4631 031b 50       		.byte	0x50
 4632 031c D3020000 		.4byte	.LVL92-1
 4633 0320 08030000 		.4byte	.LVL97
 4634 0324 0100     		.2byte	0x1
 4635 0326 5B       		.byte	0x5b
 4636 0327 08030000 		.4byte	.LVL97
 4637 032b 10030000 		.4byte	.LVL98
 4638 032f 0300     		.2byte	0x3
 4639 0331 7B       		.byte	0x7b
 4640 0332 7F       		.sleb128 -1
 4641 0333 9F       		.byte	0x9f
 4642 0334 10030000 		.4byte	.LVL98
 4643 0338 2E030000 		.4byte	.LVL101
 4644 033c 0100     		.2byte	0x1
 4645 033e 5B       		.byte	0x5b
 4646 033f 2E030000 		.4byte	.LVL101
 4647 0343 30030000 		.4byte	.LVL102
 4648 0347 0100     		.2byte	0x1
 4649 0349 50       		.byte	0x50
 4650 034a 30030000 		.4byte	.LVL102
 4651 034e 7C030000 		.4byte	.LVL105
 4652 0352 0100     		.2byte	0x1
 4653 0354 5B       		.byte	0x5b
 4654 0355 7C030000 		.4byte	.LVL105
 4655 0359 83030000 		.4byte	.LVL106-1
 4656 035d 0100     		.2byte	0x1
 4657 035f 50       		.byte	0x50
 4658 0360 83030000 		.4byte	.LVL106-1
 4659 0364 90030000 		.4byte	.LVL108
 4660 0368 0100     		.2byte	0x1
 4661 036a 5B       		.byte	0x5b
 4662 036b 00000000 		.4byte	0
 4663 036f 00000000 		.4byte	0
 4664              	.LLST17:
 4665 0373 58000000 		.4byte	.LVL23
 4666 0377 6A000000 		.4byte	.LVL24
 4667 037b 0600     		.2byte	0x6
ARM GAS  /tmp/cc0TOxRm.s 			page 83


 4668 037d 9E       		.byte	0x9e
 4669 037e 04       		.uleb128 0x4
 4670 037f 0000803F 		.4byte	0x3f800000
 4671 0383 6A000000 		.4byte	.LVL24
 4672 0387 AC000000 		.4byte	.LVL32
 4673 038b 0200     		.2byte	0x2
 4674 038d 90       		.byte	0x90
 4675 038e 50       		.uleb128 0x50
 4676 038f 00000000 		.4byte	0
 4677 0393 00000000 		.4byte	0
 4678              	.LLST18:
 4679 0397 36000000 		.4byte	.LVL18
 4680 039b 38000000 		.4byte	.LVL19
 4681 039f 0200     		.2byte	0x2
 4682 03a1 30       		.byte	0x30
 4683 03a2 9F       		.byte	0x9f
 4684 03a3 38000000 		.4byte	.LVL19
 4685 03a7 44000000 		.4byte	.LVL21
 4686 03ab 0100     		.2byte	0x1
 4687 03ad 54       		.byte	0x54
 4688 03ae 44000000 		.4byte	.LVL21
 4689 03b2 4C000000 		.4byte	.LVL22
 4690 03b6 0300     		.2byte	0x3
 4691 03b8 74       		.byte	0x74
 4692 03b9 7F       		.sleb128 -1
 4693 03ba 9F       		.byte	0x9f
 4694 03bb 4C000000 		.4byte	.LVL22
 4695 03bf 6A000000 		.4byte	.LVL24
 4696 03c3 0100     		.2byte	0x1
 4697 03c5 54       		.byte	0x54
 4698 03c6 00000000 		.4byte	0
 4699 03ca 00000000 		.4byte	0
 4700              	.LLST19:
 4701 03ce 58000000 		.4byte	.LVL23
 4702 03d2 6A000000 		.4byte	.LVL24
 4703 03d6 0200     		.2byte	0x2
 4704 03d8 30       		.byte	0x30
 4705 03d9 9F       		.byte	0x9f
 4706 03da 6A000000 		.4byte	.LVL24
 4707 03de A8000000 		.4byte	.LVL30
 4708 03e2 0600     		.2byte	0x6
 4709 03e4 08       		.byte	0x8
 4710 03e5 32       		.byte	0x32
 4711 03e6 76       		.byte	0x76
 4712 03e7 00       		.sleb128 0
 4713 03e8 1C       		.byte	0x1c
 4714 03e9 9F       		.byte	0x9f
 4715 03ea A8000000 		.4byte	.LVL30
 4716 03ee AA000000 		.4byte	.LVL31
 4717 03f2 0600     		.2byte	0x6
 4718 03f4 08       		.byte	0x8
 4719 03f5 33       		.byte	0x33
 4720 03f6 76       		.byte	0x76
 4721 03f7 00       		.sleb128 0
 4722 03f8 1C       		.byte	0x1c
 4723 03f9 9F       		.byte	0x9f
 4724 03fa AA000000 		.4byte	.LVL31
ARM GAS  /tmp/cc0TOxRm.s 			page 84


 4725 03fe AC000000 		.4byte	.LVL32
 4726 0402 0600     		.2byte	0x6
 4727 0404 08       		.byte	0x8
 4728 0405 32       		.byte	0x32
 4729 0406 76       		.byte	0x76
 4730 0407 00       		.sleb128 0
 4731 0408 1C       		.byte	0x1c
 4732 0409 9F       		.byte	0x9f
 4733 040a 00000000 		.4byte	0
 4734 040e 00000000 		.4byte	0
 4735              	.LLST20:
 4736 0412 6E000000 		.4byte	.LVL25
 4737 0416 AC000000 		.4byte	.LVL32
 4738 041a 0500     		.2byte	0x5
 4739 041c 08       		.byte	0x8
 4740 041d FF       		.byte	0xff
 4741 041e 40       		.byte	0x40
 4742 041f 24       		.byte	0x24
 4743 0420 9F       		.byte	0x9f
 4744 0421 00000000 		.4byte	0
 4745 0425 00000000 		.4byte	0
 4746              	.LLST21:
 4747 0429 6E000000 		.4byte	.LVL25
 4748 042d AC000000 		.4byte	.LVL32
 4749 0431 0200     		.2byte	0x2
 4750 0433 90       		.byte	0x90
 4751 0434 50       		.uleb128 0x50
 4752 0435 00000000 		.4byte	0
 4753 0439 00000000 		.4byte	0
 4754              	.LLST22:
 4755 043d 6E000000 		.4byte	.LVL25
 4756 0441 AC000000 		.4byte	.LVL32
 4757 0445 0E00     		.2byte	0xe
 4758 0447 F5       		.byte	0xf5
 4759 0448 50       		.uleb128 0x50
 4760 0449 25       		.uleb128 0x25
 4761 044a F4       		.byte	0xf4
 4762 044b 25       		.uleb128 0x25
 4763 044c 04       		.byte	0x4
 4764 044d 00007F43 		.4byte	0x437f0000
 4765 0451 1E       		.byte	0x1e
 4766 0452 F7       		.byte	0xf7
 4767 0453 2C       		.uleb128 0x2c
 4768 0454 9F       		.byte	0x9f
 4769 0455 00000000 		.4byte	0
 4770 0459 00000000 		.4byte	0
 4771              	.LLST23:
 4772 045d 6E000000 		.4byte	.LVL25
 4773 0461 82000000 		.4byte	.LVL26
 4774 0465 0200     		.2byte	0x2
 4775 0467 30       		.byte	0x30
 4776 0468 9F       		.byte	0x9f
 4777 0469 82000000 		.4byte	.LVL26
 4778 046d 92000000 		.4byte	.LVL27
 4779 0471 0100     		.2byte	0x1
 4780 0473 54       		.byte	0x54
 4781 0474 92000000 		.4byte	.LVL27
ARM GAS  /tmp/cc0TOxRm.s 			page 85


 4782 0478 AC000000 		.4byte	.LVL32
 4783 047c 0C00     		.2byte	0xc
 4784 047e F5       		.byte	0xf5
 4785 047f 50       		.uleb128 0x50
 4786 0480 25       		.uleb128 0x25
 4787 0481 F5       		.byte	0xf5
 4788 0482 52       		.uleb128 0x52
 4789 0483 25       		.uleb128 0x25
 4790 0484 1E       		.byte	0x1e
 4791 0485 F7       		.byte	0xf7
 4792 0486 25       		.uleb128 0x25
 4793 0487 F7       		.byte	0xf7
 4794 0488 2C       		.uleb128 0x2c
 4795 0489 9F       		.byte	0x9f
 4796 048a 00000000 		.4byte	0
 4797 048e 00000000 		.4byte	0
 4798              	.LLST25:
 4799 0492 92000000 		.4byte	.LVL27
 4800 0496 9A000000 		.4byte	.LVL28
 4801 049a 0100     		.2byte	0x1
 4802 049c 5B       		.byte	0x5b
 4803 049d 9A000000 		.4byte	.LVL28
 4804 04a1 9D000000 		.4byte	.LVL29-1
 4805 04a5 0100     		.2byte	0x1
 4806 04a7 50       		.byte	0x50
 4807 04a8 9D000000 		.4byte	.LVL29-1
 4808 04ac 9E000000 		.4byte	.LVL29
 4809 04b0 0300     		.2byte	0x3
 4810 04b2 7B       		.byte	0x7b
 4811 04b3 7F       		.sleb128 -1
 4812 04b4 9F       		.byte	0x9f
 4813 04b5 9E000000 		.4byte	.LVL29
 4814 04b9 AC000000 		.4byte	.LVL32
 4815 04bd 0100     		.2byte	0x1
 4816 04bf 5B       		.byte	0x5b
 4817 04c0 00000000 		.4byte	0
 4818 04c4 00000000 		.4byte	0
 4819              		.section	.debug_aranges,"",%progbits
 4820 0000 44000000 		.4byte	0x44
 4821 0004 0200     		.2byte	0x2
 4822 0006 00000000 		.4byte	.Ldebug_info0
 4823 000a 04       		.byte	0x4
 4824 000b 00       		.byte	0
 4825 000c 0000     		.2byte	0
 4826 000e 0000     		.2byte	0
 4827 0010 00000000 		.4byte	.LFB261
 4828 0014 44000000 		.4byte	.LFE261-.LFB261
 4829 0018 00000000 		.4byte	.LFB262
 4830 001c 20000000 		.4byte	.LFE262-.LFB262
 4831 0020 00000000 		.4byte	.LFB259
 4832 0024 9E030000 		.4byte	.LFE259-.LFB259
 4833 0028 00000000 		.4byte	.LFB256
 4834 002c 34000000 		.4byte	.LFE256-.LFB256
 4835 0030 00000000 		.4byte	.LFB257
 4836 0034 0C000000 		.4byte	.LFE257-.LFB257
 4837 0038 00000000 		.4byte	.LFB258
 4838 003c 0C000000 		.4byte	.LFE258-.LFB258
ARM GAS  /tmp/cc0TOxRm.s 			page 86


 4839 0040 00000000 		.4byte	0
 4840 0044 00000000 		.4byte	0
 4841              		.section	.debug_ranges,"",%progbits
 4842              	.Ldebug_ranges0:
 4843 0000 04000000 		.4byte	.LBB110
 4844 0004 14000000 		.4byte	.LBE110
 4845 0008 1C000000 		.4byte	.LBB177
 4846 000c 1E000000 		.4byte	.LBE177
 4847 0010 00000000 		.4byte	0
 4848 0014 00000000 		.4byte	0
 4849 0018 14000000 		.4byte	.LBB113
 4850 001c 18000000 		.4byte	.LBE113
 4851 0020 1E000000 		.4byte	.LBB178
 4852 0024 9E030000 		.4byte	.LBE178
 4853 0028 00000000 		.4byte	0
 4854 002c 00000000 		.4byte	0
 4855 0030 14000000 		.4byte	.LBB114
 4856 0034 18000000 		.4byte	.LBE114
 4857 0038 22000000 		.4byte	.LBB160
 4858 003c 2A000000 		.4byte	.LBE160
 4859 0040 BC000000 		.4byte	.LBB173
 4860 0044 2C020000 		.4byte	.LBE173
 4861 0048 34020000 		.4byte	.LBB174
 4862 004c 62020000 		.4byte	.LBE174
 4863 0050 6A020000 		.4byte	.LBB175
 4864 0054 26030000 		.4byte	.LBE175
 4865 0058 2E030000 		.4byte	.LBB176
 4866 005c 96030000 		.4byte	.LBE176
 4867 0060 00000000 		.4byte	0
 4868 0064 00000000 		.4byte	0
 4869 0068 10010000 		.4byte	.LBB116
 4870 006c 14010000 		.4byte	.LBE116
 4871 0070 42010000 		.4byte	.LBB134
 4872 0074 4E010000 		.4byte	.LBE134
 4873 0078 00000000 		.4byte	0
 4874 007c 00000000 		.4byte	0
 4875 0080 10010000 		.4byte	.LBB118
 4876 0084 14010000 		.4byte	.LBE118
 4877 0088 42010000 		.4byte	.LBB125
 4878 008c 46010000 		.4byte	.LBE125
 4879 0090 00000000 		.4byte	0
 4880 0094 00000000 		.4byte	0
 4881 0098 A4010000 		.4byte	.LBB136
 4882 009c A8010000 		.4byte	.LBE136
 4883 00a0 DA010000 		.4byte	.LBB154
 4884 00a4 E6010000 		.4byte	.LBE154
 4885 00a8 00000000 		.4byte	0
 4886 00ac 00000000 		.4byte	0
 4887 00b0 A4010000 		.4byte	.LBB138
 4888 00b4 A8010000 		.4byte	.LBE138
 4889 00b8 DA010000 		.4byte	.LBB145
 4890 00bc DE010000 		.4byte	.LBE145
 4891 00c0 00000000 		.4byte	0
 4892 00c4 00000000 		.4byte	0
 4893 00c8 B8020000 		.4byte	.LBB157
 4894 00cc BE020000 		.4byte	.LBE157
 4895 00d0 C2020000 		.4byte	.LBB158
ARM GAS  /tmp/cc0TOxRm.s 			page 87


 4896 00d4 1A030000 		.4byte	.LBE158
 4897 00d8 2E030000 		.4byte	.LBB159
 4898 00dc 90030000 		.4byte	.LBE159
 4899 00e0 00000000 		.4byte	0
 4900 00e4 00000000 		.4byte	0
 4901 00e8 58000000 		.4byte	.LBB163
 4902 00ec 64000000 		.4byte	.LBE163
 4903 00f0 6A000000 		.4byte	.LBB172
 4904 00f4 AC000000 		.4byte	.LBE172
 4905 00f8 00000000 		.4byte	0
 4906 00fc 00000000 		.4byte	0
 4907 0100 58000000 		.4byte	.LBB164
 4908 0104 64000000 		.4byte	.LBE164
 4909 0108 6A000000 		.4byte	.LBB171
 4910 010c A8000000 		.4byte	.LBE171
 4911 0110 00000000 		.4byte	0
 4912 0114 00000000 		.4byte	0
 4913 0118 5C000000 		.4byte	.LBB165
 4914 011c 64000000 		.4byte	.LBE165
 4915 0120 72000000 		.4byte	.LBB169
 4916 0124 92000000 		.4byte	.LBE169
 4917 0128 00000000 		.4byte	0
 4918 012c 00000000 		.4byte	0
 4919 0130 6E000000 		.4byte	.LBB168
 4920 0134 72000000 		.4byte	.LBE168
 4921 0138 92000000 		.4byte	.LBB170
 4922 013c A2000000 		.4byte	.LBE170
 4923 0140 00000000 		.4byte	0
 4924 0144 00000000 		.4byte	0
 4925 0148 00000000 		.4byte	.LFB261
 4926 014c 44000000 		.4byte	.LFE261
 4927 0150 00000000 		.4byte	.LFB262
 4928 0154 20000000 		.4byte	.LFE262
 4929 0158 00000000 		.4byte	.LFB259
 4930 015c 9E030000 		.4byte	.LFE259
 4931 0160 00000000 		.4byte	.LFB256
 4932 0164 34000000 		.4byte	.LFE256
 4933 0168 00000000 		.4byte	.LFB257
 4934 016c 0C000000 		.4byte	.LFE257
 4935 0170 00000000 		.4byte	.LFB258
 4936 0174 0C000000 		.4byte	.LFE258
 4937 0178 00000000 		.4byte	0
 4938 017c 00000000 		.4byte	0
 4939              		.section	.debug_line,"",%progbits
 4940              	.Ldebug_line0:
 4941 0000 6D040000 		.section	.debug_str,"MS",%progbits,1
 4941      02003C02 
 4941      00000201 
 4941      FB0E0D00 
 4941      01010101 
 4942              	.LASF107:
 4943 0000 7466756E 		.ascii	"tfunc_t\000"
 4943      635F7400 
 4944              	.LASF140:
 4945 0008 7363616C 		.ascii	"scale\000"
 4945      6500
 4946              	.LASF57:
ARM GAS  /tmp/cc0TOxRm.s 			page 88


 4947 000e 72656164 		.ascii	"ready_list_t\000"
 4947      795F6C69 
 4947      73745F74 
 4947      00
 4948              	.LASF20:
 4949 001b 73697A65 		.ascii	"size_t\000"
 4949      5F7400
 4950              	.LASF92:
 4951 0022 7264796D 		.ascii	"rdymsg\000"
 4951      736700
 4952              	.LASF126:
 4953 0029 4C45445F 		.ascii	"LED_EXT_STATE\000"
 4953      4558545F 
 4953      53544154 
 4953      4500
 4954              	.LASF19:
 4955 0037 75696E74 		.ascii	"uint64_t\000"
 4955      36345F74 
 4955      00
 4956              	.LASF110:
 4957 0040 4641554C 		.ascii	"FAULT_CODE_OVER_VOLTAGE\000"
 4957      545F434F 
 4957      44455F4F 
 4957      5645525F 
 4957      564F4C54 
 4958              	.LASF5:
 4959 0058 5F5F7569 		.ascii	"__uint8_t\000"
 4959      6E74385F 
 4959      7400
 4960              	.LASF89:
 4961 0062 706F7274 		.ascii	"port_intctx\000"
 4961      5F696E74 
 4961      63747800 
 4962              	.LASF82:
 4963 006e 76746C69 		.ascii	"vtlist\000"
 4963      737400
 4964              	.LASF127:
 4965 0075 706F7274 		.ascii	"port_lock\000"
 4965      5F6C6F63 
 4965      6B00
 4966              	.LASF118:
 4967 007f 4C45445F 		.ascii	"LED_EXT_OFF\000"
 4967      4558545F 
 4967      4F464600 
 4968              	.LASF14:
 4969 008b 6C6F6E67 		.ascii	"long long unsigned int\000"
 4969      206C6F6E 
 4969      6720756E 
 4969      7369676E 
 4969      65642069 
 4970              	.LASF83:
 4971 00a2 6D61696E 		.ascii	"mainthread\000"
 4971      74687265 
 4971      616400
 4972              	.LASF73:
 4973 00ad 76697274 		.ascii	"virtual_timers_list_t\000"
 4973      75616C5F 
ARM GAS  /tmp/cc0TOxRm.s 			page 89


 4973      74696D65 
 4973      72735F6C 
 4973      6973745F 
 4974              	.LASF158:
 4975 00c3 49544D5F 		.ascii	"ITM_RxBuffer\000"
 4975      52784275 
 4975      66666572 
 4975      00
 4976              	.LASF56:
 4977 00d0 63685F74 		.ascii	"ch_threads_queue\000"
 4977      68726561 
 4977      64735F71 
 4977      75657565 
 4977      00
 4978              	.LASF111:
 4979 00e1 4641554C 		.ascii	"FAULT_CODE_UNDER_VOLTAGE\000"
 4979      545F434F 
 4979      44455F55 
 4979      4E444552 
 4979      5F564F4C 
 4980              	.LASF34:
 4981 00fa 705F7072 		.ascii	"p_prio\000"
 4981      696F00
 4982              	.LASF165:
 4983 0101 6C65645F 		.ascii	"led_external.c\000"
 4983      65787465 
 4983      726E616C 
 4983      2E6300
 4984              	.LASF12:
 4985 0110 6C6F6E67 		.ascii	"long long int\000"
 4985      206C6F6E 
 4985      6720696E 
 4985      7400
 4986              	.LASF2:
 4987 011e 7369676E 		.ascii	"signed char\000"
 4987      65642063 
 4987      68617200 
 4988              	.LASF152:
 4989 012a 6E65775F 		.ascii	"new_state\000"
 4989      73746174 
 4989      6500
 4990              	.LASF50:
 4991 0134 705F6D70 		.ascii	"p_mpool\000"
 4991      6F6F6C00 
 4992              	.LASF103:
 4993 013c 6D5F7175 		.ascii	"m_queue\000"
 4993      65756500 
 4994              	.LASF146:
 4995 0144 6661756C 		.ascii	"fault\000"
 4995      7400
 4996              	.LASF128:
 4997 014a 706F7274 		.ascii	"port_unlock\000"
 4997      5F756E6C 
 4997      6F636B00 
 4998              	.LASF25:
 4999 0156 74736C69 		.ascii	"tslices_t\000"
 4999      6365735F 
ARM GAS  /tmp/cc0TOxRm.s 			page 90


 4999      7400
 5000              	.LASF94:
 5001 0160 77746F62 		.ascii	"wtobjp\000"
 5001      6A7000
 5002              	.LASF156:
 5003 0167 73746174 		.ascii	"state\000"
 5003      6500
 5004              	.LASF80:
 5005 016d 63685F73 		.ascii	"ch_system\000"
 5005      79737465 
 5005      6D00
 5006              	.LASF9:
 5007 0177 6C6F6E67 		.ascii	"long int\000"
 5007      20696E74 
 5007      00
 5008              	.LASF113:
 5009 0180 4641554C 		.ascii	"FAULT_CODE_ABS_OVER_CURRENT\000"
 5009      545F434F 
 5009      44455F41 
 5009      42535F4F 
 5009      5645525F 
 5010              	.LASF169:
 5011 019c 7574696C 		.ascii	"utils_map\000"
 5011      735F6D61 
 5011      7000
 5012              	.LASF124:
 5013 01a6 4C45445F 		.ascii	"LED_EXT_BRAKE_TURN_RIGHT\000"
 5013      4558545F 
 5013      4252414B 
 5013      455F5455 
 5013      524E5F52 
 5014              	.LASF16:
 5015 01bf 75696E74 		.ascii	"uint16_t\000"
 5015      31365F74 
 5015      00
 5016              	.LASF23:
 5017 01c8 74737461 		.ascii	"tstate_t\000"
 5017      74655F74 
 5017      00
 5018              	.LASF36:
 5019 01d1 705F6E65 		.ascii	"p_newer\000"
 5019      77657200 
 5020              	.LASF100:
 5021 01d9 735F7175 		.ascii	"s_queue\000"
 5021      65756500 
 5022              	.LASF93:
 5023 01e1 65786974 		.ascii	"exitcode\000"
 5023      636F6465 
 5023      00
 5024              	.LASF62:
 5025 01ea 725F6E65 		.ascii	"r_newer\000"
 5025      77657200 
 5026              	.LASF86:
 5027 01f2 72656761 		.ascii	"regarm_t\000"
 5027      726D5F74 
 5027      00
 5028              	.LASF69:
ARM GAS  /tmp/cc0TOxRm.s 			page 91


 5029 01fb 76745F70 		.ascii	"vt_prev\000"
 5029      72657600 
 5030              	.LASF108:
 5031 0203 6D757465 		.ascii	"mutex_t\000"
 5031      785F7400 
 5032              	.LASF133:
 5033 020b 76616C75 		.ascii	"value\000"
 5033      6500
 5034              	.LASF84:
 5035 0211 69646C65 		.ascii	"idle_thread_wa\000"
 5035      5F746872 
 5035      6561645F 
 5035      776100
 5036              	.LASF74:
 5037 0220 63685F76 		.ascii	"ch_virtual_timers_list\000"
 5037      69727475 
 5037      616C5F74 
 5037      696D6572 
 5037      735F6C69 
 5038              	.LASF29:
 5039 0237 636E745F 		.ascii	"cnt_t\000"
 5039      7400
 5040              	.LASF167:
 5041 023d 63685654 		.ascii	"chVTGetSystemTimeX\000"
 5041      47657453 
 5041      79737465 
 5041      6D54696D 
 5041      655800
 5042              	.LASF1:
 5043 0250 756E7369 		.ascii	"unsigned int\000"
 5043      676E6564 
 5043      20696E74 
 5043      00
 5044              	.LASF68:
 5045 025d 76745F6E 		.ascii	"vt_next\000"
 5045      65787400 
 5046              	.LASF43:
 5047 0265 705F7469 		.ascii	"p_time\000"
 5047      6D6500
 5048              	.LASF96:
 5049 026c 77747365 		.ascii	"wtsemp\000"
 5049      6D7000
 5050              	.LASF70:
 5051 0273 76745F64 		.ascii	"vt_delta\000"
 5051      656C7461 
 5051      00
 5052              	.LASF76:
 5053 027c 73797374 		.ascii	"system_debug_t\000"
 5053      656D5F64 
 5053      65627567 
 5053      5F7400
 5054              	.LASF145:
 5055 028b 62617474 		.ascii	"batt_level\000"
 5055      5F6C6576 
 5055      656C00
 5056              	.LASF101:
 5057 0296 735F636E 		.ascii	"s_cnt\000"
ARM GAS  /tmp/cc0TOxRm.s 			page 92


 5057      7400
 5058              	.LASF134:
 5059 029c 6E616D65 		.ascii	"name\000"
 5059      00
 5060              	.LASF88:
 5061 02a1 636F6E74 		.ascii	"context\000"
 5061      65787400 
 5062              	.LASF114:
 5063 02a9 4641554C 		.ascii	"FAULT_CODE_OVER_TEMP_FET\000"
 5063      545F434F 
 5063      44455F4F 
 5063      5645525F 
 5063      54454D50 
 5064              	.LASF53:
 5065 02c2 63685F74 		.ascii	"ch_thread\000"
 5065      68726561 
 5065      6400
 5066              	.LASF27:
 5067 02cc 6D73675F 		.ascii	"msg_t\000"
 5067      7400
 5068              	.LASF151:
 5069 02d2 6C65645F 		.ascii	"led_external_set_state\000"
 5069      65787465 
 5069      726E616C 
 5069      5F736574 
 5069      5F737461 
 5070              	.LASF161:
 5071 02e9 77733238 		.ascii	"ws2811_set_led_color\000"
 5071      31315F73 
 5071      65745F6C 
 5071      65645F63 
 5071      6F6C6F72 
 5072              	.LASF79:
 5073 02fe 63685F73 		.ascii	"ch_system_t\000"
 5073      79737465 
 5073      6D5F7400 
 5074              	.LASF142:
 5075 030a 77616974 		.ascii	"wait_for_state_change\000"
 5075      5F666F72 
 5075      5F737461 
 5075      74655F63 
 5075      68616E67 
 5076              	.LASF22:
 5077 0320 746D6F64 		.ascii	"tmode_t\000"
 5077      655F7400 
 5078              	.LASF136:
 5079 0328 73797374 		.ascii	"systime\000"
 5079      696D6500 
 5080              	.LASF58:
 5081 0330 63685F72 		.ascii	"ch_ready_list\000"
 5081      65616479 
 5081      5F6C6973 
 5081      7400
 5082              	.LASF28:
 5083 033e 6576656E 		.ascii	"eventmask_t\000"
 5083      746D6173 
 5083      6B5F7400 
ARM GAS  /tmp/cc0TOxRm.s 			page 93


 5084              	.LASF8:
 5085 034a 5F5F696E 		.ascii	"__int32_t\000"
 5085      7433325F 
 5085      7400
 5086              	.LASF139:
 5087 0354 636F6C6F 		.ascii	"color\000"
 5087      7200
 5088              	.LASF87:
 5089 035a 73746B61 		.ascii	"stkalign_t\000"
 5089      6C69676E 
 5089      5F7400
 5090              	.LASF163:
 5091 0365 63685468 		.ascii	"chThdCreateStatic\000"
 5091      64437265 
 5091      61746553 
 5091      74617469 
 5091      6300
 5092              	.LASF60:
 5093 0377 725F7072 		.ascii	"r_prio\000"
 5093      696F00
 5094              	.LASF150:
 5095 037e 6C65645F 		.ascii	"led_external_init\000"
 5095      65787465 
 5095      726E616C 
 5095      5F696E69 
 5095      7400
 5096              	.LASF33:
 5097 0390 705F7072 		.ascii	"p_prev\000"
 5097      657600
 5098              	.LASF147:
 5099 0397 7265645F 		.ascii	"red_weak\000"
 5099      7765616B 
 5099      00
 5100              	.LASF162:
 5101 03a0 77733238 		.ascii	"ws2811_set_all\000"
 5101      31315F73 
 5101      65745F61 
 5101      6C6C00
 5102              	.LASF51:
 5103 03af 74687265 		.ascii	"thread_reference_t\000"
 5103      61645F72 
 5103      65666572 
 5103      656E6365 
 5103      5F7400
 5104              	.LASF141:
 5105 03c2 72657665 		.ascii	"reversed\000"
 5105      72736564 
 5105      00
 5106              	.LASF95:
 5107 03cb 77747472 		.ascii	"wttrp\000"
 5107      7000
 5108              	.LASF149:
 5109 03d1 7265765F 		.ascii	"rev_last\000"
 5109      6C617374 
 5109      00
 5110              	.LASF91:
 5111 03da 746D5F63 		.ascii	"tm_calibration_t\000"
ARM GAS  /tmp/cc0TOxRm.s 			page 94


 5111      616C6962 
 5111      72617469 
 5111      6F6E5F74 
 5111      00
 5112              	.LASF159:
 5113 03eb 4144435F 		.ascii	"ADC_Value\000"
 5113      56616C75 
 5113      6500
 5114              	.LASF37:
 5115 03f5 705F6F6C 		.ascii	"p_older\000"
 5115      64657200 
 5116              	.LASF61:
 5117 03fd 725F6374 		.ascii	"r_ctx\000"
 5117      7800
 5118              	.LASF109:
 5119 0403 4641554C 		.ascii	"FAULT_CODE_NONE\000"
 5119      545F434F 
 5119      44455F4E 
 5119      4F4E4500 
 5120              	.LASF71:
 5121 0413 76745F66 		.ascii	"vt_func\000"
 5121      756E6300 
 5122              	.LASF137:
 5123 041b 63685654 		.ascii	"chVTGetSystemTime\000"
 5123      47657453 
 5123      79737465 
 5123      6D54696D 
 5123      6500
 5124              	.LASF64:
 5125 042d 725F6375 		.ascii	"r_current\000"
 5125      7272656E 
 5125      7400
 5126              	.LASF63:
 5127 0437 725F6F6C 		.ascii	"r_older\000"
 5127      64657200 
 5128              	.LASF115:
 5129 043f 4641554C 		.ascii	"FAULT_CODE_OVER_TEMP_MOTOR\000"
 5129      545F434F 
 5129      44455F4F 
 5129      5645525F 
 5129      54454D50 
 5130              	.LASF13:
 5131 045a 5F5F7569 		.ascii	"__uint64_t\000"
 5131      6E743634 
 5131      5F7400
 5132              	.LASF0:
 5133 0465 666C6F61 		.ascii	"float\000"
 5133      7400
 5134              	.LASF24:
 5135 046b 74726566 		.ascii	"trefs_t\000"
 5135      735F7400 
 5136              	.LASF121:
 5137 0473 4C45445F 		.ascii	"LED_EXT_TURN_LEFT\000"
 5137      4558545F 
 5137      5455524E 
 5137      5F4C4546 
 5137      5400
ARM GAS  /tmp/cc0TOxRm.s 			page 95


 5138              	.LASF66:
 5139 0485 76697274 		.ascii	"virtual_timer_t\000"
 5139      75616C5F 
 5139      74696D65 
 5139      725F7400 
 5140              	.LASF119:
 5141 0495 4C45445F 		.ascii	"LED_EXT_NORMAL\000"
 5141      4558545F 
 5141      4E4F524D 
 5141      414C00
 5142              	.LASF26:
 5143 04a4 74707269 		.ascii	"tprio_t\000"
 5143      6F5F7400 
 5144              	.LASF123:
 5145 04ac 4C45445F 		.ascii	"LED_EXT_BRAKE_TURN_LEFT\000"
 5145      4558545F 
 5145      4252414B 
 5145      455F5455 
 5145      524E5F4C 
 5146              	.LASF77:
 5147 04c4 63685F73 		.ascii	"ch_system_debug\000"
 5147      79737465 
 5147      6D5F6465 
 5147      62756700 
 5148              	.LASF117:
 5149 04d4 5F426F6F 		.ascii	"_Bool\000"
 5149      6C00
 5150              	.LASF17:
 5151 04da 696E7433 		.ascii	"int32_t\000"
 5151      325F7400 
 5152              	.LASF3:
 5153 04e2 756E7369 		.ascii	"unsigned char\000"
 5153      676E6564 
 5153      20636861 
 5153      7200
 5154              	.LASF154:
 5155 04f0 6E657773 		.ascii	"newstate\000"
 5155      74617465 
 5155      00
 5156              	.LASF39:
 5157 04f9 705F7374 		.ascii	"p_state\000"
 5157      61746500 
 5158              	.LASF48:
 5159 0501 705F6D74 		.ascii	"p_mtxlist\000"
 5159      786C6973 
 5159      7400
 5160              	.LASF4:
 5161 050b 73686F72 		.ascii	"short int\000"
 5161      7420696E 
 5161      7400
 5162              	.LASF42:
 5163 0515 705F7072 		.ascii	"p_preempt\000"
 5163      65656D70 
 5163      7400
 5164              	.LASF98:
 5165 051f 65776D61 		.ascii	"ewmask\000"
 5165      736B00
ARM GAS  /tmp/cc0TOxRm.s 			page 96


 5166              	.LASF32:
 5167 0526 705F6E65 		.ascii	"p_next\000"
 5167      787400
 5168              	.LASF40:
 5169 052d 705F666C 		.ascii	"p_flags\000"
 5169      61677300 
 5170              	.LASF135:
 5171 0535 5F5F6675 		.ascii	"__func__\000"
 5171      6E635F5F 
 5171      00
 5172              	.LASF120:
 5173 053e 4C45445F 		.ascii	"LED_EXT_BRAKE\000"
 5173      4558545F 
 5173      4252414B 
 5173      4500
 5174              	.LASF129:
 5175 054c 63685379 		.ascii	"chSysLock\000"
 5175      734C6F63 
 5175      6B00
 5176              	.LASF55:
 5177 0556 74687265 		.ascii	"threads_queue_t\000"
 5177      6164735F 
 5177      71756575 
 5177      655F7400 
 5178              	.LASF67:
 5179 0566 63685F76 		.ascii	"ch_virtual_timer\000"
 5179      69727475 
 5179      616C5F74 
 5179      696D6572 
 5179      00
 5180              	.LASF99:
 5181 0577 63685F73 		.ascii	"ch_semaphore\000"
 5181      656D6170 
 5181      686F7265 
 5181      00
 5182              	.LASF47:
 5183 0584 705F6570 		.ascii	"p_epending\000"
 5183      656E6469 
 5183      6E6700
 5184              	.LASF125:
 5185 058f 4C45445F 		.ascii	"LED_EXT_BATT\000"
 5185      4558545F 
 5185      42415454 
 5185      00
 5186              	.LASF18:
 5187 059c 75696E74 		.ascii	"uint32_t\000"
 5187      33325F74 
 5187      00
 5188              	.LASF97:
 5189 05a5 77746D74 		.ascii	"wtmtxp\000"
 5189      787000
 5190              	.LASF59:
 5191 05ac 725F7175 		.ascii	"r_queue\000"
 5191      65756500 
 5192              	.LASF75:
 5193 05b4 76745F73 		.ascii	"vt_systime\000"
 5193      79737469 
ARM GAS  /tmp/cc0TOxRm.s 			page 97


 5193      6D6500
 5194              	.LASF54:
 5195 05bf 63685F74 		.ascii	"ch_threads_list\000"
 5195      68726561 
 5195      64735F6C 
 5195      69737400 
 5196              	.LASF166:
 5197 05cf 2F686F6D 		.ascii	"/home/sivert/Documents/GitHub/BLDC/bldc-firmware\000"
 5197      652F7369 
 5197      76657274 
 5197      2F446F63 
 5197      756D656E 
 5198              	.LASF11:
 5199 0600 6C6F6E67 		.ascii	"long unsigned int\000"
 5199      20756E73 
 5199      69676E65 
 5199      6420696E 
 5199      7400
 5200              	.LASF157:
 5201 0612 72657665 		.ascii	"reverse_leds\000"
 5201      7273655F 
 5201      6C656473 
 5201      00
 5202              	.LASF106:
 5203 061f 63686172 		.ascii	"char\000"
 5203      00
 5204              	.LASF6:
 5205 0624 5F5F7569 		.ascii	"__uint16_t\000"
 5205      6E743136 
 5205      5F7400
 5206              	.LASF31:
 5207 062f 74687265 		.ascii	"thread_t\000"
 5207      61645F74 
 5207      00
 5208              	.LASF105:
 5209 0638 6D5F6E65 		.ascii	"m_next\000"
 5209      787400
 5210              	.LASF30:
 5211 063f 73797374 		.ascii	"systime_t\000"
 5211      696D655F 
 5211      7400
 5212              	.LASF49:
 5213 0649 705F7265 		.ascii	"p_realprio\000"
 5213      616C7072 
 5213      696F00
 5214              	.LASF65:
 5215 0654 76746675 		.ascii	"vtfunc_t\000"
 5215      6E635F74 
 5215      00
 5216              	.LASF10:
 5217 065d 5F5F7569 		.ascii	"__uint32_t\000"
 5217      6E743332 
 5217      5F7400
 5218              	.LASF130:
 5219 0668 5F5F7365 		.ascii	"__set_BASEPRI\000"
 5219      745F4241 
 5219      53455052 
ARM GAS  /tmp/cc0TOxRm.s 			page 98


 5219      4900
 5220              	.LASF78:
 5221 0676 70616E69 		.ascii	"panic_msg\000"
 5221      635F6D73 
 5221      6700
 5222              	.LASF90:
 5223 0680 6F666673 		.ascii	"offset\000"
 5223      657400
 5224              	.LASF7:
 5225 0687 73686F72 		.ascii	"short unsigned int\000"
 5225      7420756E 
 5225      7369676E 
 5225      65642069 
 5225      6E7400
 5226              	.LASF21:
 5227 069a 7274636E 		.ascii	"rtcnt_t\000"
 5227      745F7400 
 5228              	.LASF138:
 5229 06a2 7363616C 		.ascii	"scale_color\000"
 5229      655F636F 
 5229      6C6F7200 
 5230              	.LASF45:
 5231 06ae 705F6D73 		.ascii	"p_msgqueue\000"
 5231      67717565 
 5231      756500
 5232              	.LASF72:
 5233 06b9 76745F70 		.ascii	"vt_par\000"
 5233      617200
 5234              	.LASF160:
 5235 06c0 63685468 		.ascii	"chThdSleep\000"
 5235      64536C65 
 5235      657000
 5236              	.LASF41:
 5237 06cb 705F7265 		.ascii	"p_refs\000"
 5237      667300
 5238              	.LASF144:
 5239 06d2 6C65645F 		.ascii	"led_thread\000"
 5239      74687265 
 5239      616400
 5240              	.LASF81:
 5241 06dd 726C6973 		.ascii	"rlist\000"
 5241      7400
 5242              	.LASF112:
 5243 06e3 4641554C 		.ascii	"FAULT_CODE_DRV8302\000"
 5243      545F434F 
 5243      44455F44 
 5243      52563833 
 5243      303200
 5244              	.LASF15:
 5245 06f6 75696E74 		.ascii	"uint8_t\000"
 5245      385F7400 
 5246              	.LASF85:
 5247 06fe 73697A65 		.ascii	"sizetype\000"
 5247      74797065 
 5247      00
 5248              	.LASF164:
 5249 0707 474E5520 		.ascii	"GNU C 4.9.3 20150529 (release) [ARM/embedded-4_9-br"
ARM GAS  /tmp/cc0TOxRm.s 			page 99


 5249      4320342E 
 5249      392E3320 
 5249      32303135 
 5249      30353239 
 5250 073a 616E6368 		.ascii	"anch revision 227977] -mcpu=cortex-m4 -mfloat-abi=h"
 5250      20726576 
 5250      6973696F 
 5250      6E203232 
 5250      37393737 
 5251 076d 61726420 		.ascii	"ard -mfpu=fpv4-sp-d16 -mno-thumb-interwork -mthumb "
 5251      2D6D6670 
 5251      753D6670 
 5251      76342D73 
 5251      702D6431 
 5252 07a0 2D676764 		.ascii	"-ggdb -O2 -std=gnu99 -fomit-frame-pointer -falign-f"
 5252      62202D4F 
 5252      32202D73 
 5252      74643D67 
 5252      6E753939 
 5253 07d3 756E6374 		.ascii	"unctions=16 -ffunction-sections -fdata-sections -fn"
 5253      696F6E73 
 5253      3D313620 
 5253      2D666675 
 5253      6E637469 
 5254 0806 6F2D636F 		.ascii	"o-common -fsingle-precision-constant\000"
 5254      6D6D6F6E 
 5254      202D6673 
 5254      696E676C 
 5254      652D7072 
 5255              	.LASF116:
 5256 082b 6D635F66 		.ascii	"mc_fault_code\000"
 5256      61756C74 
 5256      5F636F64 
 5256      6500
 5257              	.LASF102:
 5258 0839 63685F6D 		.ascii	"ch_mutex\000"
 5258      75746578 
 5258      00
 5259              	.LASF38:
 5260 0842 705F6E61 		.ascii	"p_name\000"
 5260      6D6500
 5261              	.LASF168:
 5262 0849 6D635F69 		.ascii	"mc_interface_get_fault\000"
 5262      6E746572 
 5262      66616365 
 5262      5F676574 
 5262      5F666175 
 5263              	.LASF52:
 5264 0860 74687265 		.ascii	"threads_list_t\000"
 5264      6164735F 
 5264      6C697374 
 5264      5F7400
 5265              	.LASF131:
 5266 086f 63685379 		.ascii	"chSysUnlock\000"
 5266      73556E6C 
 5266      6F636B00 
 5267              	.LASF46:
ARM GAS  /tmp/cc0TOxRm.s 			page 100


 5268 087b 705F6D73 		.ascii	"p_msg\000"
 5268      6700
 5269              	.LASF153:
 5270 0881 6C65645F 		.ascii	"led_external_set_reversed\000"
 5270      65787465 
 5270      726E616C 
 5270      5F736574 
 5270      5F726576 
 5271              	.LASF148:
 5272 089b 73746174 		.ascii	"state_last\000"
 5272      655F6C61 
 5272      737400
 5273              	.LASF122:
 5274 08a6 4C45445F 		.ascii	"LED_EXT_TURN_RIGHT\000"
 5274      4558545F 
 5274      5455524E 
 5274      5F524947 
 5274      485400
 5275              	.LASF132:
 5276 08b9 63685265 		.ascii	"chRegSetThreadName\000"
 5276      67536574 
 5276      54687265 
 5276      61644E61 
 5276      6D6500
 5277              	.LASF143:
 5278 08cc 7365745F 		.ascii	"set_led_wrapper\000"
 5278      6C65645F 
 5278      77726170 
 5278      70657200 
 5279              	.LASF104:
 5280 08dc 6D5F6F77 		.ascii	"m_owner\000"
 5280      6E657200 
 5281              	.LASF155:
 5282 08e4 6C65645F 		.ascii	"led_thread_wa\000"
 5282      74687265 
 5282      61645F77 
 5282      6100
 5283              	.LASF35:
 5284 08f2 705F6374 		.ascii	"p_ctx\000"
 5284      7800
 5285              	.LASF44:
 5286 08f8 705F7761 		.ascii	"p_waiting\000"
 5286      6974696E 
 5286      6700
 5287              		.ident	"GCC: (GNU Tools for ARM Embedded Processors) 4.9.3 20150529 (release) [ARM/embedded-4_9-br
ARM GAS  /tmp/cc0TOxRm.s 			page 101


DEFINED SYMBOLS
                            *ABS*:0000000000000000 led_external.c
     /tmp/cc0TOxRm.s:21     .text.wait_for_state_change:0000000000000000 $t
     /tmp/cc0TOxRm.s:26     .text.wait_for_state_change:0000000000000000 wait_for_state_change
     /tmp/cc0TOxRm.s:92     .text.wait_for_state_change:000000000000003c $d
     /tmp/cc0TOxRm.s:98     .text.set_led_wrapper:0000000000000000 $t
     /tmp/cc0TOxRm.s:103    .text.set_led_wrapper:0000000000000000 set_led_wrapper
     /tmp/cc0TOxRm.s:136    .text.set_led_wrapper:000000000000001c $d
     /tmp/cc0TOxRm.s:141    .text.led_thread:0000000000000000 $t
     /tmp/cc0TOxRm.s:146    .text.led_thread:0000000000000000 led_thread
     /tmp/cc0TOxRm.s:355    .text.led_thread:00000000000000d2 $d
     /tmp/cc0TOxRm.s:363    .text.led_thread:00000000000000da $t
     /tmp/cc0TOxRm.s:872    .text.led_thread:0000000000000344 $d
     /tmp/cc0TOxRm.s:889    .text.led_thread:000000000000037c $t
     /tmp/cc0TOxRm.s:917    .text.led_external_init:0000000000000000 $t
     /tmp/cc0TOxRm.s:923    .text.led_external_init:0000000000000000 led_external_init
     /tmp/cc0TOxRm.s:963    .text.led_external_init:0000000000000024 $d
     /tmp/cc0TOxRm.s:971    .text.led_external_set_state:0000000000000000 $t
     /tmp/cc0TOxRm.s:977    .text.led_external_set_state:0000000000000000 led_external_set_state
     /tmp/cc0TOxRm.s:992    .text.led_external_set_state:0000000000000008 $d
     /tmp/cc0TOxRm.s:997    .text.led_external_set_reversed:0000000000000000 $t
     /tmp/cc0TOxRm.s:1003   .text.led_external_set_reversed:0000000000000000 led_external_set_reversed
     /tmp/cc0TOxRm.s:1018   .text.led_external_set_reversed:0000000000000008 $d
     /tmp/cc0TOxRm.s:1026   .bss.reverse_leds:0000000000000000 reverse_leds
     /tmp/cc0TOxRm.s:1027   .bss.reverse_leds:0000000000000000 $d
     /tmp/cc0TOxRm.s:1032   .bss.state:0000000000000000 state
     /tmp/cc0TOxRm.s:1033   .bss.state:0000000000000000 $d
     /tmp/cc0TOxRm.s:1035   .rodata.str1.4:0000000000000000 $d
     /tmp/cc0TOxRm.s:1039   .bss.led_thread_wa:0000000000000000 $d
     /tmp/cc0TOxRm.s:1043   .bss.led_thread_wa:0000000000000000 led_thread_wa
                     .debug_frame:0000000000000010 $d

UNDEFINED SYMBOLS
chThdSleep
mc_interface_get_fault
ws2811_set_led_color
ws2811_set_all
utils_map
ADC_Value
ch
chThdCreateStatic
