ARM GAS  /tmp/cc0TOxRm.s 			page 1


   1              		.syntax unified
   2              		.cpu cortex-m4
   3              		.eabi_attribute 27, 1
   4              		.eabi_attribute 28, 1
   5              		.fpu fpv4-sp-d16
   6              		.eabi_attribute 20, 1
   7              		.eabi_attribute 21, 1
   8              		.eabi_attribute 23, 3
   9              		.eabi_attribute 24, 1
  10              		.eabi_attribute 25, 1
  11              		.eabi_attribute 26, 1
  12              		.eabi_attribute 30, 2
  13              		.eabi_attribute 34, 1
  14              		.eabi_attribute 18, 4
  15              		.thumb
  16              		.file	"led_external.c"
  17              		.text
  18              	.Ltext0:
  19              		.cfi_sections	.debug_frame
  20              		.section	.text.wait_for_state_change,"ax",%progbits
  21              		.align	2
  22              		.p2align 4,,15
  23              		.thumb
  24              		.thumb_func
  25              		.type	wait_for_state_change, %function
  26              	wait_for_state_change:
  27              	.LFB261:
  28              		.file 1 "led_external.c"
  29              		.loc 1 206 0
  30              		.cfi_startproc
  31              		@ args = 0, pretend = 0, frame = 0
  32              		@ frame_needed = 0, uses_anonymous_args = 0
  33 0000 F8B5     		push	{r3, r4, r5, r6, r7, lr}
  34              		.cfi_def_cfa_offset 24
  35              		.cfi_offset 3, -24
  36              		.cfi_offset 4, -20
  37              		.cfi_offset 5, -16
  38              		.cfi_offset 6, -12
  39              		.cfi_offset 7, -8
  40              		.cfi_offset 14, -4
  41              		.loc 1 207 0
  42 0002 0E4E     		ldr	r6, .L10
  43              		.loc 1 208 0
  44 0004 0E4F     		ldr	r7, .L10+4
  45              		.loc 1 207 0
  46 0006 3378     		ldrb	r3, [r6]	@ zero_extendqisi2
  47              	.LVL0:
  48              		.loc 1 208 0
  49 0008 3D78     		ldrb	r5, [r7]	@ zero_extendqisi2
  50              		.loc 1 209 0
  51 000a 3478     		ldrb	r4, [r6]	@ zero_extendqisi2
  52 000c E4B2     		uxtb	r4, r4
  53 000e 9C42     		cmp	r4, r3
  54              		.loc 1 208 0
  55 0010 EDB2     		uxtb	r5, r5
  56              	.LVL1:
  57              		.loc 1 209 0
ARM GAS  /tmp/cc0TOxRm.s 			page 2


  58 0012 10D1     		bne	.L1
  59 0014 3B78     		ldrb	r3, [r7]	@ zero_extendqisi2
  60              	.LVL2:
  61 0016 9D42     		cmp	r5, r3
  62 0018 09D0     		beq	.L6
  63 001a 0DE0     		b	.L9
  64              	.L5:
  65              		.loc 1 210 0
  66 001c 6420     		movs	r0, #100
  67 001e FFF7FEFF 		bl	chThdSleep
  68              	.LVL3:
  69              		.loc 1 209 0
  70 0022 3378     		ldrb	r3, [r6]	@ zero_extendqisi2
  71 0024 A342     		cmp	r3, r4
  72 0026 06D1     		bne	.L1
  73              		.loc 1 209 0 is_stmt 0 discriminator 1
  74 0028 3B78     		ldrb	r3, [r7]	@ zero_extendqisi2
  75 002a 9D42     		cmp	r5, r3
  76 002c 03D1     		bne	.L1
  77              	.L6:
  78              		.loc 1 209 0 discriminator 2
  79 002e FFF7FEFF 		bl	mc_interface_get_fault
  80              	.LVL4:
  81 0032 0028     		cmp	r0, #0
  82 0034 F2D0     		beq	.L5
  83              	.L1:
  84 0036 F8BD     		pop	{r3, r4, r5, r6, r7, pc}
  85              	.LVL5:
  86              	.L9:
  87 0038 F8BD     		pop	{r3, r4, r5, r6, r7, pc}
  88              	.LVL6:
  89              	.L11:
  90 003a 00BF     		.align	2
  91              	.L10:
  92 003c 00000000 		.word	.LANCHOR0
  93 0040 00000000 		.word	.LANCHOR1
  94              		.cfi_endproc
  95              	.LFE261:
  96              		.size	wait_for_state_change, .-wait_for_state_change
  97              		.section	.text.set_led_wrapper,"ax",%progbits
  98              		.align	2
  99              		.p2align 4,,15
 100              		.thumb
 101              		.thumb_func
 102              		.type	set_led_wrapper, %function
 103              	set_led_wrapper:
 104              	.LFB262:
 105              		.loc 1 214 0 is_stmt 1
 106              		.cfi_startproc
 107              		@ args = 0, pretend = 0, frame = 0
 108              		@ frame_needed = 0, uses_anonymous_args = 0
 109              		@ link register save eliminated.
 110              	.LVL7:
 111              		.loc 1 215 0
 112 0000 064B     		ldr	r3, .L15
 113 0002 1A78     		ldrb	r2, [r3]	@ zero_extendqisi2
 114 0004 3AB1     		cbz	r2, .L13
ARM GAS  /tmp/cc0TOxRm.s 			page 3


 115              		.loc 1 216 0
 116 0006 0D28     		cmp	r0, #13
 117 0008 02DC     		bgt	.L14
 118              		.loc 1 217 0
 119 000a 0E30     		adds	r0, r0, #14
 120              	.LVL8:
 121 000c FFF7FEBF 		b	ws2811_set_led_color
 122              	.LVL9:
 123              	.L14:
 124              		.loc 1 219 0
 125 0010 0E38     		subs	r0, r0, #14
 126              	.LVL10:
 127 0012 FFF7FEBF 		b	ws2811_set_led_color
 128              	.LVL11:
 129              	.L13:
 130              		.loc 1 222 0
 131 0016 FFF7FEBF 		b	ws2811_set_led_color
 132              	.LVL12:
 133              	.L16:
 134 001a 00BF     		.align	2
 135              	.L15:
 136 001c 00000000 		.word	.LANCHOR1
 137              		.cfi_endproc
 138              	.LFE262:
 139              		.size	set_led_wrapper, .-set_led_wrapper
 140              		.section	.text.led_thread,"ax",%progbits
 141              		.align	2
 142              		.p2align 4,,15
 143              		.thumb
 144              		.thumb_func
 145              		.type	led_thread, %function
 146              	led_thread:
 147              	.LFB259:
 148              		.loc 1 61 0
 149              		.cfi_startproc
 150              		@ args = 0, pretend = 0, frame = 0
 151              		@ frame_needed = 0, uses_anonymous_args = 0
 152              	.LVL13:
 153 0000 2DE9F84F 		push	{r3, r4, r5, r6, r7, r8, r9, r10, fp, lr}
 154              		.cfi_def_cfa_offset 40
 155              		.cfi_offset 3, -40
 156              		.cfi_offset 4, -36
 157              		.cfi_offset 5, -32
 158              		.cfi_offset 6, -28
 159              		.cfi_offset 7, -24
 160              		.cfi_offset 8, -20
 161              		.cfi_offset 9, -16
 162              		.cfi_offset 10, -12
 163              		.cfi_offset 11, -8
 164              		.cfi_offset 14, -4
 165              	.LBB110:
 166              	.LBB111:
 167              		.file 2 "ChibiOS_3.0.2/os/rt/include/chregistry.h"
 168              		.loc 2 135 0
 169 0004 DFF86893 		ldr	r9, .L85+44
 170 0008 CE4A     		ldr	r2, .L85
 171 000a D9F81830 		ldr	r3, [r9, #24]
ARM GAS  /tmp/cc0TOxRm.s 			page 4


 172 000e CE4F     		ldr	r7, .L85+4
 173 0010 DFF86083 		ldr	r8, .L85+48
 174              	.LBE111:
 175              	.LBE110:
 176              	.LBB113:
 177              	.LBB114:
 178              		.loc 1 149 0
 179 0014 DFF860A3 		ldr	r10, .L85+52
 180              	.LBE114:
 181              	.LBE113:
 182              		.loc 1 61 0
 183 0018 2DED068B 		fstmfdd	sp!, {d8, d9, d10}
 184              		.cfi_def_cfa_offset 64
 185              		.cfi_offset 80, -64
 186              		.cfi_offset 81, -60
 187              		.cfi_offset 82, -56
 188              		.cfi_offset 83, -52
 189              		.cfi_offset 84, -48
 190              		.cfi_offset 85, -44
 191              	.LBB177:
 192              	.LBB112:
 193              		.loc 2 135 0
 194 001c 9A61     		str	r2, [r3, #24]
 195              	.LVL14:
 196              	.LBE112:
 197              	.LBE177:
 198              	.LBB178:
 199              		.loc 1 68 0
 200 001e FFF7FEFF 		bl	mc_interface_get_fault
 201              	.LVL15:
 202              	.LBB160:
 203              		.loc 1 162 0
 204 0022 DFEDCAAA 		flds	s21, .L85+8
 205 0026 9FEDCAAA 		flds	s20, .L85+12
 206              	.LBE160:
 207              		.loc 1 69 0
 208 002a 0546     		mov	r5, r0
 209 002c 0028     		cmp	r0, #0
 210 002e 45D0     		beq	.L18
 211              	.LVL16:
 212              	.L77:
 213              	.LBB161:
 214              		.loc 1 70 0
 215 0030 0020     		movs	r0, #0
 216              	.LVL17:
 217 0032 FFF7FEFF 		bl	ws2811_set_all
 218              	.LVL18:
 219              	.LBB162:
 220              		.loc 1 71 0
 221 0036 0024     		movs	r4, #0
 222              	.LVL19:
 223              	.L19:
 224              		.loc 1 72 0 discriminator 3
 225 0038 2046     		mov	r0, r4
 226 003a 4FF47F01 		mov	r1, #16711680
 227 003e FFF7FEFF 		bl	set_led_wrapper
 228              	.LVL20:
ARM GAS  /tmp/cc0TOxRm.s 			page 5


 229              		.loc 1 71 0 discriminator 3
 230 0042 0134     		adds	r4, r4, #1
 231              	.LVL21:
 232              		.loc 1 73 0 discriminator 3
 233 0044 4FF4FA60 		mov	r0, #2000
 234 0048 FFF7FEFF 		bl	chThdSleep
 235              	.LVL22:
 236              		.loc 1 71 0 discriminator 3
 237 004c AC42     		cmp	r4, r5
 238 004e F3D1     		bne	.L19
 239              	.LBE162:
 240              		.loc 1 76 0
 241 0050 42F21070 		movw	r0, #10000
 242 0054 FFF7FEFF 		bl	chThdSleep
 243              	.LVL23:
 244              	.LBB163:
 245              	.LBB164:
 246              		.loc 1 80 0
 247 0058 DFEDBE9A 		flds	s19, .L85+16
 248              	.LBB165:
 249              	.LBB166:
 250              		.loc 1 200 0
 251 005c 9FEDBE9A 		flds	s18, .L85+20
 252              		.loc 1 199 0
 253 0060 DFEDBE8A 		flds	s17, .L85+24
 254              	.LBE166:
 255              	.LBE165:
 256              	.LBE164:
 257              	.LBE163:
 258              		.loc 1 76 0
 259 0064 3226     		movs	r6, #50
 260              		.loc 1 78 0
 261 0066 B7EE008A 		fconsts	s16, #112
 262              	.LVL24:
 263              	.L20:
 264              	.LBB172:
 265              	.LBB171:
 266              		.loc 1 80 0
 267 006a 38EE698A 		fsubs	s16, s16, s19
 268              	.LVL25:
 269              	.LBB168:
 270              		.loc 1 82 0
 271 006e 4FF0000B 		mov	fp, #0
 272              	.LBE168:
 273              	.LBB169:
 274              	.LBB167:
 275              		.loc 1 200 0
 276 0072 68EE097A 		fmuls	s15, s16, s18
 277              		.loc 1 199 0
 278 0076 28EE287A 		fmuls	s14, s16, s17
 279              		.loc 1 200 0
 280 007a FCEEE77A 		ftouizs	s15, s15
 281 007e 17EE904A 		fmrs	r4, s15	@ int
 282              	.LVL26:
 283              		.loc 1 199 0
 284 0082 FCEEC77A 		ftouizs	s15, s14
 285              		.loc 1 203 0
ARM GAS  /tmp/cc0TOxRm.s 			page 6


 286 0086 2102     		lsls	r1, r4, #8
 287              		.loc 1 199 0
 288 0088 17EE902A 		fmrs	r2, s15	@ int
 289              		.loc 1 203 0
 290 008c 41EA0242 		orr	r2, r1, r2, lsl #16
 291 0090 1443     		orrs	r4, r4, r2
 292              	.LVL27:
 293              	.L22:
 294              	.LBE167:
 295              	.LBE169:
 296              	.LBB170:
 297              		.loc 1 83 0 discriminator 3
 298 0092 5846     		mov	r0, fp
 299 0094 2146     		mov	r1, r4
 300              		.loc 1 82 0 discriminator 3
 301 0096 0BF1010B 		add	fp, fp, #1
 302              	.LVL28:
 303              		.loc 1 83 0 discriminator 3
 304 009a FFF7FEFF 		bl	set_led_wrapper
 305              	.LVL29:
 306              		.loc 1 82 0 discriminator 3
 307 009e AB45     		cmp	fp, r5
 308 00a0 F7D1     		bne	.L22
 309              	.LBE170:
 310              		.loc 1 85 0 discriminator 2
 311 00a2 6420     		movs	r0, #100
 312 00a4 FFF7FEFF 		bl	chThdSleep
 313              	.LVL30:
 314              	.LBE171:
 315              		.loc 1 79 0 discriminator 2
 316 00a8 013E     		subs	r6, r6, #1
 317              	.LVL31:
 318 00aa DED1     		bne	.L20
 319              	.LVL32:
 320              	.L23:
 321              	.LBE172:
 322              	.LBE161:
 323              		.loc 1 190 0
 324 00ac 0A20     		movs	r0, #10
 325 00ae FFF7FEFF 		bl	chThdSleep
 326              	.LVL33:
 327              	.L80:
 328              		.loc 1 68 0
 329 00b2 FFF7FEFF 		bl	mc_interface_get_fault
 330              	.LVL34:
 331              		.loc 1 69 0
 332 00b6 0546     		mov	r5, r0
 333 00b8 0028     		cmp	r0, #0
 334 00ba B9D1     		bne	.L77
 335              	.L18:
 336              	.LVL35:
 337              	.LBB173:
 338              		.loc 1 89 0
 339 00bc 3C78     		ldrb	r4, [r7]	@ zero_extendqisi2
 340              		.loc 1 90 0
 341 00be 98F80050 		ldrb	r5, [r8]	@ zero_extendqisi2
 342              		.loc 1 92 0
ARM GAS  /tmp/cc0TOxRm.s 			page 7


 343 00c2 3B78     		ldrb	r3, [r7]	@ zero_extendqisi2
 344              		.loc 1 89 0
 345 00c4 E4B2     		uxtb	r4, r4
 346              	.LVL36:
 347              		.loc 1 90 0
 348 00c6 EDB2     		uxtb	r5, r5
 349              	.LVL37:
 350              		.loc 1 92 0
 351 00c8 072B     		cmp	r3, #7
 352 00ca 00F26181 		bhi	.L24
 353 00ce DFE803F0 		tbb	[pc, r3]
 354              	.L26:
 355 00d2 C3       		.byte	(.L25-.L26)/2
 356 00d3 B1       		.byte	(.L55-.L26)/2
 357 00d4 9C       		.byte	(.L56-.L26)/2
 358 00d5 4E       		.byte	(.L57-.L26)/2
 359 00d6 04       		.byte	(.L58-.L26)/2
 360 00d7 4E       		.byte	(.L57-.L26)/2
 361 00d8 04       		.byte	(.L58-.L26)/2
 362 00d9 CC       		.byte	(.L31-.L26)/2
 363              		.p2align 1
 364              	.L58:
 365 00da 0026     		movs	r6, #0
 366              	.LVL38:
 367              	.L30:
 368              	.LBB115:
 369              		.loc 1 140 0
 370 00dc 3B78     		ldrb	r3, [r7]	@ zero_extendqisi2
 371 00de 042B     		cmp	r3, #4
 372              		.loc 1 143 0
 373 00e0 3046     		mov	r0, r6
 374 00e2 4FF47F01 		mov	r1, #16711680
 375              		.loc 1 141 0
 376 00e6 08BF     		it	eq
 377 00e8 4FF4FE01 		moveq	r1, #8323072
 378              		.loc 1 143 0
 379 00ec FFF7FEFF 		bl	set_led_wrapper
 380              	.LVL39:
 381              		.loc 1 145 0
 382 00f0 06F10E00 		add	r0, r6, #14
 383 00f4 6FF07F41 		mvn	r1, #-16777216
 384              		.loc 1 139 0
 385 00f8 0136     		adds	r6, r6, #1
 386              	.LVL40:
 387              		.loc 1 145 0
 388 00fa FFF7FEFF 		bl	set_led_wrapper
 389              	.LVL41:
 390              		.loc 1 139 0
 391 00fe 0E2E     		cmp	r6, #14
 392 0100 ECD1     		bne	.L30
 393              	.LBE115:
 394              		.loc 1 148 0
 395 0102 3E78     		ldrb	r6, [r7]	@ zero_extendqisi2
 396              	.LVL42:
 397 0104 F6B2     		uxtb	r6, r6
 398 0106 A642     		cmp	r6, r4
 399 0108 D0D1     		bne	.L23
ARM GAS  /tmp/cc0TOxRm.s 			page 8


 400 010a 98F80030 		ldrb	r3, [r8]	@ zero_extendqisi2
 401 010e 9D42     		cmp	r5, r3
 402              	.LBB116:
 403              	.LBB117:
 404              	.LBB118:
 405              	.LBB119:
 406              	.LBB120:
 407              	.LBB121:
 408              		.file 3 "ChibiOS_3.0.2/os/ext/CMSIS/include/core_cmFunc.h"
 409              		.loc 3 546 0
 410 0110 08BF     		it	eq
 411 0112 2024     		moveq	r4, #32
 412              	.LVL43:
 413              	.LBE121:
 414              	.LBE120:
 415              	.LBE119:
 416              	.LBE118:
 417              	.LBE117:
 418              	.LBE116:
 419              		.loc 1 148 0
 420 0114 10D0     		beq	.L71
 421 0116 C9E7     		b	.L23
 422              	.LVL44:
 423              	.L78:
 424              		.loc 1 150 0
 425 0118 FFF7FEFF 		bl	set_led_wrapper
 426              	.LVL45:
 427              		.loc 1 151 0
 428 011c 1B20     		movs	r0, #27
 429 011e 9049     		ldr	r1, .L85+28
 430 0120 FFF7FEFF 		bl	set_led_wrapper
 431              	.LVL46:
 432              	.L45:
 433              		.loc 1 156 0
 434 0124 6420     		movs	r0, #100
 435 0126 FFF7FEFF 		bl	chThdSleep
 436              	.LVL47:
 437              		.loc 1 148 0
 438 012a 3B78     		ldrb	r3, [r7]	@ zero_extendqisi2
 439 012c B342     		cmp	r3, r6
 440 012e BDD1     		bne	.L23
 441              		.loc 1 148 0 is_stmt 0 discriminator 1
 442 0130 98F80030 		ldrb	r3, [r8]	@ zero_extendqisi2
 443 0134 9D42     		cmp	r5, r3
 444 0136 B9D1     		bne	.L23
 445              	.LVL48:
 446              	.L71:
 447              		.loc 1 148 0 discriminator 2
 448 0138 FFF7FEFF 		bl	mc_interface_get_fault
 449              	.LVL49:
 450 013c 0246     		mov	r2, r0
 451 013e 0028     		cmp	r0, #0
 452 0140 B4D1     		bne	.L23
 453              	.LBB134:
 454              	.LBB133:
 455              	.LBB125:
 456              	.LBB124:
ARM GAS  /tmp/cc0TOxRm.s 			page 9


 457              	.LBB123:
 458              	.LBB122:
 459              		.loc 3 546 0 is_stmt 1
 460              	@ 546 "ChibiOS_3.0.2/os/ext/CMSIS/include/core_cmFunc.h" 1
 461 0142 84F31188 		MSR basepri, r4
 462              	@ 0 "" 2
 463              		.thumb
 464              	.LBE122:
 465              	.LBE123:
 466              	.LBE124:
 467              	.LBE125:
 468              	.LBB126:
 469              	.LBB127:
 470              		.file 4 "ChibiOS_3.0.2/os/rt/include/chvt.h"
 471              		.loc 4 231 0
 472 0146 D9F82830 		ldr	r3, [r9, #40]
 473              	.LVL50:
 474              	.LBE127:
 475              	.LBE126:
 476              	.LBB128:
 477              	.LBB129:
 478              	.LBB130:
 479              	.LBB131:
 480              	.LBB132:
 481              		.loc 3 546 0
 482              	@ 546 "ChibiOS_3.0.2/os/ext/CMSIS/include/core_cmFunc.h" 1
 483 014a 82F31188 		MSR basepri, r2
 484              	@ 0 "" 2
 485              		.thumb
 486              	.LBE132:
 487              	.LBE131:
 488              	.LBE130:
 489              	.LBE129:
 490              	.LBE128:
 491              	.LBE133:
 492              	.LBE134:
 493              		.loc 1 149 0
 494 014e AAFB0323 		umull	r2, r3, r10, r3
 495 0152 C3F3003B 		ubfx	fp, r3, #12, #1
 496              		.loc 1 150 0
 497 0156 8249     		ldr	r1, .L85+28
 498              		.loc 1 149 0
 499 0158 BBF1000F 		cmp	fp, #0
 500 015c DCD1     		bne	.L78
 501              		.loc 1 153 0
 502 015e 5946     		mov	r1, fp
 503 0160 FFF7FEFF 		bl	set_led_wrapper
 504              	.LVL51:
 505              		.loc 1 154 0
 506 0164 5946     		mov	r1, fp
 507 0166 1B20     		movs	r0, #27
 508 0168 FFF7FEFF 		bl	set_led_wrapper
 509              	.LVL52:
 510 016c DAE7     		b	.L45
 511              	.LVL53:
 512              	.L57:
 513              		.loc 1 92 0
ARM GAS  /tmp/cc0TOxRm.s 			page 10


 514 016e 0026     		movs	r6, #0
 515              	.LVL54:
 516              	.L29:
 517              	.LBB135:
 518              		.loc 1 117 0
 519 0170 3B78     		ldrb	r3, [r7]	@ zero_extendqisi2
 520 0172 032B     		cmp	r3, #3
 521              		.loc 1 120 0
 522 0174 3046     		mov	r0, r6
 523 0176 4FF47F01 		mov	r1, #16711680
 524              		.loc 1 118 0
 525 017a 08BF     		it	eq
 526 017c 4FF4FE01 		moveq	r1, #8323072
 527              		.loc 1 120 0
 528 0180 FFF7FEFF 		bl	set_led_wrapper
 529              	.LVL55:
 530              		.loc 1 122 0
 531 0184 06F10E00 		add	r0, r6, #14
 532 0188 6FF07F41 		mvn	r1, #-16777216
 533              		.loc 1 116 0
 534 018c 0136     		adds	r6, r6, #1
 535              	.LVL56:
 536              		.loc 1 122 0
 537 018e FFF7FEFF 		bl	set_led_wrapper
 538              	.LVL57:
 539              		.loc 1 116 0
 540 0192 0E2E     		cmp	r6, #14
 541 0194 ECD1     		bne	.L29
 542              	.LBE135:
 543              		.loc 1 125 0
 544 0196 3E78     		ldrb	r6, [r7]	@ zero_extendqisi2
 545              	.LVL58:
 546 0198 F6B2     		uxtb	r6, r6
 547 019a A642     		cmp	r6, r4
 548 019c 86D1     		bne	.L23
 549 019e 98F80030 		ldrb	r3, [r8]	@ zero_extendqisi2
 550 01a2 9D42     		cmp	r5, r3
 551              	.LBB136:
 552              	.LBB137:
 553              	.LBB138:
 554              	.LBB139:
 555              	.LBB140:
 556              	.LBB141:
 557              		.loc 3 546 0
 558 01a4 08BF     		it	eq
 559 01a6 2024     		moveq	r4, #32
 560              	.LVL59:
 561              	.LBE141:
 562              	.LBE140:
 563              	.LBE139:
 564              	.LBE138:
 565              	.LBE137:
 566              	.LBE136:
 567              		.loc 1 125 0
 568 01a8 12D0     		beq	.L70
 569 01aa 7FE7     		b	.L23
 570              	.LVL60:
ARM GAS  /tmp/cc0TOxRm.s 			page 11


 571              	.L79:
 572              		.loc 1 127 0
 573 01ac FFF7FEFF 		bl	set_led_wrapper
 574              	.LVL61:
 575              		.loc 1 128 0
 576 01b0 0E20     		movs	r0, #14
 577 01b2 6B49     		ldr	r1, .L85+28
 578 01b4 FFF7FEFF 		bl	set_led_wrapper
 579              	.LVL62:
 580              	.L39:
 581              		.loc 1 133 0
 582 01b8 6420     		movs	r0, #100
 583 01ba FFF7FEFF 		bl	chThdSleep
 584              	.LVL63:
 585              		.loc 1 125 0
 586 01be 3B78     		ldrb	r3, [r7]	@ zero_extendqisi2
 587 01c0 B342     		cmp	r3, r6
 588 01c2 7FF473AF 		bne	.L23
 589              		.loc 1 125 0 is_stmt 0 discriminator 1
 590 01c6 98F80030 		ldrb	r3, [r8]	@ zero_extendqisi2
 591 01ca 9D42     		cmp	r5, r3
 592 01cc 7FF46EAF 		bne	.L23
 593              	.LVL64:
 594              	.L70:
 595              		.loc 1 125 0 discriminator 2
 596 01d0 FFF7FEFF 		bl	mc_interface_get_fault
 597              	.LVL65:
 598 01d4 0028     		cmp	r0, #0
 599 01d6 7FF469AF 		bne	.L23
 600              	.LBB154:
 601              	.LBB153:
 602              	.LBB145:
 603              	.LBB144:
 604              	.LBB143:
 605              	.LBB142:
 606              		.loc 3 546 0 is_stmt 1
 607              	@ 546 "ChibiOS_3.0.2/os/ext/CMSIS/include/core_cmFunc.h" 1
 608 01da 84F31188 		MSR basepri, r4
 609              	@ 0 "" 2
 610              		.thumb
 611              	.LBE142:
 612              	.LBE143:
 613              	.LBE144:
 614              	.LBE145:
 615              	.LBB146:
 616              	.LBB147:
 617              		.loc 4 231 0
 618 01de D9F82830 		ldr	r3, [r9, #40]
 619              	.LVL66:
 620              	.LBE147:
 621              	.LBE146:
 622              	.LBB148:
 623              	.LBB149:
 624              	.LBB150:
 625              	.LBB151:
 626              	.LBB152:
 627              		.loc 3 546 0
ARM GAS  /tmp/cc0TOxRm.s 			page 12


 628              	@ 546 "ChibiOS_3.0.2/os/ext/CMSIS/include/core_cmFunc.h" 1
 629 01e2 80F31188 		MSR basepri, r0
 630              	@ 0 "" 2
 631              		.thumb
 632              	.LBE152:
 633              	.LBE151:
 634              	.LBE150:
 635              	.LBE149:
 636              	.LBE148:
 637              	.LBE153:
 638              	.LBE154:
 639              		.loc 1 126 0
 640 01e6 AAFB0323 		umull	r2, r3, r10, r3
 641 01ea C3F3003B 		ubfx	fp, r3, #12, #1
 642              		.loc 1 127 0
 643 01ee 0D20     		movs	r0, #13
 644 01f0 5B49     		ldr	r1, .L85+28
 645              		.loc 1 126 0
 646 01f2 BBF1000F 		cmp	fp, #0
 647 01f6 D9D1     		bne	.L79
 648              		.loc 1 130 0
 649 01f8 5946     		mov	r1, fp
 650 01fa 0D20     		movs	r0, #13
 651 01fc FFF7FEFF 		bl	set_led_wrapper
 652              	.LVL67:
 653              		.loc 1 131 0
 654 0200 5946     		mov	r1, fp
 655 0202 0E20     		movs	r0, #14
 656 0204 FFF7FEFF 		bl	set_led_wrapper
 657              	.LVL68:
 658 0208 D6E7     		b	.L39
 659              	.LVL69:
 660              	.L56:
 661              		.loc 1 92 0
 662 020a 0024     		movs	r4, #0
 663              	.LVL70:
 664              	.L28:
 665              	.LBB155:
 666              		.loc 1 108 0 discriminator 3
 667 020c 2046     		mov	r0, r4
 668 020e 4FF47F01 		mov	r1, #16711680
 669 0212 FFF7FEFF 		bl	set_led_wrapper
 670              	.LVL71:
 671              		.loc 1 109 0 discriminator 3
 672 0216 04F10E00 		add	r0, r4, #14
 673 021a 6FF07F41 		mvn	r1, #-16777216
 674              		.loc 1 107 0 discriminator 3
 675 021e 0134     		adds	r4, r4, #1
 676              	.LVL72:
 677              		.loc 1 109 0 discriminator 3
 678 0220 FFF7FEFF 		bl	set_led_wrapper
 679              	.LVL73:
 680              		.loc 1 107 0 discriminator 3
 681 0224 0E2C     		cmp	r4, #14
 682 0226 F1D1     		bne	.L28
 683              	.LBE155:
 684              		.loc 1 103 0
ARM GAS  /tmp/cc0TOxRm.s 			page 13


 685 0228 FFF7FEFF 		bl	wait_for_state_change
 686              	.LVL74:
 687              	.L81:
 688              	.LBE173:
 689              		.loc 1 190 0
 690 022c 0A20     		movs	r0, #10
 691 022e FFF7FEFF 		bl	chThdSleep
 692              	.LVL75:
 693 0232 3EE7     		b	.L80
 694              	.LVL76:
 695              	.L55:
 696              	.LBB174:
 697              		.loc 1 92 0
 698 0234 0024     		movs	r4, #0
 699              	.LVL77:
 700              	.L27:
 701              	.LBB156:
 702              		.loc 1 100 0 discriminator 3
 703 0236 2046     		mov	r0, r4
 704 0238 4FF4FE01 		mov	r1, #8323072
 705 023c FFF7FEFF 		bl	set_led_wrapper
 706              	.LVL78:
 707              		.loc 1 101 0 discriminator 3
 708 0240 04F10E00 		add	r0, r4, #14
 709 0244 6FF07F41 		mvn	r1, #-16777216
 710              		.loc 1 99 0 discriminator 3
 711 0248 0134     		adds	r4, r4, #1
 712              	.LVL79:
 713              		.loc 1 101 0 discriminator 3
 714 024a FFF7FEFF 		bl	set_led_wrapper
 715              	.LVL80:
 716              		.loc 1 99 0 discriminator 3
 717 024e 0E2C     		cmp	r4, #14
 718 0250 F1D1     		bne	.L27
 719              	.LBE156:
 720              		.loc 1 103 0
 721 0252 FFF7FEFF 		bl	wait_for_state_change
 722              	.LVL81:
 723 0256 E9E7     		b	.L81
 724              	.LVL82:
 725              	.L25:
 726              		.loc 1 94 0
 727 0258 0020     		movs	r0, #0
 728              	.LVL83:
 729 025a FFF7FEFF 		bl	ws2811_set_all
 730              	.LVL84:
 731              		.loc 1 95 0
 732 025e FFF7FEFF 		bl	wait_for_state_change
 733              	.LVL85:
 734              	.LBE174:
 735              		.loc 1 190 0
 736 0262 0A20     		movs	r0, #10
 737 0264 FFF7FEFF 		bl	chThdSleep
 738              	.LVL86:
 739 0268 23E7     		b	.L80
 740              	.LVL87:
 741              	.L31:
ARM GAS  /tmp/cc0TOxRm.s 			page 14


 742              	.LBB175:
 743              		.loc 1 161 0
 744 026a 3E78     		ldrb	r6, [r7]	@ zero_extendqisi2
 745 026c F6B2     		uxtb	r6, r6
 746 026e A642     		cmp	r6, r4
 747 0270 7FF41CAF 		bne	.L23
 748              	.LVL88:
 749              	.L74:
 750              		.loc 1 161 0 is_stmt 0 discriminator 1
 751 0274 98F80030 		ldrb	r3, [r8]	@ zero_extendqisi2
 752 0278 9D42     		cmp	r5, r3
 753 027a 7FF417AF 		bne	.L23
 754              		.loc 1 161 0 discriminator 2
 755 027e FFF7FEFF 		bl	mc_interface_get_fault
 756              	.LVL89:
 757 0282 0446     		mov	r4, r0
 758 0284 0028     		cmp	r0, #0
 759 0286 7FF411AF 		bne	.L23
 760              		.loc 1 162 0 is_stmt 1
 761 028a 364B     		ldr	r3, .L85+32
 762 028c 9FED361A 		flds	s2, .L85+36
 763 0290 1B8A     		ldrh	r3, [r3, #16]
 764 0292 DFED311A 		flds	s3, .L85+20
 765 0296 9BB2     		uxth	r3, r3
 766 0298 07EE903A 		fmsr	s15, r3	@ int
 767 029c B8EE670A 		fuitos	s0, s15
 768 02a0 F3EE0C0A 		fconsts	s1, #60
 769 02a4 20EE2A0A 		fmuls	s0, s0, s21
 770 02a8 B7EE002A 		fconsts	s4, #112
 771 02ac 20EE0A0A 		fmuls	s0, s0, s20
 772 02b0 FFF7FEFF 		bl	utils_map
 773              	.LVL90:
 774 02b4 B2EE0C8A 		fconsts	s16, #44
 775              	.LBB157:
 776              		.loc 1 163 0
 777 02b8 A346     		mov	fp, r4
 778 02ba 20EE088A 		fmuls	s16, s0, s16
 779              	.LBE157:
 780              		.loc 1 162 0
 781 02be 1B24     		movs	r4, #27
 782 02c0 13E0     		b	.L52
 783              	.LVL91:
 784              	.L84:
 785              	.LBB158:
 786              		.loc 1 165 0
 787 02c2 BBF1030F 		cmp	fp, #3
 788              		.loc 1 169 0
 789 02c6 2949     		ldr	r1, .L85+40
 790              		.loc 1 165 0
 791 02c8 58DD     		ble	.L82
 792              		.loc 1 168 0
 793 02ca BBF1080F 		cmp	fp, #8
 794 02ce 2EDC     		bgt	.L51
 795              		.loc 1 169 0
 796 02d0 FFF7FEFF 		bl	set_led_wrapper
 797              	.LVL92:
 798              		.loc 1 170 0
ARM GAS  /tmp/cc0TOxRm.s 			page 15


 799 02d4 2046     		mov	r0, r4
 800 02d6 2549     		ldr	r1, .L85+40
 801 02d8 FFF7FEFF 		bl	set_led_wrapper
 802              	.LVL93:
 803              	.L50:
 804              		.loc 1 163 0 discriminator 2
 805 02dc 0BF1010B 		add	fp, fp, #1
 806              	.LVL94:
 807 02e0 BBF10E0F 		cmp	fp, #14
 808 02e4 04F1FF34 		add	r4, r4, #-1
 809 02e8 17D0     		beq	.L83
 810              	.LVL95:
 811              	.L52:
 812              		.loc 1 164 0
 813 02ea 07EE90BA 		fmsr	s15, fp	@ int
 814 02ee F8EEE77A 		fsitos	s15, s15
 815              		.loc 1 169 0
 816 02f2 5846     		mov	r0, fp
 817              		.loc 1 164 0
 818 02f4 B4EEE78A 		fcmpes	s16, s15
 819 02f8 F1EE10FA 		fmstat
 820 02fc E1DC     		bgt	.L84
 821              		.loc 1 176 0
 822 02fe 0021     		movs	r1, #0
 823 0300 FFF7FEFF 		bl	set_led_wrapper
 824              	.LVL96:
 825              		.loc 1 163 0
 826 0304 0BF1010B 		add	fp, fp, #1
 827              	.LVL97:
 828              		.loc 1 177 0
 829 0308 2046     		mov	r0, r4
 830 030a 0021     		movs	r1, #0
 831 030c FFF7FEFF 		bl	set_led_wrapper
 832              	.LVL98:
 833              		.loc 1 163 0
 834 0310 BBF10E0F 		cmp	fp, #14
 835 0314 04F1FF34 		add	r4, r4, #-1
 836 0318 E7D1     		bne	.L52
 837              	.L83:
 838              	.LBE158:
 839              		.loc 1 180 0
 840 031a 6420     		movs	r0, #100
 841 031c FFF7FEFF 		bl	chThdSleep
 842              	.LVL99:
 843              		.loc 1 161 0
 844 0320 3B78     		ldrb	r3, [r7]	@ zero_extendqisi2
 845 0322 9E42     		cmp	r6, r3
 846 0324 A6D0     		beq	.L74
 847              	.LBE175:
 848              		.loc 1 190 0
 849 0326 0A20     		movs	r0, #10
 850 0328 FFF7FEFF 		bl	chThdSleep
 851              	.LVL100:
 852 032c C1E6     		b	.L80
 853              	.LVL101:
 854              	.L51:
 855              	.LBB176:
ARM GAS  /tmp/cc0TOxRm.s 			page 16


 856              	.LBB159:
 857              		.loc 1 172 0
 858 032e 5846     		mov	r0, fp
 859              	.LVL102:
 860 0330 4FF47F41 		mov	r1, #65280
 861 0334 FFF7FEFF 		bl	set_led_wrapper
 862              	.LVL103:
 863              		.loc 1 173 0
 864 0338 2046     		mov	r0, r4
 865 033a 4FF47F41 		mov	r1, #65280
 866 033e FFF7FEFF 		bl	set_led_wrapper
 867              	.LVL104:
 868 0342 CBE7     		b	.L50
 869              	.L86:
 870              		.align	2
 871              	.L85:
 872 0344 00000000 		.word	.LC0
 873 0348 00000000 		.word	.LANCHOR0
 874 034c 6740533A 		.word	978534503
 875 0350 74D19541 		.word	1100337524
 876 0354 0AD7A33C 		.word	1017370378
 877 0358 00000000 		.word	0
 878 035c 00007F43 		.word	1132396544
 879 0360 00A5FF00 		.word	16753920
 880 0364 00000000 		.word	ADC_Value
 881 0368 00000442 		.word	1107558400
 882 036c 00FFFF00 		.word	16776960
 883 0370 00000000 		.word	ch
 884 0374 00000000 		.word	.LANCHOR1
 885 0378 5917B7D1 		.word	-776530087
 886              	.LVL105:
 887              	.L82:
 888              		.loc 1 166 0
 889 037c 4FF47F01 		mov	r1, #16711680
 890 0380 FFF7FEFF 		bl	set_led_wrapper
 891              	.LVL106:
 892              		.loc 1 167 0
 893 0384 2046     		mov	r0, r4
 894 0386 4FF47F01 		mov	r1, #16711680
 895 038a FFF7FEFF 		bl	set_led_wrapper
 896              	.LVL107:
 897 038e A5E7     		b	.L50
 898              	.LVL108:
 899              	.L24:
 900              	.LBE159:
 901              		.loc 1 185 0
 902 0390 6420     		movs	r0, #100
 903              	.LVL109:
 904 0392 FFF7FEFF 		bl	chThdSleep
 905              	.LVL110:
 906              	.LBE176:
 907              		.loc 1 190 0
 908 0396 0A20     		movs	r0, #10
 909 0398 FFF7FEFF 		bl	chThdSleep
 910              	.LVL111:
 911 039c 89E6     		b	.L80
 912              	.LBE178:
ARM GAS  /tmp/cc0TOxRm.s 			page 17


 913              		.cfi_endproc
 914              	.LFE259:
 915              		.size	led_thread, .-led_thread
 916 039e 00BF     		.section	.text.led_external_init,"ax",%progbits
 917              		.align	2
 918              		.p2align 4,,15
 919              		.global	led_external_init
 920              		.thumb
 921              		.thumb_func
 922              		.type	led_external_init, %function
 923              	led_external_init:
 924              	.LFB256:
 925              		.loc 1 47 0
 926              		.cfi_startproc
 927              		@ args = 0, pretend = 0, frame = 0
 928              		@ frame_needed = 0, uses_anonymous_args = 0
 929 0000 70B5     		push	{r4, r5, r6, lr}
 930              		.cfi_def_cfa_offset 16
 931              		.cfi_offset 4, -16
 932              		.cfi_offset 5, -12
 933              		.cfi_offset 6, -8
 934              		.cfi_offset 14, -4
 935 0002 82B0     		sub	sp, sp, #8
 936              		.cfi_def_cfa_offset 24
 937              		.loc 1 48 0
 938 0004 0024     		movs	r4, #0
 939 0006 074E     		ldr	r6, .L89
 940              		.loc 1 49 0
 941 0008 074D     		ldr	r5, .L89+4
 942              		.loc 1 50 0
 943 000a 084B     		ldr	r3, .L89+8
 944 000c 0094     		str	r4, [sp]
 945 000e 4FF4B361 		mov	r1, #1432
 946 0012 0222     		movs	r2, #2
 947 0014 0648     		ldr	r0, .L89+12
 948              		.loc 1 48 0
 949 0016 3470     		strb	r4, [r6]
 950              		.loc 1 49 0
 951 0018 2C70     		strb	r4, [r5]
 952              		.loc 1 50 0
 953 001a FFF7FEFF 		bl	chThdCreateStatic
 954              	.LVL112:
 955              		.loc 1 51 0
 956 001e 02B0     		add	sp, sp, #8
 957              		.cfi_def_cfa_offset 16
 958              		@ sp needed
 959 0020 70BD     		pop	{r4, r5, r6, pc}
 960              	.L90:
 961 0022 00BF     		.align	2
 962              	.L89:
 963 0024 00000000 		.word	.LANCHOR1
 964 0028 00000000 		.word	.LANCHOR0
 965 002c 00000000 		.word	led_thread
 966 0030 00000000 		.word	.LANCHOR2
 967              		.cfi_endproc
 968              	.LFE256:
 969              		.size	led_external_init, .-led_external_init
ARM GAS  /tmp/cc0TOxRm.s 			page 18


 970              		.section	.text.led_external_set_state,"ax",%progbits
 971              		.align	2
 972              		.p2align 4,,15
 973              		.global	led_external_set_state
 974              		.thumb
 975              		.thumb_func
 976              		.type	led_external_set_state, %function
 977              	led_external_set_state:
 978              	.LFB257:
 979              		.loc 1 53 0
 980              		.cfi_startproc
 981              		@ args = 0, pretend = 0, frame = 0
 982              		@ frame_needed = 0, uses_anonymous_args = 0
 983              		@ link register save eliminated.
 984              	.LVL113:
 985              		.loc 1 54 0
 986 0000 014B     		ldr	r3, .L92
 987 0002 1870     		strb	r0, [r3]
 988 0004 7047     		bx	lr
 989              	.L93:
 990 0006 00BF     		.align	2
 991              	.L92:
 992 0008 00000000 		.word	.LANCHOR0
 993              		.cfi_endproc
 994              	.LFE257:
 995              		.size	led_external_set_state, .-led_external_set_state
 996              		.section	.text.led_external_set_reversed,"ax",%progbits
 997              		.align	2
 998              		.p2align 4,,15
 999              		.global	led_external_set_reversed
 1000              		.thumb
 1001              		.thumb_func
 1002              		.type	led_external_set_reversed, %function
 1003              	led_external_set_reversed:
 1004              	.LFB258:
 1005              		.loc 1 57 0
 1006              		.cfi_startproc
 1007              		@ args = 0, pretend = 0, frame = 0
 1008              		@ frame_needed = 0, uses_anonymous_args = 0
 1009              		@ link register save eliminated.
 1010              	.LVL114:
 1011              		.loc 1 58 0
 1012 0000 014B     		ldr	r3, .L95
 1013 0002 1870     		strb	r0, [r3]
 1014 0004 7047     		bx	lr
 1015              	.L96:
 1016 0006 00BF     		.align	2
 1017              	.L95:
 1018 0008 00000000 		.word	.LANCHOR1
 1019              		.cfi_endproc
 1020              	.LFE258:
 1021              		.size	led_external_set_reversed, .-led_external_set_reversed
 1022              		.section	.bss.reverse_leds,"aw",%nobits
 1023              		.set	.LANCHOR1,. + 0
 1024              		.type	reverse_leds, %object
 1025              		.size	reverse_leds, 1
 1026              	reverse_leds:
ARM GAS  /tmp/cc0TOxRm.s 			page 19


 1027 0000 00       		.space	1
 1028              		.section	.bss.state,"aw",%nobits
 1029              		.set	.LANCHOR0,. + 0
 1030              		.type	state, %object
 1031              		.size	state, 1
 1032              	state:
 1033 0000 00       		.space	1
 1034              		.section	.rodata.str1.4,"aMS",%progbits,1
 1035              		.align	2
 1036              	.LC0:
 1037 0000 4C454473 		.ascii	"LEDs External\000"
 1037      20457874 
 1037      65726E61 
 1037      6C00
 1038              		.section	.bss.led_thread_wa,"aw",%nobits
 1039              		.align	3
 1040              		.set	.LANCHOR2,. + 0
 1041              		.type	led_thread_wa, %object
 1042              		.size	led_thread_wa, 1432
 1043              	led_thread_wa:
 1044 0000 00000000 		.space	1432
 1044      00000000 
 1044      00000000 
 1044      00000000 
 1044      00000000 
 1045              		.text
 1046              	.Letext0:
 1047              		.file 5 "/usr/arm-none-eabi/include/machine/_default_types.h"
 1048              		.file 6 "/usr/arm-none-eabi/include/sys/_stdint.h"
 1049              		.file 7 "/usr/lib/gcc/arm-none-eabi/4.9.3/include/stddef.h"
 1050              		.file 8 "ChibiOS_3.0.2/os/rt/ports/ARMCMx/compilers/GCC/chtypes.h"
 1051              		.file 9 "ChibiOS_3.0.2/os/rt/include/chsystypes.h"
 1052              		.file 10 "ChibiOS_3.0.2/os/rt/include/chschd.h"
 1053              		.file 11 "ChibiOS_3.0.2/os/rt/ports/ARMCMx/chcore.h"
 1054              		.file 12 "ChibiOS_3.0.2/os/rt/ports/ARMCMx/chcore_v7m.h"
 1055              		.file 13 "ChibiOS_3.0.2/os/rt/include/chtm.h"
 1056              		.file 14 "ChibiOS_3.0.2/os/rt/include/chsem.h"
 1057              		.file 15 "ChibiOS_3.0.2/os/rt/include/chmtx.h"
 1058              		.file 16 "ChibiOS_3.0.2/os/rt/include/chthreads.h"
 1059              		.file 17 "datatypes.h"
 1060              		.file 18 "ChibiOS_3.0.2/os/rt/include/chsys.h"
 1061              		.file 19 "ChibiOS_3.0.2/os/ext/CMSIS/include/core_cm4.h"
 1062              		.file 20 "mc_interface.h"
 1063              		.file 21 "ws2811.h"
 1064              		.file 22 "utils.h"