ARM GAS  /tmp/ccr2h6ke.s 			page 1


   1              		.syntax unified
   2              		.cpu cortex-m4
   3              		.eabi_attribute 27, 1
   4              		.eabi_attribute 28, 1
   5              		.fpu fpv4-sp-d16
   6              		.eabi_attribute 20, 1
   7              		.eabi_attribute 21, 1
   8              		.eabi_attribute 23, 3
   9              		.eabi_attribute 24, 1
  10              		.eabi_attribute 25, 1
  11              		.eabi_attribute 26, 1
  12              		.eabi_attribute 30, 2
  13              		.eabi_attribute 34, 1
  14              		.eabi_attribute 18, 4
  15              		.thumb
  16              		.file	"ledpwm.c"
  17              		.text
  18              	.Ltext0:
  19              		.cfi_sections	.debug_frame
  20              		.section	.text.ledpwm_init,"ax",%progbits
  21              		.align	2
  22              		.p2align 4,,15
  23              		.global	ledpwm_init
  24              		.thumb
  25              		.thumb_func
  26              		.type	ledpwm_init, %function
  27              	ledpwm_init:
  28              	.LFB256:
  29              		.file 1 "ledpwm.c"
  30              		.loc 1 36 0
  31              		.cfi_startproc
  32              		@ args = 0, pretend = 0, frame = 0
  33              		@ frame_needed = 0, uses_anonymous_args = 0
  34 0000 38B5     		push	{r3, r4, r5, lr}
  35              		.cfi_def_cfa_offset 16
  36              		.cfi_offset 3, -16
  37              		.cfi_offset 4, -12
  38              		.cfi_offset 5, -8
  39              		.cfi_offset 14, -4
  40              		.loc 1 37 0
  41 0002 114B     		ldr	r3, .L6
  42 0004 114D     		ldr	r5, .L6+4
  43              		.loc 1 36 0
  44 0006 2DED028B 		fstmfdd	sp!, {d8}
  45              		.cfi_def_cfa_offset 24
  46              		.cfi_offset 80, -24
  47              		.cfi_offset 81, -20
  48              		.loc 1 37 0
  49 000a 0024     		movs	r4, #0
  50              	.LBB2:
  51              		.loc 1 41 0
  52 000c 9FED108A 		flds	s16, .L6+8
  53              	.LBE2:
  54              		.loc 1 37 0
  55 0010 1C60     		str	r4, [r3]
  56 0012 5C60     		str	r4, [r3, #4]
  57              	.LVL0:
ARM GAS  /tmp/ccr2h6ke.s 			page 2


  58              	.L2:
  59              	.LBB3:
  60              		.loc 1 41 0 discriminator 3
  61 0014 07EE904A 		fmsr	s15, r4	@ int
  62 0018 B8EEE70A 		fsitos	s0, s15
  63 001c DFED0D0A 		flds	s1, .L6+12
  64 0020 80EE080A 		fdivs	s0, s0, s16
  65 0024 FFF7FEFF 		bl	powf
  66              	.LVL1:
  67              		.loc 1 40 0 discriminator 3
  68 0028 0134     		adds	r4, r4, #1
  69              	.LVL2:
  70              		.loc 1 41 0 discriminator 3
  71 002a 20EE080A 		fmuls	s0, s0, s16
  72 002e FFF7FEFF 		bl	roundf
  73              	.LVL3:
  74 0032 FDEEC07A 		ftosizs	s15, s0
  75              		.loc 1 40 0 discriminator 3
  76 0036 C92C     		cmp	r4, #201
  77              		.loc 1 41 0 discriminator 3
  78 0038 17EE903A 		fmrs	r3, s15	@ int
  79 003c 05F8013F 		strb	r3, [r5, #1]!
  80              		.loc 1 40 0 discriminator 3
  81 0040 E8D1     		bne	.L2
  82              	.LBE3:
  83              		.loc 1 43 0
  84 0042 BDEC028B 		fldmfdd	sp!, {d8}
  85              		.cfi_restore 80
  86              		.cfi_restore 81
  87              		.cfi_def_cfa_offset 16
  88 0046 38BD     		pop	{r3, r4, r5, pc}
  89              	.LVL4:
  90              	.L7:
  91              		.align	2
  92              	.L6:
  93 0048 00000000 		.word	.LANCHOR0
  94 004c FFFFFFFF 		.word	.LANCHOR1-1
  95 0050 00004843 		.word	1128792064
  96 0054 E4380E40 		.word	1074673892
  97              		.cfi_endproc
  98              	.LFE256:
  99              		.size	ledpwm_init, .-ledpwm_init
 100              		.section	.text.ledpwm_set_intensity,"ax",%progbits
 101              		.align	2
 102              		.p2align 4,,15
 103              		.global	ledpwm_set_intensity
 104              		.thumb
 105              		.thumb_func
 106              		.type	ledpwm_set_intensity, %function
 107              	ledpwm_set_intensity:
 108              	.LFB257:
 109              		.loc 1 51 0
 110              		.cfi_startproc
 111              		@ args = 0, pretend = 0, frame = 0
 112              		@ frame_needed = 0, uses_anonymous_args = 0
 113              		@ link register save eliminated.
 114              	.LVL5:
ARM GAS  /tmp/ccr2h6ke.s 			page 3


 115              		.loc 1 52 0
 116 0000 0128     		cmp	r0, #1
 117 0002 00D9     		bls	.L13
 118 0004 7047     		bx	lr
 119              	.L13:
 120              		.loc 1 56 0
 121 0006 B5EEC00A 		fcmpezs	s0
 122 000a F1EE10FA 		fmstat
 123 000e 0ED4     		bmi	.L11
 124              		.loc 1 60 0
 125 0010 F7EE007A 		fconsts	s15, #112
 126 0014 B4EEE70A 		fcmpes	s0, s15
 127 0018 F1EE10FA 		fmstat
 128 001c C8BF     		it	gt
 129 001e C823     		movgt	r3, #200
 130 0020 07DD     		ble	.L14
 131              	.LVL6:
 132              	.L10:
 133              		.loc 1 64 0
 134 0022 0849     		ldr	r1, .L15
 135 0024 084A     		ldr	r2, .L15+4
 136 0026 CB5C     		ldrb	r3, [r1, r3]	@ zero_extendqisi2
 137 0028 42F82030 		str	r3, [r2, r0, lsl #2]
 138 002c 7047     		bx	lr
 139              	.LVL7:
 140              	.L11:
 141 002e 0023     		movs	r3, #0
 142 0030 F7E7     		b	.L10
 143              	.L14:
 144 0032 DFED067A 		flds	s15, .L15+8
 145 0036 20EE270A 		fmuls	s0, s0, s15
 146              	.LVL8:
 147 003a FDEEC07A 		ftosizs	s15, s0
 148 003e 17EE903A 		fmrs	r3, s15	@ int
 149 0042 EEE7     		b	.L10
 150              	.L16:
 151              		.align	2
 152              	.L15:
 153 0044 00000000 		.word	.LANCHOR1
 154 0048 00000000 		.word	.LANCHOR0
 155 004c 00004843 		.word	1128792064
 156              		.cfi_endproc
 157              	.LFE257:
 158              		.size	ledpwm_set_intensity, .-ledpwm_set_intensity
 159              		.section	.text.ledpwm_led_on,"ax",%progbits
 160              		.align	2
 161              		.p2align 4,,15
 162              		.global	ledpwm_led_on
 163              		.thumb
 164              		.thumb_func
 165              		.type	ledpwm_led_on, %function
 166              	ledpwm_led_on:
 167              	.LFB258:
 168              		.loc 1 67 0
 169              		.cfi_startproc
 170              		@ args = 0, pretend = 0, frame = 0
 171              		@ frame_needed = 0, uses_anonymous_args = 0
ARM GAS  /tmp/ccr2h6ke.s 			page 4


 172              		@ link register save eliminated.
 173              	.LVL9:
 174              		.loc 1 68 0
 175 0000 0128     		cmp	r0, #1
 176 0002 03DC     		bgt	.L17
 177              		.loc 1 72 0
 178 0004 024B     		ldr	r3, .L19
 179 0006 C822     		movs	r2, #200
 180 0008 43F82020 		str	r2, [r3, r0, lsl #2]
 181              	.L17:
 182 000c 7047     		bx	lr
 183              	.L20:
 184 000e 00BF     		.align	2
 185              	.L19:
 186 0010 00000000 		.word	.LANCHOR0
 187              		.cfi_endproc
 188              	.LFE258:
 189              		.size	ledpwm_led_on, .-ledpwm_led_on
 190              		.section	.text.ledpwm_led_off,"ax",%progbits
 191              		.align	2
 192              		.p2align 4,,15
 193              		.global	ledpwm_led_off
 194              		.thumb
 195              		.thumb_func
 196              		.type	ledpwm_led_off, %function
 197              	ledpwm_led_off:
 198              	.LFB259:
 199              		.loc 1 75 0
 200              		.cfi_startproc
 201              		@ args = 0, pretend = 0, frame = 0
 202              		@ frame_needed = 0, uses_anonymous_args = 0
 203              		@ link register save eliminated.
 204              	.LVL10:
 205              		.loc 1 76 0
 206 0000 0128     		cmp	r0, #1
 207 0002 03DC     		bgt	.L21
 208              		.loc 1 80 0
 209 0004 024B     		ldr	r3, .L23
 210 0006 0022     		movs	r2, #0
 211 0008 43F82020 		str	r2, [r3, r0, lsl #2]
 212              	.L21:
 213 000c 7047     		bx	lr
 214              	.L24:
 215 000e 00BF     		.align	2
 216              	.L23:
 217 0010 00000000 		.word	.LANCHOR0
 218              		.cfi_endproc
 219              	.LFE259:
 220              		.size	ledpwm_led_off, .-ledpwm_led_off
 221              		.section	.text.ledpwm_update_pwm,"ax",%progbits
 222              		.align	2
 223              		.p2align 4,,15
 224              		.global	ledpwm_update_pwm
 225              		.thumb
 226              		.thumb_func
 227              		.type	ledpwm_update_pwm, %function
 228              	ledpwm_update_pwm:
ARM GAS  /tmp/ccr2h6ke.s 			page 5


 229              	.LFB260:
 230              		.loc 1 86 0
 231              		.cfi_startproc
 232              		@ args = 0, pretend = 0, frame = 0
 233              		@ frame_needed = 0, uses_anonymous_args = 0
 234              		@ link register save eliminated.
 235              		.loc 1 88 0
 236 0000 0C4A     		ldr	r2, .L33
 237 0002 1368     		ldr	r3, [r2]
 238 0004 0133     		adds	r3, r3, #1
 239              		.loc 1 89 0
 240 0006 C82B     		cmp	r3, #200
 241              		.loc 1 90 0
 242 0008 08BF     		it	eq
 243 000a 0023     		moveq	r3, #0
 244 000c 1360     		str	r3, [r2]
 245              		.loc 1 93 0
 246 000e 0A4A     		ldr	r2, .L33+4
 247 0010 1168     		ldr	r1, [r2]
 248 0012 9942     		cmp	r1, r3
 249              		.loc 1 94 0
 250 0014 0949     		ldr	r1, .L33+8
 251 0016 4FF01000 		mov	r0, #16
 252 001a D4BF     		ite	le
 253 001c 4883     		strhle	r0, [r1, #26]	@ movhi
 254              		.loc 1 96 0
 255 001e 0883     		strhgt	r0, [r1, #24]	@ movhi
 256              		.loc 1 99 0
 257 0020 5268     		ldr	r2, [r2, #4]
 258 0022 9A42     		cmp	r2, r3
 259              		.loc 1 100 0
 260 0024 054B     		ldr	r3, .L33+8
 261 0026 4FF02002 		mov	r2, #32
 262 002a D4BF     		ite	le
 263 002c 5A83     		strhle	r2, [r3, #26]	@ movhi
 264              		.loc 1 102 0
 265 002e 1A83     		strhgt	r2, [r3, #24]	@ movhi
 266 0030 7047     		bx	lr
 267              	.L34:
 268 0032 00BF     		.align	2
 269              	.L33:
 270 0034 00000000 		.word	.LANCHOR2
 271 0038 00000000 		.word	.LANCHOR0
 272 003c 00080240 		.word	1073874944
 273              		.cfi_endproc
 274              	.LFE260:
 275              		.size	ledpwm_update_pwm, .-ledpwm_update_pwm
 276              		.section	.bss.led_values,"aw",%nobits
 277              		.align	2
 278              		.set	.LANCHOR0,. + 0
 279              		.type	led_values, %object
 280              		.size	led_values, 8
 281              	led_values:
 282 0000 00000000 		.space	8
 282      00000000 
 283              		.section	.bss.cnt.9811,"aw",%nobits
 284              		.align	2
ARM GAS  /tmp/ccr2h6ke.s 			page 6


 285              		.set	.LANCHOR2,. + 0
 286              		.type	cnt.9811, %object
 287              		.size	cnt.9811, 4
 288              	cnt.9811:
 289 0000 00000000 		.space	4
 290              		.section	.bss.gamma_table,"aw",%nobits
 291              		.align	2
 292              		.set	.LANCHOR1,. + 0
 293              		.type	gamma_table, %object
 294              		.size	gamma_table, 201
 295              	gamma_table:
 296 0000 00000000 		.space	201
 296      00000000 
 296      00000000 
 296      00000000 
 296      00000000 
 297              		.text
 298              	.Letext0:
 299              		.file 2 "/usr/lib/gcc/arm-none-eabi/4.9.3/include/stddef.h"
 300              		.file 3 "/usr/arm-none-eabi/include/machine/_default_types.h"
 301              		.file 4 "/usr/arm-none-eabi/include/sys/_stdint.h"
 302              		.file 5 "ChibiOS_3.0.2/os/rt/ports/ARMCMx/compilers/GCC/chtypes.h"
 303              		.file 6 "ChibiOS_3.0.2/os/rt/include/chsystypes.h"
 304              		.file 7 "ChibiOS_3.0.2/os/rt/include/chschd.h"
 305              		.file 8 "ChibiOS_3.0.2/os/rt/ports/ARMCMx/chcore.h"
 306              		.file 9 "ChibiOS_3.0.2/os/rt/ports/ARMCMx/chcore_v7m.h"
 307              		.file 10 "ChibiOS_3.0.2/os/rt/include/chtm.h"
 308              		.file 11 "ChibiOS_3.0.2/os/rt/include/chsem.h"
 309              		.file 12 "ChibiOS_3.0.2/os/rt/include/chmtx.h"
 310              		.file 13 "ChibiOS_3.0.2/os/hal/ports/STM32/LLD/GPIOv2/pal_lld.h"
 311              		.file 14 "ChibiOS_3.0.2/os/ext/CMSIS/include/core_cm4.h"
 312              		.file 15 "/usr/arm-none-eabi/include/math.h"