ARM GAS  /tmp/ccVIe4kR.s 			page 1


   1              		.syntax unified
   2              		.cpu cortex-m4
   3              		.eabi_attribute 27, 1
   4              		.eabi_attribute 28, 1
   5              		.fpu fpv4-sp-d16
   6              		.eabi_attribute 20, 1
   7              		.eabi_attribute 21, 1
   8              		.eabi_attribute 23, 3
   9              		.eabi_attribute 24, 1
  10              		.eabi_attribute 25, 1
  11              		.eabi_attribute 26, 1
  12              		.eabi_attribute 30, 2
  13              		.eabi_attribute 34, 1
  14              		.eabi_attribute 18, 4
  15              		.thumb
  16              		.file	"mcpwm_foc.c"
  17              		.text
  18              	.Ltext0:
  19              		.cfi_sections	.debug_frame
  20              		.section	.text.stop_pwm_hw,"ax",%progbits
  21              		.align	2
  22              		.p2align 4,,15
  23              		.thumb
  24              		.thumb_func
  25              		.type	stop_pwm_hw, %function
  26              	stop_pwm_hw:
  27              	.LFB305:
  28              		.file 1 "mcpwm_foc.c"
  29              		.loc 1 2096 0
  30              		.cfi_startproc
  31              		@ args = 0, pretend = 0, frame = 0
  32              		@ frame_needed = 0, uses_anonymous_args = 0
  33 0000 10B5     		push	{r4, lr}
  34              		.cfi_def_cfa_offset 8
  35              		.cfi_offset 4, -8
  36              		.cfi_offset 14, -4
  37              		.loc 1 2097 0
  38 0002 1B4C     		ldr	r4, .L3
  39 0004 0021     		movs	r1, #0
  40 0006 2046     		mov	r0, r4
  41 0008 4022     		movs	r2, #64
  42 000a FFF7FEFF 		bl	TIM_SelectOCxM
  43              	.LVL0:
  44              		.loc 1 2098 0
  45 000e 2046     		mov	r0, r4
  46 0010 0021     		movs	r1, #0
  47 0012 0122     		movs	r2, #1
  48 0014 FFF7FEFF 		bl	TIM_CCxCmd
  49              	.LVL1:
  50              		.loc 1 2099 0
  51 0018 0021     		movs	r1, #0
  52 001a 0A46     		mov	r2, r1
  53 001c 2046     		mov	r0, r4
  54 001e FFF7FEFF 		bl	TIM_CCxNCmd
  55              	.LVL2:
  56              		.loc 1 2101 0
  57 0022 2046     		mov	r0, r4
ARM GAS  /tmp/ccVIe4kR.s 			page 2


  58 0024 0421     		movs	r1, #4
  59 0026 4022     		movs	r2, #64
  60 0028 FFF7FEFF 		bl	TIM_SelectOCxM
  61              	.LVL3:
  62              		.loc 1 2102 0
  63 002c 2046     		mov	r0, r4
  64 002e 0421     		movs	r1, #4
  65 0030 0122     		movs	r2, #1
  66 0032 FFF7FEFF 		bl	TIM_CCxCmd
  67              	.LVL4:
  68              		.loc 1 2103 0
  69 0036 2046     		mov	r0, r4
  70 0038 0421     		movs	r1, #4
  71 003a 0022     		movs	r2, #0
  72 003c FFF7FEFF 		bl	TIM_CCxNCmd
  73              	.LVL5:
  74              		.loc 1 2105 0
  75 0040 2046     		mov	r0, r4
  76 0042 0821     		movs	r1, #8
  77 0044 4022     		movs	r2, #64
  78 0046 FFF7FEFF 		bl	TIM_SelectOCxM
  79              	.LVL6:
  80              		.loc 1 2106 0
  81 004a 2046     		mov	r0, r4
  82 004c 0821     		movs	r1, #8
  83 004e 0122     		movs	r2, #1
  84 0050 FFF7FEFF 		bl	TIM_CCxCmd
  85              	.LVL7:
  86              		.loc 1 2107 0
  87 0054 0022     		movs	r2, #0
  88 0056 2046     		mov	r0, r4
  89 0058 0821     		movs	r1, #8
  90 005a FFF7FEFF 		bl	TIM_CCxNCmd
  91              	.LVL8:
  92              		.loc 1 2109 0
  93 005e 2046     		mov	r0, r4
  94 0060 2021     		movs	r1, #32
  95 0062 FFF7FEFF 		bl	TIM_GenerateEvent
  96              	.LVL9:
  97              		.loc 1 2111 0
  98 0066 034B     		ldr	r3, .L3+4
  99 0068 0022     		movs	r2, #0
 100 006a 1A70     		strb	r2, [r3]
 101 006c 10BD     		pop	{r4, pc}
 102              	.L4:
 103 006e 00BF     		.align	2
 104              	.L3:
 105 0070 00000140 		.word	1073807360
 106 0074 00000000 		.word	.LANCHOR0
 107              		.cfi_endproc
 108              	.LFE305:
 109              		.size	stop_pwm_hw, .-stop_pwm_hw
 110              		.section	.text.start_pwm_hw,"ax",%progbits
 111              		.align	2
 112              		.p2align 4,,15
 113              		.thumb
 114              		.thumb_func
ARM GAS  /tmp/ccVIe4kR.s 			page 3


 115              		.type	start_pwm_hw, %function
 116              	start_pwm_hw:
 117              	.LFB306:
 118              		.loc 1 2114 0
 119              		.cfi_startproc
 120              		@ args = 0, pretend = 0, frame = 0
 121              		@ frame_needed = 0, uses_anonymous_args = 0
 122 0000 10B5     		push	{r4, lr}
 123              		.cfi_def_cfa_offset 8
 124              		.cfi_offset 4, -8
 125              		.cfi_offset 14, -4
 126              		.loc 1 2115 0
 127 0002 1B4C     		ldr	r4, .L7
 128 0004 0021     		movs	r1, #0
 129 0006 2046     		mov	r0, r4
 130 0008 6022     		movs	r2, #96
 131 000a FFF7FEFF 		bl	TIM_SelectOCxM
 132              	.LVL10:
 133              		.loc 1 2116 0
 134 000e 2046     		mov	r0, r4
 135 0010 0021     		movs	r1, #0
 136 0012 0122     		movs	r2, #1
 137 0014 FFF7FEFF 		bl	TIM_CCxCmd
 138              	.LVL11:
 139              		.loc 1 2117 0
 140 0018 2046     		mov	r0, r4
 141 001a 0021     		movs	r1, #0
 142 001c 0422     		movs	r2, #4
 143 001e FFF7FEFF 		bl	TIM_CCxNCmd
 144              	.LVL12:
 145              		.loc 1 2119 0
 146 0022 2046     		mov	r0, r4
 147 0024 0421     		movs	r1, #4
 148 0026 6022     		movs	r2, #96
 149 0028 FFF7FEFF 		bl	TIM_SelectOCxM
 150              	.LVL13:
 151              		.loc 1 2120 0
 152 002c 2046     		mov	r0, r4
 153 002e 0421     		movs	r1, #4
 154 0030 0122     		movs	r2, #1
 155 0032 FFF7FEFF 		bl	TIM_CCxCmd
 156              	.LVL14:
 157              		.loc 1 2121 0
 158 0036 0421     		movs	r1, #4
 159 0038 0A46     		mov	r2, r1
 160 003a 2046     		mov	r0, r4
 161 003c FFF7FEFF 		bl	TIM_CCxNCmd
 162              	.LVL15:
 163              		.loc 1 2123 0
 164 0040 2046     		mov	r0, r4
 165 0042 0821     		movs	r1, #8
 166 0044 6022     		movs	r2, #96
 167 0046 FFF7FEFF 		bl	TIM_SelectOCxM
 168              	.LVL16:
 169              		.loc 1 2124 0
 170 004a 2046     		mov	r0, r4
 171 004c 0821     		movs	r1, #8
ARM GAS  /tmp/ccVIe4kR.s 			page 4


 172 004e 0122     		movs	r2, #1
 173 0050 FFF7FEFF 		bl	TIM_CCxCmd
 174              	.LVL17:
 175              		.loc 1 2125 0
 176 0054 0422     		movs	r2, #4
 177 0056 2046     		mov	r0, r4
 178 0058 0821     		movs	r1, #8
 179 005a FFF7FEFF 		bl	TIM_CCxNCmd
 180              	.LVL18:
 181              		.loc 1 2127 0
 182 005e 2046     		mov	r0, r4
 183 0060 2021     		movs	r1, #32
 184 0062 FFF7FEFF 		bl	TIM_GenerateEvent
 185              	.LVL19:
 186              		.loc 1 2129 0
 187 0066 034B     		ldr	r3, .L7+4
 188 0068 0122     		movs	r2, #1
 189 006a 1A70     		strb	r2, [r3]
 190 006c 10BD     		pop	{r4, pc}
 191              	.L8:
 192 006e 00BF     		.align	2
 193              	.L7:
 194 0070 00000140 		.word	1073807360
 195 0074 00000000 		.word	.LANCHOR0
 196              		.cfi_endproc
 197              	.LFE306:
 198              		.size	start_pwm_hw, .-start_pwm_hw
 199              		.section	.text.correct_hall,"ax",%progbits
 200              		.align	2
 201              		.p2align 4,,15
 202              		.thumb
 203              		.thumb_func
 204              		.type	correct_hall, %function
 205              	correct_hall:
 206              	.LFB308:
 207              		.loc 1 2136 0
 208              		.cfi_startproc
 209              		@ args = 0, pretend = 0, frame = 0
 210              		@ frame_needed = 0, uses_anonymous_args = 0
 211              	.LVL20:
 212              		.loc 1 2138 0
 213 0000 DFED767A 		flds	s15, .L47
 214 0004 C0EEA77A 		fdivs	s15, s1, s15
 215              		.loc 1 2136 0
 216 0008 38B5     		push	{r3, r4, r5, lr}
 217              		.cfi_def_cfa_offset 16
 218              		.cfi_offset 3, -16
 219              		.cfi_offset 4, -12
 220              		.cfi_offset 5, -8
 221              		.cfi_offset 14, -4
 222              		.loc 1 2142 0
 223 000a 754B     		ldr	r3, .L47+4
 224 000c 1A78     		ldrb	r2, [r3]	@ zero_extendqisi2
 225              		.loc 1 2136 0
 226 000e 2DED048B 		fstmfdd	sp!, {d8, d9}
 227              		.cfi_def_cfa_offset 32
 228              		.cfi_offset 80, -32
ARM GAS  /tmp/ccVIe4kR.s 			page 5


 229              		.cfi_offset 81, -28
 230              		.cfi_offset 82, -24
 231              		.cfi_offset 83, -20
 232              		.loc 1 2138 0
 233 0012 F0EEE77A 		fabss	s15, s15
 234              	.LVL21:
 235              		.loc 1 2136 0
 236 0016 B0EE608A 		fcpys	s16, s1
 237 001a F0EE418A 		fcpys	s17, s2
 238              		.loc 1 2142 0
 239 001e AAB1     		cbz	r2, .L10
 240              		.loc 1 2143 0
 241 0020 704A     		ldr	r2, .L47+8
 242 0022 DFED716A 		flds	s13, .L47+12
 243 0026 1068     		ldr	r0, [r2]
 244 0028 90ED3A7A 		flds	s14, [r0, #232]
 245 002c 37EE267A 		fadds	s14, s14, s13
 246 0030 F4EEC77A 		fcmpes	s15, s14
 247 0034 F1EE10FA 		fmstat
 248 0038 17DD     		ble	.L11
 249              		.loc 1 2144 0
 250 003a 0022     		movs	r2, #0
 251 003c 1A70     		strb	r2, [r3]
 252              	.L13:
 253              		.loc 1 2216 0
 254 003e 6B4B     		ldr	r3, .L47+16
 255 0040 6FF00102 		mvn	r2, #1
 256 0044 1A60     		str	r2, [r3]
 257              	.L33:
 258              		.loc 1 2220 0
 259 0046 BDEC048B 		fldmfdd	sp!, {d8-d9}
 260              		.cfi_remember_state
 261              		.cfi_restore 82
 262              		.cfi_restore 83
 263              		.cfi_restore 80
 264              		.cfi_restore 81
 265              		.cfi_def_cfa_offset 16
 266 004a 38BD     		pop	{r3, r4, r5, pc}
 267              	.L10:
 268              		.cfi_restore_state
 269              		.loc 1 2147 0
 270 004c 654A     		ldr	r2, .L47+8
 271 004e DFED666A 		flds	s13, .L47+12
 272 0052 1068     		ldr	r0, [r2]
 273 0054 90ED3A7A 		flds	s14, [r0, #232]
 274 0058 37EE667A 		fsubs	s14, s14, s13
 275 005c F4EEC77A 		fcmpes	s15, s14
 276 0060 F1EE10FA 		fmstat
 277 0064 EBD5     		bpl	.L13
 278              		.loc 1 2148 0
 279 0066 0122     		movs	r2, #1
 280 0068 1A70     		strb	r2, [r3]
 281              	.L11:
 282              	.LBB30:
 283              	.LBB31:
 284              	.LBB32:
 285              		.loc 1 2133 0
ARM GAS  /tmp/ccVIe4kR.s 			page 6


 286 006a 614B     		ldr	r3, .L47+20
 287 006c 6149     		ldr	r1, .L47+24
 288 006e 1A69     		ldr	r2, [r3, #16]
 289 0070 1B69     		ldr	r3, [r3, #16]
 290 0072 0969     		ldr	r1, [r1, #16]
 291 0074 C1F3C021 		ubfx	r1, r1, #11, #1
 292 0078 C3F3C013 		ubfx	r3, r3, #7, #1
 293 007c 8900     		lsls	r1, r1, #2
 294 007e C2F38012 		ubfx	r2, r2, #6, #1
 295 0082 41EA4303 		orr	r3, r1, r3, lsl #1
 296 0086 1343     		orrs	r3, r3, r2
 297              	.LBE32:
 298              	.LBE31:
 299              		.loc 1 2153 0
 300 0088 0344     		add	r3, r3, r0
 301 008a 93F8DD30 		ldrb	r3, [r3, #221]	@ zero_extendqisi2
 302 008e DBB2     		uxtb	r3, r3
 303              	.LVL22:
 304              		.loc 1 2156 0
 305 0090 C82B     		cmp	r3, #200
 306 0092 4DDC     		bgt	.L44
 307              	.LBB33:
 308              		.loc 1 2158 0
 309 0094 07EE103A 		fmsr	s14, r3	@ int
 310 0098 DFED574A 		flds	s9, .L47+28
 311              		.loc 1 2160 0
 312 009c 5349     		ldr	r1, .L47+16
 313              		.loc 1 2158 0
 314 009e DFED575A 		flds	s11, .L47+32
 315              		.loc 1 2160 0
 316 00a2 0A68     		ldr	r2, [r1]
 317              		.loc 1 2158 0
 318 00a4 9FED565A 		flds	s10, .L47+36
 319 00a8 F8EEC70A 		fsitos	s1, s14
 320              	.LVL23:
 321 00ac 9FED557A 		flds	s14, .L47+40
 322 00b0 C0EEA40A 		fdivs	s1, s1, s9
 323              		.loc 1 2160 0
 324 00b4 002A     		cmp	r2, #0
 325              		.loc 1 2158 0
 326 00b6 60EE870A 		fmuls	s1, s1, s14
 327 00ba 60EEA50A 		fmuls	s1, s1, s11
 328 00be C0EE850A 		fdivs	s1, s1, s10
 329              	.LVL24:
 330              		.loc 1 2160 0
 331 00c2 46DB     		blt	.L45
 332              		.loc 1 2171 0
 333 00c4 9342     		cmp	r3, r2
 334 00c6 7AD0     		beq	.L46
 335              	.LBB34:
 336              		.loc 1 2173 0
 337 00c8 981A     		subs	r0, r3, r2
 338 00ca 0028     		cmp	r0, #0
 339 00cc B8BF     		it	lt
 340 00ce 4042     		rsblt	r0, r0, #0
 341              	.LVL25:
 342              		.loc 1 2174 0
ARM GAS  /tmp/ccVIe4kR.s 			page 7


 343 00d0 6328     		cmp	r0, #99
 344 00d2 57DC     		bgt	.L17
 345              	.LVL26:
 346              		.loc 1 2175 0
 347 00d4 1A44     		add	r2, r2, r3
 348              	.LVL27:
 349 00d6 02EBD272 		add	r2, r2, r2, lsr #31
 350 00da 4B48     		ldr	r0, .L47+44
 351 00dc 5410     		asrs	r4, r2, #1
 352 00de 80FB0450 		smull	r5, r0, r0, r4
 353 00e2 D217     		asrs	r2, r2, #31
 354 00e4 C2EBA012 		rsb	r2, r2, r0, asr #6
 355 00e8 C820     		movs	r0, #200
 356 00ea 00FB1242 		mls	r2, r0, r2, r4
 357 00ee 06EE902A 		fmsr	s13, r2	@ int
 358 00f2 B8EEE66A 		fsitos	s12, s13
 359 00f6 C6EE246A 		fdivs	s13, s12, s9
 360 00fa 66EE876A 		fmuls	s13, s13, s14
 361 00fe 26EEA57A 		fmuls	s14, s13, s11
 362 0102 87EE057A 		fdivs	s14, s14, s10
 363              	.LVL28:
 364              	.L18:
 365              		.loc 1 2180 0
 366 0106 414C     		ldr	r4, .L47+48
 367 0108 84ED007A 		fsts	s14, [r4]
 368              	.L16:
 369              	.LBE34:
 370              		.loc 1 2185 0
 371 010c 9FED369A 		flds	s18, .L47+12
 372              		.loc 1 2183 0
 373 0110 0B60     		str	r3, [r1]
 374              		.loc 1 2185 0
 375 0112 F4EEC97A 		fcmpes	s15, s18
 376 0116 F1EE10FA 		fmstat
 377 011a 1ED5     		bpl	.L38
 378              		.loc 1 2187 0
 379 011c C4ED000A 		fsts	s1, [r4]
 380              	.LVL29:
 381              	.L21:
 382              		.loc 1 2200 0
 383 0120 3A48     		ldr	r0, .L47+48
 384 0122 FFF7FEFF 		bl	utils_norm_angle_rad
 385              	.LVL30:
 386              	.LBE33:
 387              	.LBE30:
 388              		.loc 1 2220 0
 389 0126 BDEC048B 		fldmfdd	sp!, {d8-d9}
 390              		.cfi_remember_state
 391              		.cfi_restore 80
 392              		.cfi_restore 81
 393              		.cfi_restore 82
 394              		.cfi_restore 83
 395              		.cfi_def_cfa_offset 16
 396              	.LVL31:
 397              	.LBB41:
 398              	.LBB39:
 399              		.loc 1 2202 0
ARM GAS  /tmp/ccVIe4kR.s 			page 8


 400 012a 94ED000A 		flds	s0, [r4]
 401              	.LVL32:
 402              	.LBE39:
 403              	.LBE41:
 404              		.loc 1 2220 0
 405 012e 38BD     		pop	{r3, r4, r5, pc}
 406              	.LVL33:
 407              	.L44:
 408              		.cfi_restore_state
 409              	.LBB42:
 410              		.loc 1 2210 0
 411 0130 374B     		ldr	r3, .L47+52
 412              	.LVL34:
 413              		.loc 1 2205 0
 414 0132 2E4A     		ldr	r2, .L47+16
 415              		.loc 1 2210 0
 416 0134 1B78     		ldrb	r3, [r3]	@ zero_extendqisi2
 417              		.loc 1 2205 0
 418 0136 4FF0FF31 		mov	r1, #-1
 419 013a 1160     		str	r1, [r2]
 420              		.loc 1 2210 0
 421 013c 002B     		cmp	r3, #0
 422 013e 82D0     		beq	.L33
 423              		.loc 1 2210 0 is_stmt 0 discriminator 1
 424 0140 344B     		ldr	r3, .L47+56
 425 0142 1B78     		ldrb	r3, [r3]	@ zero_extendqisi2
 426 0144 022B     		cmp	r3, #2
 427 0146 7FF47EAF 		bne	.L33
 428              		.loc 1 2211 0 is_stmt 1
 429 014a 334B     		ldr	r3, .L47+60
 430 014c 93ED000A 		flds	s0, [r3]
 431              	.LVL35:
 432 0150 79E7     		b	.L33
 433              	.LVL36:
 434              	.L45:
 435              	.LBB40:
 436              		.loc 1 2169 0
 437 0152 2E4C     		ldr	r4, .L47+48
 438 0154 C4ED000A 		fsts	s1, [r4]
 439 0158 D8E7     		b	.L16
 440              	.L38:
 441              	.LBB35:
 442              		.loc 1 2190 0
 443 015a 94ED000A 		flds	s0, [r4]
 444              	.LVL37:
 445 015e 2B4D     		ldr	r5, .L47+48
 446 0160 FFF7FEFF 		bl	utils_angle_difference_rad
 447              	.LVL38:
 448              		.loc 1 2191 0
 449 0164 DFED2D7A 		flds	s15, .L47+64
 450 0168 B0EEC07A 		fabss	s14, s0
 451 016c B4EEE77A 		fcmpes	s14, s15
 452 0170 F1EE10FA 		fmstat
 453 0174 25D5     		bpl	.L39
 454              		.loc 1 2193 0
 455 0176 D5ED007A 		flds	s15, [r5]
 456 017a E8EE287A 		vfma.f32	s15, s16, s17
ARM GAS  /tmp/ccVIe4kR.s 			page 9


 457 017e C5ED007A 		fsts	s15, [r5]
 458 0182 CDE7     		b	.L21
 459              	.LVL39:
 460              	.L17:
 461              	.LBE35:
 462              	.LBB36:
 463              		.loc 1 2176 0
 464 0184 6428     		cmp	r0, #100
 465 0186 25D0     		beq	.L27
 466              	.LVL40:
 467              		.loc 1 2177 0
 468 0188 1A44     		add	r2, r2, r3
 469              	.LVL41:
 470 018a 02EBD272 		add	r2, r2, r2, lsr #31
 471 018e 1E48     		ldr	r0, .L47+44
 472 0190 5210     		asrs	r2, r2, #1
 473 0192 6432     		adds	r2, r2, #100
 474 0194 80FB0204 		smull	r0, r4, r0, r2
 475 0198 D017     		asrs	r0, r2, #31
 476 019a C0EBA410 		rsb	r0, r0, r4, asr #6
 477 019e C824     		movs	r4, #200
 478 01a0 04FB1022 		mls	r2, r4, r0, r2
 479 01a4 06EE102A 		fmsr	s12, r2	@ int
 480 01a8 B8EEC66A 		fsitos	s12, s12
 481 01ac 86EE246A 		fdivs	s12, s12, s9
 482 01b0 66EE076A 		fmuls	s13, s12, s14
 483 01b4 66EEA56A 		fmuls	s13, s13, s11
 484 01b8 86EE857A 		fdivs	s14, s13, s10
 485 01bc A3E7     		b	.L18
 486              	.LVL42:
 487              	.L46:
 488 01be 134C     		ldr	r4, .L47+48
 489 01c0 A4E7     		b	.L16
 490              	.LVL43:
 491              	.L39:
 492              	.LBE36:
 493              	.LBB37:
 494              		.loc 1 2196 0
 495 01c2 80EE090A 		fdivs	s0, s0, s18
 496              	.LVL44:
 497 01c6 95ED009A 		flds	s18, [r5]
 498 01ca 39EE400A 		fsubs	s0, s18, s0
 499 01ce 85ED000A 		fsts	s0, [r5]
 500 01d2 A5E7     		b	.L21
 501              	.LVL45:
 502              	.L27:
 503              	.LBE37:
 504              	.LBB38:
 505 01d4 B0EE657A 		fcpys	s14, s11
 506 01d8 95E7     		b	.L18
 507              	.L48:
 508 01da 00BF     		.align	2
 509              	.L47:
 510 01dc 5077D63D 		.word	1037465424
 511 01e0 00000000 		.word	.LANCHOR1
 512 01e4 00000000 		.word	.LANCHOR2
 513 01e8 0000C842 		.word	1120403456
ARM GAS  /tmp/ccVIe4kR.s 			page 10


 514 01ec 00000000 		.word	.LANCHOR3
 515 01f0 00040240 		.word	1073873920
 516 01f4 00080240 		.word	1073874944
 517 01f8 00004843 		.word	1128792064
 518 01fc DB0F4940 		.word	1078530011
 519 0200 00003443 		.word	1127481344
 520 0204 0000B443 		.word	1135869952
 521 0208 1F85EB51 		.word	1374389535
 522 020c 00000000 		.word	.LANCHOR4
 523 0210 00000000 		.word	.LANCHOR5
 524 0214 00000000 		.word	.LANCHOR6
 525 0218 00000000 		.word	.LANCHOR7
 526 021c 920A063F 		.word	1057360530
 527              	.LBE38:
 528              	.LBE40:
 529              	.LBE42:
 530              		.cfi_endproc
 531              	.LFE308:
 532              		.size	correct_hall, .-correct_hall
 533              		.section	.text.timer_thread,"ax",%progbits
 534              		.align	2
 535              		.p2align 4,,15
 536              		.thumb
 537              		.thumb_func
 538              		.type	timer_thread, %function
 539              	timer_thread:
 540              	.LFB297:
 541              		.loc 1 1634 0
 542              		.cfi_startproc
 543              		@ args = 0, pretend = 0, frame = 32
 544              		@ frame_needed = 0, uses_anonymous_args = 0
 545              	.LVL46:
 546              	.LBB51:
 547              	.LBB52:
 548              		.file 2 "ChibiOS_3.0.2/os/rt/include/chregistry.h"
 549              		.loc 2 135 0
 550 0000 C64B     		ldr	r3, .L92
 551 0002 C749     		ldr	r1, .L92+4
 552 0004 9A69     		ldr	r2, [r3, #24]
 553              	.LBE52:
 554              	.LBE51:
 555              	.LBB54:
 556              		.loc 1 1640 0
 557 0006 C74B     		ldr	r3, .L92+8
 558              	.LBE54:
 559              	.LBB65:
 560              	.LBB53:
 561              		.loc 2 135 0
 562 0008 9161     		str	r1, [r2, #24]
 563              	.LBE53:
 564              	.LBE65:
 565              	.LBB66:
 566              		.loc 1 1640 0
 567 000a 1B78     		ldrb	r3, [r3]	@ zero_extendqisi2
 568 000c 002B     		cmp	r3, #0
 569 000e 40F07481 		bne	.L84
 570              	.LBE66:
ARM GAS  /tmp/ccVIe4kR.s 			page 11


 571              		.loc 1 1634 0
 572 0012 2DE9F04F 		push	{r4, r5, r6, r7, r8, r9, r10, fp, lr}
 573              		.cfi_def_cfa_offset 36
 574              		.cfi_offset 4, -36
 575              		.cfi_offset 5, -32
 576              		.cfi_offset 6, -28
 577              		.cfi_offset 7, -24
 578              		.cfi_offset 8, -20
 579              		.cfi_offset 9, -16
 580              		.cfi_offset 10, -12
 581              		.cfi_offset 11, -8
 582              		.cfi_offset 14, -4
 583 0016 2DED0A8B 		fstmfdd	sp!, {d8, d9, d10, d11, d12}
 584              		.cfi_def_cfa_offset 76
 585              		.cfi_offset 80, -76
 586              		.cfi_offset 81, -72
 587              		.cfi_offset 82, -68
 588              		.cfi_offset 83, -64
 589              		.cfi_offset 84, -60
 590              		.cfi_offset 85, -56
 591              		.cfi_offset 86, -52
 592              		.cfi_offset 87, -48
 593              		.cfi_offset 88, -44
 594              		.cfi_offset 89, -40
 595 001a C34D     		ldr	r5, .L92+12
 596 001c DFF86493 		ldr	r9, .L92+104
 597 0020 DFF83883 		ldr	r8, .L92+64
 598 0024 C14C     		ldr	r4, .L92+16
 599 0026 C24F     		ldr	r7, .L92+20
 600 0028 DFF85CB3 		ldr	fp, .L92+108
 601 002c C14E     		ldr	r6, .L92+24
 602 002e DFF81CA3 		ldr	r10, .L92+48
 603              	.LBB67:
 604              		.loc 1 1646 0
 605 0032 DFEDC1AA 		flds	s21, .L92+28
 606 0036 9FEDC1AA 		flds	s20, .L92+32
 607              		.loc 1 1654 0
 608 003a DFEDC19A 		flds	s19, .L92+36
 609              		.loc 1 1670 0
 610 003e 9FEDC19A 		flds	s18, .L92+40
 611              		.loc 1 1674 0
 612 0042 9FEDC1BA 		flds	s22, .L92+44
 613              	.LBE67:
 614              		.loc 1 1634 0
 615 0046 89B0     		sub	sp, sp, #36
 616              		.cfi_def_cfa_offset 112
 617 0048 4BE0     		b	.L50
 618              	.LVL47:
 619              	.L88:
 620              	.LBB68:
 621              		.loc 1 1669 0
 622 004a 3B78     		ldrb	r3, [r7]	@ zero_extendqisi2
 623              		.loc 1 1663 0
 624 004c 77EEA97A 		fadds	s15, s15, s19
 625              		.loc 1 1669 0
 626 0050 032B     		cmp	r3, #3
 627              		.loc 1 1663 0
ARM GAS  /tmp/ccVIe4kR.s 			page 12


 628 0052 C4ED007A 		fsts	s15, [r4]
 629              		.loc 1 1669 0
 630 0056 7AD0     		beq	.L58
 631              	.L89:
 632 0058 94ED007A 		flds	s14, [r4]
 633              	.L59:
 634              		.loc 1 1674 0
 635 005c 2B68     		ldr	r3, [r5]
 636 005e D3ED337A 		flds	s15, [r3, #204]
 637 0062 F4EEC77A 		fcmpes	s15, s14
 638 0066 F1EE10FA 		fmstat
 639 006a D6ED007A 		flds	s15, [r6]
 640 006e 09D5     		bpl	.L61
 641              		.loc 1 1674 0 is_stmt 0 discriminator 1
 642 0070 F4EECB7A 		fcmpes	s15, s22
 643 0074 F1EE10FA 		fmstat
 644 0078 AE4A     		ldr	r2, .L92+24
 645              		.loc 1 1675 0 is_stmt 1 discriminator 1
 646 007a 9CBF     		itt	ls
 647 007c D3ED347A 		fldsls	s15, [r3, #208]
 648 0080 C2ED007A 		fstsls	s15, [r2]
 649              	.L61:
 650              		.loc 1 1678 0
 651 0084 F5EEC07A 		fcmpezs	s15
 652 0088 F1EE10FA 		fmstat
 653 008c 67DD     		ble	.L82
 654              		.loc 1 1679 0
 655 008e DAED007A 		flds	s15, [r10]
 656              		.loc 1 1680 0
 657 0092 AE48     		ldr	r0, .L92+48
 658              		.loc 1 1679 0
 659 0094 77EEA88A 		fadds	s17, s15, s17
 660              	.LVL48:
 661 0098 CAED008A 		fsts	s17, [r10]
 662              		.loc 1 1680 0
 663 009c FFF7FEFF 		bl	utils_norm_angle_rad
 664              	.LVL49:
 665              		.loc 1 1681 0
 666 00a0 0123     		movs	r3, #1
 667 00a2 8BF80030 		strb	r3, [fp]
 668              		.loc 1 1690 0
 669 00a6 AA4B     		ldr	r3, .L92+52
 670              		.loc 1 1682 0
 671 00a8 D6ED007A 		flds	s15, [r6]
 672              		.loc 1 1690 0
 673 00ac 1B78     		ldrb	r3, [r3]	@ zero_extendqisi2
 674              		.loc 1 1683 0
 675 00ae 84ED009A 		fsts	s18, [r4]
 676              		.loc 1 1682 0
 677 00b2 77EEE97A 		fsubs	s15, s15, s19
 678              		.loc 1 1690 0
 679 00b6 022B     		cmp	r3, #2
 680              		.loc 1 1682 0
 681 00b8 C6ED007A 		fsts	s15, [r6]
 682              		.loc 1 1690 0
 683 00bc 5AD0     		beq	.L86
 684              	.L66:
ARM GAS  /tmp/ccVIe4kR.s 			page 13


 685              	.LVL50:
 686              	.LBB55:
 687              	.LBB56:
 688              		.loc 1 2059 0
 689 00be 3B78     		ldrb	r3, [r7]	@ zero_extendqisi2
 690 00c0 012B     		cmp	r3, #1
 691 00c2 00F09F80 		beq	.L69
 692              	.L71:
 693              		.loc 1 2060 0
 694 00c6 A34B     		ldr	r3, .L92+56
 695 00c8 83ED009A 		fsts	s18, [r3]
 696              		.loc 1 2061 0
 697 00cc A24B     		ldr	r3, .L92+60
 698 00ce 83ED009A 		fsts	s18, [r3]
 699              	.LVL51:
 700              	.L70:
 701              	.LBE56:
 702              	.LBE55:
 703              		.loc 1 1702 0
 704 00d2 0A20     		movs	r0, #10
 705 00d4 FFF7FEFF 		bl	chThdSleep
 706              	.LVL52:
 707              		.loc 1 1640 0
 708 00d8 924B     		ldr	r3, .L92+8
 709 00da 1B78     		ldrb	r3, [r3]	@ zero_extendqisi2
 710 00dc 002B     		cmp	r3, #0
 711 00de 40F00481 		bne	.L87
 712              	.LVL53:
 713              	.L50:
 714              		.loc 1 1646 0
 715 00e2 2B68     		ldr	r3, [r5]
 716              		.loc 1 1659 0
 717 00e4 9D48     		ldr	r0, .L92+64
 718              		.loc 1 1646 0
 719 00e6 D3ED327A 		flds	s15, [r3, #200]
 720              		.loc 1 1651 0
 721 00ea 99ED037A 		flds	s14, [r9, #12]
 722              		.loc 1 1646 0
 723 00ee 77EEA77A 		fadds	s15, s15, s15
 724              		.loc 1 1651 0
 725 00f2 B5EEC07A 		fcmpezs	s14
 726              		.loc 1 1646 0
 727 00f6 27EEAA8A 		fmuls	s16, s15, s21
 728              		.loc 1 1651 0
 729 00fa F1EE10FA 		fmstat
 730              		.loc 1 1646 0
 731 00fe 88EE0A8A 		fdivs	s16, s16, s20
 732              	.LVL54:
 733              		.loc 1 1658 0
 734 0102 D8ED007A 		flds	s15, [r8]
 735              		.loc 1 1652 0
 736 0106 CCBF     		ite	gt
 737 0108 68EE298A 		fmulsgt	s17, s16, s19
 738              	.LVL55:
 739              		.loc 1 1654 0
 740 010c 68EE698A 		fnmulsle	s17, s16, s19
 741              	.LVL56:
ARM GAS  /tmp/ccVIe4kR.s 			page 14


 742              		.loc 1 1658 0
 743 0110 77EEA87A 		fadds	s15, s15, s17
 744 0114 C8ED007A 		fsts	s15, [r8]
 745              		.loc 1 1659 0
 746 0118 FFF7FEFF 		bl	utils_norm_angle_rad
 747              	.LVL57:
 748              		.loc 1 1662 0
 749 011c 904B     		ldr	r3, .L92+68
 750 011e D3ED007A 		flds	s15, [r3]
 751 0122 F0EEE77A 		fabss	s15, s15
 752 0126 B4EEE78A 		fcmpes	s16, s15
 753 012a F1EE10FA 		fmstat
 754              		.loc 1 1663 0
 755 012e D4ED007A 		flds	s15, [r4]
 756              		.loc 1 1662 0
 757 0132 8ADC     		bgt	.L88
 758              		.loc 1 1664 0
 759 0134 F5EEC07A 		fcmpezs	s15
 760 0138 F1EE10FA 		fmstat
 761 013c 7B4B     		ldr	r3, .L92+16
 762              		.loc 1 1665 0
 763 013e C4BF     		itt	gt
 764 0140 77EEE97A 		fsubsgt	s15, s15, s19
 765 0144 C3ED007A 		fstsgt	s15, [r3]
 766              		.loc 1 1669 0
 767 0148 3B78     		ldrb	r3, [r7]	@ zero_extendqisi2
 768 014a 032B     		cmp	r3, #3
 769 014c 84D1     		bne	.L89
 770              	.L58:
 771              		.loc 1 1671 0
 772 014e 0023     		movs	r3, #0
 773 0150 9FED7C7A 		flds	s14, .L92+40
 774              		.loc 1 1670 0
 775 0154 84ED009A 		fsts	s18, [r4]
 776              		.loc 1 1671 0
 777 0158 8BF80030 		strb	r3, [fp]
 778 015c 7EE7     		b	.L59
 779              	.L82:
 780              		.loc 1 1685 0
 781 015e 814B     		ldr	r3, .L92+72
 782 0160 1A68     		ldr	r2, [r3]	@ float
 783 0162 CAF80020 		str	r2, [r10]	@ float
 784              		.loc 1 1686 0
 785 0166 0023     		movs	r3, #0
 786 0168 8BF80030 		strb	r3, [fp]
 787              		.loc 1 1690 0
 788 016c 784B     		ldr	r3, .L92+52
 789 016e 1B78     		ldrb	r3, [r3]	@ zero_extendqisi2
 790 0170 022B     		cmp	r3, #2
 791 0172 A4D1     		bne	.L66
 792              	.LVL58:
 793              	.L86:
 794              	.LBB62:
 795              		.loc 1 1691 0
 796 0174 D9F84C30 		ldr	r3, [r9, #76]	@ float
 797 0178 0393     		str	r3, [sp, #12]	@ float
 798              		.loc 1 1692 0
ARM GAS  /tmp/ccVIe4kR.s 			page 15


 799 017a D9F85030 		ldr	r3, [r9, #80]	@ float
 800 017e 0493     		str	r3, [sp, #16]	@ float
 801              		.loc 1 1693 0
 802 0180 D9F83C30 		ldr	r3, [r9, #60]	@ float
 803 0184 0593     		str	r3, [sp, #20]	@ float
 804              		.loc 1 1694 0
 805 0186 D9F84030 		ldr	r3, [r9, #64]	@ float
 806 018a 0693     		str	r3, [sp, #24]	@ float
 807              		.loc 1 1696 0
 808 018c DDED056A 		flds	s13, [sp, #20]
 809 0190 9DED057A 		flds	s14, [sp, #20]
 810 0194 9DED060A 		flds	s0, [sp, #24]
 811 0198 DDED067A 		flds	s15, [sp, #24]
 812 019c 20EE270A 		fmuls	s0, s0, s15
 813 01a0 A6EE870A 		vfma.f32	s0, s13, s14
 814 01a4 F1EEC07A 		fsqrts	s15, s0
 815 01a8 F4EE677A 		fcmps	s15, s15
 816 01ac F1EE10FA 		fmstat
 817 01b0 40F0A780 		bne	.L90
 818              	.L67:
 819 01b4 6C4B     		ldr	r3, .L92+76
 820 01b6 93ED010A 		flds	s0, [r3, #4]
 821 01ba 70EE277A 		fadds	s15, s0, s15
 822 01be C3ED017A 		fsts	s15, [r3, #4]
 823              		.loc 1 1697 0
 824 01c2 DDED036A 		flds	s13, [sp, #12]
 825 01c6 9DED037A 		flds	s14, [sp, #12]
 826 01ca 9DED040A 		flds	s0, [sp, #16]
 827 01ce DDED047A 		flds	s15, [sp, #16]
 828 01d2 20EE270A 		fmuls	s0, s0, s15
 829 01d6 A6EE870A 		vfma.f32	s0, s13, s14
 830 01da F1EEC07A 		fsqrts	s15, s0
 831 01de F4EE677A 		fcmps	s15, s15
 832 01e2 F1EE10FA 		fmstat
 833 01e6 40F09180 		bne	.L91
 834              	.L68:
 835 01ea 93ED020A 		flds	s0, [r3, #8]
 836 01ee 70EE277A 		fadds	s15, s0, s15
 837 01f2 C3ED027A 		fsts	s15, [r3, #8]
 838              		.loc 1 1698 0
 839 01f6 1A68     		ldr	r2, [r3]
 840 01f8 0132     		adds	r2, r2, #1
 841 01fa 1A60     		str	r2, [r3]
 842              	.LVL59:
 843              	.LBE62:
 844              	.LBB63:
 845              	.LBB61:
 846              		.loc 1 2059 0
 847 01fc 3B78     		ldrb	r3, [r7]	@ zero_extendqisi2
 848 01fe 012B     		cmp	r3, #1
 849 0200 7FF461AF 		bne	.L71
 850              	.L69:
 851              		.loc 1 2066 0
 852 0204 594A     		ldr	r2, .L92+80
 853 0206 2B68     		ldr	r3, [r5]
 854 0208 D2ED007A 		flds	s15, [r2]
 855 020c 93ED3E7A 		flds	s14, [r3, #248]
ARM GAS  /tmp/ccVIe4kR.s 			page 16


 856 0210 4549     		ldr	r1, .L92+12
 857 0212 F0EEE77A 		fabss	s15, s15
 858 0216 F4EEC77A 		fcmpes	s15, s14
 859 021a F1EE10FA 		fmstat
 860 021e 3FF552AF 		bmi	.L71
 861              		.loc 1 2073 0
 862 0222 5348     		ldr	r0, .L92+84
 863 0224 9FED537A 		flds	s14, .L92+88
 864 0228 B0F810E0 		ldrh	lr, [r0, #16]
 865              		.loc 1 2076 0
 866 022c D2ED004A 		flds	s9, [r2]
 867              	.LBB57:
 868              	.LBB58:
 869              		.loc 1 629 0
 870 0230 4B4A     		ldr	r2, .L92+68
 871 0232 DFED515A 		flds	s11, .L92+92
 872 0236 D2ED008A 		flds	s17, [r2]
 873              	.LBE58:
 874              	.LBE57:
 875              		.loc 1 2073 0
 876 023a DFED507A 		flds	s15, .L92+96
 877              		.loc 1 2079 0
 878 023e D3ED3BCA 		flds	s25, [r3, #236]
 879              		.loc 1 2080 0
 880 0242 93ED3C6A 		flds	s12, [r3, #240]
 881              		.loc 1 2081 0
 882 0246 D3ED3D6A 		flds	s13, [r3, #244]
 883              		.loc 1 2080 0
 884 024a 424B     		ldr	r3, .L92+56
 885              		.loc 1 2084 0
 886 024c 4148     		ldr	r0, .L92+56
 887              		.loc 1 2080 0
 888 024e 93ED005A 		flds	s10, [r3]
 889              		.loc 1 2081 0
 890 0252 414B     		ldr	r3, .L92+60
 891 0254 0191     		str	r1, [sp, #4]
 892              		.loc 1 2073 0
 893 0256 1FFA8EFE 		uxth	lr, lr
 894 025a 04EE10EA 		fmsr	s8, lr	@ int
 895 025e B8EE448A 		fuitos	s16, s8
 896              	.LVL60:
 897              	.LBB60:
 898              	.LBB59:
 899              		.loc 1 629 0
 900 0262 C8EEA55A 		fdivs	s11, s17, s11
 901              	.LBE59:
 902              	.LBE60:
 903              		.loc 1 2073 0
 904 0266 28EE078A 		fmuls	s16, s16, s14
 905 026a B7EE00CA 		fconsts	s24, #112
 906 026e 28EE278A 		fmuls	s16, s16, s15
 907              		.loc 1 2081 0
 908 0272 C6EEA97A 		fdivs	s15, s13, s19
 909              		.loc 1 2073 0
 910 0276 8CEE088A 		fdivs	s16, s24, s16
 911              	.LVL61:
 912              		.loc 1 2076 0
ARM GAS  /tmp/ccVIe4kR.s 			page 17


 913 027a 74EEE58A 		fsubs	s17, s9, s11
 914              	.LVL62:
 915              		.loc 1 2080 0
 916 027e 26EE297A 		fmuls	s14, s12, s19
 917              		.loc 1 2081 0
 918 0282 D3ED00BA 		flds	s23, [r3]
 919              		.loc 1 2080 0
 920 0286 28EE877A 		fmuls	s14, s17, s14
 921              		.loc 1 2081 0
 922 028a 78EEEBBA 		fsubs	s23, s17, s23
 923              		.loc 1 2080 0
 924 028e A8EE075A 		vfma.f32	s10, s16, s14
 925 0292 0346     		mov	r3, r0
 926              		.loc 1 2084 0
 927 0294 F0EE4C0A 		fcpys	s1, s24
 928 0298 BFEE000A 		fconsts	s0, #240
 929              		.loc 1 2080 0
 930 029c 83ED005A 		fsts	s10, [r3]
 931              		.loc 1 2081 0
 932 02a0 6BEEA7BA 		fmuls	s23, s23, s15
 933              		.loc 1 2084 0
 934 02a4 FFF7FEFF 		bl	utils_truncate_number
 935              	.LVL63:
 936              		.loc 1 2090 0
 937 02a8 2A4B     		ldr	r3, .L92+56
 938              		.loc 1 2079 0
 939 02aa 68EEACCA 		fmuls	s25, s17, s25
 940              	.LVL64:
 941              		.loc 1 2090 0
 942 02ae D3ED007A 		flds	s15, [r3]
 943              		.loc 1 2087 0
 944 02b2 294B     		ldr	r3, .L92+60
 945              		.loc 1 2090 0
 946 02b4 E8EE2C7A 		vfma.f32	s15, s16, s25
 947 02b8 08A8     		add	r0, sp, #32
 948              		.loc 1 2091 0
 949 02ba F0EE4C0A 		fcpys	s1, s24
 950              		.loc 1 2090 0
 951 02be E8EE2B7A 		vfma.f32	s15, s16, s23
 952              		.loc 1 2091 0
 953 02c2 BFEE000A 		fconsts	s0, #240
 954              		.loc 1 2090 0
 955 02c6 60ED017A 		fstmdbs	r0!, {s15}
 956              		.loc 1 2087 0
 957 02ca C3ED008A 		fsts	s17, [r3]
 958              		.loc 1 2091 0
 959 02ce FFF7FEFF 		bl	utils_truncate_number
 960              	.LVL65:
 961              		.loc 1 2093 0
 962 02d2 0199     		ldr	r1, [sp, #4]
 963 02d4 DDED077A 		flds	s15, [sp, #28]
 964 02d8 0B68     		ldr	r3, [r1]
 965 02da 93ED157A 		flds	s14, [r3, #84]
 966 02de 284B     		ldr	r3, .L92+100
 967 02e0 67EE277A 		fmuls	s15, s14, s15
 968 02e4 C3ED007A 		fsts	s15, [r3]
 969 02e8 F3E6     		b	.L70
ARM GAS  /tmp/ccVIe4kR.s 			page 18


 970              	.LVL66:
 971              	.L87:
 972              	.LBE61:
 973              	.LBE63:
 974              		.loc 1 1641 0
 975 02ea 0E4A     		ldr	r2, .L92+8
 976 02ec 0023     		movs	r3, #0
 977 02ee 1370     		strb	r3, [r2]
 978              	.LBE68:
 979              		.loc 1 1705 0
 980 02f0 09B0     		add	sp, sp, #36
 981              		.cfi_def_cfa_offset 76
 982              		@ sp needed
 983 02f2 BDEC0A8B 		fldmfdd	sp!, {d8-d12}
 984              		.cfi_restore 88
 985              		.cfi_restore 89
 986              		.cfi_restore 86
 987              		.cfi_restore 87
 988              		.cfi_restore 84
 989              		.cfi_restore 85
 990              		.cfi_restore 82
 991              		.cfi_restore 83
 992              		.cfi_restore 80
 993              		.cfi_restore 81
 994              		.cfi_def_cfa_offset 36
 995 02f6 BDE8F08F 		pop	{r4, r5, r6, r7, r8, r9, r10, fp, pc}
 996              	.LVL67:
 997              	.L84:
 998              		.cfi_def_cfa_offset 0
 999              		.cfi_restore 4
 1000              		.cfi_restore 5
 1001              		.cfi_restore 6
 1002              		.cfi_restore 7
 1003              		.cfi_restore 8
 1004              		.cfi_restore 9
 1005              		.cfi_restore 10
 1006              		.cfi_restore 11
 1007              		.cfi_restore 14
 1008              	.LBB69:
 1009              		.loc 1 1641 0
 1010 02fa 0A4A     		ldr	r2, .L92+8
 1011 02fc 0023     		movs	r3, #0
 1012 02fe 1370     		strb	r3, [r2]
 1013 0300 7047     		bx	lr
 1014              	.LVL68:
 1015              	.L90:
 1016              		.cfi_def_cfa_offset 112
 1017              		.cfi_offset 4, -36
 1018              		.cfi_offset 5, -32
 1019              		.cfi_offset 6, -28
 1020              		.cfi_offset 7, -24
 1021              		.cfi_offset 8, -20
 1022              		.cfi_offset 9, -16
 1023              		.cfi_offset 10, -12
 1024              		.cfi_offset 11, -8
 1025              		.cfi_offset 14, -4
 1026              		.cfi_offset 80, -76
ARM GAS  /tmp/ccVIe4kR.s 			page 19


 1027              		.cfi_offset 81, -72
 1028              		.cfi_offset 82, -68
 1029              		.cfi_offset 83, -64
 1030              		.cfi_offset 84, -60
 1031              		.cfi_offset 85, -56
 1032              		.cfi_offset 86, -52
 1033              		.cfi_offset 87, -48
 1034              		.cfi_offset 88, -44
 1035              		.cfi_offset 89, -40
 1036              	.LBB64:
 1037              		.loc 1 1696 0
 1038 0302 FFF7FEFF 		bl	sqrtf
 1039              	.LVL69:
 1040 0306 F0EE407A 		fcpys	s15, s0
 1041 030a 53E7     		b	.L67
 1042              	.L91:
 1043 030c 0193     		str	r3, [sp, #4]
 1044              		.loc 1 1697 0
 1045 030e FFF7FEFF 		bl	sqrtf
 1046              	.LVL70:
 1047 0312 019B     		ldr	r3, [sp, #4]
 1048 0314 F0EE407A 		fcpys	s15, s0
 1049 0318 67E7     		b	.L68
 1050              	.L93:
 1051 031a 00BF     		.align	2
 1052              	.L92:
 1053 031c 00000000 		.word	ch
 1054 0320 00000000 		.word	.LC0
 1055 0324 00000000 		.word	.LANCHOR8
 1056 0328 00000000 		.word	.LANCHOR2
 1057 032c 00000000 		.word	.LANCHOR12
 1058 0330 00000000 		.word	.LANCHOR13
 1059 0334 00000000 		.word	.LANCHOR14
 1060 0338 DB0F4940 		.word	1078530011
 1061 033c 00007042 		.word	1114636288
 1062 0340 6F12833A 		.word	981668463
 1063 0344 00000000 		.word	0
 1064 0348 17B7D138 		.word	953267991
 1065 034c 00000000 		.word	.LANCHOR7
 1066 0350 00000000 		.word	.LANCHOR6
 1067 0354 00000000 		.word	.LANCHOR17
 1068 0358 00000000 		.word	.LANCHOR18
 1069 035c 00000000 		.word	.LANCHOR10
 1070 0360 00000000 		.word	.LANCHOR11
 1071 0364 00000000 		.word	.LANCHOR15
 1072 0368 00000000 		.word	.LANCHOR16
 1073 036c 00000000 		.word	.LANCHOR19
 1074 0370 00000000 		.word	ADC_Value
 1075 0374 6740533A 		.word	978534503
 1076 0378 5077D63D 		.word	1037465424
 1077 037c 74D19541 		.word	1100337524
 1078 0380 00000000 		.word	.LANCHOR20
 1079 0384 00000000 		.word	.LANCHOR9
 1080 0388 00000000 		.word	.LANCHOR5
 1081              	.LBE64:
 1082              	.LBE69:
 1083              		.cfi_endproc
ARM GAS  /tmp/ccVIe4kR.s 			page 20


 1084              	.LFE297:
 1085              		.size	timer_thread, .-timer_thread
 1086              		.section	.text.mcpwm_foc_init,"ax",%progbits
 1087              		.align	2
 1088              		.p2align 4,,15
 1089              		.global	mcpwm_foc_init
 1090              		.thumb
 1091              		.thumb_func
 1092              		.type	mcpwm_foc_init, %function
 1093              	mcpwm_foc_init:
 1094              	.LFB256:
 1095              		.loc 1 182 0
 1096              		.cfi_startproc
 1097              		@ args = 0, pretend = 0, frame = 160
 1098              		@ frame_needed = 0, uses_anonymous_args = 0
 1099              	.LVL71:
 1100 0000 2DE9F04F 		push	{r4, r5, r6, r7, r8, r9, r10, fp, lr}
 1101              		.cfi_def_cfa_offset 36
 1102              		.cfi_offset 4, -36
 1103              		.cfi_offset 5, -32
 1104              		.cfi_offset 6, -28
 1105              		.cfi_offset 7, -24
 1106              		.cfi_offset 8, -20
 1107              		.cfi_offset 9, -16
 1108              		.cfi_offset 10, -12
 1109              		.cfi_offset 11, -8
 1110              		.cfi_offset 14, -4
 1111 0004 ABB0     		sub	sp, sp, #172
 1112              		.cfi_def_cfa_offset 208
 1113              		.loc 1 182 0
 1114 0006 8246     		mov	r10, r0
 1115              		.loc 1 183 0
 1116 0008 FFF7FEFF 		bl	utils_sys_lock_cnt
 1117              	.LVL72:
 1118              		.loc 1 189 0
 1119 000c CE4B     		ldr	r3, .L101
 1120              		.loc 1 194 0
 1121 000e CF48     		ldr	r0, .L101+4
 1122              		.loc 1 189 0
 1123 0010 C3F800A0 		str	r10, [r3]
 1124              		.loc 1 193 0
 1125 0014 CE4B     		ldr	r3, .L101+8
 1126              		.loc 1 200 0
 1127 0016 DFEDCF7A 		flds	s15, .L101+12
 1128              		.loc 1 199 0
 1129 001a DFF8A893 		ldr	r9, .L101+124
 1130              		.loc 1 200 0
 1131 001e DFF8A883 		ldr	r8, .L101+128
 1132              		.loc 1 201 0
 1133 0022 DFF8A8C3 		ldr	ip, .L101+132
 1134              		.loc 1 202 0
 1135 0026 DFF8A8E3 		ldr	lr, .L101+136
 1136              		.loc 1 203 0
 1137 002a CB4F     		ldr	r7, .L101+16
 1138              		.loc 1 204 0
 1139 002c CB49     		ldr	r1, .L101+20
 1140              		.loc 1 205 0
ARM GAS  /tmp/ccVIe4kR.s 			page 21


 1141 002e CC4A     		ldr	r2, .L101+24
 1142              		.loc 1 197 0
 1143 0030 DFF8A0B3 		ldr	fp, .L101+140
 1144              		.loc 1 213 0
 1145 0034 DFF8A0A3 		ldr	r10, .L101+144
 1146              	.LVL73:
 1147              		.loc 1 223 0
 1148 0038 CA4D     		ldr	r5, .L101+28
 1149              		.loc 1 224 0
 1150 003a CB4E     		ldr	r6, .L101+32
 1151              		.loc 1 193 0
 1152 003c 0024     		movs	r4, #0
 1153 003e 1C70     		strb	r4, [r3]
 1154              		.loc 1 194 0
 1155 0040 4FF00503 		mov	r3, #5
 1156 0044 0370     		strb	r3, [r0]
 1157              		.loc 1 195 0
 1158 0046 C94B     		ldr	r3, .L101+36
 1159              		.loc 1 220 0
 1160 0048 C948     		ldr	r0, .L101+40
 1161              		.loc 1 195 0
 1162 004a 1C60     		str	r4, [r3]
 1163              		.loc 1 196 0
 1164 004c C94B     		ldr	r3, .L101+44
 1165 004e 1C60     		str	r4, [r3]
 1166              		.loc 1 198 0
 1167 0050 C94B     		ldr	r3, .L101+48
 1168              		.loc 1 197 0
 1169 0052 CBF80040 		str	r4, [fp]
 1170              		.loc 1 198 0
 1171 0056 1C70     		strb	r4, [r3]
 1172              		.loc 1 199 0
 1173 0058 89F80040 		strb	r4, [r9]
 1174              		.loc 1 206 0
 1175 005c C74B     		ldr	r3, .L101+52
 1176              		.loc 1 200 0
 1177 005e C8ED007A 		fsts	s15, [r8]
 1178              		.loc 1 201 0
 1179 0062 CCED007A 		fsts	s15, [ip]
 1180              		.loc 1 202 0
 1181 0066 CEED007A 		fsts	s15, [lr]
 1182              		.loc 1 203 0
 1183 006a C7ED007A 		fsts	s15, [r7]
 1184              		.loc 1 204 0
 1185 006e 0C70     		strb	r4, [r1]
 1186              		.loc 1 205 0
 1187 0070 C2ED007A 		fsts	s15, [r2]
 1188              		.loc 1 207 0
 1189 0074 C24A     		ldr	r2, .L101+56
 1190              		.loc 1 206 0
 1191 0076 C3ED007A 		fsts	s15, [r3]
 1192              		.loc 1 207 0
 1193 007a C2ED007A 		fsts	s15, [r2]
 1194              		.loc 1 208 0
 1195 007e C14A     		ldr	r2, .L101+60
 1196              		.loc 1 210 0
 1197 0080 C14B     		ldr	r3, .L101+64
ARM GAS  /tmp/ccVIe4kR.s 			page 22


 1198              		.loc 1 208 0
 1199 0082 C2ED007A 		fsts	s15, [r2]
 1200              		.loc 1 209 0
 1201 0086 C14A     		ldr	r2, .L101+68
 1202              		.loc 1 217 0
 1203 0088 DFF850E3 		ldr	lr, .L101+148
 1204              		.loc 1 209 0
 1205 008c 1470     		strb	r4, [r2]
 1206              		.loc 1 210 0
 1207 008e C3ED007A 		fsts	s15, [r3]
 1208              		.loc 1 211 0
 1209 0092 BF4B     		ldr	r3, .L101+72
 1210              		.loc 1 216 0
 1211 0094 DFF848C3 		ldr	ip, .L101+152
 1212              		.loc 1 211 0
 1213 0098 C3ED007A 		fsts	s15, [r3]
 1214              		.loc 1 212 0
 1215 009c BD4B     		ldr	r3, .L101+76
 1216              		.loc 1 214 0
 1217 009e DFF84493 		ldr	r9, .L101+156
 1218              		.loc 1 212 0
 1219 00a2 C3ED007A 		fsts	s15, [r3]
 1220              		.loc 1 215 0
 1221 00a6 DFF84083 		ldr	r8, .L101+160
 1222              		.loc 1 219 0
 1223 00aa BB4B     		ldr	r3, .L101+80
 1224              		.loc 1 218 0
 1225 00ac BB4F     		ldr	r7, .L101+84
 1226              		.loc 1 213 0
 1227 00ae CAED007A 		fsts	s15, [r10]
 1228              		.loc 1 220 0
 1229 00b2 2146     		mov	r1, r4
 1230 00b4 5422     		movs	r2, #84
 1231              		.loc 1 214 0
 1232 00b6 C9ED007A 		fsts	s15, [r9]
 1233              		.loc 1 215 0
 1234 00ba C8ED007A 		fsts	s15, [r8]
 1235              		.loc 1 216 0
 1236 00be CCF80040 		str	r4, [ip]
 1237              		.loc 1 217 0
 1238 00c2 CEF80040 		str	r4, [lr]
 1239              		.loc 1 218 0
 1240 00c6 C7ED007A 		fsts	s15, [r7]
 1241              		.loc 1 219 0
 1242 00ca C3ED007A 		fsts	s15, [r3]
 1243              		.loc 1 220 0
 1244 00ce FFF7FEFF 		bl	memset
 1245              	.LVL74:
 1246              		.loc 1 221 0
 1247 00d2 B34A     		ldr	r2, .L101+88
 1248              		.loc 1 223 0
 1249 00d4 2846     		mov	r0, r5
 1250              		.loc 1 221 0
 1251 00d6 1460     		str	r4, [r2]
 1252 00d8 5460     		str	r4, [r2, #4]
 1253 00da 9460     		str	r4, [r2, #8]
 1254 00dc D460     		str	r4, [r2, #12]
ARM GAS  /tmp/ccVIe4kR.s 			page 23


 1255 00de 1461     		str	r4, [r2, #16]
 1256              		.loc 1 223 0
 1257 00e0 FFF7FEFF 		bl	TIM_DeInit
 1258              	.LVL75:
 1259              		.loc 1 224 0
 1260 00e4 3046     		mov	r0, r6
 1261 00e6 FFF7FEFF 		bl	TIM_DeInit
 1262              	.LVL76:
 1263              		.loc 1 229 0
 1264 00ea 0120     		movs	r0, #1
 1265 00ec 0146     		mov	r1, r0
 1266              		.loc 1 225 0
 1267 00ee 6C62     		str	r4, [r5, #36]
 1268              		.loc 1 226 0
 1269 00f0 7462     		str	r4, [r6, #36]
 1270              		.loc 1 229 0
 1271 00f2 FFF7FEFF 		bl	RCC_APB2PeriphClockCmd
 1272              	.LVL77:
 1273              		.loc 1 234 0
 1274 00f6 944B     		ldr	r3, .L101
 1275 00f8 AA4A     		ldr	r2, .L101+92
 1276 00fa 1B68     		ldr	r3, [r3]
 1277              		.loc 1 232 0
 1278 00fc ADF81440 		strh	r4, [sp, #20]	@ movhi
 1279              		.loc 1 234 0
 1280 0100 D3ED257A 		flds	s15, [r3, #148]
 1281              		.loc 1 235 0
 1282 0104 ADF81C40 		strh	r4, [sp, #28]	@ movhi
 1283              		.loc 1 234 0
 1284 0108 FDEEE77A 		ftosizs	s15, s15
 1285              		.loc 1 236 0
 1286 010c 0127     		movs	r7, #1
 1287              		.loc 1 234 0
 1288 010e 17EE903A 		fmrs	r3, s15	@ int
 1289              		.loc 1 233 0
 1290 0112 4FF0400C 		mov	ip, #64
 1291              		.loc 1 238 0
 1292 0116 2846     		mov	r0, r5
 1293 0118 05A9     		add	r1, sp, #20
 1294              		.loc 1 233 0
 1295 011a ADF816C0 		strh	ip, [sp, #22]	@ movhi
 1296 011e CDF80CC0 		str	ip, [sp, #12]
 1297              		.loc 1 234 0
 1298 0122 92FBF3F3 		sdiv	r3, r2, r3
 1299              		.loc 1 236 0
 1300 0126 8DF81E70 		strb	r7, [sp, #30]
 1301              		.loc 1 234 0
 1302 012a 0693     		str	r3, [sp, #24]
 1303              		.loc 1 238 0
 1304 012c FFF7FEFF 		bl	TIM_TimeBaseInit
 1305              	.LVL78:
 1306              		.loc 1 244 0
 1307 0130 EB6A     		ldr	r3, [r5, #44]
 1308              		.loc 1 242 0
 1309 0132 ADF84270 		strh	r7, [sp, #66]	@ movhi
 1310              		.loc 1 244 0
 1311 0136 FB40     		lsrs	r3, r3, r7
ARM GAS  /tmp/ccVIe4kR.s 			page 24


 1312 0138 1293     		str	r3, [sp, #72]
 1313              		.loc 1 241 0
 1314 013a 4FF06003 		mov	r3, #96	@ movhi
 1315              		.loc 1 243 0
 1316 013e 4FF00408 		mov	r8, #4
 1317              		.loc 1 247 0
 1318 0142 4FF4807A 		mov	r10, #256
 1319              		.loc 1 250 0
 1320 0146 2846     		mov	r0, r5
 1321 0148 10A9     		add	r1, sp, #64
 1322              		.loc 1 241 0
 1323 014a ADF84030 		strh	r3, [sp, #64]	@ movhi
 1324              		.loc 1 248 0
 1325 014e 4FF40073 		mov	r3, #512	@ movhi
 1326 0152 ADF85230 		strh	r3, [sp, #82]	@ movhi
 1327              		.loc 1 245 0
 1328 0156 ADF84C40 		strh	r4, [sp, #76]	@ movhi
 1329              		.loc 1 246 0
 1330 015a ADF84E40 		strh	r4, [sp, #78]	@ movhi
 1331              		.loc 1 243 0
 1332 015e ADF84480 		strh	r8, [sp, #68]	@ movhi
 1333              		.loc 1 247 0
 1334 0162 ADF850A0 		strh	r10, [sp, #80]	@ movhi
 1335              		.loc 1 250 0
 1336 0166 FFF7FEFF 		bl	TIM_OC1Init
 1337              	.LVL79:
 1338              		.loc 1 251 0
 1339 016a 2846     		mov	r0, r5
 1340 016c 10A9     		add	r1, sp, #64
 1341 016e FFF7FEFF 		bl	TIM_OC2Init
 1342              	.LVL80:
 1343              		.loc 1 252 0
 1344 0172 2846     		mov	r0, r5
 1345 0174 10A9     		add	r1, sp, #64
 1346 0176 FFF7FEFF 		bl	TIM_OC3Init
 1347              	.LVL81:
 1348              		.loc 1 253 0
 1349 017a 2846     		mov	r0, r5
 1350 017c 10A9     		add	r1, sp, #64
 1351 017e FFF7FEFF 		bl	TIM_OC4Init
 1352              	.LVL82:
 1353              		.loc 1 255 0
 1354 0182 2846     		mov	r0, r5
 1355 0184 0821     		movs	r1, #8
 1356 0186 FFF7FEFF 		bl	TIM_OC1PreloadConfig
 1357              	.LVL83:
 1358              		.loc 1 256 0
 1359 018a 2846     		mov	r0, r5
 1360 018c 0821     		movs	r1, #8
 1361 018e FFF7FEFF 		bl	TIM_OC2PreloadConfig
 1362              	.LVL84:
 1363              		.loc 1 257 0
 1364 0192 2846     		mov	r0, r5
 1365 0194 0821     		movs	r1, #8
 1366 0196 FFF7FEFF 		bl	TIM_OC3PreloadConfig
 1367              	.LVL85:
 1368              		.loc 1 258 0
ARM GAS  /tmp/ccVIe4kR.s 			page 25


 1369 019a 2846     		mov	r0, r5
 1370 019c 0821     		movs	r1, #8
 1371 019e FFF7FEFF 		bl	TIM_OC4PreloadConfig
 1372              	.LVL86:
 1373              		.loc 1 261 0
 1374 01a2 4FF40063 		mov	r3, #2048
 1375              		.loc 1 264 0
 1376 01a6 3C22     		movs	r2, #60
 1377              		.loc 1 262 0
 1378 01a8 4FF48069 		mov	r9, #1024
 1379              		.loc 1 269 0
 1380 01ac 2846     		mov	r0, r5
 1381 01ae 08A9     		add	r1, sp, #32
 1382              		.loc 1 261 0
 1383 01b0 ADF82030 		strh	r3, [sp, #32]	@ movhi
 1384 01b4 0293     		str	r3, [sp, #8]
 1385              		.loc 1 266 0
 1386 01b6 4FF40053 		mov	r3, #8192	@ movhi
 1387              		.loc 1 264 0
 1388 01ba ADF82620 		strh	r2, [sp, #38]	@ movhi
 1389              		.loc 1 266 0
 1390 01be ADF82A30 		strh	r3, [sp, #42]	@ movhi
 1391              		.loc 1 263 0
 1392 01c2 ADF82440 		strh	r4, [sp, #36]	@ movhi
 1393              		.loc 1 265 0
 1394 01c6 ADF82840 		strh	r4, [sp, #40]	@ movhi
 1395              		.loc 1 267 0
 1396 01ca ADF82C40 		strh	r4, [sp, #44]	@ movhi
 1397              		.loc 1 262 0
 1398 01ce ADF82290 		strh	r9, [sp, #34]	@ movhi
 1399              		.loc 1 269 0
 1400 01d2 FFF7FEFF 		bl	TIM_BDTRConfig
 1401              	.LVL87:
 1402              		.loc 1 270 0
 1403 01d6 2846     		mov	r0, r5
 1404 01d8 3946     		mov	r1, r7
 1405 01da FFF7FEFF 		bl	TIM_CCPreloadControl
 1406              	.LVL88:
 1407              		.loc 1 271 0
 1408 01de 2846     		mov	r0, r5
 1409 01e0 3946     		mov	r1, r7
 1410 01e2 FFF7FEFF 		bl	TIM_ARRPreloadConfig
 1411              	.LVL89:
 1412              		.loc 1 281 0
 1413 01e6 3946     		mov	r1, r7
 1414 01e8 6F48     		ldr	r0, .L101+96
 1415 01ea FFF7FEFF 		bl	RCC_AHB1PeriphClockCmd
 1416              	.LVL90:
 1417              		.loc 1 282 0
 1418 01ee 3946     		mov	r1, r7
 1419 01f0 4FF4E060 		mov	r0, #1792
 1420 01f4 FFF7FEFF 		bl	RCC_APB2PeriphClockCmd
 1421              	.LVL91:
 1422              		.loc 1 292 0
 1423 01f8 029B     		ldr	r3, [sp, #8]
 1424              		.loc 1 286 0
 1425 01fa 6C49     		ldr	r1, .L101+100
ARM GAS  /tmp/ccVIe4kR.s 			page 26


 1426              		.loc 1 287 0
 1427 01fc 6C4A     		ldr	r2, .L101+104
 1428              		.loc 1 300 0
 1429 01fe 6D48     		ldr	r0, .L101+108
 1430              		.loc 1 292 0
 1431 0200 2293     		str	r3, [sp, #136]
 1432              		.loc 1 295 0
 1433 0202 4FF4003E 		mov	lr, #131072
 1434              		.loc 1 289 0
 1435 0206 4FF00C0C 		mov	ip, #12
 1436              		.loc 1 293 0
 1437 020a 4FF40053 		mov	r3, #8192
 1438              		.loc 1 286 0
 1439 020e 1D91     		str	r1, [sp, #116]
 1440              		.loc 1 300 0
 1441 0210 1BA9     		add	r1, sp, #108
 1442              		.loc 1 295 0
 1443 0212 CDF894E0 		str	lr, [sp, #148]
 1444              		.loc 1 289 0
 1445 0216 CDF87CC0 		str	ip, [sp, #124]
 1446              		.loc 1 293 0
 1447 021a 2393     		str	r3, [sp, #140]
 1448              		.loc 1 287 0
 1449 021c 1C92     		str	r2, [sp, #112]
 1450              		.loc 1 285 0
 1451 021e 1B94     		str	r4, [sp, #108]
 1452              		.loc 1 288 0
 1453 0220 1E94     		str	r4, [sp, #120]
 1454              		.loc 1 290 0
 1455 0222 2094     		str	r4, [sp, #128]
 1456              		.loc 1 291 0
 1457 0224 CDF88490 		str	r9, [sp, #132]
 1458              		.loc 1 294 0
 1459 0228 CDF890A0 		str	r10, [sp, #144]
 1460              		.loc 1 296 0
 1461 022c 2694     		str	r4, [sp, #152]
 1462              		.loc 1 297 0
 1463 022e 2794     		str	r4, [sp, #156]
 1464              		.loc 1 298 0
 1465 0230 2894     		str	r4, [sp, #160]
 1466              		.loc 1 299 0
 1467 0232 2994     		str	r4, [sp, #164]
 1468              		.loc 1 300 0
 1469 0234 FFF7FEFF 		bl	DMA_Init
 1470              	.LVL92:
 1471              		.loc 1 303 0
 1472 0238 3946     		mov	r1, r7
 1473 023a 5E48     		ldr	r0, .L101+108
 1474 023c FFF7FEFF 		bl	DMA_Cmd
 1475              	.LVL93:
 1476              		.loc 1 308 0
 1477 0240 1622     		movs	r2, #22
 1478              		.loc 1 310 0
 1479 0242 4FF48043 		mov	r3, #16384
 1480              		.loc 1 312 0
 1481 0246 0CA8     		add	r0, sp, #48
 1482              		.loc 1 308 0
ARM GAS  /tmp/ccVIe4kR.s 			page 27


 1483 0248 0C92     		str	r2, [sp, #48]
 1484              		.loc 1 310 0
 1485 024a 0E93     		str	r3, [sp, #56]
 1486              		.loc 1 309 0
 1487 024c 0D94     		str	r4, [sp, #52]
 1488              		.loc 1 311 0
 1489 024e 0F94     		str	r4, [sp, #60]
 1490              		.loc 1 312 0
 1491 0250 FFF7FEFF 		bl	ADC_CommonInit
 1492              	.LVL94:
 1493              		.loc 1 319 0
 1494 0254 4FF05063 		mov	r3, #218103808
 1495              		.loc 1 318 0
 1496 0258 4FF00052 		mov	r2, #536870912
 1497              		.loc 1 323 0
 1498 025c 15A9     		add	r1, sp, #84
 1499 025e 5648     		ldr	r0, .L101+112
 1500              		.loc 1 319 0
 1501 0260 1893     		str	r3, [sp, #96]
 1502              		.loc 1 318 0
 1503 0262 1792     		str	r2, [sp, #92]
 1504              		.loc 1 315 0
 1505 0264 1594     		str	r4, [sp, #84]
 1506              		.loc 1 316 0
 1507 0266 8DF85870 		strb	r7, [sp, #88]
 1508              		.loc 1 317 0
 1509 026a 8DF85940 		strb	r4, [sp, #89]
 1510              		.loc 1 320 0
 1511 026e 1994     		str	r4, [sp, #100]
 1512              		.loc 1 321 0
 1513 0270 8DF86880 		strb	r8, [sp, #104]
 1514              		.loc 1 323 0
 1515 0274 FFF7FEFF 		bl	ADC_Init
 1516              	.LVL95:
 1517              		.loc 1 326 0
 1518 0278 15A9     		add	r1, sp, #84
 1519 027a 5048     		ldr	r0, .L101+116
 1520              		.loc 1 324 0
 1521 027c 1794     		str	r4, [sp, #92]
 1522              		.loc 1 325 0
 1523 027e 1894     		str	r4, [sp, #96]
 1524              		.loc 1 326 0
 1525 0280 FFF7FEFF 		bl	ADC_Init
 1526              	.LVL96:
 1527              		.loc 1 327 0
 1528 0284 15A9     		add	r1, sp, #84
 1529 0286 4E48     		ldr	r0, .L101+120
 1530 0288 FFF7FEFF 		bl	ADC_Init
 1531              	.LVL97:
 1532              		.loc 1 330 0
 1533 028c 3846     		mov	r0, r7
 1534 028e FFF7FEFF 		bl	ADC_TempSensorVrefintCmd
 1535              	.LVL98:
 1536              		.loc 1 333 0
 1537 0292 3846     		mov	r0, r7
 1538 0294 FFF7FEFF 		bl	ADC_MultiModeDMARequestAfterLastTransferCmd
 1539              	.LVL99:
ARM GAS  /tmp/ccVIe4kR.s 			page 28


 1540              		.loc 1 336 0
 1541 0298 2146     		mov	r1, r4
 1542 029a 4748     		ldr	r0, .L101+112
 1543 029c FFF7FEFF 		bl	ADC_ExternalTrigInjectedConvConfig
 1544              	.LVL100:
 1545              		.loc 1 337 0
 1546 02a0 4648     		ldr	r0, .L101+116
 1547 02a2 4FF44021 		mov	r1, #786432
 1548 02a6 FFF7FEFF 		bl	ADC_ExternalTrigInjectedConvConfig
 1549              	.LVL101:
 1550              		.loc 1 338 0
 1551 02aa 4348     		ldr	r0, .L101+112
 1552 02ac 4FF40011 		mov	r1, #2097152
 1553 02b0 FFF7FEFF 		bl	ADC_ExternalTrigInjectedConvEdgeConfig
 1554              	.LVL102:
 1555              		.loc 1 339 0
 1556 02b4 4148     		ldr	r0, .L101+116
 1557 02b6 4FF40011 		mov	r1, #2097152
 1558 02ba FFF7FEFF 		bl	ADC_ExternalTrigInjectedConvEdgeConfig
 1559              	.LVL103:
 1560              		.loc 1 340 0
 1561 02be 3E48     		ldr	r0, .L101+112
 1562 02c0 0221     		movs	r1, #2
 1563 02c2 FFF7FEFF 		bl	ADC_InjectedSequencerLengthConfig
 1564              	.LVL104:
 1565              		.loc 1 341 0
 1566 02c6 3D48     		ldr	r0, .L101+116
 1567 02c8 0221     		movs	r1, #2
 1568 02ca FFF7FEFF 		bl	ADC_InjectedSequencerLengthConfig
 1569              	.LVL105:
 1570              		.loc 1 343 0
 1571 02ce FFF7FEFF 		bl	hw_setup_adc_channels
 1572              	.LVL106:
 1573              		.loc 1 346 0
 1574 02d2 3A46     		mov	r2, r7
 1575 02d4 3848     		ldr	r0, .L101+112
 1576 02d6 40F20741 		movw	r1, #1031
 1577 02da FFF7FEFF 		bl	ADC_ITConfig
 1578              	.LVL107:
 1579              		.loc 1 347 0
 1580 02de 4146     		mov	r1, r8
 1581 02e0 1220     		movs	r0, #18
 1582 02e2 FFF7FEFF 		bl	nvicEnableVector
 1583              	.LVL108:
 1584              		.loc 1 350 0
 1585 02e6 3946     		mov	r1, r7
 1586 02e8 3348     		ldr	r0, .L101+112
 1587 02ea FFF7FEFF 		bl	ADC_Cmd
 1588              	.LVL109:
 1589              		.loc 1 353 0
 1590 02ee 3946     		mov	r1, r7
 1591 02f0 3248     		ldr	r0, .L101+116
 1592 02f2 FFF7FEFF 		bl	ADC_Cmd
 1593              	.LVL110:
 1594              		.loc 1 356 0
 1595 02f6 3946     		mov	r1, r7
 1596 02f8 3148     		ldr	r0, .L101+120
ARM GAS  /tmp/ccVIe4kR.s 			page 29


 1597 02fa FFF7FEFF 		bl	ADC_Cmd
 1598              	.LVL111:
 1599              		.loc 1 360 0
 1600 02fe 3946     		mov	r1, r7
 1601 0300 0220     		movs	r0, #2
 1602 0302 FFF7FEFF 		bl	RCC_APB2PeriphClockCmd
 1603              	.LVL112:
 1604              		.loc 1 364 0
 1605 0306 104B     		ldr	r3, .L101
 1606              		.loc 1 363 0
 1607 0308 DDF80CC0 		ldr	ip, [sp, #12]
 1608              		.loc 1 364 0
 1609 030c 1B68     		ldr	r3, [r3]
 1610              		.loc 1 363 0
 1611 030e ADF816C0 		strh	ip, [sp, #22]	@ movhi
 1612              		.loc 1 364 0
 1613 0312 D3ED257A 		flds	s15, [r3, #148]
 1614 0316 234A     		ldr	r2, .L101+92
 1615              		.loc 1 362 0
 1616 0318 ADF81440 		strh	r4, [sp, #20]	@ movhi
 1617              		.loc 1 364 0
 1618 031c FDEEE77A 		ftosizs	s15, s15
 1619              		.loc 1 367 0
 1620 0320 3046     		mov	r0, r6
 1621              		.loc 1 364 0
 1622 0322 17EE903A 		fmrs	r3, s15	@ int
 1623              		.loc 1 367 0
 1624 0326 05A9     		add	r1, sp, #20
 1625              		.loc 1 364 0
 1626 0328 92FBF3F3 		sdiv	r3, r2, r3
 1627              		.loc 1 365 0
 1628 032c ADF81C40 		strh	r4, [sp, #28]	@ movhi
 1629              		.loc 1 364 0
 1630 0330 0693     		str	r3, [sp, #24]
 1631              		.loc 1 366 0
 1632 0332 8DF81E70 		strb	r7, [sp, #30]
 1633              		.loc 1 367 0
 1634 0336 FFF7FEFF 		bl	TIM_TimeBaseInit
 1635              	.LVL113:
 1636              		.loc 1 369 0
 1637 033a 4FF06002 		mov	r2, #96	@ movhi
 1638              		.loc 1 371 0
 1639 033e 4FF4FA73 		mov	r3, #500
 1640              		.loc 1 376 0
 1641 0342 3046     		mov	r0, r6
 1642 0344 10A9     		add	r1, sp, #64
 1643 0346 51E0     		b	.L102
 1644              	.L103:
 1645              		.align	2
 1646              	.L101:
 1647 0348 00000000 		.word	.LANCHOR2
 1648 034c 00000000 		.word	.LANCHOR13
 1649 0350 00000000 		.word	.LANCHOR6
 1650 0354 00000000 		.word	0
 1651 0358 00000000 		.word	.LANCHOR20
 1652 035c 00000000 		.word	.LANCHOR0
 1653 0360 00000000 		.word	.LANCHOR29
ARM GAS  /tmp/ccVIe4kR.s 			page 30


 1654 0364 00000140 		.word	1073807360
 1655 0368 00040140 		.word	1073808384
 1656 036c 00000000 		.word	.LANCHOR21
 1657 0370 00000000 		.word	.LANCHOR9
 1658 0374 00000000 		.word	.LANCHOR22
 1659 0378 00000000 		.word	.LANCHOR24
 1660 037c 00000000 		.word	.LANCHOR19
 1661 0380 00000000 		.word	.LANCHOR15
 1662 0384 00000000 		.word	.LANCHOR7
 1663 0388 00000000 		.word	.LANCHOR30
 1664 038c 00000000 		.word	.LANCHOR5
 1665 0390 00000000 		.word	.LANCHOR10
 1666 0394 00000000 		.word	.LANCHOR31
 1667 0398 00000000 		.word	.LANCHOR37
 1668 039c 00000000 		.word	.LANCHOR36
 1669 03a0 00000000 		.word	.LANCHOR16
 1670 03a4 007A030A 		.word	168000000
 1671 03a8 05004000 		.word	4194309
 1672 03ac 00000000 		.word	ADC_Value
 1673 03b0 08230140 		.word	1073816328
 1674 03b4 70640240 		.word	1073898608
 1675 03b8 00200140 		.word	1073815552
 1676 03bc 00210140 		.word	1073815808
 1677 03c0 00220140 		.word	1073816064
 1678 03c4 00000000 		.word	.LANCHOR25
 1679 03c8 00000000 		.word	.LANCHOR26
 1680 03cc 00000000 		.word	.LANCHOR27
 1681 03d0 00000000 		.word	.LANCHOR28
 1682 03d4 00000000 		.word	.LANCHOR23
 1683 03d8 00000000 		.word	.LANCHOR32
 1684 03dc 00000000 		.word	.LANCHOR35
 1685 03e0 00000000 		.word	.LANCHOR34
 1686 03e4 00000000 		.word	.LANCHOR33
 1687 03e8 00000000 		.word	.LANCHOR11
 1688              	.L102:
 1689              		.loc 1 369 0
 1690 03ec ADF84020 		strh	r2, [sp, #64]	@ movhi
 1691              		.loc 1 375 0
 1692 03f0 4FF40072 		mov	r2, #512	@ movhi
 1693 03f4 ADF85220 		strh	r2, [sp, #82]	@ movhi
 1694              		.loc 1 371 0
 1695 03f8 1293     		str	r3, [sp, #72]
 1696              		.loc 1 370 0
 1697 03fa ADF84270 		strh	r7, [sp, #66]	@ movhi
 1698              		.loc 1 372 0
 1699 03fe ADF84C40 		strh	r4, [sp, #76]	@ movhi
 1700              		.loc 1 373 0
 1701 0402 ADF84E40 		strh	r4, [sp, #78]	@ movhi
 1702              		.loc 1 374 0
 1703 0406 ADF850A0 		strh	r10, [sp, #80]	@ movhi
 1704              		.loc 1 376 0
 1705 040a FFF7FEFF 		bl	TIM_OC1Init
 1706              	.LVL114:
 1707              		.loc 1 377 0
 1708 040e 3046     		mov	r0, r6
 1709 0410 0821     		movs	r1, #8
 1710 0412 FFF7FEFF 		bl	TIM_OC1PreloadConfig
ARM GAS  /tmp/ccVIe4kR.s 			page 31


 1711              	.LVL115:
 1712              		.loc 1 378 0
 1713 0416 3046     		mov	r0, r6
 1714 0418 10A9     		add	r1, sp, #64
 1715 041a FFF7FEFF 		bl	TIM_OC2Init
 1716              	.LVL116:
 1717              		.loc 1 379 0
 1718 041e 3046     		mov	r0, r6
 1719 0420 0821     		movs	r1, #8
 1720 0422 FFF7FEFF 		bl	TIM_OC2PreloadConfig
 1721              	.LVL117:
 1722              		.loc 1 381 0
 1723 0426 3046     		mov	r0, r6
 1724 0428 3946     		mov	r1, r7
 1725 042a FFF7FEFF 		bl	TIM_ARRPreloadConfig
 1726              	.LVL118:
 1727              		.loc 1 382 0
 1728 042e 3046     		mov	r0, r6
 1729 0430 3946     		mov	r1, r7
 1730 0432 FFF7FEFF 		bl	TIM_CCPreloadControl
 1731              	.LVL119:
 1732              		.loc 1 385 0
 1733 0436 3046     		mov	r0, r6
 1734 0438 3946     		mov	r1, r7
 1735 043a FFF7FEFF 		bl	TIM_CtrlPWMOutputs
 1736              	.LVL120:
 1737              		.loc 1 388 0
 1738 043e 2846     		mov	r0, r5
 1739 0440 2021     		movs	r1, #32
 1740 0442 FFF7FEFF 		bl	TIM_SelectOutputTrigger
 1741              	.LVL121:
 1742              		.loc 1 389 0
 1743 0446 2846     		mov	r0, r5
 1744 0448 8021     		movs	r1, #128
 1745 044a FFF7FEFF 		bl	TIM_SelectMasterSlaveMode
 1746              	.LVL122:
 1747              		.loc 1 390 0
 1748 044e 3046     		mov	r0, r6
 1749 0450 2146     		mov	r1, r4
 1750 0452 FFF7FEFF 		bl	TIM_SelectInputTrigger
 1751              	.LVL123:
 1752              		.loc 1 391 0
 1753 0456 3046     		mov	r0, r6
 1754 0458 4146     		mov	r1, r8
 1755 045a FFF7FEFF 		bl	TIM_SelectSlaveMode
 1756              	.LVL124:
 1757              		.loc 1 394 0
 1758 045e 2846     		mov	r0, r5
 1759 0460 3946     		mov	r1, r7
 1760 0462 FFF7FEFF 		bl	TIM_Cmd
 1761              	.LVL125:
 1762              		.loc 1 395 0
 1763 0466 3046     		mov	r0, r6
 1764 0468 3946     		mov	r1, r7
 1765 046a FFF7FEFF 		bl	TIM_Cmd
 1766              	.LVL126:
 1767              		.loc 1 398 0
ARM GAS  /tmp/ccVIe4kR.s 			page 32


 1768 046e 3946     		mov	r1, r7
 1769 0470 2846     		mov	r0, r5
 1770 0472 FFF7FEFF 		bl	TIM_CtrlPWMOutputs
 1771              	.LVL127:
 1772              		.loc 1 401 0
 1773 0476 FFF7FEFF 		bl	stop_pwm_hw
 1774              	.LVL128:
 1775              		.loc 1 405 0
 1776 047a 2B68     		ldr	r3, [r5]
 1777 047c 43F00203 		orr	r3, r3, #2
 1778 0480 2B60     		str	r3, [r5]
 1779 0482 3368     		ldr	r3, [r6]
 1780 0484 43F00203 		orr	r3, r3, #2
 1781 0488 3360     		str	r3, [r6]
 1782 048a 0523     		movs	r3, #5
 1783 048c 7363     		str	r3, [r6, #52]
 1784 048e EB6A     		ldr	r3, [r5, #44]
 1785 0490 023B     		subs	r3, r3, #2
 1786 0492 2B64     		str	r3, [r5, #64]
 1787 0494 EB6A     		ldr	r3, [r5, #44]
 1788 0496 023B     		subs	r3, r3, #2
 1789 0498 B363     		str	r3, [r6, #56]
 1790 049a 2B68     		ldr	r3, [r5]
 1791 049c 23F00203 		bic	r3, r3, #2
 1792 04a0 2B60     		str	r3, [r5]
 1793 04a2 3368     		ldr	r3, [r6]
 1794 04a4 23F00203 		bic	r3, r3, #2
 1795 04a8 3360     		str	r3, [r6]
 1796              		.loc 1 407 0
 1797 04aa FFF7FEFF 		bl	utils_sys_unlock_cnt
 1798              	.LVL129:
 1799              		.loc 1 411 0
 1800 04ae 314B     		ldr	r3, .L104
 1801              		.loc 1 410 0
 1802 04b0 314A     		ldr	r2, .L104+4
 1803              		.loc 1 411 0
 1804 04b2 4FF48051 		mov	r1, #4096
 1805              		.loc 1 410 0
 1806 04b6 A2F81890 		strh	r9, [r2, #24]	@ movhi
 1807              		.loc 1 411 0
 1808 04ba 5983     		strh	r1, [r3, #26]	@ movhi
 1809              	.LBB72:
 1810              	.LBB73:
 1811              		.loc 1 1708 0
 1812 04bc 1983     		strh	r1, [r3, #24]	@ movhi
 1813              	.L95:
 1814              		.loc 1 1709 0
 1815 04be 1369     		ldr	r3, [r2, #16]
 1816 04c0 DB04     		lsls	r3, r3, #19
 1817 04c2 FCD5     		bpl	.L95
 1818              		.loc 1 1710 0
 1819 04c4 42F21070 		movw	r0, #10000
 1820 04c8 FFF7FEFF 		bl	chThdSleep
 1821              	.LVL130:
 1822              		.loc 1 1711 0
 1823 04cc 2B4A     		ldr	r2, .L104+8
 1824 04ce 0023     		movs	r3, #0
ARM GAS  /tmp/ccVIe4kR.s 			page 33


 1825 04d0 1360     		str	r3, [r2]
 1826              		.loc 1 1712 0
 1827 04d2 2B4A     		ldr	r2, .L104+12
 1828 04d4 1360     		str	r3, [r2]
 1829              		.loc 1 1713 0
 1830 04d6 CBF80030 		str	r3, [fp]
 1831              	.L96:
 1832              		.loc 1 1714 0
 1833 04da DBF80030 		ldr	r3, [fp]
 1834 04de 294A     		ldr	r2, .L104+16
 1835 04e0 B3F57A6F 		cmp	r3, #4000
 1836 04e4 F9DB     		blt	.L96
 1837              		.loc 1 1715 0
 1838 04e6 2849     		ldr	r1, .L104+20
 1839 04e8 244B     		ldr	r3, .L104+8
 1840              		.loc 1 1716 0
 1841 04ea 2848     		ldr	r0, .L104+24
 1842              		.loc 1 1715 0
 1843 04ec 1B68     		ldr	r3, [r3]
 1844 04ee 1568     		ldr	r5, [r2]
 1845 04f0 93FBF5F3 		sdiv	r3, r3, r5
 1846 04f4 0B60     		str	r3, [r1]
 1847              		.loc 1 1716 0
 1848 04f6 224B     		ldr	r3, .L104+12
 1849              		.loc 1 1717 0
 1850 04f8 1E4C     		ldr	r4, .L104
 1851              		.loc 1 1716 0
 1852 04fa 1B68     		ldr	r3, [r3]
 1853 04fc 1268     		ldr	r2, [r2]
 1854 04fe 93FBF2F3 		sdiv	r3, r3, r2
 1855              		.loc 1 1718 0
 1856 0502 0125     		movs	r5, #1
 1857              		.loc 1 1716 0
 1858 0504 0360     		str	r3, [r0]
 1859              		.loc 1 1717 0
 1860 0506 4FF48056 		mov	r6, #4096
 1861              		.loc 1 1718 0
 1862 050a 214B     		ldr	r3, .L104+28
 1863              		.loc 1 1717 0
 1864 050c 6683     		strh	r6, [r4, #26]	@ movhi
 1865              	.LBE73:
 1866              	.LBE72:
 1867              		.loc 1 415 0
 1868 050e 2946     		mov	r1, r5
 1869 0510 4020     		movs	r0, #64
 1870              		.loc 1 420 0
 1871 0512 0024     		movs	r4, #0
 1872              	.LBB75:
 1873              	.LBB74:
 1874              		.loc 1 1718 0
 1875 0514 1D70     		strb	r5, [r3]
 1876              	.LBE74:
 1877              	.LBE75:
 1878              		.loc 1 415 0
 1879 0516 FFF7FEFF 		bl	RCC_APB1PeriphClockCmd
 1880              	.LVL131:
 1881              		.loc 1 418 0
ARM GAS  /tmp/ccVIe4kR.s 			page 34


 1882 051a 4FF0FF32 		mov	r2, #-1
 1883              		.loc 1 419 0
 1884 051e 0723     		movs	r3, #7
 1885              		.loc 1 422 0
 1886 0520 05A9     		add	r1, sp, #20
 1887 0522 1C48     		ldr	r0, .L104+32
 1888              		.loc 1 418 0
 1889 0524 0692     		str	r2, [sp, #24]
 1890              		.loc 1 419 0
 1891 0526 ADF81430 		strh	r3, [sp, #20]	@ movhi
 1892              		.loc 1 420 0
 1893 052a ADF81C40 		strh	r4, [sp, #28]	@ movhi
 1894              		.loc 1 421 0
 1895 052e ADF81640 		strh	r4, [sp, #22]	@ movhi
 1896              		.loc 1 422 0
 1897 0532 FFF7FEFF 		bl	TIM_TimeBaseInit
 1898              	.LVL132:
 1899              		.loc 1 424 0
 1900 0536 2946     		mov	r1, r5
 1901 0538 1648     		ldr	r0, .L104+32
 1902 053a FFF7FEFF 		bl	TIM_Cmd
 1903              	.LVL133:
 1904              		.loc 1 427 0
 1905 053e 164A     		ldr	r2, .L104+36
 1906              		.loc 1 428 0
 1907 0540 164B     		ldr	r3, .L104+40
 1908 0542 0094     		str	r4, [sp]
 1909 0544 40F69811 		movw	r1, #2456
 1910              		.loc 1 427 0
 1911 0548 1470     		strb	r4, [r2]
 1912              		.loc 1 428 0
 1913 054a 1548     		ldr	r0, .L104+44
 1914 054c 4022     		movs	r2, #64
 1915 054e FFF7FEFF 		bl	chThdCreateStatic
 1916              	.LVL134:
 1917              		.loc 1 431 0
 1918 0552 2946     		mov	r1, r5
 1919 0554 4FF40060 		mov	r0, #2048
 1920 0558 FFF7FEFF 		bl	RCC_APB1PeriphClockCmd
 1921              	.LVL135:
 1922              		.loc 1 432 0
 1923 055c 2046     		mov	r0, r4
 1924 055e FFF7FEFF 		bl	WWDG_SetPrescaler
 1925              	.LVL136:
 1926              		.loc 1 433 0
 1927 0562 FF20     		movs	r0, #255
 1928 0564 FFF7FEFF 		bl	WWDG_SetWindowValue
 1929              	.LVL137:
 1930              		.loc 1 434 0
 1931 0568 6420     		movs	r0, #100
 1932 056a FFF7FEFF 		bl	WWDG_Enable
 1933              	.LVL138:
 1934              		.loc 1 435 0
 1935 056e 2BB0     		add	sp, sp, #172
 1936              		.cfi_def_cfa_offset 36
 1937              		@ sp needed
 1938 0570 BDE8F08F 		pop	{r4, r5, r6, r7, r8, r9, r10, fp, pc}
ARM GAS  /tmp/ccVIe4kR.s 			page 35


 1939              	.L105:
 1940              		.align	2
 1941              	.L104:
 1942 0574 00040240 		.word	1073873920
 1943 0578 00080240 		.word	1073874944
 1944 057c 00000000 		.word	.LANCHOR21
 1945 0580 00000000 		.word	.LANCHOR22
 1946 0584 00000000 		.word	.LANCHOR23
 1947 0588 00000000 		.word	.LANCHOR38
 1948 058c 00000000 		.word	.LANCHOR39
 1949 0590 00000000 		.word	.LANCHOR24
 1950 0594 00180040 		.word	1073747968
 1951 0598 00000000 		.word	.LANCHOR8
 1952 059c 00000000 		.word	timer_thread
 1953 05a0 00000000 		.word	.LANCHOR40
 1954              		.cfi_endproc
 1955              	.LFE256:
 1956              		.size	mcpwm_foc_init, .-mcpwm_foc_init
 1957              		.section	.text.mcpwm_foc_deinit,"ax",%progbits
 1958              		.align	2
 1959              		.p2align 4,,15
 1960              		.global	mcpwm_foc_deinit
 1961              		.thumb
 1962              		.thumb_func
 1963              		.type	mcpwm_foc_deinit, %function
 1964              	mcpwm_foc_deinit:
 1965              	.LFB257:
 1966              		.loc 1 437 0
 1967              		.cfi_startproc
 1968              		@ args = 0, pretend = 0, frame = 0
 1969              		@ frame_needed = 0, uses_anonymous_args = 0
 1970 0000 10B5     		push	{r4, lr}
 1971              		.cfi_def_cfa_offset 8
 1972              		.cfi_offset 4, -8
 1973              		.cfi_offset 14, -4
 1974              		.loc 1 440 0
 1975 0002 114C     		ldr	r4, .L112
 1976              		.loc 1 438 0
 1977 0004 FFF7FEFF 		bl	WWDG_DeInit
 1978              	.LVL139:
 1979              		.loc 1 440 0
 1980 0008 0123     		movs	r3, #1
 1981 000a 2370     		strb	r3, [r4]
 1982              		.loc 1 442 0
 1983 000c 2378     		ldrb	r3, [r4]	@ zero_extendqisi2
 1984 000e 2BB1     		cbz	r3, .L108
 1985              	.L109:
 1986              		.loc 1 443 0
 1987 0010 0A20     		movs	r0, #10
 1988 0012 FFF7FEFF 		bl	chThdSleep
 1989              	.LVL140:
 1990              		.loc 1 442 0
 1991 0016 2378     		ldrb	r3, [r4]	@ zero_extendqisi2
 1992 0018 002B     		cmp	r3, #0
 1993 001a F9D1     		bne	.L109
 1994              	.L108:
 1995              		.loc 1 446 0
ARM GAS  /tmp/ccVIe4kR.s 			page 36


 1996 001c 0B48     		ldr	r0, .L112+4
 1997 001e FFF7FEFF 		bl	TIM_DeInit
 1998              	.LVL141:
 1999              		.loc 1 447 0
 2000 0022 0B48     		ldr	r0, .L112+8
 2001 0024 FFF7FEFF 		bl	TIM_DeInit
 2002              	.LVL142:
 2003              		.loc 1 448 0
 2004 0028 0A48     		ldr	r0, .L112+12
 2005 002a FFF7FEFF 		bl	TIM_DeInit
 2006              	.LVL143:
 2007              		.loc 1 449 0
 2008 002e FFF7FEFF 		bl	ADC_DeInit
 2009              	.LVL144:
 2010              		.loc 1 450 0
 2011 0032 0948     		ldr	r0, .L112+16
 2012 0034 FFF7FEFF 		bl	DMA_DeInit
 2013              	.LVL145:
 2014              		.loc 1 451 0
 2015 0038 1220     		movs	r0, #18
 2016 003a FFF7FEFF 		bl	nvicDisableVector
 2017              	.LVL146:
 2018              		.loc 1 452 0
 2019 003e 0748     		ldr	r0, .L112+20
 2020              		.loc 1 453 0
 2021 0040 BDE81040 		pop	{r4, lr}
 2022              		.cfi_restore 14
 2023              		.cfi_restore 4
 2024              		.cfi_def_cfa_offset 0
 2025              		.loc 1 452 0
 2026 0044 FFF7FEBF 		b	dmaStreamRelease
 2027              	.LVL147:
 2028              	.L113:
 2029              		.align	2
 2030              	.L112:
 2031 0048 00000000 		.word	.LANCHOR8
 2032 004c 00000140 		.word	1073807360
 2033 0050 00040140 		.word	1073808384
 2034 0054 00180040 		.word	1073747968
 2035 0058 70640240 		.word	1073898608
 2036 005c 90000000 		.word	_stm32_dma_streams+144
 2037              		.cfi_endproc
 2038              	.LFE257:
 2039              		.size	mcpwm_foc_deinit, .-mcpwm_foc_deinit
 2040              		.section	.text.mcpwm_foc_set_configuration,"ax",%progbits
 2041              		.align	2
 2042              		.p2align 4,,15
 2043              		.global	mcpwm_foc_set_configuration
 2044              		.thumb
 2045              		.thumb_func
 2046              		.type	mcpwm_foc_set_configuration, %function
 2047              	mcpwm_foc_set_configuration:
 2048              	.LFB258:
 2049              		.loc 1 455 0
 2050              		.cfi_startproc
 2051              		@ args = 0, pretend = 0, frame = 0
 2052              		@ frame_needed = 0, uses_anonymous_args = 0
ARM GAS  /tmp/ccVIe4kR.s 			page 37


 2053              	.LVL148:
 2054 0000 38B5     		push	{r3, r4, r5, lr}
 2055              		.cfi_def_cfa_offset 16
 2056              		.cfi_offset 3, -16
 2057              		.cfi_offset 4, -12
 2058              		.cfi_offset 5, -8
 2059              		.cfi_offset 14, -4
 2060              		.loc 1 458 0
 2061 0002 1649     		ldr	r1, .L116
 2062              		.loc 1 456 0
 2063 0004 164C     		ldr	r4, .L116+4
 2064              		.loc 1 459 0
 2065 0006 174B     		ldr	r3, .L116+8
 2066              		.loc 1 456 0
 2067 0008 2060     		str	r0, [r4]
 2068              		.loc 1 459 0
 2069 000a 0022     		movs	r2, #0
 2070              		.loc 1 458 0
 2071 000c 0525     		movs	r5, #5
 2072 000e 0D70     		strb	r5, [r1]
 2073              		.loc 1 459 0
 2074 0010 1A70     		strb	r2, [r3]
 2075              		.loc 1 460 0
 2076 0012 FFF7FEFF 		bl	stop_pwm_hw
 2077              	.LVL149:
 2078              		.loc 1 461 0
 2079 0016 2368     		ldr	r3, [r4]
 2080              		.loc 1 462 0
 2081 0018 134A     		ldr	r2, .L116+12
 2082              		.loc 1 461 0
 2083 001a D3ED257A 		flds	s15, [r3, #148]
 2084              		.loc 1 462 0
 2085 001e 1168     		ldr	r1, [r2]
 2086 0020 124B     		ldr	r3, .L116+16
 2087              		.loc 1 461 0
 2088 0022 1348     		ldr	r0, .L116+20
 2089              		.loc 1 462 0
 2090 0024 41F00201 		orr	r1, r1, #2
 2091              		.loc 1 461 0
 2092 0028 FDEEE77A 		ftosizs	s15, s15
 2093              		.loc 1 462 0
 2094 002c 1160     		str	r1, [r2]
 2095 002e 1C68     		ldr	r4, [r3]
 2096              		.loc 1 461 0
 2097 0030 17EE901A 		fmrs	r1, s15	@ int
 2098              		.loc 1 462 0
 2099 0034 44F00204 		orr	r4, r4, #2
 2100              		.loc 1 461 0
 2101 0038 90FBF1F1 		sdiv	r1, r0, r1
 2102              	.LVL150:
 2103              		.loc 1 462 0
 2104 003c 881E     		subs	r0, r1, #2
 2105 003e 1C60     		str	r4, [r3]
 2106 0040 D162     		str	r1, [r2, #44]
 2107 0042 D962     		str	r1, [r3, #44]
 2108 0044 5D63     		str	r5, [r3, #52]
 2109 0046 1064     		str	r0, [r2, #64]
ARM GAS  /tmp/ccVIe4kR.s 			page 38


 2110 0048 9863     		str	r0, [r3, #56]
 2111 004a 1168     		ldr	r1, [r2]
 2112              	.LVL151:
 2113 004c 21F00201 		bic	r1, r1, #2
 2114 0050 1160     		str	r1, [r2]
 2115 0052 1A68     		ldr	r2, [r3]
 2116 0054 22F00202 		bic	r2, r2, #2
 2117 0058 1A60     		str	r2, [r3]
 2118 005a 38BD     		pop	{r3, r4, r5, pc}
 2119              	.L117:
 2120              		.align	2
 2121              	.L116:
 2122 005c 00000000 		.word	.LANCHOR13
 2123 0060 00000000 		.word	.LANCHOR2
 2124 0064 00000000 		.word	.LANCHOR6
 2125 0068 00000140 		.word	1073807360
 2126 006c 00040140 		.word	1073808384
 2127 0070 007A030A 		.word	168000000
 2128              		.cfi_endproc
 2129              	.LFE258:
 2130              		.size	mcpwm_foc_set_configuration, .-mcpwm_foc_set_configuration
 2131              		.section	.text.mcpwm_foc_get_state,"ax",%progbits
 2132              		.align	2
 2133              		.p2align 4,,15
 2134              		.global	mcpwm_foc_get_state
 2135              		.thumb
 2136              		.thumb_func
 2137              		.type	mcpwm_foc_get_state, %function
 2138              	mcpwm_foc_get_state:
 2139              	.LFB259:
 2140              		.loc 1 465 0
 2141              		.cfi_startproc
 2142              		@ args = 0, pretend = 0, frame = 0
 2143              		@ frame_needed = 0, uses_anonymous_args = 0
 2144              		@ link register save eliminated.
 2145              		.loc 1 466 0
 2146 0000 014B     		ldr	r3, .L119
 2147 0002 1878     		ldrb	r0, [r3]	@ zero_extendqisi2
 2148              		.loc 1 467 0
 2149 0004 7047     		bx	lr
 2150              	.L120:
 2151 0006 00BF     		.align	2
 2152              	.L119:
 2153 0008 00000000 		.word	.LANCHOR6
 2154              		.cfi_endproc
 2155              	.LFE259:
 2156              		.size	mcpwm_foc_get_state, .-mcpwm_foc_get_state
 2157              		.section	.text.mcpwm_foc_is_dccal_done,"ax",%progbits
 2158              		.align	2
 2159              		.p2align 4,,15
 2160              		.global	mcpwm_foc_is_dccal_done
 2161              		.thumb
 2162              		.thumb_func
 2163              		.type	mcpwm_foc_is_dccal_done, %function
 2164              	mcpwm_foc_is_dccal_done:
 2165              	.LFB260:
 2166              		.loc 1 469 0
ARM GAS  /tmp/ccVIe4kR.s 			page 39


 2167              		.cfi_startproc
 2168              		@ args = 0, pretend = 0, frame = 0
 2169              		@ frame_needed = 0, uses_anonymous_args = 0
 2170              		@ link register save eliminated.
 2171              		.loc 1 470 0
 2172 0000 014B     		ldr	r3, .L122
 2173 0002 1878     		ldrb	r0, [r3]	@ zero_extendqisi2
 2174              		.loc 1 471 0
 2175 0004 7047     		bx	lr
 2176              	.L123:
 2177 0006 00BF     		.align	2
 2178              	.L122:
 2179 0008 00000000 		.word	.LANCHOR24
 2180              		.cfi_endproc
 2181              	.LFE260:
 2182              		.size	mcpwm_foc_is_dccal_done, .-mcpwm_foc_is_dccal_done
 2183              		.section	.text.mcpwm_foc_set_duty,"ax",%progbits
 2184              		.align	2
 2185              		.p2align 4,,15
 2186              		.global	mcpwm_foc_set_duty
 2187              		.thumb
 2188              		.thumb_func
 2189              		.type	mcpwm_foc_set_duty, %function
 2190              	mcpwm_foc_set_duty:
 2191              	.LFB262:
 2192              		.loc 1 487 0
 2193              		.cfi_startproc
 2194              		@ args = 0, pretend = 0, frame = 0
 2195              		@ frame_needed = 0, uses_anonymous_args = 0
 2196              		@ link register save eliminated.
 2197              	.LVL152:
 2198              		.loc 1 489 0
 2199 0000 064A     		ldr	r2, .L129
 2200              		.loc 1 488 0
 2201 0002 0749     		ldr	r1, .L129+4
 2202              		.loc 1 491 0
 2203 0004 074B     		ldr	r3, .L129+8
 2204              		.loc 1 488 0
 2205 0006 0020     		movs	r0, #0
 2206 0008 0870     		strb	r0, [r1]
 2207              		.loc 1 489 0
 2208 000a 82ED000A 		fsts	s0, [r2]
 2209              		.loc 1 491 0
 2210 000e 1A78     		ldrb	r2, [r3]	@ zero_extendqisi2
 2211 0010 022A     		cmp	r2, #2
 2212              		.loc 1 492 0
 2213 0012 1CBF     		itt	ne
 2214 0014 0222     		movne	r2, #2
 2215 0016 1A70     		strbne	r2, [r3]
 2216 0018 7047     		bx	lr
 2217              	.L130:
 2218 001a 00BF     		.align	2
 2219              	.L129:
 2220 001c 00000000 		.word	.LANCHOR27
 2221 0020 00000000 		.word	.LANCHOR13
 2222 0024 00000000 		.word	.LANCHOR6
 2223              		.cfi_endproc
ARM GAS  /tmp/ccVIe4kR.s 			page 40


 2224              	.LFE262:
 2225              		.size	mcpwm_foc_set_duty, .-mcpwm_foc_set_duty
 2226              		.section	.text.mcpwm_foc_set_duty_noramp,"ax",%progbits
 2227              		.align	2
 2228              		.p2align 4,,15
 2229              		.global	mcpwm_foc_set_duty_noramp
 2230              		.thumb
 2231              		.thumb_func
 2232              		.type	mcpwm_foc_set_duty_noramp, %function
 2233              	mcpwm_foc_set_duty_noramp:
 2234              	.LFB263:
 2235              		.loc 1 506 0
 2236              		.cfi_startproc
 2237              		@ args = 0, pretend = 0, frame = 0
 2238              		@ frame_needed = 0, uses_anonymous_args = 0
 2239              		@ link register save eliminated.
 2240              	.LVL153:
 2241              	.LBB76:
 2242              	.LBB77:
 2243              		.loc 1 489 0
 2244 0000 064A     		ldr	r2, .L136
 2245              		.loc 1 488 0
 2246 0002 0749     		ldr	r1, .L136+4
 2247              		.loc 1 491 0
 2248 0004 074B     		ldr	r3, .L136+8
 2249              		.loc 1 488 0
 2250 0006 0020     		movs	r0, #0
 2251 0008 0870     		strb	r0, [r1]
 2252              		.loc 1 489 0
 2253 000a 82ED000A 		fsts	s0, [r2]
 2254              		.loc 1 491 0
 2255 000e 1A78     		ldrb	r2, [r3]	@ zero_extendqisi2
 2256 0010 022A     		cmp	r2, #2
 2257              		.loc 1 492 0
 2258 0012 1CBF     		itt	ne
 2259 0014 0222     		movne	r2, #2
 2260 0016 1A70     		strbne	r2, [r3]
 2261 0018 7047     		bx	lr
 2262              	.L137:
 2263 001a 00BF     		.align	2
 2264              	.L136:
 2265 001c 00000000 		.word	.LANCHOR27
 2266 0020 00000000 		.word	.LANCHOR13
 2267 0024 00000000 		.word	.LANCHOR6
 2268              	.LBE77:
 2269              	.LBE76:
 2270              		.cfi_endproc
 2271              	.LFE263:
 2272              		.size	mcpwm_foc_set_duty_noramp, .-mcpwm_foc_set_duty_noramp
 2273              		.section	.text.mcpwm_foc_set_pid_speed,"ax",%progbits
 2274              		.align	2
 2275              		.p2align 4,,15
 2276              		.global	mcpwm_foc_set_pid_speed
 2277              		.thumb
 2278              		.thumb_func
 2279              		.type	mcpwm_foc_set_pid_speed, %function
 2280              	mcpwm_foc_set_pid_speed:
ARM GAS  /tmp/ccVIe4kR.s 			page 41


 2281              	.LFB264:
 2282              		.loc 1 518 0
 2283              		.cfi_startproc
 2284              		@ args = 0, pretend = 0, frame = 0
 2285              		@ frame_needed = 0, uses_anonymous_args = 0
 2286              		@ link register save eliminated.
 2287              	.LVL154:
 2288              		.loc 1 520 0
 2289 0000 064A     		ldr	r2, .L143
 2290              		.loc 1 519 0
 2291 0002 0749     		ldr	r1, .L143+4
 2292              		.loc 1 522 0
 2293 0004 074B     		ldr	r3, .L143+8
 2294              		.loc 1 519 0
 2295 0006 0120     		movs	r0, #1
 2296 0008 0870     		strb	r0, [r1]
 2297              		.loc 1 520 0
 2298 000a 82ED000A 		fsts	s0, [r2]
 2299              		.loc 1 522 0
 2300 000e 1A78     		ldrb	r2, [r3]	@ zero_extendqisi2
 2301 0010 022A     		cmp	r2, #2
 2302              		.loc 1 523 0
 2303 0012 1CBF     		itt	ne
 2304 0014 0222     		movne	r2, #2
 2305 0016 1A70     		strbne	r2, [r3]
 2306 0018 7047     		bx	lr
 2307              	.L144:
 2308 001a 00BF     		.align	2
 2309              	.L143:
 2310 001c 00000000 		.word	.LANCHOR19
 2311 0020 00000000 		.word	.LANCHOR13
 2312 0024 00000000 		.word	.LANCHOR6
 2313              		.cfi_endproc
 2314              	.LFE264:
 2315              		.size	mcpwm_foc_set_pid_speed, .-mcpwm_foc_set_pid_speed
 2316              		.section	.text.mcpwm_foc_set_pid_pos,"ax",%progbits
 2317              		.align	2
 2318              		.p2align 4,,15
 2319              		.global	mcpwm_foc_set_pid_pos
 2320              		.thumb
 2321              		.thumb_func
 2322              		.type	mcpwm_foc_set_pid_pos, %function
 2323              	mcpwm_foc_set_pid_pos:
 2324              	.LFB265:
 2325              		.loc 1 534 0
 2326              		.cfi_startproc
 2327              		@ args = 0, pretend = 0, frame = 0
 2328              		@ frame_needed = 0, uses_anonymous_args = 0
 2329              		@ link register save eliminated.
 2330              	.LVL155:
 2331              		.loc 1 536 0
 2332 0000 064A     		ldr	r2, .L150
 2333              		.loc 1 535 0
 2334 0002 0749     		ldr	r1, .L150+4
 2335              		.loc 1 538 0
 2336 0004 074B     		ldr	r3, .L150+8
 2337              		.loc 1 535 0
ARM GAS  /tmp/ccVIe4kR.s 			page 42


 2338 0006 0420     		movs	r0, #4
 2339 0008 0870     		strb	r0, [r1]
 2340              		.loc 1 536 0
 2341 000a 82ED000A 		fsts	s0, [r2]
 2342              		.loc 1 538 0
 2343 000e 1A78     		ldrb	r2, [r3]	@ zero_extendqisi2
 2344 0010 022A     		cmp	r2, #2
 2345              		.loc 1 539 0
 2346 0012 1CBF     		itt	ne
 2347 0014 0222     		movne	r2, #2
 2348 0016 1A70     		strbne	r2, [r3]
 2349 0018 7047     		bx	lr
 2350              	.L151:
 2351 001a 00BF     		.align	2
 2352              	.L150:
 2353 001c 00000000 		.word	.LANCHOR29
 2354 0020 00000000 		.word	.LANCHOR13
 2355 0024 00000000 		.word	.LANCHOR6
 2356              		.cfi_endproc
 2357              	.LFE265:
 2358              		.size	mcpwm_foc_set_pid_pos, .-mcpwm_foc_set_pid_pos
 2359              		.section	.text.mcpwm_foc_set_current,"ax",%progbits
 2360              		.align	2
 2361              		.p2align 4,,15
 2362              		.global	mcpwm_foc_set_current
 2363              		.thumb
 2364              		.thumb_func
 2365              		.type	mcpwm_foc_set_current, %function
 2366              	mcpwm_foc_set_current:
 2367              	.LFB266:
 2368              		.loc 1 551 0
 2369              		.cfi_startproc
 2370              		@ args = 0, pretend = 0, frame = 8
 2371              		@ frame_needed = 0, uses_anonymous_args = 0
 2372              	.LVL156:
 2373              		.loc 1 552 0
 2374 0000 164B     		ldr	r3, .L163
 2375              		.loc 1 551 0
 2376 0002 10B5     		push	{r4, lr}
 2377              		.cfi_def_cfa_offset 8
 2378              		.cfi_offset 4, -8
 2379              		.cfi_offset 14, -4
 2380              		.loc 1 552 0
 2381 0004 1B68     		ldr	r3, [r3]
 2382 0006 D3ED447A 		flds	s15, [r3, #272]
 2383 000a B0EEC07A 		fabss	s14, s0
 2384 000e B4EEE77A 		fcmpes	s14, s15
 2385              		.loc 1 551 0
 2386 0012 82B0     		sub	sp, sp, #8
 2387              		.cfi_def_cfa_offset 16
 2388              		.loc 1 552 0
 2389 0014 F1EE10FA 		fmstat
 2390              		.loc 1 551 0
 2391 0018 8DED010A 		fsts	s0, [sp, #4]
 2392              		.loc 1 552 0
 2393 001c 13D4     		bmi	.L162
 2394              		.loc 1 559 0
ARM GAS  /tmp/ccVIe4kR.s 			page 43


 2395 001e 93ED160A 		flds	s0, [r3, #88]
 2396              	.LVL157:
 2397 0022 D3ED150A 		flds	s1, [r3, #84]
 2398              		.loc 1 561 0
 2399 0026 0E4C     		ldr	r4, .L163+4
 2400              		.loc 1 559 0
 2401 0028 01A8     		add	r0, sp, #4
 2402              	.LVL158:
 2403 002a FFF7FEFF 		bl	utils_truncate_number
 2404              	.LVL159:
 2405              		.loc 1 562 0
 2406 002e 0D49     		ldr	r1, .L163+8
 2407              		.loc 1 564 0
 2408 0030 0D4B     		ldr	r3, .L163+12
 2409              		.loc 1 562 0
 2410 0032 0198     		ldr	r0, [sp, #4]	@ float
 2411              		.loc 1 561 0
 2412 0034 0222     		movs	r2, #2
 2413 0036 2270     		strb	r2, [r4]
 2414              		.loc 1 562 0
 2415 0038 0860     		str	r0, [r1]	@ float
 2416              		.loc 1 564 0
 2417 003a 1978     		ldrb	r1, [r3]	@ zero_extendqisi2
 2418 003c 9142     		cmp	r1, r2
 2419              		.loc 1 565 0
 2420 003e 18BF     		it	ne
 2421 0040 1A70     		strbne	r2, [r3]
 2422              		.loc 1 567 0
 2423 0042 02B0     		add	sp, sp, #8
 2424              		.cfi_remember_state
 2425              		.cfi_def_cfa_offset 8
 2426              		@ sp needed
 2427 0044 10BD     		pop	{r4, pc}
 2428              	.LVL160:
 2429              	.L162:
 2430              		.cfi_restore_state
 2431              	.LBB80:
 2432              	.LBB81:
 2433              		.loc 1 553 0
 2434 0046 0649     		ldr	r1, .L163+4
 2435              		.loc 1 554 0
 2436 0048 074B     		ldr	r3, .L163+12
 2437              		.loc 1 553 0
 2438 004a 0520     		movs	r0, #5
 2439              		.loc 1 554 0
 2440 004c 0022     		movs	r2, #0
 2441              		.loc 1 553 0
 2442 004e 0870     		strb	r0, [r1]
 2443              		.loc 1 554 0
 2444 0050 1A70     		strb	r2, [r3]
 2445              		.loc 1 555 0
 2446 0052 FFF7FEFF 		bl	stop_pwm_hw
 2447              	.LVL161:
 2448              	.LBE81:
 2449              	.LBE80:
 2450              		.loc 1 567 0
 2451 0056 02B0     		add	sp, sp, #8
ARM GAS  /tmp/ccVIe4kR.s 			page 44


 2452              		.cfi_def_cfa_offset 8
 2453              		@ sp needed
 2454 0058 10BD     		pop	{r4, pc}
 2455              	.LVL162:
 2456              	.L164:
 2457 005a 00BF     		.align	2
 2458              	.L163:
 2459 005c 00000000 		.word	.LANCHOR2
 2460 0060 00000000 		.word	.LANCHOR13
 2461 0064 00000000 		.word	.LANCHOR20
 2462 0068 00000000 		.word	.LANCHOR6
 2463              		.cfi_endproc
 2464              	.LFE266:
 2465              		.size	mcpwm_foc_set_current, .-mcpwm_foc_set_current
 2466              		.section	.text.mcpwm_foc_stop_pwm,"ax",%progbits
 2467              		.align	2
 2468              		.p2align 4,,15
 2469              		.global	mcpwm_foc_stop_pwm
 2470              		.thumb
 2471              		.thumb_func
 2472              		.type	mcpwm_foc_stop_pwm, %function
 2473              	mcpwm_foc_stop_pwm:
 2474              	.LFB261:
 2475              		.loc 1 476 0
 2476              		.cfi_startproc
 2477              		@ args = 0, pretend = 0, frame = 0
 2478              		@ frame_needed = 0, uses_anonymous_args = 0
 2479              		@ link register save eliminated.
 2480              		.loc 1 477 0
 2481 0000 9FED010A 		flds	s0, .L166
 2482 0004 FFF7FEBF 		b	mcpwm_foc_set_current
 2483              	.LVL163:
 2484              	.L167:
 2485              		.align	2
 2486              	.L166:
 2487 0008 00000000 		.word	0
 2488              		.cfi_endproc
 2489              	.LFE261:
 2490              		.size	mcpwm_foc_stop_pwm, .-mcpwm_foc_stop_pwm
 2491              		.section	.text.mcpwm_foc_set_brake_current,"ax",%progbits
 2492              		.align	2
 2493              		.p2align 4,,15
 2494              		.global	mcpwm_foc_set_brake_current
 2495              		.thumb
 2496              		.thumb_func
 2497              		.type	mcpwm_foc_set_brake_current, %function
 2498              	mcpwm_foc_set_brake_current:
 2499              	.LFB267:
 2500              		.loc 1 576 0
 2501              		.cfi_startproc
 2502              		@ args = 0, pretend = 0, frame = 8
 2503              		@ frame_needed = 0, uses_anonymous_args = 0
 2504              	.LVL164:
 2505              		.loc 1 577 0
 2506 0000 164B     		ldr	r3, .L179
 2507              		.loc 1 576 0
 2508 0002 10B5     		push	{r4, lr}
ARM GAS  /tmp/ccVIe4kR.s 			page 45


 2509              		.cfi_def_cfa_offset 8
 2510              		.cfi_offset 4, -8
 2511              		.cfi_offset 14, -4
 2512              		.loc 1 577 0
 2513 0004 1B68     		ldr	r3, [r3]
 2514 0006 D3ED447A 		flds	s15, [r3, #272]
 2515 000a B0EEC07A 		fabss	s14, s0
 2516 000e B4EEE77A 		fcmpes	s14, s15
 2517              		.loc 1 576 0
 2518 0012 82B0     		sub	sp, sp, #8
 2519              		.cfi_def_cfa_offset 16
 2520              		.loc 1 577 0
 2521 0014 F1EE10FA 		fmstat
 2522              		.loc 1 576 0
 2523 0018 8DED010A 		fsts	s0, [sp, #4]
 2524              		.loc 1 577 0
 2525 001c 14D4     		bmi	.L178
 2526              		.loc 1 584 0
 2527 001e 93ED160A 		flds	s0, [r3, #88]
 2528              	.LVL165:
 2529 0022 D3ED150A 		flds	s1, [r3, #84]
 2530 0026 01A8     		add	r0, sp, #4
 2531              	.LVL166:
 2532 0028 FFF7FEFF 		bl	utils_truncate_number
 2533              	.LVL167:
 2534              		.loc 1 586 0
 2535 002c 0C48     		ldr	r0, .L179+4
 2536              		.loc 1 587 0
 2537 002e 0D4A     		ldr	r2, .L179+8
 2538              		.loc 1 589 0
 2539 0030 0D4B     		ldr	r3, .L179+12
 2540              		.loc 1 587 0
 2541 0032 0199     		ldr	r1, [sp, #4]	@ float
 2542              		.loc 1 586 0
 2543 0034 0324     		movs	r4, #3
 2544 0036 0470     		strb	r4, [r0]
 2545              		.loc 1 587 0
 2546 0038 1160     		str	r1, [r2]	@ float
 2547              		.loc 1 589 0
 2548 003a 1A78     		ldrb	r2, [r3]	@ zero_extendqisi2
 2549 003c 022A     		cmp	r2, #2
 2550              		.loc 1 590 0
 2551 003e 1CBF     		itt	ne
 2552 0040 0222     		movne	r2, #2
 2553 0042 1A70     		strbne	r2, [r3]
 2554              		.loc 1 592 0
 2555 0044 02B0     		add	sp, sp, #8
 2556              		.cfi_remember_state
 2557              		.cfi_def_cfa_offset 8
 2558              		@ sp needed
 2559 0046 10BD     		pop	{r4, pc}
 2560              	.LVL168:
 2561              	.L178:
 2562              		.cfi_restore_state
 2563              		.loc 1 578 0
 2564 0048 0549     		ldr	r1, .L179+4
 2565              		.loc 1 579 0
ARM GAS  /tmp/ccVIe4kR.s 			page 46


 2566 004a 074B     		ldr	r3, .L179+12
 2567              		.loc 1 578 0
 2568 004c 0520     		movs	r0, #5
 2569              		.loc 1 579 0
 2570 004e 0022     		movs	r2, #0
 2571              		.loc 1 578 0
 2572 0050 0870     		strb	r0, [r1]
 2573              		.loc 1 579 0
 2574 0052 1A70     		strb	r2, [r3]
 2575              		.loc 1 580 0
 2576 0054 FFF7FEFF 		bl	stop_pwm_hw
 2577              	.LVL169:
 2578              		.loc 1 592 0
 2579 0058 02B0     		add	sp, sp, #8
 2580              		.cfi_def_cfa_offset 8
 2581              		@ sp needed
 2582 005a 10BD     		pop	{r4, pc}
 2583              	.LVL170:
 2584              	.L180:
 2585              		.align	2
 2586              	.L179:
 2587 005c 00000000 		.word	.LANCHOR2
 2588 0060 00000000 		.word	.LANCHOR13
 2589 0064 00000000 		.word	.LANCHOR20
 2590 0068 00000000 		.word	.LANCHOR6
 2591              		.cfi_endproc
 2592              	.LFE267:
 2593              		.size	mcpwm_foc_set_brake_current, .-mcpwm_foc_set_brake_current
 2594              		.section	.text.mcpwm_foc_get_duty_cycle_set,"ax",%progbits
 2595              		.align	2
 2596              		.p2align 4,,15
 2597              		.global	mcpwm_foc_get_duty_cycle_set
 2598              		.thumb
 2599              		.thumb_func
 2600              		.type	mcpwm_foc_get_duty_cycle_set, %function
 2601              	mcpwm_foc_get_duty_cycle_set:
 2602              	.LFB268:
 2603              		.loc 1 594 0
 2604              		.cfi_startproc
 2605              		@ args = 0, pretend = 0, frame = 0
 2606              		@ frame_needed = 0, uses_anonymous_args = 0
 2607              		@ link register save eliminated.
 2608              		.loc 1 595 0
 2609 0000 014B     		ldr	r3, .L182
 2610 0002 93ED000A 		flds	s0, [r3]
 2611              		.loc 1 596 0
 2612 0006 7047     		bx	lr
 2613              	.L183:
 2614              		.align	2
 2615              	.L182:
 2616 0008 00000000 		.word	.LANCHOR27
 2617              		.cfi_endproc
 2618              	.LFE268:
 2619              		.size	mcpwm_foc_get_duty_cycle_set, .-mcpwm_foc_get_duty_cycle_set
 2620              		.section	.text.mcpwm_foc_get_duty_cycle_now,"ax",%progbits
 2621              		.align	2
 2622              		.p2align 4,,15
ARM GAS  /tmp/ccVIe4kR.s 			page 47


 2623              		.global	mcpwm_foc_get_duty_cycle_now
 2624              		.thumb
 2625              		.thumb_func
 2626              		.type	mcpwm_foc_get_duty_cycle_now, %function
 2627              	mcpwm_foc_get_duty_cycle_now:
 2628              	.LFB269:
 2629              		.loc 1 598 0
 2630              		.cfi_startproc
 2631              		@ args = 0, pretend = 0, frame = 0
 2632              		@ frame_needed = 0, uses_anonymous_args = 0
 2633              		@ link register save eliminated.
 2634              		.loc 1 599 0
 2635 0000 014B     		ldr	r3, .L185
 2636 0002 93ED030A 		flds	s0, [r3, #12]
 2637              		.loc 1 600 0
 2638 0006 7047     		bx	lr
 2639              	.L186:
 2640              		.align	2
 2641              	.L185:
 2642 0008 00000000 		.word	.LANCHOR9
 2643              		.cfi_endproc
 2644              	.LFE269:
 2645              		.size	mcpwm_foc_get_duty_cycle_now, .-mcpwm_foc_get_duty_cycle_now
 2646              		.section	.text.mcpwm_foc_get_pid_pos_set,"ax",%progbits
 2647              		.align	2
 2648              		.p2align 4,,15
 2649              		.global	mcpwm_foc_get_pid_pos_set
 2650              		.thumb
 2651              		.thumb_func
 2652              		.type	mcpwm_foc_get_pid_pos_set, %function
 2653              	mcpwm_foc_get_pid_pos_set:
 2654              	.LFB270:
 2655              		.loc 1 602 0
 2656              		.cfi_startproc
 2657              		@ args = 0, pretend = 0, frame = 0
 2658              		@ frame_needed = 0, uses_anonymous_args = 0
 2659              		@ link register save eliminated.
 2660              		.loc 1 603 0
 2661 0000 014B     		ldr	r3, .L188
 2662 0002 93ED000A 		flds	s0, [r3]
 2663              		.loc 1 604 0
 2664 0006 7047     		bx	lr
 2665              	.L189:
 2666              		.align	2
 2667              	.L188:
 2668 0008 00000000 		.word	.LANCHOR29
 2669              		.cfi_endproc
 2670              	.LFE270:
 2671              		.size	mcpwm_foc_get_pid_pos_set, .-mcpwm_foc_get_pid_pos_set
 2672              		.section	.text.mcpwm_foc_get_pid_pos_now,"ax",%progbits
 2673              		.align	2
 2674              		.p2align 4,,15
 2675              		.global	mcpwm_foc_get_pid_pos_now
 2676              		.thumb
 2677              		.thumb_func
 2678              		.type	mcpwm_foc_get_pid_pos_now, %function
 2679              	mcpwm_foc_get_pid_pos_now:
ARM GAS  /tmp/ccVIe4kR.s 			page 48


 2680              	.LFB271:
 2681              		.loc 1 606 0
 2682              		.cfi_startproc
 2683              		@ args = 0, pretend = 0, frame = 0
 2684              		@ frame_needed = 0, uses_anonymous_args = 0
 2685              		@ link register save eliminated.
 2686              		.loc 1 607 0
 2687 0000 014B     		ldr	r3, .L191
 2688 0002 93ED000A 		flds	s0, [r3]
 2689              		.loc 1 608 0
 2690 0006 7047     		bx	lr
 2691              	.L192:
 2692              		.align	2
 2693              	.L191:
 2694 0008 00000000 		.word	.LANCHOR37
 2695              		.cfi_endproc
 2696              	.LFE271:
 2697              		.size	mcpwm_foc_get_pid_pos_now, .-mcpwm_foc_get_pid_pos_now
 2698              		.section	.text.mcpwm_foc_get_switching_frequency_now,"ax",%progbits
 2699              		.align	2
 2700              		.p2align 4,,15
 2701              		.global	mcpwm_foc_get_switching_frequency_now
 2702              		.thumb
 2703              		.thumb_func
 2704              		.type	mcpwm_foc_get_switching_frequency_now, %function
 2705              	mcpwm_foc_get_switching_frequency_now:
 2706              	.LFB272:
 2707              		.loc 1 616 0
 2708              		.cfi_startproc
 2709              		@ args = 0, pretend = 0, frame = 0
 2710              		@ frame_needed = 0, uses_anonymous_args = 0
 2711              		@ link register save eliminated.
 2712              		.loc 1 617 0
 2713 0000 024B     		ldr	r3, .L194
 2714 0002 1B68     		ldr	r3, [r3]
 2715 0004 93ED250A 		flds	s0, [r3, #148]
 2716              		.loc 1 618 0
 2717 0008 7047     		bx	lr
 2718              	.L195:
 2719 000a 00BF     		.align	2
 2720              	.L194:
 2721 000c 00000000 		.word	.LANCHOR2
 2722              		.cfi_endproc
 2723              	.LFE272:
 2724              		.size	mcpwm_foc_get_switching_frequency_now, .-mcpwm_foc_get_switching_frequency_now
 2725              		.section	.text.mcpwm_foc_get_rpm,"ax",%progbits
 2726              		.align	2
 2727              		.p2align 4,,15
 2728              		.global	mcpwm_foc_get_rpm
 2729              		.thumb
 2730              		.thumb_func
 2731              		.type	mcpwm_foc_get_rpm, %function
 2732              	mcpwm_foc_get_rpm:
 2733              	.LFB273:
 2734              		.loc 1 628 0
 2735              		.cfi_startproc
 2736              		@ args = 0, pretend = 0, frame = 0
ARM GAS  /tmp/ccVIe4kR.s 			page 49


 2737              		@ frame_needed = 0, uses_anonymous_args = 0
 2738              		@ link register save eliminated.
 2739              		.loc 1 629 0
 2740 0000 034B     		ldr	r3, .L197
 2741 0002 DFED047A 		flds	s15, .L197+4
 2742 0006 93ED000A 		flds	s0, [r3]
 2743              		.loc 1 630 0
 2744 000a 80EE270A 		fdivs	s0, s0, s15
 2745 000e 7047     		bx	lr
 2746              	.L198:
 2747              		.align	2
 2748              	.L197:
 2749 0010 00000000 		.word	.LANCHOR11
 2750 0014 5077D63D 		.word	1037465424
 2751              		.cfi_endproc
 2752              	.LFE273:
 2753              		.size	mcpwm_foc_get_rpm, .-mcpwm_foc_get_rpm
 2754              		.section	.text.mcpwm_foc_get_tot_current,"ax",%progbits
 2755              		.align	2
 2756              		.p2align 4,,15
 2757              		.global	mcpwm_foc_get_tot_current
 2758              		.thumb
 2759              		.thumb_func
 2760              		.type	mcpwm_foc_get_tot_current, %function
 2761              	mcpwm_foc_get_tot_current:
 2762              	.LFB274:
 2763              		.loc 1 640 0
 2764              		.cfi_startproc
 2765              		@ args = 0, pretend = 0, frame = 0
 2766              		@ frame_needed = 0, uses_anonymous_args = 0
 2767              		@ link register save eliminated.
 2768              		.loc 1 641 0
 2769 0000 094B     		ldr	r3, .L202
 2770 0002 D3ED147A 		flds	s15, [r3, #80]
 2771 0006 93ED100A 		flds	s0, [r3, #64]
 2772 000a F5EEC07A 		fcmpezs	s15
 2773 000e F1EE10FA 		fmstat
 2774 0012 B7EE007A 		fconsts	s14, #112
 2775 0016 FFEE007A 		fconsts	s15, #240
 2776 001a 58BF     		it	pl
 2777 001c F0EE477A 		fcpyspl	s15, s14
 2778              		.loc 1 642 0
 2779 0020 27EE800A 		fmuls	s0, s15, s0
 2780 0024 7047     		bx	lr
 2781              	.L203:
 2782 0026 00BF     		.align	2
 2783              	.L202:
 2784 0028 00000000 		.word	.LANCHOR9
 2785              		.cfi_endproc
 2786              	.LFE274:
 2787              		.size	mcpwm_foc_get_tot_current, .-mcpwm_foc_get_tot_current
 2788              		.section	.text.mcpwm_foc_get_tot_current_filtered,"ax",%progbits
 2789              		.align	2
 2790              		.p2align 4,,15
 2791              		.global	mcpwm_foc_get_tot_current_filtered
 2792              		.thumb
 2793              		.thumb_func
ARM GAS  /tmp/ccVIe4kR.s 			page 50


 2794              		.type	mcpwm_foc_get_tot_current_filtered, %function
 2795              	mcpwm_foc_get_tot_current_filtered:
 2796              	.LFB275:
 2797              		.loc 1 652 0
 2798              		.cfi_startproc
 2799              		@ args = 0, pretend = 0, frame = 0
 2800              		@ frame_needed = 0, uses_anonymous_args = 0
 2801              		@ link register save eliminated.
 2802              		.loc 1 653 0
 2803 0000 094B     		ldr	r3, .L207
 2804 0002 D3ED147A 		flds	s15, [r3, #80]
 2805 0006 93ED120A 		flds	s0, [r3, #72]
 2806 000a F5EEC07A 		fcmpezs	s15
 2807 000e F1EE10FA 		fmstat
 2808 0012 B7EE007A 		fconsts	s14, #112
 2809 0016 FFEE007A 		fconsts	s15, #240
 2810 001a 58BF     		it	pl
 2811 001c F0EE477A 		fcpyspl	s15, s14
 2812              		.loc 1 654 0
 2813 0020 27EE800A 		fmuls	s0, s15, s0
 2814 0024 7047     		bx	lr
 2815              	.L208:
 2816 0026 00BF     		.align	2
 2817              	.L207:
 2818 0028 00000000 		.word	.LANCHOR9
 2819              		.cfi_endproc
 2820              	.LFE275:
 2821              		.size	mcpwm_foc_get_tot_current_filtered, .-mcpwm_foc_get_tot_current_filtered
 2822              		.section	.text.mcpwm_foc_get_abs_motor_current,"ax",%progbits
 2823              		.align	2
 2824              		.p2align 4,,15
 2825              		.global	mcpwm_foc_get_abs_motor_current
 2826              		.thumb
 2827              		.thumb_func
 2828              		.type	mcpwm_foc_get_abs_motor_current, %function
 2829              	mcpwm_foc_get_abs_motor_current:
 2830              	.LFB276:
 2831              		.loc 1 663 0
 2832              		.cfi_startproc
 2833              		@ args = 0, pretend = 0, frame = 0
 2834              		@ frame_needed = 0, uses_anonymous_args = 0
 2835              		@ link register save eliminated.
 2836              		.loc 1 664 0
 2837 0000 014B     		ldr	r3, .L210
 2838 0002 93ED070A 		flds	s0, [r3, #28]
 2839              		.loc 1 665 0
 2840 0006 7047     		bx	lr
 2841              	.L211:
 2842              		.align	2
 2843              	.L210:
 2844 0008 00000000 		.word	.LANCHOR9
 2845              		.cfi_endproc
 2846              	.LFE276:
 2847              		.size	mcpwm_foc_get_abs_motor_current, .-mcpwm_foc_get_abs_motor_current
 2848              		.section	.text.mcpwm_foc_get_abs_motor_current_filtered,"ax",%progbits
 2849              		.align	2
 2850              		.p2align 4,,15
ARM GAS  /tmp/ccVIe4kR.s 			page 51


 2851              		.global	mcpwm_foc_get_abs_motor_current_filtered
 2852              		.thumb
 2853              		.thumb_func
 2854              		.type	mcpwm_foc_get_abs_motor_current_filtered, %function
 2855              	mcpwm_foc_get_abs_motor_current_filtered:
 2856              	.LFB277:
 2857              		.loc 1 674 0
 2858              		.cfi_startproc
 2859              		@ args = 0, pretend = 0, frame = 0
 2860              		@ frame_needed = 0, uses_anonymous_args = 0
 2861              		@ link register save eliminated.
 2862              		.loc 1 675 0
 2863 0000 014B     		ldr	r3, .L213
 2864 0002 93ED080A 		flds	s0, [r3, #32]
 2865              		.loc 1 676 0
 2866 0006 7047     		bx	lr
 2867              	.L214:
 2868              		.align	2
 2869              	.L213:
 2870 0008 00000000 		.word	.LANCHOR9
 2871              		.cfi_endproc
 2872              	.LFE277:
 2873              		.size	mcpwm_foc_get_abs_motor_current_filtered, .-mcpwm_foc_get_abs_motor_current_filtered
 2874              		.section	.text.mcpwm_foc_get_tot_current_directional,"ax",%progbits
 2875              		.align	2
 2876              		.p2align 4,,15
 2877              		.global	mcpwm_foc_get_tot_current_directional
 2878              		.thumb
 2879              		.thumb_func
 2880              		.type	mcpwm_foc_get_tot_current_directional, %function
 2881              	mcpwm_foc_get_tot_current_directional:
 2882              	.LFB278:
 2883              		.loc 1 685 0
 2884              		.cfi_startproc
 2885              		@ args = 0, pretend = 0, frame = 0
 2886              		@ frame_needed = 0, uses_anonymous_args = 0
 2887              		@ link register save eliminated.
 2888              		.loc 1 686 0
 2889 0000 014B     		ldr	r3, .L216
 2890 0002 93ED100A 		flds	s0, [r3, #64]
 2891              		.loc 1 687 0
 2892 0006 7047     		bx	lr
 2893              	.L217:
 2894              		.align	2
 2895              	.L216:
 2896 0008 00000000 		.word	.LANCHOR9
 2897              		.cfi_endproc
 2898              	.LFE278:
 2899              		.size	mcpwm_foc_get_tot_current_directional, .-mcpwm_foc_get_tot_current_directional
 2900              		.section	.text.mcpwm_foc_get_tot_current_directional_filtered,"ax",%progbits
 2901              		.align	2
 2902              		.p2align 4,,15
 2903              		.global	mcpwm_foc_get_tot_current_directional_filtered
 2904              		.thumb
 2905              		.thumb_func
 2906              		.type	mcpwm_foc_get_tot_current_directional_filtered, %function
 2907              	mcpwm_foc_get_tot_current_directional_filtered:
ARM GAS  /tmp/ccVIe4kR.s 			page 52


 2908              	.LFB279:
 2909              		.loc 1 696 0
 2910              		.cfi_startproc
 2911              		@ args = 0, pretend = 0, frame = 0
 2912              		@ frame_needed = 0, uses_anonymous_args = 0
 2913              		@ link register save eliminated.
 2914              		.loc 1 697 0
 2915 0000 014B     		ldr	r3, .L219
 2916 0002 93ED120A 		flds	s0, [r3, #72]
 2917              		.loc 1 698 0
 2918 0006 7047     		bx	lr
 2919              	.L220:
 2920              		.align	2
 2921              	.L219:
 2922 0008 00000000 		.word	.LANCHOR9
 2923              		.cfi_endproc
 2924              	.LFE279:
 2925              		.size	mcpwm_foc_get_tot_current_directional_filtered, .-mcpwm_foc_get_tot_current_directional_filt
 2926              		.section	.text.mcpwm_foc_get_tot_current_in,"ax",%progbits
 2927              		.align	2
 2928              		.p2align 4,,15
 2929              		.global	mcpwm_foc_get_tot_current_in
 2930              		.thumb
 2931              		.thumb_func
 2932              		.type	mcpwm_foc_get_tot_current_in, %function
 2933              	mcpwm_foc_get_tot_current_in:
 2934              	.LFB280:
 2935              		.loc 1 706 0
 2936              		.cfi_startproc
 2937              		@ args = 0, pretend = 0, frame = 0
 2938              		@ frame_needed = 0, uses_anonymous_args = 0
 2939              		@ link register save eliminated.
 2940              		.loc 1 707 0
 2941 0000 014B     		ldr	r3, .L222
 2942 0002 93ED090A 		flds	s0, [r3, #36]
 2943              		.loc 1 708 0
 2944 0006 7047     		bx	lr
 2945              	.L223:
 2946              		.align	2
 2947              	.L222:
 2948 0008 00000000 		.word	.LANCHOR9
 2949              		.cfi_endproc
 2950              	.LFE280:
 2951              		.size	mcpwm_foc_get_tot_current_in, .-mcpwm_foc_get_tot_current_in
 2952              		.section	.text.mcpwm_foc_get_tot_current_in_filtered,"ax",%progbits
 2953              		.align	2
 2954              		.p2align 4,,15
 2955              		.global	mcpwm_foc_get_tot_current_in_filtered
 2956              		.thumb
 2957              		.thumb_func
 2958              		.type	mcpwm_foc_get_tot_current_in_filtered, %function
 2959              	mcpwm_foc_get_tot_current_in_filtered:
 2960              	.LFB281:
 2961              		.loc 1 716 0
 2962              		.cfi_startproc
 2963              		@ args = 0, pretend = 0, frame = 0
 2964              		@ frame_needed = 0, uses_anonymous_args = 0
ARM GAS  /tmp/ccVIe4kR.s 			page 53


 2965              		@ link register save eliminated.
 2966              		.loc 1 717 0
 2967 0000 014B     		ldr	r3, .L225
 2968 0002 93ED090A 		flds	s0, [r3, #36]
 2969              		.loc 1 718 0
 2970 0006 7047     		bx	lr
 2971              	.L226:
 2972              		.align	2
 2973              	.L225:
 2974 0008 00000000 		.word	.LANCHOR9
 2975              		.cfi_endproc
 2976              	.LFE281:
 2977              		.size	mcpwm_foc_get_tot_current_in_filtered, .-mcpwm_foc_get_tot_current_in_filtered
 2978              		.section	.text.mcpwm_foc_get_tachometer_value,"ax",%progbits
 2979              		.align	2
 2980              		.p2align 4,,15
 2981              		.global	mcpwm_foc_get_tachometer_value
 2982              		.thumb
 2983              		.thumb_func
 2984              		.type	mcpwm_foc_get_tachometer_value, %function
 2985              	mcpwm_foc_get_tachometer_value:
 2986              	.LFB282:
 2987              		.loc 1 731 0
 2988              		.cfi_startproc
 2989              		@ args = 0, pretend = 0, frame = 0
 2990              		@ frame_needed = 0, uses_anonymous_args = 0
 2991              		@ link register save eliminated.
 2992              	.LVL171:
 2993              		.loc 1 732 0
 2994 0000 034B     		ldr	r3, .L232
 2995 0002 1A68     		ldr	r2, [r3]
 2996              	.LVL172:
 2997              		.loc 1 734 0
 2998 0004 08B1     		cbz	r0, .L228
 2999              		.loc 1 735 0
 3000 0006 0021     		movs	r1, #0
 3001 0008 1960     		str	r1, [r3]
 3002              	.L228:
 3003              		.loc 1 739 0
 3004 000a 1046     		mov	r0, r2
 3005              	.LVL173:
 3006 000c 7047     		bx	lr
 3007              	.L233:
 3008 000e 00BF     		.align	2
 3009              	.L232:
 3010 0010 00000000 		.word	.LANCHOR34
 3011              		.cfi_endproc
 3012              	.LFE282:
 3013              		.size	mcpwm_foc_get_tachometer_value, .-mcpwm_foc_get_tachometer_value
 3014              		.section	.text.mcpwm_foc_get_tachometer_abs_value,"ax",%progbits
 3015              		.align	2
 3016              		.p2align 4,,15
 3017              		.global	mcpwm_foc_get_tachometer_abs_value
 3018              		.thumb
 3019              		.thumb_func
 3020              		.type	mcpwm_foc_get_tachometer_abs_value, %function
 3021              	mcpwm_foc_get_tachometer_abs_value:
ARM GAS  /tmp/ccVIe4kR.s 			page 54


 3022              	.LFB283:
 3023              		.loc 1 751 0
 3024              		.cfi_startproc
 3025              		@ args = 0, pretend = 0, frame = 0
 3026              		@ frame_needed = 0, uses_anonymous_args = 0
 3027              		@ link register save eliminated.
 3028              	.LVL174:
 3029              		.loc 1 752 0
 3030 0000 034B     		ldr	r3, .L239
 3031 0002 1A68     		ldr	r2, [r3]
 3032              	.LVL175:
 3033              		.loc 1 754 0
 3034 0004 08B1     		cbz	r0, .L235
 3035              		.loc 1 755 0
 3036 0006 0021     		movs	r1, #0
 3037 0008 1960     		str	r1, [r3]
 3038              	.L235:
 3039              		.loc 1 759 0
 3040 000a 1046     		mov	r0, r2
 3041              	.LVL176:
 3042 000c 7047     		bx	lr
 3043              	.L240:
 3044 000e 00BF     		.align	2
 3045              	.L239:
 3046 0010 00000000 		.word	.LANCHOR35
 3047              		.cfi_endproc
 3048              	.LFE283:
 3049              		.size	mcpwm_foc_get_tachometer_abs_value, .-mcpwm_foc_get_tachometer_abs_value
 3050              		.section	.text.mcpwm_foc_get_phase,"ax",%progbits
 3051              		.align	2
 3052              		.p2align 4,,15
 3053              		.global	mcpwm_foc_get_phase
 3054              		.thumb
 3055              		.thumb_func
 3056              		.type	mcpwm_foc_get_phase, %function
 3057              	mcpwm_foc_get_phase:
 3058              	.LFB284:
 3059              		.loc 1 767 0
 3060              		.cfi_startproc
 3061              		@ args = 0, pretend = 0, frame = 8
 3062              		@ frame_needed = 0, uses_anonymous_args = 0
 3063 0000 00B5     		push	{lr}
 3064              		.cfi_def_cfa_offset 4
 3065              		.cfi_offset 14, -4
 3066              		.loc 1 768 0
 3067 0002 094B     		ldr	r3, .L243
 3068 0004 9FED097A 		flds	s14, .L243+4
 3069 0008 D3ED047A 		flds	s15, [r3, #16]
 3070              		.loc 1 767 0
 3071 000c 83B0     		sub	sp, sp, #12
 3072              		.cfi_def_cfa_offset 16
 3073              		.loc 1 768 0
 3074 000e 67EE877A 		fmuls	s15, s15, s14
 3075 0012 02A8     		add	r0, sp, #8
 3076 0014 60ED017A 		fstmdbs	r0!, {s15}
 3077              		.loc 1 769 0
 3078 0018 FFF7FEFF 		bl	utils_norm_angle
ARM GAS  /tmp/ccVIe4kR.s 			page 55


 3079              	.LVL177:
 3080              		.loc 1 771 0
 3081 001c 9DED010A 		flds	s0, [sp, #4]
 3082 0020 03B0     		add	sp, sp, #12
 3083              		.cfi_def_cfa_offset 4
 3084              		@ sp needed
 3085 0022 5DF804FB 		ldr	pc, [sp], #4
 3086              	.L244:
 3087 0026 00BF     		.align	2
 3088              	.L243:
 3089 0028 00000000 		.word	.LANCHOR9
 3090 002c E02E6542 		.word	1113927392
 3091              		.cfi_endproc
 3092              	.LFE284:
 3093              		.size	mcpwm_foc_get_phase, .-mcpwm_foc_get_phase
 3094              		.section	.text.mcpwm_foc_get_phase_observer,"ax",%progbits
 3095              		.align	2
 3096              		.p2align 4,,15
 3097              		.global	mcpwm_foc_get_phase_observer
 3098              		.thumb
 3099              		.thumb_func
 3100              		.type	mcpwm_foc_get_phase_observer, %function
 3101              	mcpwm_foc_get_phase_observer:
 3102              	.LFB285:
 3103              		.loc 1 779 0
 3104              		.cfi_startproc
 3105              		@ args = 0, pretend = 0, frame = 8
 3106              		@ frame_needed = 0, uses_anonymous_args = 0
 3107 0000 00B5     		push	{lr}
 3108              		.cfi_def_cfa_offset 4
 3109              		.cfi_offset 14, -4
 3110              		.loc 1 780 0
 3111 0002 094B     		ldr	r3, .L247
 3112 0004 9FED097A 		flds	s14, .L247+4
 3113 0008 D3ED007A 		flds	s15, [r3]
 3114              		.loc 1 779 0
 3115 000c 83B0     		sub	sp, sp, #12
 3116              		.cfi_def_cfa_offset 16
 3117              		.loc 1 780 0
 3118 000e 67EE877A 		fmuls	s15, s15, s14
 3119 0012 02A8     		add	r0, sp, #8
 3120 0014 60ED017A 		fstmdbs	r0!, {s15}
 3121              		.loc 1 781 0
 3122 0018 FFF7FEFF 		bl	utils_norm_angle
 3123              	.LVL178:
 3124              		.loc 1 783 0
 3125 001c 9DED010A 		flds	s0, [sp, #4]
 3126 0020 03B0     		add	sp, sp, #12
 3127              		.cfi_def_cfa_offset 4
 3128              		@ sp needed
 3129 0022 5DF804FB 		ldr	pc, [sp], #4
 3130              	.L248:
 3131 0026 00BF     		.align	2
 3132              	.L247:
 3133 0028 00000000 		.word	.LANCHOR15
 3134 002c E02E6542 		.word	1113927392
 3135              		.cfi_endproc
ARM GAS  /tmp/ccVIe4kR.s 			page 56


 3136              	.LFE285:
 3137              		.size	mcpwm_foc_get_phase_observer, .-mcpwm_foc_get_phase_observer
 3138              		.section	.text.mcpwm_foc_get_phase_encoder,"ax",%progbits
 3139              		.align	2
 3140              		.p2align 4,,15
 3141              		.global	mcpwm_foc_get_phase_encoder
 3142              		.thumb
 3143              		.thumb_func
 3144              		.type	mcpwm_foc_get_phase_encoder, %function
 3145              	mcpwm_foc_get_phase_encoder:
 3146              	.LFB286:
 3147              		.loc 1 791 0
 3148              		.cfi_startproc
 3149              		@ args = 0, pretend = 0, frame = 8
 3150              		@ frame_needed = 0, uses_anonymous_args = 0
 3151 0000 00B5     		push	{lr}
 3152              		.cfi_def_cfa_offset 4
 3153              		.cfi_offset 14, -4
 3154              		.loc 1 792 0
 3155 0002 094B     		ldr	r3, .L251
 3156 0004 9FED097A 		flds	s14, .L251+4
 3157 0008 D3ED007A 		flds	s15, [r3]
 3158              		.loc 1 791 0
 3159 000c 83B0     		sub	sp, sp, #12
 3160              		.cfi_def_cfa_offset 16
 3161              		.loc 1 792 0
 3162 000e 67EE877A 		fmuls	s15, s15, s14
 3163 0012 02A8     		add	r0, sp, #8
 3164 0014 60ED017A 		fstmdbs	r0!, {s15}
 3165              		.loc 1 793 0
 3166 0018 FFF7FEFF 		bl	utils_norm_angle
 3167              	.LVL179:
 3168              		.loc 1 795 0
 3169 001c 9DED010A 		flds	s0, [sp, #4]
 3170 0020 03B0     		add	sp, sp, #12
 3171              		.cfi_def_cfa_offset 4
 3172              		@ sp needed
 3173 0022 5DF804FB 		ldr	pc, [sp], #4
 3174              	.L252:
 3175 0026 00BF     		.align	2
 3176              	.L251:
 3177 0028 00000000 		.word	.LANCHOR30
 3178 002c E02E6542 		.word	1113927392
 3179              		.cfi_endproc
 3180              	.LFE286:
 3181              		.size	mcpwm_foc_get_phase_encoder, .-mcpwm_foc_get_phase_encoder
 3182              		.section	.text.mcpwm_foc_get_vd,"ax",%progbits
 3183              		.align	2
 3184              		.p2align 4,,15
 3185              		.global	mcpwm_foc_get_vd
 3186              		.thumb
 3187              		.thumb_func
 3188              		.type	mcpwm_foc_get_vd, %function
 3189              	mcpwm_foc_get_vd:
 3190              	.LFB287:
 3191              		.loc 1 797 0
 3192              		.cfi_startproc
ARM GAS  /tmp/ccVIe4kR.s 			page 57


 3193              		@ args = 0, pretend = 0, frame = 0
 3194              		@ frame_needed = 0, uses_anonymous_args = 0
 3195              		@ link register save eliminated.
 3196              		.loc 1 798 0
 3197 0000 014B     		ldr	r3, .L254
 3198 0002 93ED130A 		flds	s0, [r3, #76]
 3199              		.loc 1 799 0
 3200 0006 7047     		bx	lr
 3201              	.L255:
 3202              		.align	2
 3203              	.L254:
 3204 0008 00000000 		.word	.LANCHOR9
 3205              		.cfi_endproc
 3206              	.LFE287:
 3207              		.size	mcpwm_foc_get_vd, .-mcpwm_foc_get_vd
 3208              		.section	.text.mcpwm_foc_get_vq,"ax",%progbits
 3209              		.align	2
 3210              		.p2align 4,,15
 3211              		.global	mcpwm_foc_get_vq
 3212              		.thumb
 3213              		.thumb_func
 3214              		.type	mcpwm_foc_get_vq, %function
 3215              	mcpwm_foc_get_vq:
 3216              	.LFB288:
 3217              		.loc 1 801 0
 3218              		.cfi_startproc
 3219              		@ args = 0, pretend = 0, frame = 0
 3220              		@ frame_needed = 0, uses_anonymous_args = 0
 3221              		@ link register save eliminated.
 3222              		.loc 1 802 0
 3223 0000 014B     		ldr	r3, .L257
 3224 0002 93ED140A 		flds	s0, [r3, #80]
 3225              		.loc 1 803 0
 3226 0006 7047     		bx	lr
 3227              	.L258:
 3228              		.align	2
 3229              	.L257:
 3230 0008 00000000 		.word	.LANCHOR9
 3231              		.cfi_endproc
 3232              	.LFE288:
 3233              		.size	mcpwm_foc_get_vq, .-mcpwm_foc_get_vq
 3234              		.global	__aeabi_f2d
 3235              		.section	.text.mcpwm_foc_encoder_detect,"ax",%progbits
 3236              		.align	2
 3237              		.p2align 4,,15
 3238              		.global	mcpwm_foc_encoder_detect
 3239              		.thumb
 3240              		.thumb_func
 3241              		.type	mcpwm_foc_encoder_detect, %function
 3242              	mcpwm_foc_encoder_detect:
 3243              	.LFB289:
 3244              		.loc 1 820 0
 3245              		.cfi_startproc
 3246              		@ args = 0, pretend = 0, frame = 16
 3247              		@ frame_needed = 0, uses_anonymous_args = 0
 3248              	.LVL180:
 3249 0000 2DE9F04F 		push	{r4, r5, r6, r7, r8, r9, r10, fp, lr}
ARM GAS  /tmp/ccVIe4kR.s 			page 58


 3250              		.cfi_def_cfa_offset 36
 3251              		.cfi_offset 4, -36
 3252              		.cfi_offset 5, -32
 3253              		.cfi_offset 6, -28
 3254              		.cfi_offset 7, -24
 3255              		.cfi_offset 8, -20
 3256              		.cfi_offset 9, -16
 3257              		.cfi_offset 10, -12
 3258              		.cfi_offset 11, -8
 3259              		.cfi_offset 14, -4
 3260 0004 2DED0E8B 		fstmfdd	sp!, {d8, d9, d10, d11, d12, d13, d14}
 3261              		.cfi_def_cfa_offset 92
 3262              		.cfi_offset 80, -92
 3263              		.cfi_offset 81, -88
 3264              		.cfi_offset 82, -84
 3265              		.cfi_offset 83, -80
 3266              		.cfi_offset 84, -76
 3267              		.cfi_offset 85, -72
 3268              		.cfi_offset 86, -68
 3269              		.cfi_offset 87, -64
 3270              		.cfi_offset 88, -60
 3271              		.cfi_offset 89, -56
 3272              		.cfi_offset 90, -52
 3273              		.cfi_offset 91, -48
 3274              		.cfi_offset 92, -44
 3275              		.cfi_offset 93, -40
 3276 0008 85B0     		sub	sp, sp, #20
 3277              		.cfi_def_cfa_offset 112
 3278              		.loc 1 820 0
 3279 000a B0EE409A 		fcpys	s18, s0
 3280 000e 0646     		mov	r6, r0
 3281 0010 8946     		mov	r9, r1
 3282 0012 0192     		str	r2, [sp, #4]
 3283 0014 9B46     		mov	fp, r3
 3284              		.loc 1 821 0
 3285 0016 FFF7FEFF 		bl	mc_interface_lock
 3286              	.LVL181:
 3287              		.loc 1 823 0
 3288 001a DC49     		ldr	r1, .L314
 3289              		.loc 1 825 0
 3290 001c 9FEDDC8A 		flds	s16, .L314+4
 3291              		.loc 1 824 0
 3292 0020 DFF8A4A3 		ldr	r10, .L314+60
 3293              		.loc 1 835 0
 3294 0024 DFF8A483 		ldr	r8, .L314+64
 3295              	.LBB82:
 3296              		.loc 1 846 0
 3297 0028 DFEDDA8A 		flds	s17, .L314+8
 3298 002c DA4C     		ldr	r4, .L314+12
 3299              	.LBE82:
 3300              		.loc 1 823 0
 3301 002e 0122     		movs	r2, #1
 3302 0030 0A70     		strb	r2, [r1]
 3303              		.loc 1 825 0
 3304 0032 DA4A     		ldr	r2, .L314+16
 3305              		.loc 1 824 0
 3306 0034 8AED009A 		fsts	s18, [r10]
ARM GAS  /tmp/ccVIe4kR.s 			page 59


 3307              		.loc 1 825 0
 3308 0038 82ED008A 		fsts	s16, [r2]
 3309              		.loc 1 826 0
 3310 003c D84A     		ldr	r2, .L314+20
 3311 003e 0223     		movs	r3, #2
 3312 0040 1370     		strb	r3, [r2]
 3313              		.loc 1 827 0
 3314 0042 D84A     		ldr	r2, .L314+24
 3315 0044 1370     		strb	r3, [r2]
 3316              		.loc 1 830 0
 3317 0046 FFF7FEFF 		bl	timeout_get_timeout_msec
 3318              	.LVL182:
 3319 004a 0090     		str	r0, [sp]
 3320              	.LVL183:
 3321              		.loc 1 831 0
 3322 004c FFF7FEFF 		bl	timeout_get_brake_current
 3323              	.LVL184:
 3324              		.loc 1 832 0
 3325 0050 4EF66020 		movw	r0, #60000
 3326              		.loc 1 831 0
 3327 0054 B0EE40AA 		fcpys	s20, s0
 3328              	.LVL185:
 3329              		.loc 1 832 0
 3330 0058 B0EE480A 		fcpys	s0, s16
 3331              	.LVL186:
 3332 005c FFF7FEFF 		bl	timeout_configure
 3333              	.LVL187:
 3334              		.loc 1 835 0
 3335 0060 D8F80030 		ldr	r3, [r8]
 3336 0064 D3ED27AA 		flds	s21, [r3, #156]
 3337              	.LVL188:
 3338              		.loc 1 836 0
 3339 0068 93F8A020 		ldrb	r2, [r3, #160]	@ zero_extendqisi2
 3340              		.loc 1 837 0
 3341 006c 93ED29BA 		flds	s22, [r3, #164]
 3342              		.loc 1 839 0
 3343 0070 83ED278A 		fsts	s16, [r3, #156]
 3344              		.loc 1 836 0
 3345 0074 09EE902A 		fmsr	s19, r2	@ int
 3346              		.loc 1 840 0
 3347 0078 0022     		movs	r2, #0
 3348 007a 83F8A020 		strb	r2, [r3, #160]
 3349              		.loc 1 836 0
 3350 007e F8EE699A 		fuitos	s19, s19
 3351              	.LVL189:
 3352              		.loc 1 841 0
 3353 0082 4FF07E52 		mov	r2, #1065353216
 3354 0086 C3F8A420 		str	r2, [r3, #164]	@ float
 3355              		.loc 1 845 0
 3356 008a 1F25     		movs	r5, #31
 3357              	.LVL190:
 3358              	.L260:
 3359 008c FFF7FEFF 		bl	encoder_index_found
 3360              	.LVL191:
 3361 0090 70B9     		cbnz	r0, .L264
 3362 0092 9FEDBF8A 		flds	s16, .L314+4
 3363 0096 4FF4FA77 		mov	r7, #500
ARM GAS  /tmp/ccVIe4kR.s 			page 60


 3364              	.L261:
 3365              	.LVL192:
 3366              	.LBB83:
 3367              		.loc 1 848 0 discriminator 3
 3368 009a 0A20     		movs	r0, #10
 3369              		.loc 1 847 0 discriminator 3
 3370 009c 84ED008A 		fsts	s16, [r4]
 3371              		.loc 1 848 0 discriminator 3
 3372 00a0 FFF7FEFF 		bl	chThdSleep
 3373              	.LVL193:
 3374              		.loc 1 846 0 discriminator 3
 3375 00a4 013F     		subs	r7, r7, #1
 3376 00a6 38EE288A 		fadds	s16, s16, s17
 3377              	.LVL194:
 3378 00aa F6D1     		bne	.L261
 3379              	.LVL195:
 3380              	.LBE83:
 3381              		.loc 1 852 0
 3382 00ac 013D     		subs	r5, r5, #1
 3383              	.LVL196:
 3384 00ae EDD1     		bne	.L260
 3385              	.LVL197:
 3386              	.L264:
 3387              		.loc 1 858 0
 3388 00b0 002E     		cmp	r6, #0
 3389 00b2 40F0C281 		bne	.L307
 3390              	.L263:
 3391              	.LVL198:
 3392              		.loc 1 845 0
 3393 00b6 9FEDB68A 		flds	s16, .L314+4
 3394              	.LBB84:
 3395              		.loc 1 863 0
 3396 00ba DFEDB68A 		flds	s17, .L314+8
 3397              	.LBE84:
 3398              		.loc 1 845 0
 3399 00be 4FF4FA75 		mov	r5, #500
 3400              	.LVL199:
 3401              	.L266:
 3402              	.LBB85:
 3403              		.loc 1 865 0 discriminator 3
 3404 00c2 0A20     		movs	r0, #10
 3405              		.loc 1 864 0 discriminator 3
 3406 00c4 84ED008A 		fsts	s16, [r4]
 3407              		.loc 1 865 0 discriminator 3
 3408 00c8 FFF7FEFF 		bl	chThdSleep
 3409              	.LVL200:
 3410              		.loc 1 863 0 discriminator 3
 3411 00cc 013D     		subs	r5, r5, #1
 3412 00ce 38EE288A 		fadds	s16, s16, s17
 3413              	.LVL201:
 3414 00d2 F6D1     		bne	.L266
 3415              	.LBE85:
 3416              		.loc 1 868 0
 3417 00d4 002E     		cmp	r6, #0
 3418 00d6 40F0AC81 		bne	.L308
 3419              	.L267:
 3420              		.loc 1 873 0
ARM GAS  /tmp/ccVIe4kR.s 			page 61


 3421 00da 42F21070 		movw	r0, #10000
 3422              		.loc 1 876 0
 3423 00de DFEDACBA 		flds	s23, .L314+4
 3424 00e2 B14D     		ldr	r5, .L314+28
 3425              	.LBB86:
 3426              	.LBB87:
 3427              	.LBB88:
 3428              		.loc 1 880 0
 3429 00e4 DFEDB1EA 		flds	s29, .L314+32
 3430              		.loc 1 881 0
 3431 00e8 9FEDAA9A 		flds	s18, .L314+8
 3432              	.LVL202:
 3433              	.LBE88:
 3434              		.loc 1 886 0
 3435 00ec DFEDB0CA 		flds	s25, .L314+36
 3436              		.loc 1 891 0
 3437 00f0 9FEDB0EA 		flds	s28, .L314+40
 3438 00f4 DFEDB0DA 		flds	s27, .L314+44
 3439              	.LBE87:
 3440              	.LBE86:
 3441              		.loc 1 873 0
 3442 00f8 FFF7FEFF 		bl	chThdSleep
 3443              	.LVL203:
 3444              		.loc 1 875 0
 3445 00fc B0EE6BCA 		fcpys	s24, s23
 3446              		.loc 1 873 0
 3447 0100 0A27     		movs	r7, #10
 3448              	.LVL204:
 3449              	.L273:
 3450              	.LBB92:
 3451              	.LBB90:
 3452              		.loc 1 878 0
 3453 0102 95ED00DA 		flds	s26, [r5]
 3454              	.LVL205:
 3455              		.loc 1 879 0
 3456 0106 94ED008A 		flds	s16, [r4]
 3457              	.LVL206:
 3458              	.LBB89:
 3459              		.loc 1 880 0
 3460 010a 78EE2E8A 		fadds	s17, s16, s29
 3461 010e B4EEE88A 		fcmpes	s16, s17
 3462 0112 F1EE10FA 		fmstat
 3463 0116 0BD5     		bpl	.L272
 3464              	.LVL207:
 3465              	.L271:
 3466              		.loc 1 883 0
 3467 0118 1420     		movs	r0, #20
 3468              		.loc 1 882 0
 3469 011a 84ED008A 		fsts	s16, [r4]
 3470              		.loc 1 883 0
 3471 011e FFF7FEFF 		bl	chThdSleep
 3472              	.LVL208:
 3473              		.loc 1 881 0
 3474 0122 38EE098A 		fadds	s16, s16, s18
 3475              	.LVL209:
 3476              		.loc 1 880 0
 3477 0126 B4EEE88A 		fcmpes	s16, s17
ARM GAS  /tmp/ccVIe4kR.s 			page 62


 3478 012a F1EE10FA 		fmstat
 3479 012e F3D4     		bmi	.L271
 3480              	.L272:
 3481              	.LBE89:
 3482              		.loc 1 885 0
 3483 0130 42F21070 		movw	r0, #10000
 3484 0134 FFF7FEFF 		bl	chThdSleep
 3485              	.LVL210:
 3486              		.loc 1 886 0
 3487 0138 95ED000A 		flds	s0, [r5]
 3488 013c 6DEE2C0A 		fmuls	s1, s26, s25
 3489 0140 20EE2C0A 		fmuls	s0, s0, s25
 3490 0144 FFF7FEFF 		bl	utils_angle_difference
 3491              	.LVL211:
 3492 0148 B0EE408A 		fcpys	s16, s0
 3493              	.LVL212:
 3494              		.loc 1 891 0
 3495 014c 20EE0E0A 		fmuls	s0, s0, s28
 3496              	.LVL213:
 3497 0150 02A8     		add	r0, sp, #8
 3498 0152 80EE2D0A 		fdivs	s0, s0, s27
 3499 0156 03A9     		add	r1, sp, #12
 3500 0158 FFF7FEFF 		bl	sincosf
 3501              	.LVL214:
 3502              		.loc 1 892 0
 3503 015c 9DED027A 		flds	s14, [sp, #8]
 3504              		.loc 1 893 0
 3505 0160 DDED037A 		flds	s15, [sp, #12]
 3506              		.loc 1 892 0
 3507 0164 3CEE07CA 		fadds	s24, s24, s14
 3508              	.LVL215:
 3509              		.loc 1 893 0
 3510 0168 7BEEA7BA 		fadds	s23, s23, s15
 3511              	.LVL216:
 3512              		.loc 1 895 0
 3513 016c 002E     		cmp	r6, #0
 3514 016e 40F0EE80 		bne	.L309
 3515              	.L270:
 3516              	.LVL217:
 3517              	.LBE90:
 3518              		.loc 1 877 0 discriminator 2
 3519 0172 013F     		subs	r7, r7, #1
 3520              	.LVL218:
 3521 0174 C5D1     		bne	.L273
 3522              	.LBE92:
 3523              		.loc 1 900 0
 3524 0176 F0EE6B0A 		fcpys	s1, s23
 3525 017a B0EE4C0A 		fcpys	s0, s24
 3526 017e FFF7FEFF 		bl	atan2f
 3527              	.LVL219:
 3528 0182 9FED8D7A 		flds	s14, .L314+44
 3529 0186 DFED8B7A 		flds	s15, .L314+40
 3530              		.loc 1 902 0
 3531 018a DFED8C6A 		flds	s13, .L314+48
 3532              		.loc 1 900 0
 3533 018e 20EE070A 		fmuls	s0, s0, s14
 3534 0192 C0EE277A 		fdivs	s15, s0, s15
ARM GAS  /tmp/ccVIe4kR.s 			page 63


 3535              	.LVL220:
 3536              		.loc 1 901 0
 3537 0196 F5EEC07A 		fcmpezs	s15
 3538 019a F1EE10FA 		fmstat
 3539 019e 4CBF     		ite	mi
 3540 01a0 0127     		movmi	r7, #1
 3541              	.LVL221:
 3542 01a2 0027     		movpl	r7, #0
 3543              		.loc 1 903 0
 3544 01a4 B0EEE70A 		fabss	s0, s15
 3545              		.loc 1 902 0
 3546 01a8 86EE800A 		fdivs	s0, s13, s0
 3547              		.loc 1 901 0
 3548 01ac 8BF80070 		strb	r7, [fp]
 3549              		.loc 1 902 0
 3550 01b0 FFF7FEFF 		bl	roundf
 3551              	.LVL222:
 3552              		.loc 1 905 0
 3553 01b4 D8F80030 		ldr	r3, [r8]
 3554              		.loc 1 902 0
 3555 01b8 019A     		ldr	r2, [sp, #4]
 3556 01ba 82ED000A 		fsts	s0, [r2]
 3557              		.loc 1 905 0
 3558 01be 83F8A070 		strb	r7, [r3, #160]
 3559              		.loc 1 906 0
 3560 01c2 83ED290A 		fsts	s0, [r3, #164]
 3561              		.loc 1 908 0
 3562 01c6 002E     		cmp	r6, #0
 3563 01c8 40F01781 		bne	.L310
 3564              	.LBB93:
 3565              		.loc 1 913 0
 3566 01cc 94ED008A 		flds	s16, [r4]
 3567              	.LVL223:
 3568 01d0 DFED7B7A 		flds	s15, .L314+52
 3569 01d4 B4EEE78A 		fcmpes	s16, s15
 3570 01d8 F1EE10FA 		fmstat
 3571 01dc 12D5     		bpl	.L276
 3572              	.L275:
 3573              		.loc 1 913 0 is_stmt 0 discriminator 3
 3574 01de 9FED6D9A 		flds	s18, .L314+8
 3575 01e2 DFED778A 		flds	s17, .L314+52
 3576              	.L277:
 3577              		.loc 1 914 0 is_stmt 1 discriminator 3
 3578 01e6 84ED008A 		fsts	s16, [r4]
 3579              		.loc 1 915 0 discriminator 3
 3580 01ea 1420     		movs	r0, #20
 3581 01ec FFF7FEFF 		bl	chThdSleep
 3582              	.LVL224:
 3583              		.loc 1 913 0 discriminator 3
 3584 01f0 38EE098A 		fadds	s16, s16, s18
 3585              	.LVL225:
 3586 01f4 B4EEE88A 		fcmpes	s16, s17
 3587 01f8 F1EE10FA 		fmstat
 3588 01fc F3D4     		bmi	.L277
 3589              	.LBE93:
 3590              		.loc 1 918 0
 3591 01fe 002E     		cmp	r6, #0
ARM GAS  /tmp/ccVIe4kR.s 			page 64


 3592 0200 40F00881 		bne	.L278
 3593              	.L276:
 3594              	.LVL226:
 3595              		.loc 1 875 0 discriminator 1
 3596 0204 9FED628A 		flds	s16, .L314+4
 3597              	.LVL227:
 3598              	.LBB94:
 3599              	.LBB95:
 3600              		.loc 1 926 0 discriminator 1
 3601 0208 9FED6A9A 		flds	s18, .L314+40
 3602              		.loc 1 935 0 discriminator 1
 3603 020c DFED6ABA 		flds	s23, .L314+44
 3604              	.LBE95:
 3605              	.LBE94:
 3606              		.loc 1 875 0 discriminator 1
 3607 0210 F0EE488A 		fcpys	s17, s16
 3608 0214 4FF0000B 		mov	fp, #0
 3609              	.LVL228:
 3610              	.L280:
 3611              	.LBB99:
 3612              	.LBB96:
 3613              		.loc 1 926 0
 3614 0218 07EE90BA 		fmsr	s15, fp	@ int
 3615 021c F8EEE77A 		fsitos	s15, s15
 3616 0220 B1EE047A 		fconsts	s14, #20
 3617 0224 67EE897A 		fmuls	s15, s15, s18
 3618              		.loc 1 927 0
 3619 0228 42F21070 		movw	r0, #10000
 3620              		.loc 1 926 0
 3621 022c C7EE877A 		fdivs	s15, s15, s14
 3622              	.LBE96:
 3623              		.loc 1 925 0
 3624 0230 0BF1010B 		add	fp, fp, #1
 3625              	.LVL229:
 3626              	.LBB97:
 3627              		.loc 1 930 0
 3628 0234 5C4F     		ldr	r7, .L314+28
 3629              		.loc 1 926 0
 3630 0236 C4ED007A 		fsts	s15, [r4]
 3631              		.loc 1 927 0
 3632 023a FFF7FEFF 		bl	chThdSleep
 3633              	.LVL230:
 3634              		.loc 1 930 0
 3635 023e 95ED000A 		flds	s0, [r5]
 3636 0242 D4ED007A 		flds	s15, [r4]
 3637 0246 02A8     		add	r0, sp, #8
 3638 0248 30EE670A 		fsubs	s0, s0, s15
 3639 024c 03A9     		add	r1, sp, #12
 3640 024e FFF7FEFF 		bl	sincosf
 3641              	.LVL231:
 3642              		.loc 1 931 0
 3643 0252 9DED027A 		flds	s14, [sp, #8]
 3644              		.loc 1 932 0
 3645 0256 DDED037A 		flds	s15, [sp, #12]
 3646              		.loc 1 931 0
 3647 025a 78EE878A 		fadds	s17, s17, s14
 3648              	.LVL232:
ARM GAS  /tmp/ccVIe4kR.s 			page 65


 3649              		.loc 1 932 0
 3650 025e 38EE278A 		fadds	s16, s16, s15
 3651              	.LVL233:
 3652              		.loc 1 934 0
 3653 0262 002E     		cmp	r6, #0
 3654 0264 40F0B480 		bne	.L311
 3655              	.L279:
 3656              	.LVL234:
 3657              	.LBE97:
 3658              		.loc 1 925 0 discriminator 2
 3659 0268 BBF1050F 		cmp	fp, #5
 3660 026c D4D1     		bne	.L280
 3661              	.LBE99:
 3662              	.LBB100:
 3663              	.LBB101:
 3664              		.loc 1 940 0
 3665 026e 9FED519A 		flds	s18, .L314+40
 3666              		.loc 1 949 0
 3667 0272 DFED51BA 		flds	s23, .L314+44
 3668              	.LBE101:
 3669              	.LBE100:
 3670              	.LBB105:
 3671              		.loc 1 925 0
 3672 0276 4FF0030B 		mov	fp, #3
 3673              	.LVL235:
 3674              	.L282:
 3675              	.LBE105:
 3676              	.LBB106:
 3677              	.LBB102:
 3678              		.loc 1 940 0
 3679 027a 07EE90BA 		fmsr	s15, fp	@ int
 3680 027e F8EEE77A 		fsitos	s15, s15
 3681 0282 B1EE047A 		fconsts	s14, #20
 3682 0286 67EE897A 		fmuls	s15, s15, s18
 3683              		.loc 1 941 0
 3684 028a 42F21070 		movw	r0, #10000
 3685              		.loc 1 940 0
 3686 028e C7EE877A 		fdivs	s15, s15, s14
 3687              	.LBE102:
 3688              		.loc 1 939 0
 3689 0292 0BF1FF3B 		add	fp, fp, #-1
 3690              	.LVL236:
 3691              	.LBB103:
 3692              		.loc 1 944 0
 3693 0296 444F     		ldr	r7, .L314+28
 3694              		.loc 1 940 0
 3695 0298 C4ED007A 		fsts	s15, [r4]
 3696              		.loc 1 941 0
 3697 029c FFF7FEFF 		bl	chThdSleep
 3698              	.LVL237:
 3699              		.loc 1 944 0
 3700 02a0 95ED000A 		flds	s0, [r5]
 3701 02a4 D4ED007A 		flds	s15, [r4]
 3702 02a8 02A8     		add	r0, sp, #8
 3703 02aa 30EE670A 		fsubs	s0, s0, s15
 3704 02ae 03A9     		add	r1, sp, #12
 3705 02b0 FFF7FEFF 		bl	sincosf
ARM GAS  /tmp/ccVIe4kR.s 			page 66


 3706              	.LVL238:
 3707              		.loc 1 945 0
 3708 02b4 9DED027A 		flds	s14, [sp, #8]
 3709              		.loc 1 946 0
 3710 02b8 DDED037A 		flds	s15, [sp, #12]
 3711              		.loc 1 945 0
 3712 02bc 78EE878A 		fadds	s17, s17, s14
 3713              	.LVL239:
 3714              		.loc 1 946 0
 3715 02c0 38EE278A 		fadds	s16, s16, s15
 3716              	.LVL240:
 3717              		.loc 1 948 0
 3718 02c4 002E     		cmp	r6, #0
 3719 02c6 4CD1     		bne	.L312
 3720              	.L281:
 3721              	.LVL241:
 3722              	.LBE103:
 3723              		.loc 1 939 0 discriminator 2
 3724 02c8 1BF1020F 		cmn	fp, #2
 3725 02cc D5D1     		bne	.L282
 3726              	.LBE106:
 3727              		.loc 1 953 0
 3728 02ce B0EE680A 		fcpys	s0, s17
 3729 02d2 F0EE480A 		fcpys	s1, s16
 3730 02d6 FFF7FEFF 		bl	atan2f
 3731              	.LVL242:
 3732 02da 9FED377A 		flds	s14, .L314+44
 3733 02de DFED357A 		flds	s15, .L314+40
 3734 02e2 20EE070A 		fmuls	s0, s0, s14
 3735 02e6 C0EE277A 		fdivs	s15, s0, s15
 3736 02ea C9ED007A 		fsts	s15, [r9]
 3737              		.loc 1 955 0
 3738 02ee 002E     		cmp	r6, #0
 3739 02f0 40F0A780 		bne	.L313
 3740              		.loc 1 959 0
 3741 02f4 4846     		mov	r0, r9
 3742 02f6 FFF7FEFF 		bl	utils_norm_angle
 3743              	.LVL243:
 3744              	.L284:
 3745              		.loc 1 966 0
 3746 02fa 2848     		ldr	r0, .L314+16
 3747              		.loc 1 965 0
 3748 02fc 0022     		movs	r2, #0
 3749 02fe CAF80020 		str	r2, [r10]	@ float
 3750              		.loc 1 966 0
 3751 0302 0260     		str	r2, [r0]	@ float
 3752              		.loc 1 967 0
 3753 0304 214A     		ldr	r2, .L314
 3754 0306 0023     		movs	r3, #0
 3755 0308 1370     		strb	r3, [r2]
 3756              		.loc 1 968 0
 3757 030a 254A     		ldr	r2, .L314+20
 3758 030c 0521     		movs	r1, #5
 3759 030e 1170     		strb	r1, [r2]
 3760              		.loc 1 969 0
 3761 0310 244A     		ldr	r2, .L314+24
 3762 0312 1370     		strb	r3, [r2]
ARM GAS  /tmp/ccVIe4kR.s 			page 67


 3763              		.loc 1 970 0
 3764 0314 FFF7FEFF 		bl	stop_pwm_hw
 3765              	.LVL244:
 3766              		.loc 1 973 0
 3767 0318 F5EE409A 		fcmpzs	s19
 3768 031c D8F80030 		ldr	r3, [r8]
 3769              		.loc 1 978 0
 3770 0320 0098     		ldr	r0, [sp]
 3771              		.loc 1 973 0
 3772 0322 F1EE10FA 		fmstat
 3773 0326 14BF     		ite	ne
 3774 0328 0122     		movne	r2, #1
 3775 032a 0022     		moveq	r2, #0
 3776 032c 83F8A020 		strb	r2, [r3, #160]
 3777              		.loc 1 978 0
 3778 0330 B0EE4A0A 		fcpys	s0, s20
 3779              		.loc 1 974 0
 3780 0334 C3ED27AA 		fsts	s21, [r3, #156]
 3781              		.loc 1 975 0
 3782 0338 83ED29BA 		fsts	s22, [r3, #164]
 3783              		.loc 1 978 0
 3784 033c FFF7FEFF 		bl	timeout_configure
 3785              	.LVL245:
 3786              		.loc 1 981 0
 3787 0340 05B0     		add	sp, sp, #20
 3788              		.cfi_remember_state
 3789              		.cfi_def_cfa_offset 92
 3790              	.LVL246:
 3791              		@ sp needed
 3792 0342 BDEC0E8B 		fldmfdd	sp!, {d8-d14}
 3793              		.cfi_restore 92
 3794              		.cfi_restore 93
 3795              		.cfi_restore 90
 3796              		.cfi_restore 91
 3797              		.cfi_restore 88
 3798              		.cfi_restore 89
 3799              		.cfi_restore 86
 3800              		.cfi_restore 87
 3801              		.cfi_restore 84
 3802              		.cfi_restore 85
 3803              		.cfi_restore 82
 3804              		.cfi_restore 83
 3805              		.cfi_restore 80
 3806              		.cfi_restore 81
 3807              		.cfi_def_cfa_offset 36
 3808              	.LVL247:
 3809 0346 BDE8F04F 		pop	{r4, r5, r6, r7, r8, r9, r10, fp, lr}
 3810              		.cfi_restore 14
 3811              		.cfi_restore 11
 3812              		.cfi_restore 10
 3813              		.cfi_restore 9
 3814              		.cfi_restore 8
 3815              		.cfi_restore 7
 3816              		.cfi_restore 6
 3817              		.cfi_restore 5
 3818              		.cfi_restore 4
 3819              		.cfi_def_cfa_offset 0
ARM GAS  /tmp/ccVIe4kR.s 			page 68


 3820              	.LVL248:
 3821              		.loc 1 980 0
 3822 034a FFF7FEBF 		b	mc_interface_unlock
 3823              	.LVL249:
 3824              	.L309:
 3825              		.cfi_restore_state
 3826              	.LBB107:
 3827              	.LBB91:
 3828              		.loc 1 896 0
 3829 034e 18EE100A 		fmrs	r0, s16
 3830 0352 FFF7FEFF 		bl	__aeabi_f2d
 3831              	.LVL250:
 3832 0356 0246     		mov	r2, r0
 3833 0358 0B46     		mov	r3, r1
 3834 035a 1A48     		ldr	r0, .L314+56
 3835 035c FFF7FEFF 		bl	commands_printf
 3836              	.LVL251:
 3837 0360 07E7     		b	.L270
 3838              	.LVL252:
 3839              	.L312:
 3840              	.LBE91:
 3841              	.LBE107:
 3842              	.LBB108:
 3843              	.LBB104:
 3844              		.loc 1 949 0
 3845 0362 0D4B     		ldr	r3, .L314+12
 3846 0364 97ED007A 		flds	s14, [r7]
 3847 0368 D3ED007A 		flds	s15, [r3]
 3848 036c 77EE677A 		fsubs	s15, s14, s15
 3849 0370 67EEAB7A 		fmuls	s15, s15, s23
 3850 0374 C7EE897A 		fdivs	s15, s15, s18
 3851 0378 17EE900A 		fmrs	r0, s15
 3852 037c FFF7FEFF 		bl	__aeabi_f2d
 3853              	.LVL253:
 3854 0380 0246     		mov	r2, r0
 3855 0382 0B46     		mov	r3, r1
 3856 0384 0F48     		ldr	r0, .L314+56
 3857 0386 FFF7FEFF 		bl	commands_printf
 3858              	.LVL254:
 3859 038a 9DE7     		b	.L281
 3860              	.L315:
 3861              		.align	2
 3862              	.L314:
 3863 038c 00000000 		.word	.LANCHOR25
 3864 0390 00000000 		.word	0
 3865 0394 2EE34D3C 		.word	1011737390
 3866 0398 00000000 		.word	.LANCHOR26
 3867 039c 00000000 		.word	.LANCHOR20
 3868 03a0 00000000 		.word	.LANCHOR13
 3869 03a4 00000000 		.word	.LANCHOR6
 3870 03a8 00000000 		.word	.LANCHOR30
 3871 03ac 7CD92040 		.word	1075894652
 3872 03b0 E02E6542 		.word	1113927392
 3873 03b4 DB0F4940 		.word	1078530011
 3874 03b8 00003443 		.word	1127481344
 3875 03bc 00001043 		.word	1125122048
 3876 03c0 DB0FC940 		.word	1086918619
ARM GAS  /tmp/ccVIe4kR.s 			page 69


 3877 03c4 30000000 		.word	.LC3
 3878 03c8 00000000 		.word	.LANCHOR28
 3879 03cc 00000000 		.word	.LANCHOR2
 3880              	.LVL255:
 3881              	.L311:
 3882              	.LBE104:
 3883              	.LBE108:
 3884              	.LBB109:
 3885              	.LBB98:
 3886              		.loc 1 935 0
 3887 03d0 244B     		ldr	r3, .L316
 3888 03d2 97ED007A 		flds	s14, [r7]
 3889 03d6 D3ED007A 		flds	s15, [r3]
 3890 03da 77EE677A 		fsubs	s15, s14, s15
 3891 03de 67EEAB7A 		fmuls	s15, s15, s23
 3892 03e2 C7EE897A 		fdivs	s15, s15, s18
 3893 03e6 17EE900A 		fmrs	r0, s15
 3894 03ea FFF7FEFF 		bl	__aeabi_f2d
 3895              	.LVL256:
 3896 03ee 0246     		mov	r2, r0
 3897 03f0 0B46     		mov	r3, r1
 3898 03f2 1D48     		ldr	r0, .L316+4
 3899 03f4 FFF7FEFF 		bl	commands_printf
 3900              	.LVL257:
 3901 03f8 36E7     		b	.L279
 3902              	.LVL258:
 3903              	.L310:
 3904              	.LBE98:
 3905              	.LBE109:
 3906              		.loc 1 909 0
 3907 03fa 1C48     		ldr	r0, .L316+8
 3908 03fc FFF7FEFF 		bl	commands_printf
 3909              	.LVL259:
 3910              	.LBB110:
 3911              		.loc 1 913 0
 3912 0400 94ED008A 		flds	s16, [r4]
 3913              	.LVL260:
 3914 0404 DFED1A7A 		flds	s15, .L316+12
 3915 0408 B4EEE78A 		fcmpes	s16, s15
 3916 040c F1EE10FA 		fmstat
 3917 0410 3FF5E5AE 		bmi	.L275
 3918              	.L278:
 3919              	.LBE110:
 3920              		.loc 1 919 0
 3921 0414 1748     		ldr	r0, .L316+16
 3922 0416 FFF7FEFF 		bl	commands_printf
 3923              	.LVL261:
 3924              		.loc 1 920 0
 3925 041a FFF7FEFF 		bl	encoder_read_deg
 3926              	.LVL262:
 3927 041e 10EE100A 		fmrs	r0, s0
 3928 0422 FFF7FEFF 		bl	__aeabi_f2d
 3929              	.LVL263:
 3930 0426 0246     		mov	r2, r0
 3931 0428 0B46     		mov	r3, r1
 3932 042a 1348     		ldr	r0, .L316+20
 3933 042c FFF7FEFF 		bl	commands_printf
ARM GAS  /tmp/ccVIe4kR.s 			page 70


 3934              	.LVL264:
 3935 0430 E8E6     		b	.L276
 3936              	.LVL265:
 3937              	.L308:
 3938              		.loc 1 869 0
 3939 0432 1048     		ldr	r0, .L316+16
 3940 0434 FFF7FEFF 		bl	commands_printf
 3941              	.LVL266:
 3942 0438 4FE6     		b	.L267
 3943              	.LVL267:
 3944              	.L307:
 3945              		.loc 1 859 0
 3946 043a 1048     		ldr	r0, .L316+24
 3947 043c FFF7FEFF 		bl	commands_printf
 3948              	.LVL268:
 3949 0440 39E6     		b	.L263
 3950              	.LVL269:
 3951              	.L313:
 3952              		.loc 1 956 0
 3953 0442 17EE900A 		fmrs	r0, s15
 3954 0446 FFF7FEFF 		bl	__aeabi_f2d
 3955              	.LVL270:
 3956 044a 0246     		mov	r2, r0
 3957 044c 0B46     		mov	r3, r1
 3958 044e 0C48     		ldr	r0, .L316+28
 3959 0450 FFF7FEFF 		bl	commands_printf
 3960              	.LVL271:
 3961              		.loc 1 959 0
 3962 0454 4846     		mov	r0, r9
 3963 0456 FFF7FEFF 		bl	utils_norm_angle
 3964              	.LVL272:
 3965              		.loc 1 962 0
 3966 045a 0A48     		ldr	r0, .L316+32
 3967 045c FFF7FEFF 		bl	commands_printf
 3968              	.LVL273:
 3969 0460 4BE7     		b	.L284
 3970              	.L317:
 3971 0462 00BF     		.align	2
 3972              	.L316:
 3973 0464 00000000 		.word	.LANCHOR26
 3974 0468 30000000 		.word	.LC3
 3975 046c 38000000 		.word	.LC4
 3976 0470 DB0FC940 		.word	1086918619
 3977 0474 1C000000 		.word	.LC2
 3978 0478 58000000 		.word	.LC5
 3979 047c 10000000 		.word	.LC1
 3980 0480 64000000 		.word	.LC6
 3981 0484 70000000 		.word	.LC7
 3982              		.cfi_endproc
 3983              	.LFE289:
 3984              		.size	mcpwm_foc_encoder_detect, .-mcpwm_foc_encoder_detect
 3985              		.section	.text.mcpwm_foc_measure_resistance,"ax",%progbits
 3986              		.align	2
 3987              		.p2align 4,,15
 3988              		.global	mcpwm_foc_measure_resistance
 3989              		.thumb
 3990              		.thumb_func
ARM GAS  /tmp/ccVIe4kR.s 			page 71


 3991              		.type	mcpwm_foc_measure_resistance, %function
 3992              	mcpwm_foc_measure_resistance:
 3993              	.LFB290:
 3994              		.loc 1 996 0
 3995              		.cfi_startproc
 3996              		@ args = 0, pretend = 0, frame = 8
 3997              		@ frame_needed = 0, uses_anonymous_args = 0
 3998              	.LVL274:
 3999 0000 2DE9F04F 		push	{r4, r5, r6, r7, r8, r9, r10, fp, lr}
 4000              		.cfi_def_cfa_offset 36
 4001              		.cfi_offset 4, -36
 4002              		.cfi_offset 5, -32
 4003              		.cfi_offset 6, -28
 4004              		.cfi_offset 7, -24
 4005              		.cfi_offset 8, -20
 4006              		.cfi_offset 9, -16
 4007              		.cfi_offset 10, -12
 4008              		.cfi_offset 11, -8
 4009              		.cfi_offset 14, -4
 4010 0004 2DED048B 		fstmfdd	sp!, {d8, d9}
 4011              		.cfi_def_cfa_offset 52
 4012              		.cfi_offset 80, -52
 4013              		.cfi_offset 81, -48
 4014              		.cfi_offset 82, -44
 4015              		.cfi_offset 83, -40
 4016 0008 83B0     		sub	sp, sp, #12
 4017              		.cfi_def_cfa_offset 64
 4018              		.loc 1 1000 0
 4019 000a 9FED388A 		flds	s16, .L325
 4020              		.loc 1 999 0
 4021 000e 384F     		ldr	r7, .L325+4
 4022              		.loc 1 1001 0
 4023 0010 DFF8F080 		ldr	r8, .L325+24
 4024              		.loc 1 1002 0
 4025 0014 374E     		ldr	r6, .L325+8
 4026              		.loc 1 1003 0
 4027 0016 DFF8F090 		ldr	r9, .L325+28
 4028              		.loc 1 1004 0
 4029 001a DFF8F0A0 		ldr	r10, .L325+32
 4030              		.loc 1 1015 0
 4031 001e 364C     		ldr	r4, .L325+12
 4032              		.loc 1 996 0
 4033 0020 F0EE408A 		fcpys	s17, s0
 4034 0024 0546     		mov	r5, r0
 4035              		.loc 1 997 0
 4036 0026 FFF7FEFF 		bl	mc_interface_lock
 4037              	.LVL275:
 4038              		.loc 1 1000 0
 4039 002a 344A     		ldr	r2, .L325+16
 4040              		.loc 1 1003 0
 4041 002c 0223     		movs	r3, #2
 4042              		.loc 1 999 0
 4043 002e 0121     		movs	r1, #1
 4044 0030 3970     		strb	r1, [r7]
 4045              		.loc 1 1000 0
 4046 0032 82ED008A 		fsts	s16, [r2]
 4047              		.loc 1 1001 0
ARM GAS  /tmp/ccVIe4kR.s 			page 72


 4048 0036 88ED008A 		fsts	s16, [r8]
 4049              		.loc 1 1002 0
 4050 003a C6ED008A 		fsts	s17, [r6]
 4051              		.loc 1 1003 0
 4052 003e 89F80030 		strb	r3, [r9]
 4053              		.loc 1 1004 0
 4054 0042 8AF80030 		strb	r3, [r10]
 4055              		.loc 1 1007 0
 4056 0046 FFF7FEFF 		bl	timeout_get_timeout_msec
 4057              	.LVL276:
 4058 004a 0190     		str	r0, [sp, #4]
 4059              	.LVL277:
 4060              		.loc 1 1008 0
 4061 004c FFF7FEFF 		bl	timeout_get_brake_current
 4062              	.LVL278:
 4063              		.loc 1 1009 0
 4064 0050 4EF66020 		movw	r0, #60000
 4065              		.loc 1 1008 0
 4066 0054 B0EE409A 		fcpys	s18, s0
 4067              	.LVL279:
 4068              		.loc 1 1009 0
 4069 0058 B0EE480A 		fcpys	s0, s16
 4070              	.LVL280:
 4071 005c FFF7FEFF 		bl	timeout_configure
 4072              	.LVL281:
 4073              		.loc 1 1012 0
 4074 0060 42F21070 		movw	r0, #10000
 4075 0064 FFF7FEFF 		bl	chThdSleep
 4076              	.LVL282:
 4077              		.loc 1 1017 0
 4078 0068 0022     		movs	r2, #0
 4079              		.loc 1 1015 0
 4080 006a 84ED018A 		fsts	s16, [r4, #4]
 4081              		.loc 1 1020 0
 4082 006e 42F2117B 		movw	fp, #10001
 4083              		.loc 1 1016 0
 4084 0072 84ED028A 		fsts	s16, [r4, #8]
 4085              		.loc 1 1017 0
 4086 0076 2260     		str	r2, [r4]
 4087              	.LVL283:
 4088              		.loc 1 1020 0
 4089 0078 04E0     		b	.L319
 4090              	.LVL284:
 4091              	.L320:
 4092              		.loc 1 1021 0
 4093 007a FFF7FEFF 		bl	chThdSleep
 4094              	.LVL285:
 4095              		.loc 1 1024 0
 4096 007e BBF1010B 		subs	fp, fp, #1
 4097              	.LVL286:
 4098 0082 04D0     		beq	.L321
 4099              	.LVL287:
 4100              	.L319:
 4101              		.loc 1 1020 0
 4102 0084 2268     		ldr	r2, [r4]
 4103 0086 AA42     		cmp	r2, r5
 4104              		.loc 1 1021 0
ARM GAS  /tmp/ccVIe4kR.s 			page 73


 4105 0088 4FF00A00 		mov	r0, #10
 4106              		.loc 1 1020 0
 4107 008c F5DB     		blt	.L320
 4108              	.LVL288:
 4109              	.L321:
 4110              		.loc 1 1029 0
 4111 008e 94ED017A 		flds	s14, [r4, #4]
 4112 0092 94ED008A 		flds	s16, [r4]	@ int
 4113              		.loc 1 1030 0
 4114 0096 D4ED027A 		flds	s15, [r4, #8]
 4115 009a D4ED006A 		flds	s13, [r4]	@ int
 4116              		.loc 1 1029 0
 4117 009e B8EEC88A 		fsitos	s16, s16
 4118              		.loc 1 1030 0
 4119 00a2 F8EEE66A 		fsitos	s13, s13
 4120              		.loc 1 1029 0
 4121 00a6 C7EE088A 		fdivs	s17, s14, s16
 4122              	.LVL289:
 4123              		.loc 1 1033 0
 4124 00aa 0022     		movs	r2, #0
 4125              		.loc 1 1035 0
 4126 00ac 0023     		movs	r3, #0
 4127              		.loc 1 1036 0
 4128 00ae 0521     		movs	r1, #5
 4129              		.loc 1 1033 0
 4130 00b0 C8F80020 		str	r2, [r8]	@ float
 4131              		.loc 1 1034 0
 4132 00b4 3260     		str	r2, [r6]	@ float
 4133              		.loc 1 1035 0
 4134 00b6 3B70     		strb	r3, [r7]
 4135              		.loc 1 1036 0
 4136 00b8 89F80010 		strb	r1, [r9]
 4137              		.loc 1 1037 0
 4138 00bc 8AF80030 		strb	r3, [r10]
 4139              		.loc 1 1030 0
 4140 00c0 87EEA68A 		fdivs	s16, s15, s13
 4141              	.LVL290:
 4142              		.loc 1 1038 0
 4143 00c4 FFF7FEFF 		bl	stop_pwm_hw
 4144              	.LVL291:
 4145              		.loc 1 1041 0
 4146 00c8 0198     		ldr	r0, [sp, #4]
 4147 00ca B0EE490A 		fcpys	s0, s18
 4148 00ce FFF7FEFF 		bl	timeout_configure
 4149              	.LVL292:
 4150              		.loc 1 1043 0
 4151 00d2 FFF7FEFF 		bl	mc_interface_unlock
 4152              	.LVL293:
 4153              		.loc 1 1045 0
 4154 00d6 88EE288A 		fdivs	s16, s16, s17
 4155              	.LVL294:
 4156 00da 9FED090A 		flds	s0, .L325+20
 4157 00de 28EE000A 		fmuls	s0, s16, s0
 4158              		.loc 1 1046 0
 4159 00e2 03B0     		add	sp, sp, #12
 4160              		.cfi_def_cfa_offset 52
 4161              		@ sp needed
ARM GAS  /tmp/ccVIe4kR.s 			page 74


 4162 00e4 BDEC048B 		fldmfdd	sp!, {d8-d9}
 4163              		.cfi_restore 82
 4164              		.cfi_restore 83
 4165              		.cfi_restore 80
 4166              		.cfi_restore 81
 4167              		.cfi_def_cfa_offset 36
 4168              	.LVL295:
 4169 00e8 BDE8F08F 		pop	{r4, r5, r6, r7, r8, r9, r10, fp, pc}
 4170              	.LVL296:
 4171              	.L326:
 4172              		.align	2
 4173              	.L325:
 4174 00ec 00000000 		.word	0
 4175 00f0 00000000 		.word	.LANCHOR25
 4176 00f4 00000000 		.word	.LANCHOR20
 4177 00f8 00000000 		.word	.LANCHOR16
 4178 00fc 00000000 		.word	.LANCHOR26
 4179 0100 ABAA2A3F 		.word	1059760811
 4180 0104 00000000 		.word	.LANCHOR28
 4181 0108 00000000 		.word	.LANCHOR13
 4182 010c 00000000 		.word	.LANCHOR6
 4183              		.cfi_endproc
 4184              	.LFE290:
 4185              		.size	mcpwm_foc_measure_resistance, .-mcpwm_foc_measure_resistance
 4186              		.section	.text.mcpwm_foc_measure_inductance,"ax",%progbits
 4187              		.align	2
 4188              		.p2align 4,,15
 4189              		.global	mcpwm_foc_measure_inductance
 4190              		.thumb
 4191              		.thumb_func
 4192              		.type	mcpwm_foc_measure_inductance, %function
 4193              	mcpwm_foc_measure_inductance:
 4194              	.LFB291:
 4195              		.loc 1 1063 0
 4196              		.cfi_startproc
 4197              		@ args = 0, pretend = 0, frame = 0
 4198              		@ frame_needed = 0, uses_anonymous_args = 0
 4199              	.LVL297:
 4200 0000 2DE9F84F 		push	{r3, r4, r5, r6, r7, r8, r9, r10, fp, lr}
 4201              		.cfi_def_cfa_offset 40
 4202              		.cfi_offset 3, -40
 4203              		.cfi_offset 4, -36
 4204              		.cfi_offset 5, -32
 4205              		.cfi_offset 6, -28
 4206              		.cfi_offset 7, -24
 4207              		.cfi_offset 8, -20
 4208              		.cfi_offset 9, -16
 4209              		.cfi_offset 10, -12
 4210              		.cfi_offset 11, -8
 4211              		.cfi_offset 14, -4
 4212              		.loc 1 1064 0
 4213 0004 384D     		ldr	r5, .L337
 4214              		.loc 1 1063 0
 4215 0006 2DED028B 		fstmfdd	sp!, {d8}
 4216              		.cfi_def_cfa_offset 48
 4217              		.cfi_offset 80, -48
 4218              		.cfi_offset 81, -44
ARM GAS  /tmp/ccVIe4kR.s 			page 75


 4219              		.loc 1 1064 0
 4220 000a DFED388A 		flds	s17, .L337+4
 4221              		.loc 1 1066 0
 4222 000e 0027     		movs	r7, #0
 4223              		.loc 1 1063 0
 4224 0010 8946     		mov	r9, r1
 4225              		.loc 1 1064 0
 4226 0012 C5ED018A 		fsts	s17, [r5, #4]
 4227              		.loc 1 1063 0
 4228 0016 8246     		mov	r10, r0
 4229              		.loc 1 1065 0
 4230 0018 C5ED028A 		fsts	s17, [r5, #8]
 4231              		.loc 1 1066 0
 4232 001c 2F60     		str	r7, [r5]
 4233              		.loc 1 1067 0
 4234 001e 85ED040A 		fsts	s0, [r5, #16]
 4235              		.loc 1 1070 0
 4236 0022 FFF7FEFF 		bl	timeout_get_timeout_msec
 4237              	.LVL298:
 4238 0026 8346     		mov	fp, r0
 4239              	.LVL299:
 4240              		.loc 1 1071 0
 4241 0028 FFF7FEFF 		bl	timeout_get_brake_current
 4242              	.LVL300:
 4243              		.loc 1 1072 0
 4244 002c 4EF66020 		movw	r0, #60000
 4245              		.loc 1 1071 0
 4246 0030 B0EE408A 		fcpys	s16, s0
 4247              	.LVL301:
 4248              		.loc 1 1072 0
 4249 0034 B0EE680A 		fcpys	s0, s17
 4250              	.LVL302:
 4251 0038 FFF7FEFF 		bl	timeout_configure
 4252              	.LVL303:
 4253              		.loc 1 1074 0
 4254 003c FFF7FEFF 		bl	mc_interface_lock
 4255              	.LVL304:
 4256              	.LBB111:
 4257              		.loc 1 1077 0
 4258 0040 BA45     		cmp	r10, r7
 4259 0042 13DD     		ble	.L332
 4260 0044 3C46     		mov	r4, r7
 4261              		.loc 1 1078 0
 4262 0046 4FF00108 		mov	r8, #1
 4263              		.loc 1 1083 0
 4264 004a 41F28936 		movw	r6, #5001
 4265              	.LVL305:
 4266              	.L328:
 4267              		.loc 1 1078 0
 4268 004e 85F80C80 		strb	r8, [r5, #12]
 4269              		.loc 1 1080 0
 4270 0052 04E0     		b	.L331
 4271              	.L333:
 4272              		.loc 1 1082 0
 4273 0054 0134     		adds	r4, r4, #1
 4274              	.LVL306:
 4275              		.loc 1 1081 0
ARM GAS  /tmp/ccVIe4kR.s 			page 76


 4276 0056 FFF7FEFF 		bl	chThdSleep
 4277              	.LVL307:
 4278              		.loc 1 1083 0
 4279 005a B442     		cmp	r4, r6
 4280 005c 06D0     		beq	.L332
 4281              	.L331:
 4282              		.loc 1 1080 0
 4283 005e 2B7B     		ldrb	r3, [r5, #12]	@ zero_extendqisi2
 4284              		.loc 1 1081 0
 4285 0060 0A20     		movs	r0, #10
 4286              		.loc 1 1080 0
 4287 0062 002B     		cmp	r3, #0
 4288 0064 F6D1     		bne	.L333
 4289              		.loc 1 1077 0
 4290 0066 0137     		adds	r7, r7, #1
 4291              	.LVL308:
 4292 0068 5745     		cmp	r7, r10
 4293 006a F0D1     		bne	.L328
 4294              	.LVL309:
 4295              	.L332:
 4296              	.LBE111:
 4297              		.loc 1 1094 0
 4298 006c 5846     		mov	r0, fp
 4299 006e B0EE480A 		fcpys	s0, s16
 4300 0072 FFF7FEFF 		bl	timeout_configure
 4301              	.LVL310:
 4302              		.loc 1 1096 0
 4303 0076 FFF7FEFF 		bl	mc_interface_unlock
 4304              	.LVL311:
 4305              		.loc 1 1100 0
 4306 007a 1D4B     		ldr	r3, .L337+8
 4307              		.loc 1 1098 0
 4308 007c 95ED015A 		flds	s10, [r5, #4]
 4309 0080 D5ED005A 		flds	s11, [r5]	@ int
 4310              		.loc 1 1099 0
 4311 0084 D5ED026A 		flds	s13, [r5, #8]
 4312 0088 95ED006A 		flds	s12, [r5]	@ int
 4313              		.loc 1 1100 0
 4314 008c 93ED0B7A 		flds	s14, [r3, #44]	@ int
 4315 0090 D5ED047A 		flds	s15, [r5, #16]
 4316 0094 9FED174A 		flds	s8, .L337+12
 4317 0098 DFED174A 		flds	s9, .L337+16
 4318 009c B8EE477A 		fuitos	s14, s14
 4319              		.loc 1 1098 0
 4320 00a0 F8EEE55A 		fsitos	s11, s11
 4321              		.loc 1 1100 0
 4322 00a4 27EE277A 		fmuls	s14, s14, s15
 4323              		.loc 1 1099 0
 4324 00a8 B8EEC66A 		fsitos	s12, s12
 4325              		.loc 1 1100 0
 4326 00ac C7EE047A 		fdivs	s15, s14, s8
 4327              		.loc 1 1098 0
 4328 00b0 C5EE255A 		fdivs	s11, s10, s11
 4329              	.LVL312:
 4330              		.loc 1 1099 0
 4331 00b4 C6EE866A 		fdivs	s13, s13, s12
 4332              	.LVL313:
ARM GAS  /tmp/ccVIe4kR.s 			page 77


 4333              		.loc 1 1100 0
 4334 00b8 77EEE47A 		fsubs	s15, s15, s9
 4335              	.LVL314:
 4336              		.loc 1 1103 0
 4337 00bc B9F1000F 		cmp	r9, #0
 4338 00c0 01D0     		beq	.L330
 4339              		.loc 1 1104 0
 4340 00c2 C9ED005A 		fsts	s11, [r9]
 4341              	.L330:
 4342              		.loc 1 1107 0
 4343 00c6 66EEA76A 		fmuls	s13, s13, s15
 4344              	.LVL315:
 4345              		.loc 1 1108 0
 4346 00ca BDEC028B 		fldmfdd	sp!, {d8}
 4347              		.cfi_restore 80
 4348              		.cfi_restore 81
 4349              		.cfi_def_cfa_offset 40
 4350              	.LVL316:
 4351              		.loc 1 1107 0
 4352 00ce C6EEA57A 		fdivs	s15, s13, s11
 4353              	.LVL317:
 4354 00d2 9FED0A7A 		flds	s14, .L337+20
 4355              	.LVL318:
 4356 00d6 9FED0A0A 		flds	s0, .L337+24
 4357 00da 67EE877A 		fmuls	s15, s15, s14
 4358              		.loc 1 1108 0
 4359 00de 27EE800A 		fmuls	s0, s15, s0
 4360 00e2 BDE8F88F 		pop	{r3, r4, r5, r6, r7, r8, r9, r10, fp, pc}
 4361              	.LVL319:
 4362              	.L338:
 4363 00e6 00BF     		.align	2
 4364              	.L337:
 4365 00e8 00000000 		.word	.LANCHOR16
 4366 00ec 00000000 		.word	0
 4367 00f0 00000140 		.word	1073807360
 4368 00f4 A037204D 		.word	1293957024
 4369 00f8 57BDBF34 		.word	884981079
 4370 00fc 00247449 		.word	1232348160
 4371 0100 ABAA2A3F 		.word	1059760811
 4372              		.cfi_endproc
 4373              	.LFE291:
 4374              		.size	mcpwm_foc_measure_inductance, .-mcpwm_foc_measure_inductance
 4375              		.section	.text.mcpwm_foc_measure_res_ind,"ax",%progbits
 4376              		.align	2
 4377              		.p2align 4,,15
 4378              		.global	mcpwm_foc_measure_res_ind
 4379              		.thumb
 4380              		.thumb_func
 4381              		.type	mcpwm_foc_measure_res_ind, %function
 4382              	mcpwm_foc_measure_res_ind:
 4383              	.LFB292:
 4384              		.loc 1 1122 0
 4385              		.cfi_startproc
 4386              		@ args = 0, pretend = 0, frame = 8
 4387              		@ frame_needed = 0, uses_anonymous_args = 0
 4388              	.LVL320:
 4389 0000 2DE9F047 		push	{r4, r5, r6, r7, r8, r9, r10, lr}
ARM GAS  /tmp/ccVIe4kR.s 			page 78


 4390              		.cfi_def_cfa_offset 32
 4391              		.cfi_offset 4, -32
 4392              		.cfi_offset 5, -28
 4393              		.cfi_offset 6, -24
 4394              		.cfi_offset 7, -20
 4395              		.cfi_offset 8, -16
 4396              		.cfi_offset 9, -12
 4397              		.cfi_offset 10, -8
 4398              		.cfi_offset 14, -4
 4399              		.loc 1 1123 0
 4400 0004 774D     		ldr	r5, .L359
 4401              		.loc 1 1127 0
 4402 0006 784A     		ldr	r2, .L359+4
 4403              		.loc 1 1123 0
 4404 0008 2B68     		ldr	r3, [r5]
 4405              		.loc 1 1132 0
 4406 000a 784C     		ldr	r4, .L359+8
 4407              		.loc 1 1123 0
 4408 000c D3F894A0 		ldr	r10, [r3, #148]	@ float
 4409              	.LVL321:
 4410              		.loc 1 1128 0
 4411 0010 774E     		ldr	r6, .L359+12
 4412              		.loc 1 1124 0
 4413 0012 D3F88C90 		ldr	r9, [r3, #140]	@ float
 4414              	.LVL322:
 4415              		.loc 1 1125 0
 4416 0016 D3F89080 		ldr	r8, [r3, #144]	@ float
 4417              	.LVL323:
 4418              		.loc 1 1131 0
 4419 001a 764F     		ldr	r7, .L359+16
 4420              		.loc 1 1122 0
 4421 001c 2DED048B 		fstmfdd	sp!, {d8, d9}
 4422              		.cfi_def_cfa_offset 48
 4423              		.cfi_offset 80, -48
 4424              		.cfi_offset 81, -44
 4425              		.cfi_offset 82, -40
 4426              		.cfi_offset 83, -36
 4427              		.loc 1 1127 0
 4428 0020 C3F89420 		str	r2, [r3, #148]	@ float
 4429              		.loc 1 1129 0
 4430 0024 744A     		ldr	r2, .L359+20
 4431              		.loc 1 1128 0
 4432 0026 C3F88C60 		str	r6, [r3, #140]	@ float
 4433              		.loc 1 1129 0
 4434 002a C3F89020 		str	r2, [r3, #144]	@ float
 4435              		.loc 1 1131 0
 4436 002e D3ED257A 		flds	s15, [r3, #148]
 4437              		.loc 1 1132 0
 4438 0032 2668     		ldr	r6, [r4]
 4439 0034 714A     		ldr	r2, .L359+24
 4440 0036 46F00206 		orr	r6, r6, #2
 4441              		.loc 1 1131 0
 4442 003a FDEEE77A 		ftosizs	s15, s15
 4443              		.loc 1 1132 0
 4444 003e 2660     		str	r6, [r4]
 4445 0040 D2F800E0 		ldr	lr, [r2]
 4446              		.loc 1 1131 0
ARM GAS  /tmp/ccVIe4kR.s 			page 79


 4447 0044 17EE906A 		fmrs	r6, s15	@ int
 4448              		.loc 1 1132 0
 4449 0048 4EF0020E 		orr	lr, lr, #2
 4450              		.loc 1 1131 0
 4451 004c 97FBF6F6 		sdiv	r6, r7, r6
 4452              	.LVL324:
 4453              		.loc 1 1132 0
 4454 0050 4FF0050C 		mov	ip, #5
 4455 0054 B71E     		subs	r7, r6, #2
 4456 0056 C2F800E0 		str	lr, [r2]
 4457 005a E662     		str	r6, [r4, #44]
 4458 005c D662     		str	r6, [r2, #44]
 4459 005e C2F834C0 		str	ip, [r2, #52]
 4460 0062 2764     		str	r7, [r4, #64]
 4461 0064 9763     		str	r7, [r2, #56]
 4462 0066 2668     		ldr	r6, [r4]
 4463              	.LVL325:
 4464 0068 26F00206 		bic	r6, r6, #2
 4465 006c 2660     		str	r6, [r4]
 4466 006e 1468     		ldr	r4, [r2]
 4467 0070 24F00204 		bic	r4, r4, #2
 4468 0074 1460     		str	r4, [r2]
 4469              	.LVL326:
 4470              	.LBB112:
 4471              		.loc 1 1136 0
 4472 0076 D3ED017A 		flds	s15, [r3, #4]
 4473 007a F6EE008A 		fconsts	s17, #96
 4474 007e 67EEA87A 		fmuls	s15, s15, s17
 4475 0082 B0EE008A 		fconsts	s16, #0
 4476 0086 F4EEC87A 		fcmpes	s15, s16
 4477 008a F1EE10FA 		fmstat
 4478              	.LBE112:
 4479              		.loc 1 1122 0
 4480 008e 82B0     		sub	sp, sp, #8
 4481              		.cfi_def_cfa_offset 56
 4482              		.loc 1 1122 0
 4483 0090 0446     		mov	r4, r0
 4484 0092 0E46     		mov	r6, r1
 4485              	.LBB113:
 4486              		.loc 1 1136 0
 4487 0094 22DD     		ble	.L351
 4488 0096 B7EE089A 		fconsts	s18, #120
 4489 009a 0BE0     		b	.L346
 4490              	.LVL327:
 4491              	.L356:
 4492              		.loc 1 1136 0 is_stmt 0 discriminator 2
 4493 009c 2B68     		ldr	r3, [r5]
 4494 009e D3ED017A 		flds	s15, [r3, #4]
 4495 00a2 28EE098A 		fmuls	s16, s16, s18
 4496              	.LVL328:
 4497 00a6 67EEA87A 		fmuls	s15, s15, s17
 4498 00aa F4EEC87A 		fcmpes	s15, s16
 4499 00ae F1EE10FA 		fmstat
 4500 00b2 13DD     		ble	.L351
 4501              	.LVL329:
 4502              	.L346:
 4503              		.loc 1 1137 0 is_stmt 1
ARM GAS  /tmp/ccVIe4kR.s 			page 80


 4504 00b4 B0EE480A 		fcpys	s0, s16
 4505 00b8 1420     		movs	r0, #20
 4506 00ba FFF7FEFF 		bl	mcpwm_foc_measure_resistance
 4507              	.LVL330:
 4508              		.loc 1 1139 0
 4509 00be 88EE800A 		fdivs	s0, s17, s0
 4510              	.LVL331:
 4511 00c2 B4EEC80A 		fcmpes	s0, s16
 4512 00c6 F1EE10FA 		fmstat
 4513 00ca E7D5     		bpl	.L356
 4514              	.LBE113:
 4515              		.loc 1 1145 0
 4516 00cc DFED4C7A 		flds	s15, .L359+28
 4517              	.LVL332:
 4518 00d0 B4EEE78A 		fcmpes	s16, s15
 4519 00d4 F1EE10FA 		fmstat
 4520 00d8 06D5     		bpl	.L345
 4521 00da 2B68     		ldr	r3, [r5]
 4522              	.LVL333:
 4523              	.L351:
 4524              		.loc 1 1146 0
 4525 00dc D3ED017A 		flds	s15, [r3, #4]
 4526 00e0 B6EE008A 		fconsts	s16, #96
 4527 00e4 27EE888A 		fmuls	s16, s15, s16
 4528              	.LVL334:
 4529              	.L345:
 4530              		.loc 1 1149 0
 4531 00e8 4FF4FA70 		mov	r0, #500
 4532 00ec B0EE480A 		fcpys	s0, s16
 4533 00f0 FFF7FEFF 		bl	mcpwm_foc_measure_resistance
 4534              	.LVL335:
 4535              		.loc 1 1151 0
 4536 00f4 2B68     		ldr	r3, [r5]
 4537              		.loc 1 1153 0
 4538 00f6 3D4A     		ldr	r2, .L359+8
 4539              		.loc 1 1151 0
 4540 00f8 4249     		ldr	r1, .L359+32
 4541              		.loc 1 1149 0
 4542 00fa 84ED000A 		fsts	s0, [r4]
 4543              		.loc 1 1151 0
 4544 00fe C3F89410 		str	r1, [r3, #148]	@ float
 4545              		.loc 1 1152 0
 4546 0102 D3ED257A 		flds	s15, [r3, #148]
 4547              		.loc 1 1153 0
 4548 0106 1168     		ldr	r1, [r2]
 4549 0108 3C4B     		ldr	r3, .L359+24
 4550              		.loc 1 1152 0
 4551 010a 3A48     		ldr	r0, .L359+16
 4552              	.LBB114:
 4553              		.loc 1 1156 0
 4554 010c DFED3E8A 		flds	s17, .L359+36
 4555              	.LBE114:
 4556              		.loc 1 1153 0
 4557 0110 41F00201 		orr	r1, r1, #2
 4558              		.loc 1 1152 0
 4559 0114 FDEEE77A 		ftosizs	s15, s15
 4560              		.loc 1 1153 0
ARM GAS  /tmp/ccVIe4kR.s 			page 81


 4561 0118 1160     		str	r1, [r2]
 4562 011a 1C68     		ldr	r4, [r3]
 4563              	.LVL336:
 4564              		.loc 1 1152 0
 4565 011c 17EE901A 		fmrs	r1, s15	@ int
 4566              		.loc 1 1153 0
 4567 0120 44F00204 		orr	r4, r4, #2
 4568              		.loc 1 1152 0
 4569 0124 90FBF1F1 		sdiv	r1, r0, r1
 4570              	.LVL337:
 4571              		.loc 1 1153 0
 4572 0128 0527     		movs	r7, #5
 4573 012a 881E     		subs	r0, r1, #2
 4574 012c 1C60     		str	r4, [r3]
 4575 012e D162     		str	r1, [r2, #44]
 4576 0130 D962     		str	r1, [r3, #44]
 4577 0132 5F63     		str	r7, [r3, #52]
 4578 0134 1064     		str	r0, [r2, #64]
 4579 0136 9863     		str	r0, [r3, #56]
 4580 0138 1168     		ldr	r1, [r2]
 4581              	.LVL338:
 4582 013a 21F00201 		bic	r1, r1, #2
 4583 013e 1160     		str	r1, [r2]
 4584 0140 1A68     		ldr	r2, [r3]
 4585 0142 22F00202 		bic	r2, r2, #2
 4586 0146 1A60     		str	r2, [r3]
 4587              	.LVL339:
 4588 0148 0824     		movs	r4, #8
 4589              	.LBB116:
 4590              		.loc 1 1156 0
 4591 014a B7EE089A 		fconsts	s18, #120
 4592              	.LVL340:
 4593              	.L350:
 4594              	.LBB115:
 4595              		.loc 1 1158 0
 4596 014e B0EE680A 		fcpys	s0, s17
 4597 0152 1420     		movs	r0, #20
 4598 0154 01A9     		add	r1, sp, #4
 4599 0156 FFF7FEFF 		bl	mcpwm_foc_measure_inductance
 4600              	.LVL341:
 4601              		.loc 1 1160 0
 4602 015a DDED017A 		flds	s15, [sp, #4]
 4603 015e B4EEE78A 		fcmpes	s16, s15
 4604 0162 F1EE10FA 		fmstat
 4605 0166 05D9     		bls	.L349
 4606              	.LBE115:
 4607              		.loc 1 1156 0
 4608 0168 013C     		subs	r4, r4, #1
 4609 016a 68EE898A 		fmuls	s17, s17, s18
 4610              	.LVL342:
 4611 016e EED1     		bne	.L350
 4612              	.LBE116:
 4613              		.loc 1 1155 0
 4614 0170 DFED268A 		flds	s17, .L359+40
 4615              	.LVL343:
 4616              	.L349:
 4617              		.loc 1 1166 0
ARM GAS  /tmp/ccVIe4kR.s 			page 82


 4618 0174 B0EE680A 		fcpys	s0, s17
 4619 0178 4FF4FA70 		mov	r0, #500
 4620 017c 0021     		movs	r1, #0
 4621 017e FFF7FEFF 		bl	mcpwm_foc_measure_inductance
 4622              	.LVL344:
 4623              		.loc 1 1168 0
 4624 0182 2B68     		ldr	r3, [r5]
 4625              		.loc 1 1173 0
 4626 0184 194A     		ldr	r2, .L359+8
 4627              		.loc 1 1166 0
 4628 0186 86ED000A 		fsts	s0, [r6]
 4629              		.loc 1 1168 0
 4630 018a C3F894A0 		str	r10, [r3, #148]	@ float
 4631              		.loc 1 1169 0
 4632 018e C3F88C90 		str	r9, [r3, #140]	@ float
 4633              		.loc 1 1170 0
 4634 0192 C3F89080 		str	r8, [r3, #144]	@ float
 4635              		.loc 1 1172 0
 4636 0196 D3ED257A 		flds	s15, [r3, #148]
 4637              		.loc 1 1173 0
 4638 019a 1168     		ldr	r1, [r2]
 4639 019c 174B     		ldr	r3, .L359+24
 4640              		.loc 1 1172 0
 4641 019e 1548     		ldr	r0, .L359+16
 4642              		.loc 1 1173 0
 4643 01a0 41F00201 		orr	r1, r1, #2
 4644              		.loc 1 1172 0
 4645 01a4 FDEEE77A 		ftosizs	s15, s15
 4646              		.loc 1 1173 0
 4647 01a8 1160     		str	r1, [r2]
 4648 01aa 1C68     		ldr	r4, [r3]
 4649              		.loc 1 1172 0
 4650 01ac 17EE901A 		fmrs	r1, s15	@ int
 4651              		.loc 1 1173 0
 4652 01b0 44F00204 		orr	r4, r4, #2
 4653              		.loc 1 1172 0
 4654 01b4 90FBF1F1 		sdiv	r1, r0, r1
 4655              	.LVL345:
 4656              		.loc 1 1173 0
 4657 01b8 0525     		movs	r5, #5
 4658 01ba 881E     		subs	r0, r1, #2
 4659 01bc 1C60     		str	r4, [r3]
 4660 01be D162     		str	r1, [r2, #44]
 4661 01c0 D962     		str	r1, [r3, #44]
 4662 01c2 5D63     		str	r5, [r3, #52]
 4663 01c4 1064     		str	r0, [r2, #64]
 4664 01c6 9863     		str	r0, [r3, #56]
 4665 01c8 1168     		ldr	r1, [r2]
 4666              	.LVL346:
 4667 01ca 21F00201 		bic	r1, r1, #2
 4668 01ce 1160     		str	r1, [r2]
 4669 01d0 1A68     		ldr	r2, [r3]
 4670              		.loc 1 1176 0
 4671 01d2 0120     		movs	r0, #1
 4672              	.LVL347:
 4673              		.loc 1 1173 0
 4674 01d4 22F00202 		bic	r2, r2, #2
ARM GAS  /tmp/ccVIe4kR.s 			page 83


 4675 01d8 1A60     		str	r2, [r3]
 4676              		.loc 1 1176 0
 4677 01da 02B0     		add	sp, sp, #8
 4678              		.cfi_def_cfa_offset 48
 4679              		@ sp needed
 4680 01dc BDEC048B 		fldmfdd	sp!, {d8-d9}
 4681              		.cfi_restore 82
 4682              		.cfi_restore 83
 4683              		.cfi_restore 80
 4684              		.cfi_restore 81
 4685              		.cfi_def_cfa_offset 32
 4686              	.LVL348:
 4687 01e0 BDE8F087 		pop	{r4, r5, r6, r7, r8, r9, r10, pc}
 4688              	.LVL349:
 4689              	.L360:
 4690              		.align	2
 4691              	.L359:
 4692 01e4 00000000 		.word	.LANCHOR2
 4693 01e8 00401C46 		.word	1176256512
 4694 01ec 00000140 		.word	1073807360
 4695 01f0 0AD7233C 		.word	1008981770
 4696 01f4 007A030A 		.word	168000000
 4697 01f8 00002041 		.word	1092616192
 4698 01fc 00040140 		.word	1073808384
 4699 0200 0AD7233C 		.word	1008981770
 4700 0204 00803B45 		.word	1161527296
 4701 0208 0AD7A33C 		.word	1017370378
 4702 020c 00000000 		.word	0
 4703              		.cfi_endproc
 4704              	.LFE292:
 4705              		.size	mcpwm_foc_measure_res_ind, .-mcpwm_foc_measure_res_ind
 4706              		.section	.text.mcpwm_foc_hall_detect,"ax",%progbits
 4707              		.align	2
 4708              		.p2align 4,,15
 4709              		.global	mcpwm_foc_hall_detect
 4710              		.thumb
 4711              		.thumb_func
 4712              		.type	mcpwm_foc_hall_detect, %function
 4713              	mcpwm_foc_hall_detect:
 4714              	.LFB293:
 4715              		.loc 1 1191 0
 4716              		.cfi_startproc
 4717              		@ args = 0, pretend = 0, frame = 112
 4718              		@ frame_needed = 0, uses_anonymous_args = 0
 4719              	.LVL350:
 4720 0000 2DE9F04F 		push	{r4, r5, r6, r7, r8, r9, r10, fp, lr}
 4721              		.cfi_def_cfa_offset 36
 4722              		.cfi_offset 4, -36
 4723              		.cfi_offset 5, -32
 4724              		.cfi_offset 6, -28
 4725              		.cfi_offset 7, -24
 4726              		.cfi_offset 8, -20
 4727              		.cfi_offset 9, -16
 4728              		.cfi_offset 10, -12
 4729              		.cfi_offset 11, -8
 4730              		.cfi_offset 14, -4
 4731 0004 2DED048B 		fstmfdd	sp!, {d8, d9}
ARM GAS  /tmp/ccVIe4kR.s 			page 84


 4732              		.cfi_def_cfa_offset 52
 4733              		.cfi_offset 80, -52
 4734              		.cfi_offset 81, -48
 4735              		.cfi_offset 82, -44
 4736              		.cfi_offset 83, -40
 4737 0008 9DB0     		sub	sp, sp, #116
 4738              		.cfi_def_cfa_offset 168
 4739              		.loc 1 1191 0
 4740 000a B0EE408A 		fcpys	s16, s0
 4741 000e 0190     		str	r0, [sp, #4]
 4742              		.loc 1 1192 0
 4743 0010 FFF7FEFF 		bl	mc_interface_lock
 4744              	.LVL351:
 4745              		.loc 1 1194 0
 4746 0014 9949     		ldr	r1, .L377
 4747              		.loc 1 1196 0
 4748 0016 DFED9A9A 		flds	s19, .L377+4
 4749              		.loc 1 1195 0
 4750 001a DFF890A2 		ldr	r10, .L377+48
 4751              		.loc 1 1197 0
 4752 001e 994F     		ldr	r7, .L377+8
 4753              		.loc 1 1206 0
 4754 0020 994C     		ldr	r4, .L377+12
 4755              	.LBB117:
 4756              	.LBB118:
 4757              	.LBB119:
 4758              		.loc 1 1219 0
 4759 0022 9FED9A9A 		flds	s18, .L377+16
 4760 0026 DFED9A8A 		flds	s17, .L377+20
 4761              	.LBB120:
 4762              	.LBB121:
 4763              		.loc 1 2133 0
 4764 002a 9A4D     		ldr	r5, .L377+24
 4765 002c 9A4E     		ldr	r6, .L377+28
 4766              	.LBE121:
 4767              	.LBE120:
 4768              	.LBE119:
 4769              	.LBE118:
 4770              	.LBE117:
 4771              		.loc 1 1194 0
 4772 002e 0122     		movs	r2, #1
 4773 0030 0A70     		strb	r2, [r1]
 4774              		.loc 1 1196 0
 4775 0032 9A4A     		ldr	r2, .L377+32
 4776              		.loc 1 1195 0
 4777 0034 8AED008A 		fsts	s16, [r10]
 4778              		.loc 1 1196 0
 4779 0038 C2ED009A 		fsts	s19, [r2]
 4780              		.loc 1 1198 0
 4781 003c 984A     		ldr	r2, .L377+36
 4782              		.loc 1 1197 0
 4783 003e 0223     		movs	r3, #2
 4784 0040 3B70     		strb	r3, [r7]
 4785              		.loc 1 1198 0
 4786 0042 1370     		strb	r3, [r2]
 4787              		.loc 1 1201 0
 4788 0044 FFF7FEFF 		bl	timeout_get_timeout_msec
ARM GAS  /tmp/ccVIe4kR.s 			page 85


 4789              	.LVL352:
 4790 0048 0090     		str	r0, [sp]
 4791              	.LVL353:
 4792              		.loc 1 1202 0
 4793 004a FFF7FEFF 		bl	timeout_get_brake_current
 4794              	.LVL354:
 4795              		.loc 1 1203 0
 4796 004e 4EF66020 		movw	r0, #60000
 4797              		.loc 1 1202 0
 4798 0052 B0EE408A 		fcpys	s16, s0
 4799              	.LVL355:
 4800              		.loc 1 1203 0
 4801 0056 B0EE690A 		fcpys	s0, s19
 4802              	.LVL356:
 4803 005a FFF7FEFF 		bl	timeout_configure
 4804              	.LVL357:
 4805              		.loc 1 1207 0
 4806 005e 42F21070 		movw	r0, #10000
 4807              		.loc 1 1206 0
 4808 0062 C4ED009A 		fsts	s19, [r4]
 4809              		.loc 1 1207 0
 4810 0066 FFF7FEFF 		bl	chThdSleep
 4811              	.LVL358:
 4812              		.loc 1 1212 0
 4813 006a 0023     		movs	r3, #0
 4814 006c 0493     		str	r3, [sp, #16]
 4815 006e 0593     		str	r3, [sp, #20]
 4816 0070 0693     		str	r3, [sp, #24]
 4817 0072 0793     		str	r3, [sp, #28]
 4818 0074 0893     		str	r3, [sp, #32]
 4819 0076 0993     		str	r3, [sp, #36]
 4820 0078 0A93     		str	r3, [sp, #40]
 4821 007a 0B93     		str	r3, [sp, #44]
 4822              		.loc 1 1213 0
 4823 007c 0C93     		str	r3, [sp, #48]
 4824 007e 0D93     		str	r3, [sp, #52]
 4825 0080 0E93     		str	r3, [sp, #56]
 4826 0082 0F93     		str	r3, [sp, #60]
 4827 0084 1093     		str	r3, [sp, #64]
 4828 0086 1193     		str	r3, [sp, #68]
 4829 0088 1293     		str	r3, [sp, #72]
 4830 008a 1393     		str	r3, [sp, #76]
 4831              		.loc 1 1214 0
 4832 008c 1493     		str	r3, [sp, #80]
 4833 008e 1593     		str	r3, [sp, #84]
 4834 0090 1693     		str	r3, [sp, #88]
 4835 0092 1793     		str	r3, [sp, #92]
 4836 0094 1893     		str	r3, [sp, #96]
 4837 0096 1993     		str	r3, [sp, #100]
 4838 0098 1A93     		str	r3, [sp, #104]
 4839 009a 1B93     		str	r3, [sp, #108]
 4840              	.LVL359:
 4841 009c 4FF0030B 		mov	fp, #3
 4842              	.LVL360:
 4843              	.L362:
 4844              		.loc 1 1191 0
 4845 00a0 4FF00009 		mov	r9, #0
ARM GAS  /tmp/ccVIe4kR.s 			page 86


 4846              	.LVL361:
 4847              	.L363:
 4848              	.LBB132:
 4849              	.LBB131:
 4850              	.LBB128:
 4851              		.loc 1 1219 0 discriminator 3
 4852 00a4 07EE909A 		fmsr	s15, r9	@ int
 4853 00a8 F8EEE77A 		fsitos	s15, s15
 4854              		.loc 1 1220 0 discriminator 3
 4855 00ac 3220     		movs	r0, #50
 4856              		.loc 1 1219 0 discriminator 3
 4857 00ae 67EE897A 		fmuls	s15, s15, s18
 4858              	.LBE128:
 4859              		.loc 1 1218 0 discriminator 3
 4860 00b2 09F10109 		add	r9, r9, #1
 4861              	.LVL362:
 4862              	.LBB129:
 4863              		.loc 1 1219 0 discriminator 3
 4864 00b6 C7EEA87A 		fdivs	s15, s15, s17
 4865 00ba C4ED007A 		fsts	s15, [r4]
 4866              		.loc 1 1220 0 discriminator 3
 4867 00be FFF7FEFF 		bl	chThdSleep
 4868              	.LVL363:
 4869              	.LBB125:
 4870              	.LBB122:
 4871              		.loc 1 2133 0 discriminator 3
 4872 00c2 2A69     		ldr	r2, [r5, #16]
 4873 00c4 2969     		ldr	r1, [r5, #16]
 4874 00c6 3369     		ldr	r3, [r6, #16]
 4875              	.LBE122:
 4876              	.LBE125:
 4877              		.loc 1 1224 0 discriminator 3
 4878 00c8 94ED000A 		flds	s0, [r4]
 4879              	.LBB126:
 4880              	.LBB123:
 4881              		.loc 1 2133 0 discriminator 3
 4882 00cc C3F3C023 		ubfx	r3, r3, #11, #1
 4883 00d0 C1F3C018 		ubfx	r8, r1, #7, #1
 4884 00d4 9B00     		lsls	r3, r3, #2
 4885 00d6 C2F38012 		ubfx	r2, r2, #6, #1
 4886 00da 43EA4803 		orr	r3, r3, r8, lsl #1
 4887              	.LBE123:
 4888              	.LBE126:
 4889              		.loc 1 1224 0 discriminator 3
 4890 00de 02A8     		add	r0, sp, #8
 4891 00e0 03A9     		add	r1, sp, #12
 4892              	.LBB127:
 4893              	.LBB124:
 4894              		.loc 1 2133 0 discriminator 3
 4895 00e2 43EA0208 		orr	r8, r3, r2
 4896              	.LBE124:
 4897              	.LBE127:
 4898              		.loc 1 1224 0 discriminator 3
 4899 00e6 FFF7FEFF 		bl	sincosf
 4900              	.LVL364:
 4901              		.loc 1 1225 0 discriminator 3
 4902 00ea 1CAB     		add	r3, sp, #112
ARM GAS  /tmp/ccVIe4kR.s 			page 87


 4903 00ec 03EB8803 		add	r3, r3, r8, lsl #2
 4904 00f0 13ED186A 		flds	s12, [r3, #-96]
 4905              		.loc 1 1226 0 discriminator 3
 4906 00f4 13ED107A 		flds	s14, [r3, #-64]
 4907              		.loc 1 1225 0 discriminator 3
 4908 00f8 DDED026A 		flds	s13, [sp, #8]
 4909              		.loc 1 1226 0 discriminator 3
 4910 00fc DDED037A 		flds	s15, [sp, #12]
 4911              		.loc 1 1227 0 discriminator 3
 4912 0100 53F8202C 		ldr	r2, [r3, #-32]
 4913              		.loc 1 1225 0 discriminator 3
 4914 0104 76EE266A 		fadds	s13, s12, s13
 4915              		.loc 1 1226 0 discriminator 3
 4916 0108 77EE277A 		fadds	s15, s14, s15
 4917              		.loc 1 1227 0 discriminator 3
 4918 010c 0132     		adds	r2, r2, #1
 4919              	.LBE129:
 4920              		.loc 1 1218 0 discriminator 3
 4921 010e B9F5B47F 		cmp	r9, #360
 4922              	.LBB130:
 4923              		.loc 1 1225 0 discriminator 3
 4924 0112 43ED186A 		fsts	s13, [r3, #-96]
 4925              		.loc 1 1226 0 discriminator 3
 4926 0116 43ED107A 		fsts	s15, [r3, #-64]
 4927              		.loc 1 1227 0 discriminator 3
 4928 011a 43F8202C 		str	r2, [r3, #-32]
 4929              	.LBE130:
 4930              		.loc 1 1218 0 discriminator 3
 4931 011e C1D1     		bne	.L363
 4932              	.LVL365:
 4933              	.LBE131:
 4934              		.loc 1 1217 0 discriminator 2
 4935 0120 BBF1010B 		subs	fp, fp, #1
 4936              	.LVL366:
 4937 0124 BCD1     		bne	.L362
 4938              	.LBE132:
 4939              	.LBB133:
 4940              	.LBB134:
 4941              	.LBB135:
 4942              		.loc 1 1234 0
 4943 0126 9FED599A 		flds	s18, .L377+16
 4944 012a DFED598A 		flds	s17, .L377+20
 4945              	.LBB136:
 4946              	.LBB137:
 4947              		.loc 1 2133 0
 4948 012e 594D     		ldr	r5, .L377+24
 4949 0130 594E     		ldr	r6, .L377+28
 4950              	.LBE137:
 4951              	.LBE136:
 4952              	.LBE135:
 4953              	.LBE134:
 4954              	.LBE133:
 4955              	.LBB148:
 4956 0132 4FF0030B 		mov	fp, #3
 4957              	.LVL367:
 4958              	.L364:
 4959              	.LBE148:
ARM GAS  /tmp/ccVIe4kR.s 			page 88


 4960              		.loc 1 1214 0
 4961 0136 4FF4B479 		mov	r9, #360
 4962              	.LVL368:
 4963              	.L365:
 4964              	.LBB149:
 4965              	.LBB147:
 4966              	.LBB144:
 4967              		.loc 1 1234 0 discriminator 3
 4968 013a 07EE909A 		fmsr	s15, r9	@ int
 4969 013e F8EEE77A 		fsitos	s15, s15
 4970              		.loc 1 1235 0 discriminator 3
 4971 0142 3220     		movs	r0, #50
 4972              		.loc 1 1234 0 discriminator 3
 4973 0144 67EE897A 		fmuls	s15, s15, s18
 4974              	.LBE144:
 4975              		.loc 1 1233 0 discriminator 3
 4976 0148 09F1FF39 		add	r9, r9, #-1
 4977              	.LVL369:
 4978              	.LBB145:
 4979              		.loc 1 1234 0 discriminator 3
 4980 014c C7EEA87A 		fdivs	s15, s15, s17
 4981 0150 C4ED007A 		fsts	s15, [r4]
 4982              		.loc 1 1235 0 discriminator 3
 4983 0154 FFF7FEFF 		bl	chThdSleep
 4984              	.LVL370:
 4985              	.LBB141:
 4986              	.LBB138:
 4987              		.loc 1 2133 0 discriminator 3
 4988 0158 2A69     		ldr	r2, [r5, #16]
 4989 015a 2969     		ldr	r1, [r5, #16]
 4990 015c 3369     		ldr	r3, [r6, #16]
 4991              	.LBE138:
 4992              	.LBE141:
 4993              		.loc 1 1239 0 discriminator 3
 4994 015e 94ED000A 		flds	s0, [r4]
 4995              	.LBB142:
 4996              	.LBB139:
 4997              		.loc 1 2133 0 discriminator 3
 4998 0162 C3F3C023 		ubfx	r3, r3, #11, #1
 4999 0166 C1F3C018 		ubfx	r8, r1, #7, #1
 5000 016a 9B00     		lsls	r3, r3, #2
 5001 016c C2F38012 		ubfx	r2, r2, #6, #1
 5002 0170 43EA4803 		orr	r3, r3, r8, lsl #1
 5003              	.LBE139:
 5004              	.LBE142:
 5005              		.loc 1 1239 0 discriminator 3
 5006 0174 02A8     		add	r0, sp, #8
 5007 0176 03A9     		add	r1, sp, #12
 5008              	.LBB143:
 5009              	.LBB140:
 5010              		.loc 1 2133 0 discriminator 3
 5011 0178 43EA0208 		orr	r8, r3, r2
 5012              	.LBE140:
 5013              	.LBE143:
 5014              		.loc 1 1239 0 discriminator 3
 5015 017c FFF7FEFF 		bl	sincosf
 5016              	.LVL371:
ARM GAS  /tmp/ccVIe4kR.s 			page 89


 5017              		.loc 1 1240 0 discriminator 3
 5018 0180 1CAB     		add	r3, sp, #112
 5019 0182 03EB8803 		add	r3, r3, r8, lsl #2
 5020 0186 13ED186A 		flds	s12, [r3, #-96]
 5021              		.loc 1 1241 0 discriminator 3
 5022 018a 13ED107A 		flds	s14, [r3, #-64]
 5023              		.loc 1 1240 0 discriminator 3
 5024 018e DDED026A 		flds	s13, [sp, #8]
 5025              		.loc 1 1241 0 discriminator 3
 5026 0192 DDED037A 		flds	s15, [sp, #12]
 5027              		.loc 1 1242 0 discriminator 3
 5028 0196 53F8202C 		ldr	r2, [r3, #-32]
 5029              		.loc 1 1240 0 discriminator 3
 5030 019a 76EE266A 		fadds	s13, s12, s13
 5031              		.loc 1 1241 0 discriminator 3
 5032 019e 77EE277A 		fadds	s15, s14, s15
 5033              		.loc 1 1242 0 discriminator 3
 5034 01a2 0132     		adds	r2, r2, #1
 5035              	.LBE145:
 5036              		.loc 1 1233 0 discriminator 3
 5037 01a4 B9F1FF3F 		cmp	r9, #-1
 5038              	.LBB146:
 5039              		.loc 1 1240 0 discriminator 3
 5040 01a8 43ED186A 		fsts	s13, [r3, #-96]
 5041              		.loc 1 1241 0 discriminator 3
 5042 01ac 43ED107A 		fsts	s15, [r3, #-64]
 5043              		.loc 1 1242 0 discriminator 3
 5044 01b0 43F8202C 		str	r2, [r3, #-32]
 5045              	.LBE146:
 5046              		.loc 1 1233 0 discriminator 3
 5047 01b4 C1D1     		bne	.L365
 5048              	.LVL372:
 5049              	.LBE147:
 5050              		.loc 1 1232 0 discriminator 2
 5051 01b6 BBF1010B 		subs	fp, fp, #1
 5052              	.LVL373:
 5053 01ba BCD1     		bne	.L364
 5054              	.LBE149:
 5055              		.loc 1 1247 0
 5056 01bc 3749     		ldr	r1, .L377+32
 5057              	.LBB150:
 5058              	.LBB151:
 5059              		.loc 1 1259 0
 5060 01be DFED349A 		flds	s19, .L377+20
 5061 01c2 9FED329A 		flds	s18, .L377+16
 5062              		.loc 1 1261 0
 5063 01c6 DFED378A 		flds	s17, .L377+40
 5064              	.LBE151:
 5065              	.LBE150:
 5066              		.loc 1 1246 0
 5067 01ca 0023     		movs	r3, #0
 5068 01cc CAF80030 		str	r3, [r10]	@ float
 5069              		.loc 1 1247 0
 5070 01d0 0B60     		str	r3, [r1]	@ float
 5071              		.loc 1 1248 0
 5072 01d2 2A4B     		ldr	r3, .L377
 5073 01d4 83F800B0 		strb	fp, [r3]
ARM GAS  /tmp/ccVIe4kR.s 			page 90


 5074              		.loc 1 1250 0
 5075 01d8 314B     		ldr	r3, .L377+36
 5076              		.loc 1 1249 0
 5077 01da 0522     		movs	r2, #5
 5078 01dc 3A70     		strb	r2, [r7]
 5079 01de 0CAE     		add	r6, sp, #48
 5080              		.loc 1 1250 0
 5081 01e0 83F800B0 		strb	fp, [r3]
 5082              		.loc 1 1251 0
 5083 01e4 FFF7FEFF 		bl	stop_pwm_hw
 5084              	.LVL374:
 5085              		.loc 1 1254 0
 5086 01e8 B0EE480A 		fcpys	s0, s16
 5087 01ec 0098     		ldr	r0, [sp]
 5088              	.LBB155:
 5089              	.LBB152:
 5090              		.loc 1 1261 0
 5091 01ee 9FED2E8A 		flds	s16, .L377+44
 5092              	.LVL375:
 5093              	.LBE152:
 5094              	.LBE155:
 5095              		.loc 1 1254 0
 5096 01f2 FFF7FEFF 		bl	timeout_configure
 5097              	.LVL376:
 5098 01f6 B046     		mov	r8, r6
 5099 01f8 019D     		ldr	r5, [sp, #4]
 5100 01fa 13AF     		add	r7, sp, #76
 5101 01fc 04AC     		add	r4, sp, #16
 5102              	.LBB156:
 5103              		.loc 1 1263 0
 5104 01fe 4FF0FF09 		mov	r9, #255
 5105              	.LVL377:
 5106 0202 0AE0     		b	.L369
 5107              	.LVL378:
 5108              	.L367:
 5109 0204 0434     		adds	r4, r4, #4
 5110              		.loc 1 1257 0
 5111 0206 4445     		cmp	r4, r8
 5112              		.loc 1 1263 0
 5113 0208 85F80090 		strb	r9, [r5]
 5114              		.loc 1 1264 0
 5115 020c 0BF1010B 		add	fp, fp, #1
 5116              	.LVL379:
 5117 0210 06F10406 		add	r6, r6, #4
 5118 0214 05F10105 		add	r5, r5, #1
 5119              	.LVL380:
 5120              		.loc 1 1257 0
 5121 0218 23D0     		beq	.L376
 5122              	.LVL381:
 5123              	.L369:
 5124              		.loc 1 1258 0
 5125 021a 57F8043F 		ldr	r3, [r7, #4]!
 5126 021e 1E2B     		cmp	r3, #30
 5127 0220 F0DD     		ble	.L367
 5128              	.LBB153:
 5129              		.loc 1 1259 0
 5130 0222 94ED000A 		flds	s0, [r4]
ARM GAS  /tmp/ccVIe4kR.s 			page 91


 5131 0226 D6ED000A 		flds	s1, [r6]
 5132 022a FFF7FEFF 		bl	atan2f
 5133              	.LVL382:
 5134 022e 20EE290A 		fmuls	s0, s0, s19
 5135              		.loc 1 1260 0
 5136 0232 03A8     		add	r0, sp, #12
 5137              		.loc 1 1259 0
 5138 0234 C0EE097A 		fdivs	s15, s0, s18
 5139 0238 0434     		adds	r4, r4, #4
 5140 023a 0436     		adds	r6, r6, #4
 5141 023c 0135     		adds	r5, r5, #1
 5142              	.LVL383:
 5143 023e CDED037A 		fsts	s15, [sp, #12]
 5144              		.loc 1 1260 0
 5145 0242 FFF7FEFF 		bl	utils_norm_angle
 5146              	.LVL384:
 5147              		.loc 1 1261 0
 5148 0246 DDED037A 		flds	s15, [sp, #12]
 5149 024a 67EEA87A 		fmuls	s15, s15, s17
 5150              	.LBE153:
 5151              		.loc 1 1257 0
 5152 024e 4445     		cmp	r4, r8
 5153              	.LBB154:
 5154              		.loc 1 1261 0
 5155 0250 C7EE887A 		fdivs	s15, s15, s16
 5156 0254 FCEEE77A 		ftouizs	s15, s15
 5157 0258 17EE903A 		fmrs	r3, s15	@ int
 5158 025c 05F8013C 		strb	r3, [r5, #-1]
 5159              	.LVL385:
 5160              	.LBE154:
 5161              		.loc 1 1257 0
 5162 0260 DBD1     		bne	.L369
 5163              	.L376:
 5164              	.LBE156:
 5165              		.loc 1 1268 0
 5166 0262 FFF7FEFF 		bl	mc_interface_unlock
 5167              	.LVL386:
 5168              		.loc 1 1271 0
 5169 0266 ABF10200 		sub	r0, fp, #2
 5170 026a B0FA80F0 		clz	r0, r0
 5171 026e 4009     		lsrs	r0, r0, #5
 5172 0270 1DB0     		add	sp, sp, #116
 5173              		.cfi_def_cfa_offset 52
 5174              	.LVL387:
 5175              		@ sp needed
 5176 0272 BDEC048B 		fldmfdd	sp!, {d8-d9}
 5177              		.cfi_restore 82
 5178              		.cfi_restore 83
 5179              		.cfi_restore 80
 5180              		.cfi_restore 81
 5181              		.cfi_def_cfa_offset 36
 5182 0276 BDE8F08F 		pop	{r4, r5, r6, r7, r8, r9, r10, fp, pc}
 5183              	.LVL388:
 5184              	.L378:
 5185 027a 00BF     		.align	2
 5186              	.L377:
 5187 027c 00000000 		.word	.LANCHOR25
ARM GAS  /tmp/ccVIe4kR.s 			page 92


 5188 0280 00000000 		.word	0
 5189 0284 00000000 		.word	.LANCHOR13
 5190 0288 00000000 		.word	.LANCHOR26
 5191 028c DB0F4940 		.word	1078530011
 5192 0290 00003443 		.word	1127481344
 5193 0294 00040240 		.word	1073873920
 5194 0298 00080240 		.word	1073874944
 5195 029c 00000000 		.word	.LANCHOR20
 5196 02a0 00000000 		.word	.LANCHOR6
 5197 02a4 00004843 		.word	1128792064
 5198 02a8 0000B443 		.word	1135869952
 5199 02ac 00000000 		.word	.LANCHOR28
 5200              		.cfi_endproc
 5201              	.LFE293:
 5202              		.size	mcpwm_foc_hall_detect, .-mcpwm_foc_hall_detect
 5203              		.section	.text.mcpwm_foc_print_state,"ax",%progbits
 5204              		.align	2
 5205              		.p2align 4,,15
 5206              		.global	mcpwm_foc_print_state
 5207              		.thumb
 5208              		.thumb_func
 5209              		.type	mcpwm_foc_print_state, %function
 5210              	mcpwm_foc_print_state:
 5211              	.LFB294:
 5212              		.loc 1 1273 0
 5213              		.cfi_startproc
 5214              		@ args = 0, pretend = 0, frame = 0
 5215              		@ frame_needed = 0, uses_anonymous_args = 0
 5216 0000 10B5     		push	{r4, lr}
 5217              		.cfi_def_cfa_offset 8
 5218              		.cfi_offset 4, -8
 5219              		.cfi_offset 14, -4
 5220              		.loc 1 1274 0
 5221 0002 4A4C     		ldr	r4, .L381
 5222 0004 606B     		ldr	r0, [r4, #52]	@ float
 5223 0006 FFF7FEFF 		bl	__aeabi_f2d
 5224              	.LVL389:
 5225 000a 0246     		mov	r2, r0
 5226 000c 0B46     		mov	r3, r1
 5227 000e 4848     		ldr	r0, .L381+4
 5228 0010 FFF7FEFF 		bl	commands_printf
 5229              	.LVL390:
 5230              		.loc 1 1275 0
 5231 0014 A06B     		ldr	r0, [r4, #56]	@ float
 5232 0016 FFF7FEFF 		bl	__aeabi_f2d
 5233              	.LVL391:
 5234 001a 0246     		mov	r2, r0
 5235 001c 0B46     		mov	r3, r1
 5236 001e 4548     		ldr	r0, .L381+8
 5237 0020 FFF7FEFF 		bl	commands_printf
 5238              	.LVL392:
 5239              		.loc 1 1276 0
 5240 0024 E068     		ldr	r0, [r4, #12]	@ float
 5241 0026 FFF7FEFF 		bl	__aeabi_f2d
 5242              	.LVL393:
 5243 002a 0246     		mov	r2, r0
 5244 002c 0B46     		mov	r3, r1
ARM GAS  /tmp/ccVIe4kR.s 			page 93


 5245 002e 4248     		ldr	r0, .L381+12
 5246 0030 FFF7FEFF 		bl	commands_printf
 5247              	.LVL394:
 5248              		.loc 1 1277 0
 5249 0034 E06C     		ldr	r0, [r4, #76]	@ float
 5250 0036 FFF7FEFF 		bl	__aeabi_f2d
 5251              	.LVL395:
 5252 003a 0246     		mov	r2, r0
 5253 003c 0B46     		mov	r3, r1
 5254 003e 3F48     		ldr	r0, .L381+16
 5255 0040 FFF7FEFF 		bl	commands_printf
 5256              	.LVL396:
 5257              		.loc 1 1278 0
 5258 0044 206D     		ldr	r0, [r4, #80]	@ float
 5259 0046 FFF7FEFF 		bl	__aeabi_f2d
 5260              	.LVL397:
 5261 004a 0246     		mov	r2, r0
 5262 004c 0B46     		mov	r3, r1
 5263 004e 3C48     		ldr	r0, .L381+20
 5264 0050 FFF7FEFF 		bl	commands_printf
 5265              	.LVL398:
 5266              		.loc 1 1279 0
 5267 0054 2069     		ldr	r0, [r4, #16]	@ float
 5268 0056 FFF7FEFF 		bl	__aeabi_f2d
 5269              	.LVL399:
 5270 005a 0246     		mov	r2, r0
 5271 005c 0B46     		mov	r3, r1
 5272 005e 3948     		ldr	r0, .L381+24
 5273 0060 FFF7FEFF 		bl	commands_printf
 5274              	.LVL400:
 5275              		.loc 1 1280 0
 5276 0064 E06A     		ldr	r0, [r4, #44]	@ float
 5277 0066 FFF7FEFF 		bl	__aeabi_f2d
 5278              	.LVL401:
 5279 006a 0246     		mov	r2, r0
 5280 006c 0B46     		mov	r3, r1
 5281 006e 3648     		ldr	r0, .L381+28
 5282 0070 FFF7FEFF 		bl	commands_printf
 5283              	.LVL402:
 5284              		.loc 1 1281 0
 5285 0074 206B     		ldr	r0, [r4, #48]	@ float
 5286 0076 FFF7FEFF 		bl	__aeabi_f2d
 5287              	.LVL403:
 5288 007a 0246     		mov	r2, r0
 5289 007c 0B46     		mov	r3, r1
 5290 007e 3348     		ldr	r0, .L381+32
 5291 0080 FFF7FEFF 		bl	commands_printf
 5292              	.LVL404:
 5293              		.loc 1 1282 0
 5294 0084 E06B     		ldr	r0, [r4, #60]	@ float
 5295 0086 FFF7FEFF 		bl	__aeabi_f2d
 5296              	.LVL405:
 5297 008a 0246     		mov	r2, r0
 5298 008c 0B46     		mov	r3, r1
 5299 008e 3048     		ldr	r0, .L381+36
 5300 0090 FFF7FEFF 		bl	commands_printf
 5301              	.LVL406:
ARM GAS  /tmp/ccVIe4kR.s 			page 94


 5302              		.loc 1 1283 0
 5303 0094 206C     		ldr	r0, [r4, #64]	@ float
 5304 0096 FFF7FEFF 		bl	__aeabi_f2d
 5305              	.LVL407:
 5306 009a 0246     		mov	r2, r0
 5307 009c 0B46     		mov	r3, r1
 5308 009e 2D48     		ldr	r0, .L381+40
 5309 00a0 FFF7FEFF 		bl	commands_printf
 5310              	.LVL408:
 5311              		.loc 1 1284 0
 5312 00a4 606C     		ldr	r0, [r4, #68]	@ float
 5313 00a6 FFF7FEFF 		bl	__aeabi_f2d
 5314              	.LVL409:
 5315 00aa 0246     		mov	r2, r0
 5316 00ac 0B46     		mov	r3, r1
 5317 00ae 2A48     		ldr	r0, .L381+44
 5318 00b0 FFF7FEFF 		bl	commands_printf
 5319              	.LVL410:
 5320              		.loc 1 1285 0
 5321 00b4 A06C     		ldr	r0, [r4, #72]	@ float
 5322 00b6 FFF7FEFF 		bl	__aeabi_f2d
 5323              	.LVL411:
 5324 00ba 0246     		mov	r2, r0
 5325 00bc 0B46     		mov	r3, r1
 5326 00be 2748     		ldr	r0, .L381+48
 5327 00c0 FFF7FEFF 		bl	commands_printf
 5328              	.LVL412:
 5329              		.loc 1 1286 0
 5330 00c4 2068     		ldr	r0, [r4]	@ float
 5331 00c6 FFF7FEFF 		bl	__aeabi_f2d
 5332              	.LVL413:
 5333 00ca 0246     		mov	r2, r0
 5334 00cc 0B46     		mov	r3, r1
 5335 00ce 2448     		ldr	r0, .L381+52
 5336 00d0 FFF7FEFF 		bl	commands_printf
 5337              	.LVL414:
 5338              		.loc 1 1287 0
 5339 00d4 6068     		ldr	r0, [r4, #4]	@ float
 5340 00d6 FFF7FEFF 		bl	__aeabi_f2d
 5341              	.LVL415:
 5342 00da 0246     		mov	r2, r0
 5343 00dc 0B46     		mov	r3, r1
 5344 00de 2148     		ldr	r0, .L381+56
 5345 00e0 FFF7FEFF 		bl	commands_printf
 5346              	.LVL416:
 5347              		.loc 1 1288 0
 5348 00e4 E069     		ldr	r0, [r4, #28]	@ float
 5349 00e6 FFF7FEFF 		bl	__aeabi_f2d
 5350              	.LVL417:
 5351 00ea 0246     		mov	r2, r0
 5352 00ec 0B46     		mov	r3, r1
 5353 00ee 1E48     		ldr	r0, .L381+60
 5354 00f0 FFF7FEFF 		bl	commands_printf
 5355              	.LVL418:
 5356              		.loc 1 1289 0
 5357 00f4 206A     		ldr	r0, [r4, #32]	@ float
 5358 00f6 FFF7FEFF 		bl	__aeabi_f2d
ARM GAS  /tmp/ccVIe4kR.s 			page 95


 5359              	.LVL419:
 5360 00fa 0246     		mov	r2, r0
 5361 00fc 0B46     		mov	r3, r1
 5362 00fe 1B48     		ldr	r0, .L381+64
 5363 0100 FFF7FEFF 		bl	commands_printf
 5364              	.LVL420:
 5365              		.loc 1 1290 0
 5366 0104 1A4B     		ldr	r3, .L381+68
 5367 0106 1868     		ldr	r0, [r3]	@ float
 5368 0108 FFF7FEFF 		bl	__aeabi_f2d
 5369              	.LVL421:
 5370 010c 0246     		mov	r2, r0
 5371 010e 0B46     		mov	r3, r1
 5372 0110 1848     		ldr	r0, .L381+72
 5373 0112 FFF7FEFF 		bl	commands_printf
 5374              	.LVL422:
 5375              		.loc 1 1291 0
 5376 0116 184B     		ldr	r3, .L381+76
 5377 0118 1868     		ldr	r0, [r3]	@ float
 5378 011a FFF7FEFF 		bl	__aeabi_f2d
 5379              	.LVL423:
 5380              		.loc 1 1292 0
 5381 011e BDE81040 		pop	{r4, lr}
 5382              		.cfi_restore 14
 5383              		.cfi_restore 4
 5384              		.cfi_def_cfa_offset 0
 5385              		.loc 1 1291 0
 5386 0122 0246     		mov	r2, r0
 5387 0124 0B46     		mov	r3, r1
 5388 0126 1548     		ldr	r0, .L381+80
 5389 0128 FFF7FEBF 		b	commands_printf
 5390              	.LVL424:
 5391              	.L382:
 5392              		.align	2
 5393              	.L381:
 5394 012c 00000000 		.word	.LANCHOR9
 5395 0130 80000000 		.word	.LC8
 5396 0134 94000000 		.word	.LC9
 5397 0138 A8000000 		.word	.LC10
 5398 013c BC000000 		.word	.LC11
 5399 0140 D0000000 		.word	.LC12
 5400 0144 E4000000 		.word	.LC13
 5401 0148 F8000000 		.word	.LC14
 5402 014c 0C010000 		.word	.LC15
 5403 0150 20010000 		.word	.LC16
 5404 0154 34010000 		.word	.LC17
 5405 0158 48010000 		.word	.LC18
 5406 015c 5C010000 		.word	.LC19
 5407 0160 70010000 		.word	.LC20
 5408 0164 84010000 		.word	.LC21
 5409 0168 98010000 		.word	.LC22
 5410 016c AC010000 		.word	.LC23
 5411 0170 00000000 		.word	.LANCHOR31
 5412 0174 C0010000 		.word	.LC24
 5413 0178 00000000 		.word	.LANCHOR32
 5414 017c D4010000 		.word	.LC25
 5415              		.cfi_endproc
ARM GAS  /tmp/ccVIe4kR.s 			page 96


 5416              	.LFE294:
 5417              		.size	mcpwm_foc_print_state, .-mcpwm_foc_print_state
 5418              		.section	.text.mcpwm_foc_get_last_inj_adc_isr_duration,"ax",%progbits
 5419              		.align	2
 5420              		.p2align 4,,15
 5421              		.global	mcpwm_foc_get_last_inj_adc_isr_duration
 5422              		.thumb
 5423              		.thumb_func
 5424              		.type	mcpwm_foc_get_last_inj_adc_isr_duration, %function
 5425              	mcpwm_foc_get_last_inj_adc_isr_duration:
 5426              	.LFB295:
 5427              		.loc 1 1294 0
 5428              		.cfi_startproc
 5429              		@ args = 0, pretend = 0, frame = 0
 5430              		@ frame_needed = 0, uses_anonymous_args = 0
 5431              		@ link register save eliminated.
 5432              		.loc 1 1295 0
 5433 0000 014B     		ldr	r3, .L384
 5434 0002 93ED000A 		flds	s0, [r3]
 5435              		.loc 1 1296 0
 5436 0006 7047     		bx	lr
 5437              	.L385:
 5438              		.align	2
 5439              	.L384:
 5440 0008 00000000 		.word	.LANCHOR36
 5441              		.cfi_endproc
 5442              	.LFE295:
 5443              		.size	mcpwm_foc_get_last_inj_adc_isr_duration, .-mcpwm_foc_get_last_inj_adc_isr_duration
 5444              		.section	.text.observer_update,"ax",%progbits
 5445              		.align	2
 5446              		.p2align 4,,15
 5447              		.global	observer_update
 5448              		.thumb
 5449              		.thumb_func
 5450              		.type	observer_update, %function
 5451              	observer_update:
 5452              	.LFB299:
 5453              		.loc 1 1723 0
 5454              		.cfi_startproc
 5455              		@ args = 0, pretend = 0, frame = 0
 5456              		@ frame_needed = 0, uses_anonymous_args = 0
 5457              	.LVL425:
 5458              		.loc 1 1725 0
 5459 0000 464B     		ldr	r3, .L392
 5460              		.loc 1 1742 0
 5461 0002 9FED473A 		flds	s6, .L392+4
 5462              		.loc 1 1725 0
 5463 0006 1B68     		ldr	r3, [r3]
 5464              		.loc 1 1723 0
 5465 0008 10B5     		push	{r4, lr}
 5466              		.cfi_def_cfa_offset 8
 5467              		.cfi_offset 4, -8
 5468              		.cfi_offset 14, -4
 5469              		.loc 1 1725 0
 5470 000a D3ED2A6A 		flds	s13, [r3, #168]
 5471 000e B7EE085A 		fconsts	s10, #120
 5472 0012 66EE856A 		fmuls	s13, s13, s10
ARM GAS  /tmp/ccVIe4kR.s 			page 97


 5473              	.LVL426:
 5474              		.loc 1 1723 0
 5475 0016 2DED048B 		fstmfdd	sp!, {d8, d9}
 5476              		.cfi_def_cfa_offset 24
 5477              		.cfi_offset 80, -24
 5478              		.cfi_offset 81, -20
 5479              		.cfi_offset 82, -16
 5480              		.cfi_offset 83, -12
 5481              		.loc 1 1731 0
 5482 001a 66EEA14A 		fmuls	s9, s13, s3
 5483              		.loc 1 1726 0
 5484 001e D3ED2B9A 		flds	s19, [r3, #172]
 5485              	.LVL427:
 5486              		.loc 1 1727 0
 5487 0022 93ED2D6A 		flds	s12, [r3, #180]
 5488              	.LVL428:
 5489              		.loc 1 1728 0
 5490 0026 93ED2C9A 		flds	s18, [r3, #176]
 5491              	.LVL429:
 5492              		.loc 1 1733 0
 5493 002a 90ED008A 		flds	s16, [r0]
 5494 002e D0ED002A 		flds	s5, [r0]
 5495 0032 D1ED007A 		flds	s15, [r1]
 5496 0036 D1ED008A 		flds	s17, [r1]
 5497              		.loc 1 1737 0
 5498 003a D0ED005A 		flds	s11, [r0]
 5499              		.loc 1 1738 0
 5500 003e D1ED003A 		flds	s7, [r1]
 5501              		.loc 1 1739 0
 5502 0042 90ED004A 		flds	s8, [r0]
 5503              		.loc 1 1730 0
 5504 0046 66EE816A 		fmuls	s13, s13, s2
 5505              	.LVL430:
 5506              		.loc 1 1733 0
 5507 004a 37EEE47A 		fsubs	s14, s15, s9
 5508 004e 78EEE47A 		fsubs	s15, s17, s9
 5509 0052 38EE668A 		fsubs	s16, s16, s13
 5510 0056 67EE277A 		fmuls	s15, s14, s15
 5511 005a 72EEE62A 		fsubs	s5, s5, s13
 5512              		.loc 1 1737 0
 5513 005e 25EE695A 		fnmuls	s10, s10, s19
 5514              		.loc 1 1733 0
 5515 0062 E8EE227A 		vfma.f32	s15, s16, s5
 5516              		.loc 1 1723 0
 5517 0066 1446     		mov	r4, r2
 5518              		.loc 1 1737 0
 5519 0068 B6EE007A 		fconsts	s14, #96
 5520              		.loc 1 1733 0
 5521 006c D9EE097A 		vfnms.f32	s15, s18, s18
 5522              		.loc 1 1737 0
 5523 0070 26EE077A 		fmuls	s14, s12, s14
 5524              	.LVL431:
 5525 0074 A5EE010A 		vfma.f32	s0, s10, s2
 5526              	.LVL432:
 5527 0078 75EEE65A 		fsubs	s11, s11, s13
 5528              	.LVL433:
 5529              		.loc 1 1738 0
ARM GAS  /tmp/ccVIe4kR.s 			page 98


 5530 007c E1EE850A 		vfma.f32	s1, s3, s10
 5531              	.LVL434:
 5532              		.loc 1 1737 0
 5533 0080 67EE255A 		fmuls	s11, s14, s11
 5534              		.loc 1 1738 0
 5535 0084 73EEE43A 		fsubs	s7, s7, s9
 5536              	.LVL435:
 5537              		.loc 1 1737 0
 5538 0088 A5EEA70A 		vfma.f32	s0, s11, s15
 5539              		.loc 1 1738 0
 5540 008c 27EE237A 		fmuls	s14, s14, s7
 5541              		.loc 1 1739 0
 5542 0090 A0EE024A 		vfma.f32	s8, s0, s4
 5543              		.loc 1 1738 0
 5544 0094 E7EE270A 		vfma.f32	s1, s14, s15
 5545              	.LVL436:
 5546              		.loc 1 1739 0
 5547 0098 80ED004A 		fsts	s8, [r0]
 5548              		.loc 1 1740 0
 5549 009c D1ED007A 		flds	s15, [r1]
 5550              	.LVL437:
 5551 00a0 E0EE827A 		vfma.f32	s15, s1, s4
 5552 00a4 C1ED007A 		fsts	s15, [r1]
 5553              		.loc 1 1742 0
 5554 00a8 D0ED007A 		flds	s15, [r0]
 5555 00ac F0EEE77A 		fabss	s15, s15
 5556 00b0 F4EEC37A 		fcmpes	s15, s6
 5557 00b4 F1EE10FA 		fmstat
 5558 00b8 2DDC     		bgt	.L387
 5559              		.loc 1 1742 0 is_stmt 0 discriminator 1
 5560 00ba 90ED007A 		flds	s14, [r0]
 5561 00be D0ED007A 		flds	s15, [r0]
 5562 00c2 B4EE677A 		fcmps	s14, s15
 5563 00c6 F1EE10FA 		fmstat
 5564 00ca 24D1     		bne	.L387
 5565              	.L388:
 5566              		.loc 1 1746 0 is_stmt 1
 5567 00cc D1ED007A 		flds	s15, [r1]
 5568 00d0 9FED137A 		flds	s14, .L392+4
 5569 00d4 F0EEE77A 		fabss	s15, s15
 5570 00d8 F4EEC77A 		fcmpes	s15, s14
 5571 00dc F1EE10FA 		fmstat
 5572 00e0 08DC     		bgt	.L389
 5573              		.loc 1 1746 0 is_stmt 0 discriminator 1
 5574 00e2 91ED007A 		flds	s14, [r1]
 5575 00e6 D1ED007A 		flds	s15, [r1]
 5576 00ea B4EE677A 		fcmps	s14, s15
 5577 00ee F1EE10FA 		fmstat
 5578 00f2 01D0     		beq	.L390
 5579              	.L389:
 5580              		.loc 1 1747 0 is_stmt 1
 5581 00f4 0023     		movs	r3, #0
 5582 00f6 0B60     		str	r3, [r1]	@ float
 5583              	.L390:
 5584              		.loc 1 1750 0
 5585 00f8 91ED000A 		flds	s0, [r1]
 5586 00fc D0ED000A 		flds	s1, [r0]
ARM GAS  /tmp/ccVIe4kR.s 			page 99


 5587              	.LVL438:
 5588 0100 30EE640A 		fsubs	s0, s0, s9
 5589 0104 70EEE60A 		fsubs	s1, s1, s13
 5590 0108 FFF7FEFF 		bl	utils_fast_atan2
 5591              	.LVL439:
 5592              		.loc 1 1751 0
 5593 010c BDEC048B 		fldmfdd	sp!, {d8-d9}
 5594              		.cfi_remember_state
 5595              		.cfi_restore 82
 5596              		.cfi_restore 83
 5597              		.cfi_restore 80
 5598              		.cfi_restore 81
 5599              		.cfi_def_cfa_offset 8
 5600              	.LVL440:
 5601              		.loc 1 1750 0
 5602 0110 84ED000A 		fsts	s0, [r4]
 5603              		.loc 1 1751 0
 5604 0114 10BD     		pop	{r4, pc}
 5605              	.LVL441:
 5606              	.L387:
 5607              		.cfi_restore_state
 5608              		.loc 1 1743 0
 5609 0116 0023     		movs	r3, #0
 5610 0118 0360     		str	r3, [r0]	@ float
 5611 011a D7E7     		b	.L388
 5612              	.L393:
 5613              		.align	2
 5614              	.L392:
 5615 011c 00000000 		.word	.LANCHOR2
 5616 0120 EC78AD60 		.word	1621981420
 5617              		.cfi_endproc
 5618              	.LFE299:
 5619              		.size	observer_update, .-observer_update
 5620              		.section	.text.mcpwm_foc_adc_inj_int_handler,"ax",%progbits
 5621              		.align	2
 5622              		.p2align 4,,15
 5623              		.global	mcpwm_foc_adc_inj_int_handler
 5624              		.thumb
 5625              		.thumb_func
 5626              		.type	mcpwm_foc_adc_inj_int_handler, %function
 5627              	mcpwm_foc_adc_inj_int_handler:
 5628              	.LFB296:
 5629              		.loc 1 1298 0
 5630              		.cfi_startproc
 5631              		@ args = 0, pretend = 0, frame = 24
 5632              		@ frame_needed = 0, uses_anonymous_args = 0
 5633 0000 2DE9F04F 		push	{r4, r5, r6, r7, r8, r9, r10, fp, lr}
 5634              		.cfi_def_cfa_offset 36
 5635              		.cfi_offset 4, -36
 5636              		.cfi_offset 5, -32
 5637              		.cfi_offset 6, -28
 5638              		.cfi_offset 7, -24
 5639              		.cfi_offset 8, -20
 5640              		.cfi_offset 9, -16
 5641              		.cfi_offset 10, -12
 5642              		.cfi_offset 11, -8
 5643              		.cfi_offset 14, -4
ARM GAS  /tmp/ccVIe4kR.s 			page 100


 5644 0004 2DED068B 		fstmfdd	sp!, {d8, d9, d10}
 5645              		.cfi_def_cfa_offset 60
 5646              		.cfi_offset 80, -60
 5647              		.cfi_offset 81, -56
 5648              		.cfi_offset 82, -52
 5649              		.cfi_offset 83, -48
 5650              		.cfi_offset 84, -44
 5651              		.cfi_offset 85, -40
 5652              		.loc 1 1299 0
 5653 0008 574B     		ldr	r3, .L552
 5654              		.loc 1 1304 0
 5655 000a 584D     		ldr	r5, .L552+4
 5656              		.loc 1 1308 0
 5657 000c DFF89091 		ldr	r9, .L552+56
 5658              		.loc 1 1309 0
 5659 0010 DFF89081 		ldr	r8, .L552+60
 5660              		.loc 1 1327 0
 5661 0014 564C     		ldr	r4, .L552+8
 5662              		.loc 1 1323 0
 5663 0016 9FED578A 		flds	s16, .L552+12
 5664              		.loc 1 1299 0
 5665 001a 0026     		movs	r6, #0
 5666              		.loc 1 1298 0
 5667 001c 87B0     		sub	sp, sp, #28
 5668              		.cfi_def_cfa_offset 88
 5669              		.loc 1 1299 0
 5670 001e 5E62     		str	r6, [r3, #36]
 5671              		.loc 1 1302 0
 5672 0020 6420     		movs	r0, #100
 5673 0022 FFF7FEFF 		bl	WWDG_SetCounter
 5674              	.LVL442:
 5675              		.loc 1 1304 0
 5676 0026 2B68     		ldr	r3, [r5]
 5677              		.loc 1 1305 0
 5678 0028 5348     		ldr	r0, .L552+16
 5679              		.loc 1 1304 0
 5680 002a 93ED259A 		flds	s18, [r3, #148]
 5681              	.LVL443:
 5682              		.loc 1 1305 0
 5683 002e 1421     		movs	r1, #20
 5684 0030 FFF7FEFF 		bl	ADC_GetInjectedConversionValue
 5685              	.LVL444:
 5686              		.loc 1 1306 0
 5687 0034 1421     		movs	r1, #20
 5688              		.loc 1 1305 0
 5689 0036 0746     		mov	r7, r0
 5690              	.LVL445:
 5691              		.loc 1 1306 0
 5692 0038 5048     		ldr	r0, .L552+20
 5693              	.LVL446:
 5694 003a FFF7FEFF 		bl	ADC_GetInjectedConversionValue
 5695              	.LVL447:
 5696              		.loc 1 1308 0
 5697 003e D9F80020 		ldr	r2, [r9]
 5698              		.loc 1 1310 0
 5699 0042 4F49     		ldr	r1, .L552+24
 5700              		.loc 1 1312 0
ARM GAS  /tmp/ccVIe4kR.s 			page 101


 5701 0044 DFF860C1 		ldr	ip, .L552+64
 5702              		.loc 1 1313 0
 5703 0048 DFF860E1 		ldr	lr, .L552+68
 5704              		.loc 1 1319 0
 5705 004c 4D4B     		ldr	r3, .L552+28
 5706              		.loc 1 1323 0
 5707 004e DFED4E6A 		flds	s13, .L552+32
 5708              		.loc 1 1308 0
 5709 0052 3A44     		add	r2, r2, r7
 5710 0054 C9F80020 		str	r2, [r9]
 5711              		.loc 1 1309 0
 5712 0058 D8F80020 		ldr	r2, [r8]
 5713 005c 0244     		add	r2, r2, r0
 5714 005e C8F80020 		str	r2, [r8]
 5715              		.loc 1 1310 0
 5716 0062 0A68     		ldr	r2, [r1]
 5717 0064 0132     		adds	r2, r2, #1
 5718 0066 0A60     		str	r2, [r1]
 5719              		.loc 1 1312 0
 5720 0068 DCF80010 		ldr	r1, [ip]
 5721              		.loc 1 1313 0
 5722 006c DEF80020 		ldr	r2, [lr]
 5723              		.loc 1 1312 0
 5724 0070 7F1A     		subs	r7, r7, r1
 5725              	.LVL448:
 5726              		.loc 1 1313 0
 5727 0072 801A     		subs	r0, r0, r2
 5728              	.LVL449:
 5729              		.loc 1 1319 0
 5730 0074 1F60     		str	r7, [r3]
 5731              		.loc 1 1320 0
 5732 0076 5860     		str	r0, [r3, #4]
 5733              		.loc 1 1321 0
 5734 0078 1968     		ldr	r1, [r3]
 5735 007a 5A68     		ldr	r2, [r3, #4]
 5736 007c 0A44     		add	r2, r2, r1
 5737 007e 5242     		negs	r2, r2
 5738 0080 9A60     		str	r2, [r3, #8]
 5739              		.loc 1 1323 0
 5740 0082 93ED007A 		flds	s14, [r3]	@ int
 5741              		.loc 1 1324 0
 5742 0086 D3ED017A 		flds	s15, [r3, #4]	@ int
 5743              		.loc 1 1327 0
 5744 008a 237B     		ldrb	r3, [r4, #12]	@ zero_extendqisi2
 5745              		.loc 1 1323 0
 5746 008c B8EEC77A 		fsitos	s14, s14
 5747              		.loc 1 1324 0
 5748 0090 F8EEE77A 		fsitos	s15, s15
 5749              		.loc 1 1323 0
 5750 0094 27EE267A 		fmuls	s14, s14, s13
 5751              		.loc 1 1324 0
 5752 0098 67EEA67A 		fmuls	s15, s15, s13
 5753              		.loc 1 1323 0
 5754 009c C7EE088A 		fdivs	s17, s14, s16
 5755              	.LVL450:
 5756              		.loc 1 1324 0
 5757 00a0 87EE888A 		fdivs	s16, s15, s16
ARM GAS  /tmp/ccVIe4kR.s 			page 102


 5758              	.LVL451:
 5759              		.loc 1 1327 0
 5760 00a4 002B     		cmp	r3, #0
 5761 00a6 00F08380 		beq	.L395
 5762              	.LBB177:
 5763              		.loc 1 1329 0
 5764 00aa 384D     		ldr	r5, .L552+36
 5765              		.loc 1 1332 0
 5766 00ac 384F     		ldr	r7, .L552+40
 5767              	.LVL452:
 5768 00ae 3A68     		ldr	r2, [r7]
 5769              		.loc 1 1329 0
 5770 00b0 D5ED0B7A 		flds	s15, [r5, #44]	@ int
 5771 00b4 94ED047A 		flds	s14, [r4, #16]
 5772 00b8 F8EE677A 		fuitos	s15, s15
 5773 00bc 67EE877A 		fmuls	s15, s15, s14
 5774 00c0 FCEEE77A 		ftouizs	s15, s15
 5775              	.LVL453:
 5776              		.loc 1 1332 0
 5777 00c4 002A     		cmp	r2, #0
 5778 00c6 00F0F081 		beq	.L531
 5779              		.loc 1 1335 0
 5780 00ca 022A     		cmp	r2, #2
 5781 00cc 00F01082 		beq	.L532
 5782              		.loc 1 1337 0
 5783 00d0 032A     		cmp	r2, #3
 5784 00d2 00F08082 		beq	.L533
 5785              		.loc 1 1344 0
 5786 00d6 052A     		cmp	r2, #5
 5787 00d8 00F05082 		beq	.L534
 5788              		.loc 1 1346 0
 5789 00dc 062A     		cmp	r2, #6
 5790 00de 00F02885 		beq	.L535
 5791              		.loc 1 1353 0
 5792 00e2 082A     		cmp	r2, #8
 5793 00e4 00F0C585 		beq	.L536
 5794              		.loc 1 1355 0
 5795 00e8 092A     		cmp	r2, #9
 5796 00ea 40F0FA81 		bne	.L397
 5797              		.loc 1 1356 0
 5798 00ee 94ED016A 		flds	s12, [r4, #4]
 5799              		.loc 1 1357 0
 5800 00f2 284B     		ldr	r3, .L552+44
 5801 00f4 DFED285A 		flds	s11, .L552+48
 5802              		.loc 1 1356 0
 5803 00f8 78EE887A 		fadds	s15, s17, s16
 5804              	.LVL454:
 5805 00fc 76EE677A 		fsubs	s15, s12, s15
 5806 0100 C4ED017A 		fsts	s15, [r4, #4]
 5807              		.loc 1 1357 0
 5808 0104 1B8A     		ldrh	r3, [r3, #16]
 5809 0106 94ED027A 		flds	s14, [r4, #8]
 5810 010a 9BB2     		uxth	r3, r3
 5811 010c 07EE903A 		fmsr	s15, r3	@ int
 5812 0110 F8EE677A 		fuitos	s15, s15
 5813 0114 67EEA66A 		fmuls	s13, s15, s13
 5814 0118 F0EE477A 		fcpys	s15, s14
ARM GAS  /tmp/ccVIe4kR.s 			page 103


 5815 011c E6EEA57A 		vfma.f32	s15, s13, s11
 5816 0120 C4ED027A 		fsts	s15, [r4, #8]
 5817              		.loc 1 1358 0
 5818 0124 2368     		ldr	r3, [r4]
 5819 0126 0133     		adds	r3, r3, #1
 5820 0128 2360     		str	r3, [r4]
 5821              		.loc 1 1359 0
 5822 012a FFF7FEFF 		bl	stop_pwm_hw
 5823              	.LVL455:
 5824              		.loc 1 1361 0
 5825 012e 2A68     		ldr	r2, [r5]
 5826 0130 1A4B     		ldr	r3, .L552+52
 5827 0132 42F00202 		orr	r2, r2, #2
 5828 0136 2A60     		str	r2, [r5]
 5829 0138 1A68     		ldr	r2, [r3]
 5830 013a 0521     		movs	r1, #5
 5831 013c 42F00202 		orr	r2, r2, #2
 5832 0140 1A60     		str	r2, [r3]
 5833 0142 5963     		str	r1, [r3, #52]
 5834 0144 EA6A     		ldr	r2, [r5, #44]
 5835 0146 023A     		subs	r2, r2, #2
 5836 0148 2A64     		str	r2, [r5, #64]
 5837 014a EA6A     		ldr	r2, [r5, #44]
 5838 014c 023A     		subs	r2, r2, #2
 5839 014e 9A63     		str	r2, [r3, #56]
 5840 0150 2A68     		ldr	r2, [r5]
 5841 0152 22F00202 		bic	r2, r2, #2
 5842 0156 2A60     		str	r2, [r5]
 5843 0158 1A68     		ldr	r2, [r3]
 5844 015a 22F00202 		bic	r2, r2, #2
 5845 015e 1A60     		str	r2, [r3]
 5846              		.loc 1 1362 0
 5847 0160 3E60     		str	r6, [r7]
 5848              		.loc 1 1363 0
 5849 0162 2673     		strb	r6, [r4, #12]
 5850              		.loc 1 1364 0
 5851 0164 BFE1     		b	.L394
 5852              	.L553:
 5853 0166 00BF     		.align	2
 5854              	.L552:
 5855 0168 00180040 		.word	1073747968
 5856 016c 00000000 		.word	.LANCHOR2
 5857 0170 00000000 		.word	.LANCHOR16
 5858 0174 0BD7233C 		.word	1008981771
 5859 0178 00200140 		.word	1073815552
 5860 017c 00210140 		.word	1073815808
 5861 0180 00000000 		.word	.LANCHOR23
 5862 0184 00000000 		.word	ADC_curr_norm_value
 5863 0188 6740533A 		.word	978534503
 5864 018c 00000140 		.word	1073807360
 5865 0190 00000000 		.word	.LANCHOR41
 5866 0194 00000000 		.word	ADC_Value
 5867 0198 74D19541 		.word	1100337524
 5868 019c 00040140 		.word	1073808384
 5869 01a0 00000000 		.word	.LANCHOR21
 5870 01a4 00000000 		.word	.LANCHOR22
 5871 01a8 00000000 		.word	.LANCHOR38
ARM GAS  /tmp/ccVIe4kR.s 			page 104


 5872 01ac 00000000 		.word	.LANCHOR39
 5873              	.LVL456:
 5874              	.L395:
 5875              	.LBE177:
 5876              		.loc 1 1371 0
 5877 01b0 D64F     		ldr	r7, .L554
 5878              	.LVL457:
 5879 01b2 DFEDD79A 		flds	s19, .L554+4
 5880 01b6 3B8A     		ldrh	r3, [r7, #16]
 5881 01b8 D64C     		ldr	r4, .L554+8
 5882              		.loc 1 1385 0
 5883 01ba DFF8B483 		ldr	r8, .L554+100
 5884              		.loc 1 1388 0
 5885 01be D64E     		ldr	r6, .L554+12
 5886              		.loc 1 1385 0
 5887 01c0 D8ED000A 		flds	s1, [r8]
 5888              		.loc 1 1371 0
 5889 01c4 9BB2     		uxth	r3, r3
 5890 01c6 07EE903A 		fmsr	s15, r3	@ int
 5891 01ca F8EE677A 		fuitos	s15, s15
 5892              		.loc 1 1304 0
 5893 01ce B6EE007A 		fconsts	s14, #96
 5894              		.loc 1 1371 0
 5895 01d2 67EEA66A 		fmuls	s13, s15, s13
 5896              		.loc 1 1304 0
 5897 01d6 29EE079A 		fmuls	s18, s18, s14
 5898              	.LVL458:
 5899              		.loc 1 1371 0
 5900 01da 66EEA96A 		fmuls	s13, s13, s19
 5901              		.loc 1 1304 0
 5902 01de B7EE00AA 		fconsts	s20, #112
 5903              		.loc 1 1371 0
 5904 01e2 C4ED0A6A 		fsts	s13, [r4, #40]
 5905              		.loc 1 1385 0
 5906 01e6 94ED040A 		flds	s0, [r4, #16]
 5907 01ea FFF7FEFF 		bl	utils_angle_difference_rad
 5908              	.LVL459:
 5909              		.loc 1 1386 0
 5910 01ee 2269     		ldr	r2, [r4, #16]	@ float
 5911              		.loc 1 1388 0
 5912 01f0 3378     		ldrb	r3, [r6]	@ zero_extendqisi2
 5913              		.loc 1 1386 0
 5914 01f2 C8F80020 		str	r2, [r8]	@ float
 5915              		.loc 1 1388 0
 5916 01f6 022B     		cmp	r3, #2
 5917              		.loc 1 1304 0
 5918 01f8 8AEE099A 		fdivs	s18, s20, s18
 5919              		.loc 1 1385 0
 5920 01fc F0EE40AA 		fcpys	s21, s0
 5921              	.LVL460:
 5922              		.loc 1 1388 0
 5923 0200 00F02A82 		beq	.L537
 5924              	.LBB178:
 5925              		.loc 1 1538 0
 5926 0204 B988     		ldrh	r1, [r7, #4]
 5927              		.loc 1 1539 0
 5928 0206 3B88     		ldrh	r3, [r7]
ARM GAS  /tmp/ccVIe4kR.s 			page 105


 5929 0208 9FEDC47A 		flds	s14, .L554+16
 5930              		.loc 1 1540 0
 5931 020c 7A88     		ldrh	r2, [r7, #2]
 5932              		.loc 1 1539 0
 5933 020e DFEDC45A 		flds	s11, .L554+20
 5934              		.loc 1 1543 0
 5935 0212 DFEDC44A 		flds	s9, .L554+24
 5936 0216 9FEDC48A 		flds	s16, .L554+28
 5937              	.LVL461:
 5938              		.loc 1 1544 0
 5939 021a 9FEDC45A 		flds	s10, .L554+32
 5940              		.loc 1 1568 0
 5941 021e C44F     		ldr	r7, .L554+36
 5942              		.loc 1 1539 0
 5943 0220 9BB2     		uxth	r3, r3
 5944 0222 07EE903A 		fmsr	s15, r3	@ int
 5945              		.loc 1 1538 0
 5946 0226 8BB2     		uxth	r3, r1
 5947 0228 06EE103A 		fmsr	s12, r3	@ int
 5948              	.LVL462:
 5949              		.loc 1 1539 0
 5950 022c F8EE677A 		fuitos	s15, s15
 5951              		.loc 1 1538 0
 5952 0230 B8EE466A 		fuitos	s12, s12
 5953              		.loc 1 1539 0
 5954 0234 C7EE877A 		fdivs	s15, s15, s14
 5955              		.loc 1 1540 0
 5956 0238 92B2     		uxth	r2, r2
 5957              		.loc 1 1548 0
 5958 023a 0DF11408 		add	r8, sp, #20
 5959 023e 4046     		mov	r0, r8
 5960 0240 04A9     		add	r1, sp, #16
 5961              	.LVL463:
 5962              		.loc 1 1540 0
 5963 0242 06EE902A 		fmsr	s13, r2	@ int
 5964              		.loc 1 1538 0
 5965 0246 86EE076A 		fdivs	s12, s12, s14
 5966              		.loc 1 1540 0
 5967 024a F8EE666A 		fuitos	s13, s13
 5968              		.loc 1 1539 0
 5969 024e 67EEA57A 		fmuls	s15, s15, s11
 5970              		.loc 1 1540 0
 5971 0252 86EE877A 		fdivs	s14, s13, s14
 5972              		.loc 1 1539 0
 5973 0256 67EEA97A 		fmuls	s15, s15, s19
 5974              	.LVL464:
 5975              		.loc 1 1538 0
 5976 025a 66EE256A 		fmuls	s13, s12, s11
 5977 025e 24EEE76A 		fnmuls	s12, s9, s15
 5978 0262 66EEA96A 		fmuls	s13, s13, s19
 5979              		.loc 1 1540 0
 5980 0266 27EE257A 		fmuls	s14, s14, s11
 5981              		.loc 1 1543 0
 5982 026a A6EE886A 		vfma.f32	s12, s13, s16
 5983              		.loc 1 1540 0
 5984 026e 27EE297A 		fmuls	s14, s14, s19
 5985              	.LVL465:
ARM GAS  /tmp/ccVIe4kR.s 			page 106


 5986              		.loc 1 1543 0
 5987 0272 F0EE466A 		fcpys	s13, s12
 5988 0276 25EE476A 		fnmuls	s12, s10, s14
 5989 027a E7EE646A 		vfms.f32	s13, s14, s9
 5990              		.loc 1 1544 0
 5991 027e A7EE856A 		vfma.f32	s12, s15, s10
 5992              		.loc 1 1543 0
 5993 0282 C4ED0B6A 		fsts	s13, [r4, #44]
 5994              		.loc 1 1544 0
 5995 0286 84ED0C6A 		fsts	s12, [r4, #48]
 5996              		.loc 1 1548 0
 5997 028a 94ED040A 		flds	s0, [r4, #16]
 5998              	.LVL466:
 5999 028e FFF7FEFF 		bl	utils_fast_sincos_better
 6000              	.LVL467:
 6001              		.loc 1 1549 0
 6002 0292 D4ED0B7A 		flds	s15, [r4, #44]
 6003 0296 9DED056A 		flds	s12, [sp, #20]
 6004 029a 94ED0C7A 		flds	s14, [r4, #48]
 6005 029e DDED046A 		flds	s13, [sp, #16]
 6006              		.loc 1 1568 0
 6007 02a2 A448     		ldr	r0, .L554+40
 6008 02a4 A449     		ldr	r1, .L554+44
 6009              		.loc 1 1549 0
 6010 02a6 27EE067A 		fmuls	s14, s14, s12
 6011              		.loc 1 1557 0
 6012 02aa 0023     		movs	r3, #0
 6013              		.loc 1 1549 0
 6014 02ac A7EEA67A 		vfma.f32	s14, s15, s13
 6015              		.loc 1 1568 0
 6016 02b0 3A46     		mov	r2, r7
 6017 02b2 B0EE492A 		fcpys	s4, s18
 6018              		.loc 1 1549 0
 6019 02b6 84ED137A 		fsts	s14, [r4, #76]
 6020              		.loc 1 1550 0
 6021 02ba 94ED0C7A 		flds	s14, [r4, #48]
 6022 02be D4ED0B7A 		flds	s15, [r4, #44]
 6023 02c2 67EEC67A 		fnmuls	s15, s15, s12
 6024 02c6 E6EE877A 		vfma.f32	s15, s13, s14
 6025 02ca C4ED147A 		fsts	s15, [r4, #80]
 6026              		.loc 1 1553 0
 6027 02ce 94ED137A 		flds	s14, [r4, #76]
 6028 02d2 D4ED0A7A 		flds	s15, [r4, #40]
 6029 02d6 67EE887A 		fmuls	s15, s15, s16
 6030 02da C7EE277A 		fdivs	s15, s14, s15
 6031 02de C4ED0D7A 		fsts	s15, [r4, #52]
 6032              		.loc 1 1554 0
 6033 02e2 D4ED147A 		flds	s15, [r4, #80]
 6034 02e6 94ED0A7A 		flds	s14, [r4, #40]
 6035 02ea 27EE088A 		fmuls	s16, s14, s16
 6036 02ee 87EE888A 		fdivs	s16, s15, s16
 6037 02f2 84ED0E8A 		fsts	s16, [r4, #56]
 6038              		.loc 1 1557 0
 6039 02f6 6361     		str	r3, [r4, #20]	@ float
 6040              		.loc 1 1558 0
 6041 02f8 A361     		str	r3, [r4, #24]	@ float
 6042              		.loc 1 1559 0
ARM GAS  /tmp/ccVIe4kR.s 			page 107


 6043 02fa E363     		str	r3, [r4, #60]	@ float
 6044              		.loc 1 1560 0
 6045 02fc 2364     		str	r3, [r4, #64]	@ float
 6046              		.loc 1 1561 0
 6047 02fe 6364     		str	r3, [r4, #68]	@ float
 6048              		.loc 1 1562 0
 6049 0300 A364     		str	r3, [r4, #72]	@ float
 6050              		.loc 1 1563 0
 6051 0302 6362     		str	r3, [r4, #36]	@ float
 6052              		.loc 1 1564 0
 6053 0304 E361     		str	r3, [r4, #28]	@ float
 6054              		.loc 1 1565 0
 6055 0306 2362     		str	r3, [r4, #32]	@ float
 6056              		.loc 1 1568 0
 6057 0308 94ED0B0A 		flds	s0, [r4, #44]
 6058 030c D4ED0C0A 		flds	s1, [r4, #48]
 6059 0310 94ED051A 		flds	s2, [r4, #20]
 6060 0314 D4ED061A 		flds	s3, [r4, #24]
 6061 0318 FFF7FEFF 		bl	observer_update
 6062              	.LVL468:
 6063              		.loc 1 1572 0
 6064 031c 2B68     		ldr	r3, [r5]
 6065 031e 93F8DC30 		ldrb	r3, [r3, #220]	@ zero_extendqisi2
 6066 0322 DBB2     		uxtb	r3, r3
 6067 0324 012B     		cmp	r3, #1
 6068 0326 00F03781 		beq	.L464
 6069 032a C0F03384 		bcc	.L465
 6070 032e 022B     		cmp	r3, #2
 6071              		.loc 1 1577 0
 6072 0330 DFF840A2 		ldr	r10, .L554+104
 6073              		.loc 1 1572 0
 6074 0334 0BD1     		bne	.L462
 6075              		.loc 1 1577 0
 6076 0336 97ED000A 		flds	s0, [r7]
 6077 033a DAED000A 		flds	s1, [r10]
 6078 033e B0EE491A 		fcpys	s2, s18
 6079 0342 FFF7FEFF 		bl	correct_hall
 6080              	.LVL469:
 6081 0346 87ED000A 		fsts	s0, [r7]
 6082              		.loc 1 1578 0
 6083 034a 3B68     		ldr	r3, [r7]	@ float
 6084 034c 2361     		str	r3, [r4, #16]	@ float
 6085              	.LVL470:
 6086              	.L462:
 6087              	.LBE178:
 6088              		.loc 1 1587 0
 6089 034e D4ED145A 		flds	s11, [r4, #80]
 6090              		.loc 1 1588 0
 6091 0352 94ED0D6A 		flds	s12, [r4, #52]
 6092 0356 D4ED0D6A 		flds	s13, [r4, #52]
 6093              		.loc 1 1589 0
 6094 035a D4ED0E7A 		flds	s15, [r4, #56]
 6095 035e 94ED0E7A 		flds	s14, [r4, #56]
 6096 0362 27EE877A 		fmuls	s14, s15, s14
 6097              		.loc 1 1587 0
 6098 0366 F5EEC05A 		fcmpezs	s11
 6099              		.loc 1 1588 0
ARM GAS  /tmp/ccVIe4kR.s 			page 108


 6100 036a A6EE267A 		vfma.f32	s14, s12, s13
 6101              		.loc 1 1587 0
 6102 036e F1EE10FA 		fmstat
 6103              		.loc 1 1588 0
 6104 0372 B1EEC70A 		fsqrts	s0, s14
 6105              		.loc 1 1587 0
 6106 0376 FFEE007A 		fconsts	s15, #240
 6107 037a B7EE008A 		fconsts	s16, #112
 6108              		.loc 1 1588 0
 6109 037e B4EE400A 		fcmps	s0, s0
 6110              		.loc 1 1587 0
 6111 0382 48BF     		it	mi
 6112 0384 B0EE678A 		fcpysmi	s16, s15
 6113              		.loc 1 1588 0
 6114 0388 F1EE10FA 		fmstat
 6115 038c 40F0DB86 		bne	.L538
 6116              	.L468:
 6117              		.loc 1 1587 0
 6118 0390 28EE008A 		fmuls	s16, s16, s0
 6119              		.loc 1 1589 0
 6120 0394 9FED690A 		flds	s0, .L554+48
 6121              	.LBB179:
 6122              	.LBB180:
 6123              		.loc 1 1755 0
 6124 0398 DFF8DCB1 		ldr	fp, .L554+108
 6125              	.LBE180:
 6126              	.LBE179:
 6127              		.loc 1 1596 0
 6128 039c 684F     		ldr	r7, .L554+52
 6129              		.loc 1 1587 0
 6130 039e DFF87491 		ldr	r9, .L554+8
 6131              		.loc 1 1589 0
 6132 03a2 88EE008A 		fdivs	s16, s16, s0
 6133              	.LBB184:
 6134              	.LBB181:
 6135              		.loc 1 1756 0
 6136 03a6 4046     		mov	r0, r8
 6137              	.LBE181:
 6138              	.LBE184:
 6139              		.loc 1 1587 0
 6140 03a8 84ED038A 		fsts	s16, [r4, #12]
 6141              		.loc 1 1592 0
 6142 03ac D4ED047A 		flds	s15, [r4, #16]
 6143              	.LVL471:
 6144              	.LBB185:
 6145              	.LBB182:
 6146              		.loc 1 1755 0
 6147 03b0 9BED007A 		flds	s14, [fp]
 6148 03b4 77EEC77A 		fsubs	s15, s15, s14
 6149              	.LVL472:
 6150 03b8 CDED057A 		fsts	s15, [sp, #20]
 6151              		.loc 1 1756 0
 6152 03bc FFF7FEFF 		bl	utils_norm_angle_rad
 6153              	.LVL473:
 6154              		.loc 1 1757 0
 6155 03c0 2B68     		ldr	r3, [r5]
 6156 03c2 9AED007A 		flds	s14, [r10]
ARM GAS  /tmp/ccVIe4kR.s 			page 109


 6157 03c6 DDED056A 		flds	s13, [sp, #20]
 6158 03ca 93ED2E6A 		flds	s12, [r3, #184]
 6159 03ce DBED007A 		flds	s15, [fp]
 6160 03d2 A6EE267A 		vfma.f32	s14, s12, s13
 6161              		.loc 1 1758 0
 6162 03d6 5846     		mov	r0, fp
 6163              		.loc 1 1757 0
 6164 03d8 E9EE077A 		vfma.f32	s15, s18, s14
 6165 03dc CBED007A 		fsts	s15, [fp]
 6166              		.loc 1 1758 0
 6167 03e0 FFF7FEFF 		bl	utils_norm_angle_rad
 6168              	.LVL474:
 6169              		.loc 1 1759 0
 6170 03e4 2B68     		ldr	r3, [r5]
 6171 03e6 DDED056A 		flds	s13, [sp, #20]
 6172 03ea 93ED2F7A 		flds	s14, [r3, #188]
 6173 03ee DAED007A 		flds	s15, [r10]
 6174              	.LBE182:
 6175              	.LBE185:
 6176              		.loc 1 1596 0
 6177 03f2 D7ED000A 		flds	s1, [r7]
 6178              	.LBB186:
 6179              	.LBB183:
 6180              		.loc 1 1759 0
 6181 03f6 27EE267A 		fmuls	s14, s14, s13
 6182 03fa E9EE077A 		vfma.f32	s15, s18, s14
 6183 03fe CAED007A 		fsts	s15, [r10]
 6184              	.LBE183:
 6185              	.LBE186:
 6186              		.loc 1 1596 0
 6187 0402 94ED040A 		flds	s0, [r4, #16]
 6188 0406 FFF7FEFF 		bl	utils_angle_difference_rad
 6189              	.LVL475:
 6190 040a DFED4E7A 		flds	s15, .L554+56
 6191 040e 9FED4E7A 		flds	s14, .L554+60
 6192 0412 20EE270A 		fmuls	s0, s0, s15
 6193 0416 80EE070A 		fdivs	s0, s0, s14
 6194 041a FDEEC07A 		ftosizs	s15, s0
 6195 041e 17EE903A 		fmrs	r3, s15	@ int
 6196              	.LVL476:
 6197              		.loc 1 1597 0
 6198 0422 6BB1     		cbz	r3, .L469
 6199              		.loc 1 1598 0
 6200 0424 4948     		ldr	r0, .L554+64
 6201              		.loc 1 1599 0
 6202 0426 4A49     		ldr	r1, .L554+68
 6203              		.loc 1 1598 0
 6204 0428 0268     		ldr	r2, [r0]
 6205 042a 1A44     		add	r2, r2, r3
 6206 042c 0260     		str	r2, [r0]
 6207              		.loc 1 1599 0
 6208 042e 0A68     		ldr	r2, [r1]
 6209 0430 002B     		cmp	r3, #0
 6210 0432 B8BF     		it	lt
 6211 0434 5B42     		rsblt	r3, r3, #0
 6212              	.LVL477:
 6213 0436 1344     		add	r3, r3, r2
ARM GAS  /tmp/ccVIe4kR.s 			page 110


 6214 0438 0B60     		str	r3, [r1]
 6215              		.loc 1 1600 0
 6216 043a D9F81030 		ldr	r3, [r9, #16]	@ float
 6217 043e 3B60     		str	r3, [r7]	@ float
 6218              	.L469:
 6219              		.loc 1 1611 0
 6220 0440 2B68     		ldr	r3, [r5]
 6221              		.loc 1 1608 0
 6222 0442 D4ED047A 		flds	s15, [r4, #16]
 6223              	.LVL478:
 6224              		.loc 1 1611 0
 6225 0446 9FED437A 		flds	s14, .L554+72
 6226 044a D3ED426A 		flds	s13, [r3, #264]
 6227              		.loc 1 1608 0
 6228 044e 9FED3D8A 		flds	s16, .L554+56
 6229              		.loc 1 1611 0
 6230 0452 F4EEC76A 		fcmpes	s13, s14
 6231 0456 F1EE10FA 		fmstat
 6232              		.loc 1 1608 0
 6233 045a 27EE888A 		fmuls	s16, s15, s16
 6234              	.LVL479:
 6235              		.loc 1 1611 0
 6236 045e 40F3A180 		ble	.L470
 6237              		.loc 1 1611 0 is_stmt 0 discriminator 1
 6238 0462 93ED427A 		flds	s14, [r3, #264]
 6239 0466 DFED3C7A 		flds	s15, .L554+76
 6240 046a B4EEE77A 		fcmpes	s14, s15
 6241 046e F1EE10FA 		fmstat
 6242 0472 40F19780 		bpl	.L470
 6243              		.loc 1 1612 0 is_stmt 1
 6244 0476 394C     		ldr	r4, .L554+80
 6245 0478 84ED008A 		fsts	s16, [r4]
 6246              	.LVL480:
 6247              	.L473:
 6248              		.loc 1 1622 0
 6249 047c 3378     		ldrb	r3, [r6]	@ zero_extendqisi2
 6250 047e 022B     		cmp	r3, #2
 6251 0480 00F0E783 		beq	.L539
 6252              	.LVL481:
 6253              	.L474:
 6254              		.loc 1 1627 0
 6255 0484 FFF7FEFF 		bl	mc_interface_mc_timer_isr
 6256              	.LVL482:
 6257              		.loc 1 1629 0
 6258 0488 354B     		ldr	r3, .L554+84
 6259 048a 9FED367A 		flds	s14, .L554+88
 6260 048e D3ED097A 		flds	s15, [r3, #36]	@ int
 6261 0492 354B     		ldr	r3, .L554+92
 6262 0494 F8EE677A 		fuitos	s15, s15
 6263 0498 C7EE877A 		fdivs	s15, s15, s14
 6264 049c C3ED007A 		fsts	s15, [r3]
 6265              		.loc 1 1630 0
 6266 04a0 07B0     		add	sp, sp, #28
 6267              		.cfi_remember_state
 6268              		.cfi_def_cfa_offset 60
 6269              		@ sp needed
 6270 04a2 BDEC068B 		fldmfdd	sp!, {d8-d10}
ARM GAS  /tmp/ccVIe4kR.s 			page 111


 6271              		.cfi_restore 80
 6272              		.cfi_restore 81
 6273              		.cfi_restore 82
 6274              		.cfi_restore 83
 6275              		.cfi_restore 84
 6276              		.cfi_restore 85
 6277              		.cfi_def_cfa_offset 36
 6278 04a6 BDE8F08F 		pop	{r4, r5, r6, r7, r8, r9, r10, fp, pc}
 6279              	.LVL483:
 6280              	.L531:
 6281              		.cfi_restore_state
 6282              	.LBB187:
 6283              		.loc 1 1333 0
 6284 04aa 2B68     		ldr	r3, [r5]
 6285 04ac 2F49     		ldr	r1, .L554+96
 6286 04ae 43F00203 		orr	r3, r3, #2
 6287 04b2 2B60     		str	r3, [r5]
 6288 04b4 0868     		ldr	r0, [r1]
 6289              	.LVL484:
 6290              		.loc 1 1330 0
 6291 04b6 17EE903A 		fmrs	r3, s15	@ int
 6292              		.loc 1 1333 0
 6293 04ba 40F00200 		orr	r0, r0, #2
 6294              		.loc 1 1330 0
 6295 04be 0A3B     		subs	r3, r3, #10
 6296              		.loc 1 1333 0
 6297 04c0 0860     		str	r0, [r1]
 6298 04c2 6A63     		str	r2, [r5, #52]
 6299 04c4 AA63     		str	r2, [r5, #56]
 6300 04c6 EA63     		str	r2, [r5, #60]
 6301 04c8 2B64     		str	r3, [r5, #64]
 6302 04ca 8B63     		str	r3, [r1, #56]
 6303 04cc 2B68     		ldr	r3, [r5]
 6304 04ce 23F00203 		bic	r3, r3, #2
 6305 04d2 2B60     		str	r3, [r5]
 6306 04d4 0B68     		ldr	r3, [r1]
 6307 04d6 23F00203 		bic	r3, r3, #2
 6308 04da 0B60     		str	r3, [r1]
 6309              		.loc 1 1334 0
 6310 04dc FFF7FEFF 		bl	start_pwm_hw
 6311              	.LVL485:
 6312 04e0 3A68     		ldr	r2, [r7]
 6313              	.L397:
 6314              		.loc 1 1367 0
 6315 04e2 0132     		adds	r2, r2, #1
 6316 04e4 3A60     		str	r2, [r7]
 6317              	.L394:
 6318              	.LBE187:
 6319              		.loc 1 1630 0
 6320 04e6 07B0     		add	sp, sp, #28
 6321              		.cfi_remember_state
 6322              		.cfi_def_cfa_offset 60
 6323              		@ sp needed
 6324 04e8 BDEC068B 		fldmfdd	sp!, {d8-d10}
 6325              		.cfi_restore 84
 6326              		.cfi_restore 85
 6327              		.cfi_restore 82
ARM GAS  /tmp/ccVIe4kR.s 			page 112


 6328              		.cfi_restore 83
 6329              		.cfi_restore 80
 6330              		.cfi_restore 81
 6331              		.cfi_def_cfa_offset 36
 6332              	.LVL486:
 6333 04ec BDE8F08F 		pop	{r4, r5, r6, r7, r8, r9, r10, fp, pc}
 6334              	.LVL487:
 6335              	.L532:
 6336              		.cfi_restore_state
 6337              	.LBB188:
 6338              		.loc 1 1336 0
 6339 04f0 2B68     		ldr	r3, [r5]
 6340 04f2 43F00203 		orr	r3, r3, #2
 6341 04f6 2B60     		str	r3, [r5]
 6342 04f8 C5ED0D7A 		fsts	s15, [r5, #52]	@ int
 6343              	.L524:
 6344              		.loc 1 1354 0
 6345 04fc C5ED0E7A 		fsts	s15, [r5, #56]	@ int
 6346 0500 EE63     		str	r6, [r5, #60]
 6347 0502 2B68     		ldr	r3, [r5]
 6348 0504 23F00203 		bic	r3, r3, #2
 6349 0508 2B60     		str	r3, [r5]
 6350 050a EAE7     		b	.L397
 6351              	.L555:
 6352              		.align	2
 6353              	.L554:
 6354 050c 00000000 		.word	ADC_Value
 6355 0510 74D19541 		.word	1100337524
 6356 0514 00000000 		.word	.LANCHOR9
 6357 0518 00000000 		.word	.LANCHOR6
 6358 051c 00F07F45 		.word	1166012416
 6359 0520 33335340 		.word	1079194419
 6360 0524 ABAAAA3E 		.word	1051372203
 6361 0528 ABAA2A3F 		.word	1059760811
 6362 052c 3ACD133F 		.word	1058262330
 6363 0530 00000000 		.word	.LANCHOR15
 6364 0534 00000000 		.word	.LANCHOR31
 6365 0538 00000000 		.word	.LANCHOR32
 6366 053c D7B35D3F 		.word	1063105495
 6367 0540 00000000 		.word	.LANCHOR45
 6368 0544 E02E6542 		.word	1113927392
 6369 0548 00007042 		.word	1114636288
 6370 054c 00000000 		.word	.LANCHOR34
 6371 0550 00000000 		.word	.LANCHOR35
 6372 0554 48E17A3F 		.word	1065017672
 6373 0558 5C8F823F 		.word	1065520988
 6374 055c 00000000 		.word	.LANCHOR37
 6375 0560 00180040 		.word	1073747968
 6376 0564 8096184B 		.word	1259902592
 6377 0568 00000000 		.word	.LANCHOR36
 6378 056c 00040140 		.word	1073808384
 6379 0570 00000000 		.word	.LANCHOR42
 6380 0574 00000000 		.word	.LANCHOR11
 6381 0578 00000000 		.word	.LANCHOR33
 6382              	.L534:
 6383              		.loc 1 1345 0
 6384 057c 2B68     		ldr	r3, [r5]
ARM GAS  /tmp/ccVIe4kR.s 			page 113


 6385 057e 43F00203 		orr	r3, r3, #2
 6386 0582 2B60     		str	r3, [r5]
 6387 0584 6E63     		str	r6, [r5, #52]
 6388 0586 C5ED0E7A 		fsts	s15, [r5, #56]	@ int
 6389 058a C5ED0F7A 		fsts	s15, [r5, #60]	@ int
 6390 058e 2B68     		ldr	r3, [r5]
 6391 0590 23F00203 		bic	r3, r3, #2
 6392 0594 2B60     		str	r3, [r5]
 6393 0596 A4E7     		b	.L397
 6394              	.LVL488:
 6395              	.L464:
 6396              	.LBE188:
 6397              	.LBB189:
 6398              		.loc 1 1574 0
 6399 0598 274B     		ldr	r3, .L556
 6400 059a DFF8B0A0 		ldr	r10, .L556+20
 6401 059e 1B68     		ldr	r3, [r3]	@ float
 6402 05a0 2361     		str	r3, [r4, #16]	@ float
 6403              		.loc 1 1575 0
 6404 05a2 D4E6     		b	.L462
 6405              	.LVL489:
 6406              	.L470:
 6407              	.LBE189:
 6408              	.LBB190:
 6409              		.loc 1 1615 0
 6410 05a4 254F     		ldr	r7, .L556+4
 6411              		.loc 1 1617 0
 6412 05a6 264C     		ldr	r4, .L556+8
 6413              		.loc 1 1615 0
 6414 05a8 D7ED000A 		flds	s1, [r7]
 6415 05ac B0EE480A 		fcpys	s0, s16
 6416              	.LVL490:
 6417 05b0 FFF7FEFF 		bl	utils_angle_difference
 6418              	.LVL491:
 6419              		.loc 1 1617 0
 6420 05b4 2B68     		ldr	r3, [r5]
 6421              		.loc 1 1616 0
 6422 05b6 87ED008A 		fsts	s16, [r7]
 6423              		.loc 1 1617 0
 6424 05ba D3ED427A 		flds	s15, [r3, #264]
 6425 05be 94ED007A 		flds	s14, [r4]
 6426 05c2 80EE270A 		fdivs	s0, s0, s15
 6427              	.LVL492:
 6428              		.loc 1 1618 0
 6429 05c6 2046     		mov	r0, r4
 6430              		.loc 1 1617 0
 6431 05c8 30EE070A 		fadds	s0, s0, s14
 6432 05cc 84ED000A 		fsts	s0, [r4]
 6433              		.loc 1 1618 0
 6434 05d0 FFF7FEFF 		bl	utils_norm_angle
 6435              	.LVL493:
 6436 05d4 52E7     		b	.L473
 6437              	.LVL494:
 6438              	.L533:
 6439              	.LBE190:
 6440              	.LBB191:
 6441              		.loc 1 1338 0
ARM GAS  /tmp/ccVIe4kR.s 			page 114


 6442 05d6 D4ED017A 		flds	s15, [r4, #4]
 6443              	.LVL495:
 6444              		.loc 1 1339 0
 6445 05da 1A4B     		ldr	r3, .L556+12
 6446 05dc 9FED1A6A 		flds	s12, .L556+16
 6447              		.loc 1 1338 0
 6448 05e0 77EEC87A 		fsubs	s15, s15, s16
 6449              		.loc 1 1341 0
 6450 05e4 4FF6F771 		movw	r1, #65527
 6451              		.loc 1 1338 0
 6452 05e8 C4ED017A 		fsts	s15, [r4, #4]
 6453              		.loc 1 1339 0
 6454 05ec 1B8A     		ldrh	r3, [r3, #16]
 6455 05ee 94ED027A 		flds	s14, [r4, #8]
 6456 05f2 9BB2     		uxth	r3, r3
 6457 05f4 07EE903A 		fmsr	s15, r3	@ int
 6458 05f8 F8EE677A 		fuitos	s15, s15
 6459 05fc 67EEA66A 		fmuls	s13, s15, s13
 6460 0600 F0EE477A 		fcpys	s15, s14
 6461 0604 E6EE867A 		vfma.f32	s15, s13, s12
 6462 0608 C4ED027A 		fsts	s15, [r4, #8]
 6463              		.loc 1 1340 0
 6464 060c 2368     		ldr	r3, [r4]
 6465 060e 0133     		adds	r3, r3, #1
 6466 0610 2360     		str	r3, [r4]
 6467              		.loc 1 1341 0
 6468 0612 AB69     		ldr	r3, [r5, #24]
 6469 0614 1940     		ands	r1, r1, r3
 6470 0616 A961     		str	r1, [r5, #24]
 6471              		.loc 1 1342 0
 6472 0618 2B68     		ldr	r3, [r5]
 6473 061a 43F00203 		orr	r3, r3, #2
 6474 061e 2B60     		str	r3, [r5]
 6475 0620 6E63     		str	r6, [r5, #52]
 6476 0622 AE63     		str	r6, [r5, #56]
 6477 0624 EE63     		str	r6, [r5, #60]
 6478 0626 2B68     		ldr	r3, [r5]
 6479 0628 23F00203 		bic	r3, r3, #2
 6480 062c 2B60     		str	r3, [r5]
 6481              		.loc 1 1343 0
 6482 062e AB69     		ldr	r3, [r5, #24]
 6483 0630 43F00803 		orr	r3, r3, #8
 6484 0634 AB61     		str	r3, [r5, #24]
 6485 0636 54E7     		b	.L397
 6486              	.L557:
 6487              		.align	2
 6488              	.L556:
 6489 0638 00000000 		.word	.LANCHOR30
 6490 063c 00000000 		.word	.LANCHOR46
 6491 0640 00000000 		.word	.LANCHOR37
 6492 0644 00000000 		.word	ADC_Value
 6493 0648 74D19541 		.word	1100337524
 6494 064c 00000000 		.word	.LANCHOR11
 6495 0650 3ACD933F 		.word	1066650938
 6496 0654 3ACD133F 		.word	1058262330
 6497              	.LVL496:
 6498              	.L537:
ARM GAS  /tmp/ccVIe4kR.s 			page 115


 6499              	.LBE191:
 6500              	.LBB192:
 6501              		.loc 1 1391 0
 6502 0658 5FED037A 		flds	s15, .L556+24
 6503 065c 5FED036A 		flds	s13, .L556+28
 6504              		.loc 1 1400 0
 6505 0660 2A68     		ldr	r2, [r5]
 6506              		.loc 1 1398 0
 6507 0662 E849     		ldr	r1, .L558
 6508              		.loc 1 1399 0
 6509 0664 E84B     		ldr	r3, .L558+4
 6510              		.loc 1 1390 0
 6511 0666 C4ED058A 		fsts	s17, [r4, #20]
 6512              		.loc 1 1391 0
 6513 066a 68EE277A 		fmuls	s15, s16, s15
 6514              		.loc 1 1403 0
 6515 066e DFF8DC83 		ldr	r8, .L558+72
 6516 0672 9FEDE66A 		flds	s12, .L558+8
 6517 0676 98ED007A 		flds	s14, [r8]
 6518              		.loc 1 1391 0
 6519 067a E8EEA67A 		vfma.f32	s15, s17, s13
 6520              		.loc 1 1404 0
 6521 067e 4046     		mov	r0, r8
 6522 0680 F0EE4A0A 		fcpys	s1, s20
 6523              		.loc 1 1391 0
 6524 0684 C4ED067A 		fsts	s15, [r4, #24]
 6525              		.loc 1 1397 0
 6526 0688 D4ED036A 		flds	s13, [r4, #12]
 6527              		.loc 1 1398 0
 6528 068c 0968     		ldr	r1, [r1]	@ float
 6529              		.loc 1 1399 0
 6530 068e 1B68     		ldr	r3, [r3]	@ float
 6531              		.loc 1 1400 0
 6532 0690 126D     		ldr	r2, [r2, #80]	@ float
 6533 0692 A260     		str	r2, [r4, #8]	@ float
 6534              		.loc 1 1403 0
 6535 0694 D4ED037A 		flds	s15, [r4, #12]
 6536              		.loc 1 1398 0
 6537 0698 0191     		str	r1, [sp, #4]	@ float
 6538              		.loc 1 1403 0
 6539 069a 77EE677A 		fsubs	s15, s14, s15
 6540              		.loc 1 1404 0
 6541 069e BFEE000A 		fconsts	s0, #240
 6542              	.LVL497:
 6543              		.loc 1 1403 0
 6544 06a2 A7EEC67A 		vfms.f32	s14, s15, s12
 6545              		.loc 1 1399 0
 6546 06a6 0293     		str	r3, [sp, #8]	@ float
 6547              		.loc 1 1397 0
 6548 06a8 F0EEE68A 		fabss	s17, s13
 6549              	.LVL498:
 6550              		.loc 1 1403 0
 6551 06ac 88ED007A 		fsts	s14, [r8]
 6552              		.loc 1 1404 0
 6553 06b0 FFF7FEFF 		bl	utils_truncate_number
 6554              	.LVL499:
 6555              		.loc 1 1406 0
ARM GAS  /tmp/ccVIe4kR.s 			page 116


 6556 06b4 D64A     		ldr	r2, .L558+12
 6557              		.loc 1 1407 0
 6558 06b6 D74B     		ldr	r3, .L558+16
 6559              		.loc 1 1406 0
 6560 06b8 92ED007A 		flds	s14, [r2]
 6561              	.LVL500:
 6562              		.loc 1 1407 0
 6563 06bc 1A78     		ldrb	r2, [r3]	@ zero_extendqisi2
 6564              		.loc 1 1412 0
 6565 06be 1978     		ldrb	r1, [r3]	@ zero_extendqisi2
 6566 06c0 0329     		cmp	r1, #3
 6567              		.loc 1 1407 0
 6568 06c2 D2B2     		uxtb	r2, r2
 6569              	.LVL501:
 6570              		.loc 1 1412 0
 6571 06c4 00F09883 		beq	.L540
 6572              	.L405:
 6573              		.loc 1 1420 0
 6574 06c8 1978     		ldrb	r1, [r3]	@ zero_extendqisi2
 6575 06ca 0129     		cmp	r1, #1
 6576 06cc 00F09E82 		beq	.L541
 6577              	.L407:
 6578              		.loc 1 1426 0
 6579 06d0 002A     		cmp	r2, #0
 6580 06d2 00F06582 		beq	.L542
 6581              		.loc 1 1461 0
 6582 06d6 1B78     		ldrb	r3, [r3]	@ zero_extendqisi2
 6583 06d8 032B     		cmp	r3, #3
 6584 06da 00F01684 		beq	.L543
 6585              	.L525:
 6586 06de 0DF11408 		add	r8, sp, #20
 6587              	.LVL502:
 6588              	.L414:
 6589              		.loc 1 1473 0
 6590 06e2 CD4F     		ldr	r7, .L558+20
 6591 06e4 3B78     		ldrb	r3, [r7]	@ zero_extendqisi2
 6592 06e6 002B     		cmp	r3, #0
 6593 06e8 00F03883 		beq	.L544
 6594              	.L422:
 6595              		.loc 1 1479 0
 6596 06ec 2B68     		ldr	r3, [r5]
 6597 06ee DFF83093 		ldr	r9, .L558+28
 6598 06f2 93F8DC20 		ldrb	r2, [r3, #220]	@ zero_extendqisi2
 6599 06f6 D2B2     		uxtb	r2, r2
 6600 06f8 012A     		cmp	r2, #1
 6601 06fa 00F09A82 		beq	.L424
 6602 06fe C0F0DC83 		bcc	.L425
 6603 0702 022A     		cmp	r2, #2
 6604 0704 40F0A282 		bne	.L526
 6605              		.loc 1 1493 0
 6606 0708 DFF844B3 		ldr	fp, .L558+76
 6607 070c DFF844A3 		ldr	r10, .L558+80
 6608 0710 9BED000A 		flds	s0, [fp]
 6609 0714 DAED000A 		flds	s1, [r10]
 6610 0718 B0EE491A 		fcpys	s2, s18
 6611 071c FFF7FEFF 		bl	correct_hall
 6612              	.LVL503:
ARM GAS  /tmp/ccVIe4kR.s 			page 117


 6613 0720 8BED000A 		fsts	s0, [fp]
 6614              		.loc 1 1494 0
 6615 0724 DBF80020 		ldr	r2, [fp]	@ float
 6616 0728 D9F80030 		ldr	r3, [r9]
 6617 072c 2261     		str	r2, [r4, #16]	@ float
 6618              	.L423:
 6619              		.loc 1 1518 0
 6620 072e 3A78     		ldrb	r2, [r7]	@ zero_extendqisi2
 6621 0730 12B1     		cbz	r2, .L434
