ARM GAS  /tmp/ccEN2sIF.s 			page 1


   1              		.syntax unified
   2              		.cpu cortex-m4
   3              		.eabi_attribute 27, 1
   4              		.eabi_attribute 28, 1
   5              		.fpu fpv4-sp-d16
   6              		.eabi_attribute 20, 1
   7              		.eabi_attribute 21, 1
   8              		.eabi_attribute 23, 3
   9              		.eabi_attribute 24, 1
  10              		.eabi_attribute 25, 1
  11              		.eabi_attribute 26, 1
  12              		.eabi_attribute 30, 2
  13              		.eabi_attribute 34, 1
  14              		.eabi_attribute 18, 4
  15              		.thumb
  16              		.file	"packet.c"
  17              		.text
  18              	.Ltext0:
  19              		.cfi_sections	.debug_frame
  20              		.section	.text.packet_init,"ax",%progbits
  21              		.align	2
  22              		.p2align 4,,15
  23              		.global	packet_init
  24              		.thumb
  25              		.thumb_func
  26              		.type	packet_init, %function
  27              	packet_init:
  28              	.LFB0:
  29              		.file 1 "packet.c"
  30              		.loc 1 45 0
  31              		.cfi_startproc
  32              		@ args = 0, pretend = 0, frame = 0
  33              		@ frame_needed = 0, uses_anonymous_args = 0
  34              		@ link register save eliminated.
  35              	.LVL0:
  36              		.loc 1 46 0
  37 0000 034B     		ldr	r3, .L2
  38 0002 02EB8212 		add	r2, r2, r2, lsl #6
  39              	.LVL1:
  40 0006 03EB4212 		add	r2, r3, r2, lsl #5
  41 000a 5060     		str	r0, [r2, #4]
  42              		.loc 1 47 0
  43 000c 9160     		str	r1, [r2, #8]
  44 000e 7047     		bx	lr
  45              	.L3:
  46              		.align	2
  47              	.L2:
  48 0010 00000000 		.word	.LANCHOR0
  49              		.cfi_endproc
  50              	.LFE0:
  51              		.size	packet_init, .-packet_init
  52              		.section	.text.packet_send_packet,"ax",%progbits
  53              		.align	2
  54              		.p2align 4,,15
  55              		.global	packet_send_packet
  56              		.thumb
  57              		.thumb_func
ARM GAS  /tmp/ccEN2sIF.s 			page 2


  58              		.type	packet_send_packet, %function
  59              	packet_send_packet:
  60              	.LFB1:
  61              		.loc 1 50 0
  62              		.cfi_startproc
  63              		@ args = 0, pretend = 0, frame = 0
  64              		@ frame_needed = 0, uses_anonymous_args = 0
  65              	.LVL2:
  66              		.loc 1 51 0
  67 0000 B1F5806F 		cmp	r1, #1024
  68              		.loc 1 50 0
  69 0004 2DE9F047 		push	{r4, r5, r6, r7, r8, r9, r10, lr}
  70              		.cfi_def_cfa_offset 32
  71              		.cfi_offset 4, -32
  72              		.cfi_offset 5, -28
  73              		.cfi_offset 6, -24
  74              		.cfi_offset 7, -20
  75              		.cfi_offset 8, -16
  76              		.cfi_offset 9, -12
  77              		.cfi_offset 10, -8
  78              		.cfi_offset 14, -4
  79              		.loc 1 50 0
  80 0008 0C46     		mov	r4, r1
  81              		.loc 1 51 0
  82 000a 31D8     		bhi	.L4
  83              		.loc 1 58 0
  84 000c 9501     		lsls	r5, r2, #6
  85 000e DFF87080 		ldr	r8, .L16
  86 0012 AB18     		adds	r3, r5, r2
  87              		.loc 1 57 0
  88 0014 B1F5807F 		cmp	r1, #256
  89 0018 8146     		mov	r9, r0
  90              	.LVL3:
  91              		.loc 1 58 0
  92 001a 08EB4313 		add	r3, r8, r3, lsl #5
  93              		.loc 1 57 0
  94 001e 29D9     		bls	.L15
  95              	.LVL4:
  96              		.loc 1 62 0
  97 0020 080A     		lsrs	r0, r1, #8
  98              	.LVL5:
  99              		.loc 1 61 0
 100 0022 0326     		movs	r6, #3
 101              		.loc 1 63 0
 102 0024 83F81214 		strb	r1, [r3, #1042]
 103              		.loc 1 62 0
 104 0028 83F81104 		strb	r0, [r3, #1041]
 105              		.loc 1 61 0
 106 002c 83F81064 		strb	r6, [r3, #1040]
 107              	.LVL6:
 108              	.L8:
 109              		.loc 1 66 0
 110 0030 2A44     		add	r2, r2, r5
 111              	.LVL7:
 112 0032 5501     		lsls	r5, r2, #5
 113 0034 05F58267 		add	r7, r5, #1040
 114 0038 4744     		add	r7, r7, r8
ARM GAS  /tmp/ccEN2sIF.s 			page 3


 115 003a 2246     		mov	r2, r4
 116 003c 4946     		mov	r1, r9
 117              	.LVL8:
 118 003e B819     		adds	r0, r7, r6
 119 0040 FFF7FEFF 		bl	memcpy
 120              	.LVL9:
 121              		.loc 1 69 0
 122 0044 2146     		mov	r1, r4
 123 0046 4846     		mov	r0, r9
 124 0048 FFF7FEFF 		bl	crc16
 125              	.LVL10:
 126              		.loc 1 70 0
 127 004c 4544     		add	r5, r5, r8
 128              		.loc 1 67 0
 129 004e 3444     		add	r4, r4, r6
 130              	.LVL11:
 131              		.loc 1 70 0
 132 0050 2B19     		adds	r3, r5, r4
 133              		.loc 1 74 0
 134 0052 6A68     		ldr	r2, [r5, #4]
 135              		.loc 1 71 0
 136 0054 83F81104 		strb	r0, [r3, #1041]
 137              		.loc 1 72 0
 138 0058 0325     		movs	r5, #3
 139              		.loc 1 70 0
 140 005a 000A     		lsrs	r0, r0, #8
 141              	.LVL12:
 142 005c 83F81004 		strb	r0, [r3, #1040]
 143              	.LVL13:
 144              		.loc 1 72 0
 145 0060 6119     		adds	r1, r4, r5
 146              	.LVL14:
 147 0062 83F81254 		strb	r5, [r3, #1042]
 148              		.loc 1 74 0
 149 0066 1AB1     		cbz	r2, .L4
 150              		.loc 1 75 0
 151 0068 3846     		mov	r0, r7
 152              		.loc 1 77 0
 153 006a BDE8F047 		pop	{r4, r5, r6, r7, r8, r9, r10, lr}
 154              		.cfi_remember_state
 155              		.cfi_restore 14
 156              		.cfi_restore 10
 157              		.cfi_restore 9
 158              		.cfi_restore 8
 159              		.cfi_restore 7
 160              		.cfi_restore 6
 161              		.cfi_restore 5
 162              		.cfi_restore 4
 163              		.cfi_def_cfa_offset 0
 164              	.LVL15:
 165              		.loc 1 75 0
 166 006e 1047     		bx	r2	@ indirect register sibling call
 167              	.LVL16:
 168              	.L4:
 169              		.cfi_restore_state
 170 0070 BDE8F087 		pop	{r4, r5, r6, r7, r8, r9, r10, pc}
 171              	.LVL17:
ARM GAS  /tmp/ccEN2sIF.s 			page 4


 172              	.L15:
 173              		.loc 1 58 0
 174 0074 0226     		movs	r6, #2
 175              		.loc 1 59 0
 176 0076 83F81114 		strb	r1, [r3, #1041]
 177              		.loc 1 58 0
 178 007a 83F81064 		strb	r6, [r3, #1040]
 179              	.LVL18:
 180 007e D7E7     		b	.L8
 181              	.L17:
 182              		.align	2
 183              	.L16:
 184 0080 00000000 		.word	.LANCHOR0
 185              		.cfi_endproc
 186              	.LFE1:
 187              		.size	packet_send_packet, .-packet_send_packet
 188              		.section	.text.packet_timerfunc,"ax",%progbits
 189              		.align	2
 190              		.p2align 4,,15
 191              		.global	packet_timerfunc
 192              		.thumb
 193              		.thumb_func
 194              		.type	packet_timerfunc, %function
 195              	packet_timerfunc:
 196              	.LFB2:
 197              		.loc 1 82 0
 198              		.cfi_startproc
 199              		@ args = 0, pretend = 0, frame = 0
 200              		@ frame_needed = 0, uses_anonymous_args = 0
 201              		@ link register save eliminated.
 202              	.LVL19:
 203              	.LBB2:
 204              		.loc 1 84 0
 205 0000 104B     		ldr	r3, .L24
 206 0002 5A78     		ldrb	r2, [r3, #1]	@ zero_extendqisi2
 207 0004 02F0FF01 		and	r1, r2, #255
 208 0008 82B9     		cbnz	r2, .L19
 209              	.LVL20:
 210              		.loc 1 87 0
 211 000a 1970     		strb	r1, [r3]
 212              		.loc 1 84 0
 213 000c 93F82138 		ldrb	r3, [r3, #2081]	@ zero_extendqisi2
 214 0010 0C4A     		ldr	r2, .L24
 215 0012 03F0FF01 		and	r1, r3, #255
 216 0016 33B1     		cbz	r3, .L23
 217              	.L21:
 218              		.loc 1 85 0
 219 0018 92F82138 		ldrb	r3, [r2, #2081]	@ zero_extendqisi2
 220 001c 013B     		subs	r3, r3, #1
 221 001e DBB2     		uxtb	r3, r3
 222 0020 82F82138 		strb	r3, [r2, #2081]
 223              	.LVL21:
 224 0024 7047     		bx	lr
 225              	.LVL22:
 226              	.L23:
 227              		.loc 1 87 0
 228 0026 82F82018 		strb	r1, [r2, #2080]
ARM GAS  /tmp/ccEN2sIF.s 			page 5


 229 002a 7047     		bx	lr
 230              	.LVL23:
 231              	.L19:
 232              		.loc 1 85 0
 233 002c 5A78     		ldrb	r2, [r3, #1]	@ zero_extendqisi2
 234 002e 013A     		subs	r2, r2, #1
 235 0030 D2B2     		uxtb	r2, r2
 236 0032 5A70     		strb	r2, [r3, #1]
 237              	.LVL24:
 238              		.loc 1 84 0
 239 0034 93F82138 		ldrb	r3, [r3, #2081]	@ zero_extendqisi2
 240 0038 024A     		ldr	r2, .L24
 241 003a 03F0FF01 		and	r1, r3, #255
 242 003e 002B     		cmp	r3, #0
 243 0040 EAD1     		bne	.L21
 244 0042 F0E7     		b	.L23
 245              	.L25:
 246              		.align	2
 247              	.L24:
 248 0044 00000000 		.word	.LANCHOR0
 249              	.LBE2:
 250              		.cfi_endproc
 251              	.LFE2:
 252              		.size	packet_timerfunc, .-packet_timerfunc
 253              		.section	.text.packet_process_byte,"ax",%progbits
 254              		.align	2
 255              		.p2align 4,,15
 256              		.global	packet_process_byte
 257              		.thumb
 258              		.thumb_func
 259              		.type	packet_process_byte, %function
 260              	packet_process_byte:
 261              	.LFB3:
 262              		.loc 1 92 0
 263              		.cfi_startproc
 264              		@ args = 0, pretend = 0, frame = 0
 265              		@ frame_needed = 0, uses_anonymous_args = 0
 266              	.LVL25:
 267 0000 2DE9F843 		push	{r3, r4, r5, r6, r7, r8, r9, lr}
 268              		.cfi_def_cfa_offset 32
 269              		.cfi_offset 3, -32
 270              		.cfi_offset 4, -28
 271              		.cfi_offset 5, -24
 272              		.cfi_offset 6, -20
 273              		.cfi_offset 7, -16
 274              		.cfi_offset 8, -12
 275              		.cfi_offset 9, -8
 276              		.cfi_offset 14, -4
 277              		.loc 1 93 0
 278 0004 8E01     		lsls	r6, r1, #6
 279 0006 7318     		adds	r3, r6, r1
 280 0008 5B01     		lsls	r3, r3, #5
 281 000a 4E4D     		ldr	r5, .L52
 282 000c EB5C     		ldrb	r3, [r5, r3]	@ zero_extendqisi2
 283              		.loc 1 92 0
 284 000e 0C46     		mov	r4, r1
 285              		.loc 1 93 0
ARM GAS  /tmp/ccEN2sIF.s 			page 6


 286 0010 062B     		cmp	r3, #6
 287 0012 21D8     		bhi	.L27
 288 0014 DFE803F0 		tbb	[pc, r3]
 289              	.L29:
 290 0018 26       		.byte	(.L28-.L29)/2
 291 0019 3A       		.byte	(.L30-.L29)/2
 292 001a 47       		.byte	(.L31-.L29)/2
 293 001b 5A       		.byte	(.L32-.L29)/2
 294 001c 78       		.byte	(.L33-.L29)/2
 295 001d 85       		.byte	(.L34-.L29)/2
 296 001e 04       		.byte	(.L35-.L29)/2
 297 001f 00       		.p2align 1
 298              	.L35:
 299              		.loc 1 150 0
 300 0020 0328     		cmp	r0, #3
 301 0022 19D1     		bne	.L27
 302              		.loc 1 151 0
 303 0024 7318     		adds	r3, r6, r1
 304 0026 5B01     		lsls	r3, r3, #5
 305 0028 05EB0308 		add	r8, r5, r3
 306 002c 1033     		adds	r3, r3, #16
 307 002e EF18     		adds	r7, r5, r3
 308 0030 D8F80C10 		ldr	r1, [r8, #12]
 309              	.LVL26:
 310 0034 3846     		mov	r0, r7
 311              	.LVL27:
 312 0036 FFF7FEFF 		bl	crc16
 313              	.LVL28:
 314              		.loc 1 152 0
 315 003a 98F81D18 		ldrb	r1, [r8, #2077]	@ zero_extendqisi2
 316              		.loc 1 153 0
 317 003e 98F81C38 		ldrb	r3, [r8, #2076]	@ zero_extendqisi2
 318 0042 43EA0123 		orr	r3, r3, r1, lsl #8
 319              		.loc 1 151 0
 320 0046 9842     		cmp	r0, r3
 321 0048 06D1     		bne	.L27
 322              		.loc 1 155 0
 323 004a D8F80830 		ldr	r3, [r8, #8]
 324 004e 1BB1     		cbz	r3, .L27
 325              		.loc 1 156 0
 326 0050 3846     		mov	r0, r7
 327 0052 D8F80C10 		ldr	r1, [r8, #12]
 328 0056 9847     		blx	r3
 329              	.LVL29:
 330              	.L27:
 331              		.loc 1 165 0
 332 0058 3444     		add	r4, r4, r6
 333              	.LVL30:
 334 005a 6401     		lsls	r4, r4, #5
 335              	.L50:
 336 005c 0023     		movs	r3, #0
 337 005e 2B55     		strb	r3, [r5, r4]
 338 0060 BDE8F883 		pop	{r3, r4, r5, r6, r7, r8, r9, pc}
 339              	.LVL31:
 340              	.L28:
 341              		.loc 1 97 0
 342 0064 3444     		add	r4, r4, r6
ARM GAS  /tmp/ccEN2sIF.s 			page 7


 343              		.loc 1 95 0
 344 0066 0228     		cmp	r0, #2
 345              		.loc 1 97 0
 346 0068 4FEA4414 		lsl	r4, r4, #5
 347              		.loc 1 95 0
 348 006c 64D0     		beq	.L51
 349              		.loc 1 101 0
 350 006e 0328     		cmp	r0, #3
 351 0070 F4D1     		bne	.L50
 352              		.loc 1 103 0
 353 0072 2B5D     		ldrb	r3, [r5, r4]	@ zero_extendqisi2
 354 0074 0133     		adds	r3, r3, #1
 355 0076 2A19     		adds	r2, r5, r4
 356 0078 DBB2     		uxtb	r3, r3
 357              		.loc 1 104 0
 358 007a 0220     		movs	r0, #2
 359              	.LVL32:
 360              	.L48:
 361              		.loc 1 103 0
 362 007c 2B55     		strb	r3, [r5, r4]
 363              		.loc 1 105 0
 364 007e 0021     		movs	r1, #0
 365              	.LVL33:
 366              		.loc 1 104 0
 367 0080 5070     		strb	r0, [r2, #1]
 368              		.loc 1 106 0
 369 0082 D160     		str	r1, [r2, #12]
 370              		.loc 1 105 0
 371 0084 C2F81818 		str	r1, [r2, #2072]
 372 0088 BDE8F883 		pop	{r3, r4, r5, r6, r7, r8, r9, pc}
 373              	.LVL34:
 374              	.L30:
 375              		.loc 1 113 0
 376 008c 3444     		add	r4, r4, r6
 377 008e 6401     		lsls	r4, r4, #5
 378 0090 2A19     		adds	r2, r5, r4
 379              		.loc 1 114 0
 380 0092 2B5D     		ldrb	r3, [r5, r4]	@ zero_extendqisi2
 381 0094 0133     		adds	r3, r3, #1
 382 0096 DBB2     		uxtb	r3, r3
 383              		.loc 1 115 0
 384 0098 0221     		movs	r1, #2
 385              	.LVL35:
 386              		.loc 1 114 0
 387 009a 2B55     		strb	r3, [r5, r4]
 388              		.loc 1 113 0
 389 009c 0002     		lsls	r0, r0, #8
 390              	.LVL36:
 391              		.loc 1 115 0
 392 009e 5170     		strb	r1, [r2, #1]
 393              		.loc 1 113 0
 394 00a0 D060     		str	r0, [r2, #12]
 395              		.loc 1 116 0
 396 00a2 BDE8F883 		pop	{r3, r4, r5, r6, r7, r8, r9, pc}
 397              	.LVL37:
 398              	.L31:
 399              		.loc 1 119 0
ARM GAS  /tmp/ccEN2sIF.s 			page 8


 400 00a6 3444     		add	r4, r4, r6
 401 00a8 6401     		lsls	r4, r4, #5
 402 00aa 2544     		add	r5, r5, r4
 403 00ac 2549     		ldr	r1, .L52
 404              	.LVL38:
 405 00ae EB68     		ldr	r3, [r5, #12]
 406 00b0 1843     		orrs	r0, r0, r3
 407              	.LVL39:
 408              		.loc 1 120 0
 409 00b2 431E     		subs	r3, r0, #1
 410 00b4 B3F5806F 		cmp	r3, #1024
 411              		.loc 1 119 0
 412 00b8 E860     		str	r0, [r5, #12]
 413              		.loc 1 120 0
 414 00ba 39D2     		bcs	.L39
 415              		.loc 1 122 0
 416 00bc 0B5D     		ldrb	r3, [r1, r4]	@ zero_extendqisi2
 417 00be 0133     		adds	r3, r3, #1
 418 00c0 DBB2     		uxtb	r3, r3
 419              		.loc 1 123 0
 420 00c2 0222     		movs	r2, #2
 421              		.loc 1 122 0
 422 00c4 0B55     		strb	r3, [r1, r4]
 423              		.loc 1 123 0
 424 00c6 6A70     		strb	r2, [r5, #1]
 425 00c8 BDE8F883 		pop	{r3, r4, r5, r6, r7, r8, r9, pc}
 426              	.LVL40:
 427              	.L32:
 428              		.loc 1 130 0
 429 00cc 7118     		adds	r1, r6, r1
 430              	.LVL41:
 431 00ce 4901     		lsls	r1, r1, #5
 432 00d0 6A18     		adds	r2, r5, r1
 433 00d2 DFF870C0 		ldr	ip, .L52
 434 00d6 D2F81838 		ldr	r3, [r2, #2072]
 435              		.loc 1 131 0
 436 00da D768     		ldr	r7, [r2, #12]
 437              		.loc 1 130 0
 438 00dc 02EB030E 		add	lr, r2, r3
 439 00e0 0133     		adds	r3, r3, #1
 440              		.loc 1 131 0
 441 00e2 BB42     		cmp	r3, r7
 442              		.loc 1 130 0
 443 00e4 8EF81000 		strb	r0, [lr, #16]
 444 00e8 C2F81838 		str	r3, [r2, #2072]
 445              		.loc 1 131 0
 446 00ec 05D1     		bne	.L40
 447              		.loc 1 132 0
 448 00ee 1CF80130 		ldrb	r3, [ip, r1]	@ zero_extendqisi2
 449 00f2 0133     		adds	r3, r3, #1
 450 00f4 DBB2     		uxtb	r3, r3
 451 00f6 0CF80130 		strb	r3, [ip, r1]
 452              	.L40:
 453              		.loc 1 134 0
 454 00fa 3444     		add	r4, r4, r6
 455              	.LVL42:
 456 00fc 05EB4414 		add	r4, r5, r4, lsl #5
ARM GAS  /tmp/ccEN2sIF.s 			page 9


 457 0100 0223     		movs	r3, #2
 458 0102 6370     		strb	r3, [r4, #1]
 459              		.loc 1 135 0
 460 0104 BDE8F883 		pop	{r3, r4, r5, r6, r7, r8, r9, pc}
 461              	.LVL43:
 462              	.L33:
 463              		.loc 1 138 0
 464 0108 3444     		add	r4, r4, r6
 465 010a 6401     		lsls	r4, r4, #5
 466 010c 2A19     		adds	r2, r5, r4
 467              		.loc 1 139 0
 468 010e 2B5D     		ldrb	r3, [r5, r4]	@ zero_extendqisi2
 469              		.loc 1 138 0
 470 0110 82F81D08 		strb	r0, [r2, #2077]
 471              	.L49:
 472              		.loc 1 145 0
 473 0114 0133     		adds	r3, r3, #1
 474 0116 DBB2     		uxtb	r3, r3
 475              		.loc 1 146 0
 476 0118 0221     		movs	r1, #2
 477              	.LVL44:
 478              		.loc 1 145 0
 479 011a 2B55     		strb	r3, [r5, r4]
 480              		.loc 1 146 0
 481 011c 5170     		strb	r1, [r2, #1]
 482              		.loc 1 147 0
 483 011e BDE8F883 		pop	{r3, r4, r5, r6, r7, r8, r9, pc}
 484              	.LVL45:
 485              	.L34:
 486              		.loc 1 144 0
 487 0122 3444     		add	r4, r4, r6
 488 0124 6401     		lsls	r4, r4, #5
 489 0126 2A19     		adds	r2, r5, r4
 490              		.loc 1 145 0
 491 0128 2B5D     		ldrb	r3, [r5, r4]	@ zero_extendqisi2
 492              		.loc 1 144 0
 493 012a 82F81C08 		strb	r0, [r2, #2076]
 494 012e F1E7     		b	.L49
 495              	.LVL46:
 496              	.L39:
 497              		.loc 1 125 0
 498 0130 0023     		movs	r3, #0
 499 0132 0B55     		strb	r3, [r1, r4]
 500 0134 BDE8F883 		pop	{r3, r4, r5, r6, r7, r8, r9, pc}
 501              	.LVL47:
 502              	.L51:
 503              		.loc 1 97 0
 504 0138 2B5D     		ldrb	r3, [r5, r4]	@ zero_extendqisi2
 505 013a 0233     		adds	r3, r3, #2
 506 013c 2A19     		adds	r2, r5, r4
 507 013e DBB2     		uxtb	r3, r3
 508 0140 9CE7     		b	.L48
 509              	.L53:
 510 0142 00BF     		.align	2
 511              	.L52:
 512 0144 00000000 		.word	.LANCHOR0
 513              		.cfi_endproc
ARM GAS  /tmp/ccEN2sIF.s 			page 10


 514              	.LFE3:
 515              		.size	packet_process_byte, .-packet_process_byte
 516              		.section	.bss.handler_states,"aw",%nobits
 517              		.align	2
 518              		.set	.LANCHOR0,. + 0
 519              		.type	handler_states, %object
 520              		.size	handler_states, 4160
 521              	handler_states:
 522 0000 00000000 		.space	4160
 522      00000000 
 522      00000000 
 522      00000000 
 522      00000000 
 523              		.text
 524              	.Letext0:
 525              		.file 2 "/usr/arm-none-eabi/include/machine/_default_types.h"
 526              		.file 3 "/usr/arm-none-eabi/include/sys/_stdint.h"
 527              		.file 4 "crc.h"