ARM GAS  /tmp/ccbSTq1A.s 			page 1


   1              		.syntax unified
   2              		.cpu cortex-m4
   3              		.eabi_attribute 27, 1
   4              		.eabi_attribute 28, 1
   5              		.fpu fpv4-sp-d16
   6              		.eabi_attribute 20, 1
   7              		.eabi_attribute 21, 1
   8              		.eabi_attribute 23, 3
   9              		.eabi_attribute 24, 1
  10              		.eabi_attribute 25, 1
  11              		.eabi_attribute 26, 1
  12              		.eabi_attribute 30, 2
  13              		.eabi_attribute 34, 1
  14              		.eabi_attribute 18, 4
  15              		.thumb
  16              		.file	"serial_usb.c"
  17              		.text
  18              	.Ltext0:
  19              		.cfi_sections	.debug_frame
  20              		.section	.text.onotify,"ax",%progbits
  21              		.align	2
  22              		.p2align 4,,15
  23              		.thumb
  24              		.thumb_func
  25              		.type	onotify, %function
  26              	onotify:
  27              	.LFB265:
  28              		.file 1 "ChibiOS_3.0.2/os/hal/src/serial_usb.c"
  29              		.loc 1 144 0
  30              		.cfi_startproc
  31              		@ args = 0, pretend = 0, frame = 0
  32              		@ frame_needed = 0, uses_anonymous_args = 0
  33              	.LVL0:
  34 0000 10B5     		push	{r4, lr}
  35              		.cfi_def_cfa_offset 8
  36              		.cfi_offset 4, -8
  37              		.cfi_offset 14, -4
  38              		.loc 1 146 0
  39 0002 046A     		ldr	r4, [r0, #32]
  40              	.LVL1:
  41              		.loc 1 150 0
  42 0004 D4F85422 		ldr	r2, [r4, #596]
  43 0008 1368     		ldr	r3, [r2]
  44 000a 1978     		ldrb	r1, [r3]	@ zero_extendqisi2
  45 000c 0429     		cmp	r1, #4
  46 000e 00D0     		beq	.L8
  47              	.LVL2:
  48              	.L1:
  49 0010 10BD     		pop	{r4, pc}
  50              	.LVL3:
  51              	.L8:
  52              		.loc 1 150 0 is_stmt 0 discriminator 1
  53 0012 217A     		ldrb	r1, [r4, #8]	@ zero_extendqisi2
  54 0014 0229     		cmp	r1, #2
  55 0016 FBD1     		bne	.L1
  56              		.loc 1 157 0 is_stmt 1
  57 0018 1179     		ldrb	r1, [r2, #4]	@ zero_extendqisi2
ARM GAS  /tmp/ccbSTq1A.s 			page 2


  58 001a 1A89     		ldrh	r2, [r3, #8]
  59 001c 0123     		movs	r3, #1
  60 001e 8B40     		lsls	r3, r3, r1
  61 0020 1A40     		ands	r2, r3, r2
  62 0022 F5D1     		bne	.L1
  63              	.LVL4:
  64              	.LBB200:
  65              	.LBB201:
  66              		.file 2 "ChibiOS_3.0.2/os/rt/include/chqueues.h"
  67              		.loc 2 357 0
  68 0024 216C     		ldr	r1, [r4, #64]
  69 0026 E36B     		ldr	r3, [r4, #60]
  70 0028 A06B     		ldr	r0, [r4, #56]
  71              	.LVL5:
  72 002a CB1A     		subs	r3, r1, r3
  73              	.LBE201:
  74              	.LBE200:
  75              		.loc 1 158 0
  76 002c 1B1A     		subs	r3, r3, r0
  77 002e EFD0     		beq	.L1
  78              	.LVL6:
  79              	.LBB202:
  80              	.LBB203:
  81              	.LBB204:
  82              	.LBB205:
  83              	.LBB206:
  84              	.LBB207:
  85              		.file 3 "ChibiOS_3.0.2/os/ext/CMSIS/include/core_cmFunc.h"
  86              		.loc 3 546 0
  87              	@ 546 "ChibiOS_3.0.2/os/ext/CMSIS/include/core_cmFunc.h" 1
  88 0030 82F31188 		MSR basepri, r2
  89              	@ 0 "" 2
  90              		.thumb
  91              	.LBE207:
  92              	.LBE206:
  93              	.LBE205:
  94              	.LBE204:
  95              	.LBE203:
  96              	.LBE202:
  97              		.loc 1 161 0
  98 0034 D4F85422 		ldr	r2, [r4, #596]
  99 0038 1068     		ldr	r0, [r2]
 100 003a 1179     		ldrb	r1, [r2, #4]	@ zero_extendqisi2
 101 003c 04F13002 		add	r2, r4, #48
 102              	.LVL7:
 103 0040 FFF7FEFF 		bl	usbPrepareQueuedTransmit
 104              	.LVL8:
 105              	.LBB208:
 106              	.LBB209:
 107              	.LBB210:
 108              	.LBB211:
 109              	.LBB212:
 110              		.loc 3 546 0
 111 0044 2023     		movs	r3, #32
 112              	@ 546 "ChibiOS_3.0.2/os/ext/CMSIS/include/core_cmFunc.h" 1
 113 0046 83F31188 		MSR basepri, r3
 114              	@ 0 "" 2
ARM GAS  /tmp/ccbSTq1A.s 			page 3


 115              		.thumb
 116              	.LBE212:
 117              	.LBE211:
 118              	.LBE210:
 119              	.LBE209:
 120              	.LBE208:
 121              		.loc 1 166 0
 122 004a D4F85432 		ldr	r3, [r4, #596]
 123              		.loc 1 169 0
 124 004e BDE81040 		pop	{r4, lr}
 125              		.cfi_restore 14
 126              		.cfi_restore 4
 127              		.cfi_def_cfa_offset 0
 128              	.LVL9:
 129              		.loc 1 166 0
 130 0052 1868     		ldr	r0, [r3]
 131 0054 1979     		ldrb	r1, [r3, #4]	@ zero_extendqisi2
 132 0056 FFF7FEBF 		b	usbStartTransmitI
 133              	.LVL10:
 134              		.cfi_endproc
 135              	.LFE265:
 136              		.size	onotify, .-onotify
 137 005a 00BF     		.section	.text.inotify,"ax",%progbits
 138              		.align	2
 139              		.p2align 4,,15
 140              		.thumb
 141              		.thumb_func
 142              		.type	inotify, %function
 143              	inotify:
 144              	.LFB264:
 145              		.loc 1 109 0
 146              		.cfi_startproc
 147              		@ args = 0, pretend = 0, frame = 0
 148              		@ frame_needed = 0, uses_anonymous_args = 0
 149              	.LVL11:
 150 0000 38B5     		push	{r3, r4, r5, lr}
 151              		.cfi_def_cfa_offset 16
 152              		.cfi_offset 3, -16
 153              		.cfi_offset 4, -12
 154              		.cfi_offset 5, -8
 155              		.cfi_offset 14, -4
 156              		.loc 1 111 0
 157 0002 046A     		ldr	r4, [r0, #32]
 158              	.LVL12:
 159              		.loc 1 115 0
 160 0004 D4F85422 		ldr	r2, [r4, #596]
 161 0008 1368     		ldr	r3, [r2]
 162 000a 1978     		ldrb	r1, [r3]	@ zero_extendqisi2
 163 000c 0429     		cmp	r1, #4
 164 000e 00D0     		beq	.L12
 165              	.LVL13:
 166              	.L9:
 167 0010 38BD     		pop	{r3, r4, r5, pc}
 168              	.LVL14:
 169              	.L12:
 170              		.loc 1 115 0 is_stmt 0 discriminator 1
 171 0012 217A     		ldrb	r1, [r4, #8]	@ zero_extendqisi2
ARM GAS  /tmp/ccbSTq1A.s 			page 4


 172 0014 0229     		cmp	r1, #2
 173 0016 FBD1     		bne	.L9
 174              		.loc 1 123 0 is_stmt 1
 175 0018 5079     		ldrb	r0, [r2, #5]	@ zero_extendqisi2
 176              	.LVL15:
 177              		.loc 1 124 0
 178 001a 5989     		ldrh	r1, [r3, #10]
 179              		.loc 1 123 0
 180 001c 03EB8003 		add	r3, r3, r0, lsl #2
 181              		.loc 1 124 0
 182 0020 0122     		movs	r2, #1
 183              		.loc 1 123 0
 184 0022 DB68     		ldr	r3, [r3, #12]
 185              		.loc 1 124 0
 186 0024 8240     		lsls	r2, r2, r0
 187 0026 0A40     		ands	r2, r2, r1
 188              		.loc 1 123 0
 189 0028 5B8A     		ldrh	r3, [r3, #18]
 190              	.LVL16:
 191              		.loc 1 124 0
 192 002a F1D1     		bne	.L9
 193              	.LVL17:
 194              	.LBB213:
 195              	.LBB214:
 196              		.loc 2 290 0
 197 002c A169     		ldr	r1, [r4, #24]
 198 002e E069     		ldr	r0, [r4, #28]
 199 0030 6569     		ldr	r5, [r4, #20]
 200 0032 401A     		subs	r0, r0, r1
 201 0034 411B     		subs	r1, r0, r5
 202              	.LBE214:
 203              	.LBE213:
 204              		.loc 1 125 0
 205 0036 8B42     		cmp	r3, r1
 206 0038 EAD8     		bhi	.L9
 207              	.LVL18:
 208              	.LBB215:
 209              	.LBB216:
 210              	.LBB217:
 211              	.LBB218:
 212              	.LBB219:
 213              	.LBB220:
 214              		.loc 3 546 0
 215              	@ 546 "ChibiOS_3.0.2/os/ext/CMSIS/include/core_cmFunc.h" 1
 216 003a 82F31188 		MSR basepri, r2
 217              	@ 0 "" 2
 218              	.LVL19:
 219              		.thumb
 220              	.LBE220:
 221              	.LBE219:
 222              	.LBE218:
 223              	.LBE217:
 224              	.LBE216:
 225              	.LBE215:
 226              		.loc 1 128 0
 227 003e B1FBF3F1 		udiv	r1, r1, r3
 228              	.LVL20:
ARM GAS  /tmp/ccbSTq1A.s 			page 5


 229              		.loc 1 129 0
 230 0042 D4F85422 		ldr	r2, [r4, #596]
 231 0046 03FB01F3 		mul	r3, r3, r1
 232              	.LVL21:
 233 004a 1068     		ldr	r0, [r2]
 234 004c 5179     		ldrb	r1, [r2, #5]	@ zero_extendqisi2
 235 004e 04F10C02 		add	r2, r4, #12
 236              	.LVL22:
 237 0052 FFF7FEFF 		bl	usbPrepareQueuedReceive
 238              	.LVL23:
 239              	.LBB221:
 240              	.LBB222:
 241              	.LBB223:
 242              	.LBB224:
 243              	.LBB225:
 244              		.loc 3 546 0
 245 0056 2023     		movs	r3, #32
 246              	@ 546 "ChibiOS_3.0.2/os/ext/CMSIS/include/core_cmFunc.h" 1
 247 0058 83F31188 		MSR basepri, r3
 248              	@ 0 "" 2
 249              		.thumb
 250              	.LBE225:
 251              	.LBE224:
 252              	.LBE223:
 253              	.LBE222:
 254              	.LBE221:
 255              		.loc 1 134 0
 256 005c D4F85432 		ldr	r3, [r4, #596]
 257 0060 1868     		ldr	r0, [r3]
 258 0062 5979     		ldrb	r1, [r3, #5]	@ zero_extendqisi2
 259              		.loc 1 137 0
 260 0064 BDE83840 		pop	{r3, r4, r5, lr}
 261              		.cfi_restore 14
 262              		.cfi_restore 5
 263              		.cfi_restore 4
 264              		.cfi_restore 3
 265              		.cfi_def_cfa_offset 0
 266              	.LVL24:
 267              		.loc 1 134 0
 268 0068 FFF7FEBF 		b	usbStartReceiveI
 269              	.LVL25:
 270              		.cfi_endproc
 271              	.LFE264:
 272              		.size	inotify, .-inotify
 273              		.section	.text.readt,"ax",%progbits
 274              		.align	2
 275              		.p2align 4,,15
 276              		.thumb
 277              		.thumb_func
 278              		.type	readt, %function
 279              	readt:
 280              	.LFB263:
 281              		.loc 1 94 0
 282              		.cfi_startproc
 283              		@ args = 0, pretend = 0, frame = 0
 284              		@ frame_needed = 0, uses_anonymous_args = 0
 285              		@ link register save eliminated.
ARM GAS  /tmp/ccbSTq1A.s 			page 6


 286              	.LVL26:
 287              		.loc 1 96 0
 288 0000 0C30     		adds	r0, r0, #12
 289              	.LVL27:
 290 0002 FFF7FEBF 		b	chIQReadTimeout
 291              	.LVL28:
 292              		.cfi_endproc
 293              	.LFE263:
 294              		.size	readt, .-readt
 295 0006 00BF     		.section	.text.read,"ax",%progbits
 296              		.align	2
 297              		.p2align 4,,15
 298              		.thumb
 299              		.thumb_func
 300              		.type	read, %function
 301              	read:
 302              	.LFB257:
 303              		.loc 1 63 0
 304              		.cfi_startproc
 305              		@ args = 0, pretend = 0, frame = 0
 306              		@ frame_needed = 0, uses_anonymous_args = 0
 307              		@ link register save eliminated.
 308              	.LVL29:
 309              		.loc 1 65 0
 310 0000 0C30     		adds	r0, r0, #12
 311              	.LVL30:
 312 0002 4FF0FF33 		mov	r3, #-1
 313 0006 FFF7FEBF 		b	chIQReadTimeout
 314              	.LVL31:
 315              		.cfi_endproc
 316              	.LFE257:
 317              		.size	read, .-read
 318 000a 00BF     		.section	.text.writet,"ax",%progbits
 319              		.align	2
 320              		.p2align 4,,15
 321              		.thumb
 322              		.thumb_func
 323              		.type	writet, %function
 324              	writet:
 325              	.LFB262:
 326              		.loc 1 89 0
 327              		.cfi_startproc
 328              		@ args = 0, pretend = 0, frame = 0
 329              		@ frame_needed = 0, uses_anonymous_args = 0
 330              		@ link register save eliminated.
 331              	.LVL32:
 332              		.loc 1 91 0
 333 0000 3030     		adds	r0, r0, #48
 334              	.LVL33:
 335 0002 FFF7FEBF 		b	chOQWriteTimeout
 336              	.LVL34:
 337              		.cfi_endproc
 338              	.LFE262:
 339              		.size	writet, .-writet
 340 0006 00BF     		.section	.text.write,"ax",%progbits
 341              		.align	2
 342              		.p2align 4,,15
ARM GAS  /tmp/ccbSTq1A.s 			page 7


 343              		.thumb
 344              		.thumb_func
 345              		.type	write, %function
 346              	write:
 347              	.LFB256:
 348              		.loc 1 57 0
 349              		.cfi_startproc
 350              		@ args = 0, pretend = 0, frame = 0
 351              		@ frame_needed = 0, uses_anonymous_args = 0
 352              		@ link register save eliminated.
 353              	.LVL35:
 354              		.loc 1 59 0
 355 0000 3030     		adds	r0, r0, #48
 356              	.LVL36:
 357 0002 4FF0FF33 		mov	r3, #-1
 358 0006 FFF7FEBF 		b	chOQWriteTimeout
 359              	.LVL37:
 360              		.cfi_endproc
 361              	.LFE256:
 362              		.size	write, .-write
 363 000a 00BF     		.section	.text.gett,"ax",%progbits
 364              		.align	2
 365              		.p2align 4,,15
 366              		.thumb
 367              		.thumb_func
 368              		.type	gett, %function
 369              	gett:
 370              	.LFB261:
 371              		.loc 1 84 0
 372              		.cfi_startproc
 373              		@ args = 0, pretend = 0, frame = 0
 374              		@ frame_needed = 0, uses_anonymous_args = 0
 375              		@ link register save eliminated.
 376              	.LVL38:
 377              		.loc 1 86 0
 378 0000 0C30     		adds	r0, r0, #12
 379              	.LVL39:
 380 0002 FFF7FEBF 		b	chIQGetTimeout
 381              	.LVL40:
 382              		.cfi_endproc
 383              	.LFE261:
 384              		.size	gett, .-gett
 385 0006 00BF     		.section	.text.get,"ax",%progbits
 386              		.align	2
 387              		.p2align 4,,15
 388              		.thumb
 389              		.thumb_func
 390              		.type	get, %function
 391              	get:
 392              	.LFB259:
 393              		.loc 1 74 0
 394              		.cfi_startproc
 395              		@ args = 0, pretend = 0, frame = 0
 396              		@ frame_needed = 0, uses_anonymous_args = 0
 397              		@ link register save eliminated.
 398              	.LVL41:
 399              		.loc 1 76 0
ARM GAS  /tmp/ccbSTq1A.s 			page 8


 400 0000 0C30     		adds	r0, r0, #12
 401              	.LVL42:
 402 0002 4FF0FF31 		mov	r1, #-1
 403 0006 FFF7FEBF 		b	chIQGetTimeout
 404              	.LVL43:
 405              		.cfi_endproc
 406              	.LFE259:
 407              		.size	get, .-get
 408 000a 00BF     		.section	.text.putt,"ax",%progbits
 409              		.align	2
 410              		.p2align 4,,15
 411              		.thumb
 412              		.thumb_func
 413              		.type	putt, %function
 414              	putt:
 415              	.LFB260:
 416              		.loc 1 79 0
 417              		.cfi_startproc
 418              		@ args = 0, pretend = 0, frame = 0
 419              		@ frame_needed = 0, uses_anonymous_args = 0
 420              		@ link register save eliminated.
 421              	.LVL44:
 422              		.loc 1 81 0
 423 0000 3030     		adds	r0, r0, #48
 424              	.LVL45:
 425 0002 FFF7FEBF 		b	chOQPutTimeout
 426              	.LVL46:
 427              		.cfi_endproc
 428              	.LFE260:
 429              		.size	putt, .-putt
 430 0006 00BF     		.section	.text.put,"ax",%progbits
 431              		.align	2
 432              		.p2align 4,,15
 433              		.thumb
 434              		.thumb_func
 435              		.type	put, %function
 436              	put:
 437              	.LFB258:
 438              		.loc 1 69 0
 439              		.cfi_startproc
 440              		@ args = 0, pretend = 0, frame = 0
 441              		@ frame_needed = 0, uses_anonymous_args = 0
 442              		@ link register save eliminated.
 443              	.LVL47:
 444              		.loc 1 71 0
 445 0000 3030     		adds	r0, r0, #48
 446              	.LVL48:
 447 0002 4FF0FF32 		mov	r2, #-1
 448 0006 FFF7FEBF 		b	chOQPutTimeout
 449              	.LVL49:
 450              		.cfi_endproc
 451              	.LFE258:
 452              		.size	put, .-put
 453 000a 00BF     		.section	.text.sduInit,"ax",%progbits
 454              		.align	2
 455              		.p2align 4,,15
 456              		.global	sduInit
ARM GAS  /tmp/ccbSTq1A.s 			page 9


 457              		.thumb
 458              		.thumb_func
 459              		.type	sduInit, %function
 460              	sduInit:
 461              	.LFB266:
 462              		.loc 1 182 0
 463              		.cfi_startproc
 464              		@ args = 0, pretend = 0, frame = 0
 465              		@ frame_needed = 0, uses_anonymous_args = 0
 466              		@ link register save eliminated.
 467 0000 7047     		bx	lr
 468              		.cfi_endproc
 469              	.LFE266:
 470              		.size	sduInit, .-sduInit
 471 0002 00BF     		.section	.text.sduObjectInit,"ax",%progbits
 472              		.align	2
 473              		.p2align 4,,15
 474              		.global	sduObjectInit
 475              		.thumb
 476              		.thumb_func
 477              		.type	sduObjectInit, %function
 478              	sduObjectInit:
 479              	.LFB267:
 480              		.loc 1 194 0
 481              		.cfi_startproc
 482              		@ args = 0, pretend = 0, frame = 0
 483              		@ frame_needed = 0, uses_anonymous_args = 0
 484              	.LVL50:
 485              		.loc 1 194 0
 486 0000 10B5     		push	{r4, lr}
 487              		.cfi_def_cfa_offset 8
 488              		.cfi_offset 4, -8
 489              		.cfi_offset 14, -4
 490              		.loc 1 196 0
 491 0002 0346     		mov	r3, r0
 492 0004 0E4A     		ldr	r2, .L24
 493 0006 43F8042B 		str	r2, [r3], #4
 494              	.LVL51:
 495              		.loc 1 194 0
 496 000a 82B0     		sub	sp, sp, #8
 497              		.cfi_def_cfa_offset 16
 498              		.loc 1 194 0
 499 000c 0446     		mov	r4, r0
 500              		.loc 1 198 0
 501 000e 0122     		movs	r2, #1
 502              		.loc 1 199 0
 503 0010 0090     		str	r0, [sp]
 504 0012 04F15401 		add	r1, r4, #84
 505              	.LBB226:
 506              	.LBB227:
 507              	.LBB228:
 508              		.file 4 "ChibiOS_3.0.2/os/rt/include/chevents.h"
 509              		.loc 4 172 0
 510 0016 4360     		str	r3, [r0, #4]
 511              	.LBE228:
 512              	.LBE227:
 513              	.LBE226:
ARM GAS  /tmp/ccbSTq1A.s 			page 10


 514              		.loc 1 198 0
 515 0018 0272     		strb	r2, [r0, #8]
 516              		.loc 1 199 0
 517 001a 0A4B     		ldr	r3, .L24+4
 518              	.LVL52:
 519 001c 0C30     		adds	r0, r0, #12
 520              	.LVL53:
 521 001e 4FF48072 		mov	r2, #256
 522 0022 FFF7FEFF 		bl	chIQObjectInit
 523              	.LVL54:
 524              		.loc 1 200 0
 525 0026 0094     		str	r4, [sp]
 526 0028 04F13000 		add	r0, r4, #48
 527 002c 04F5AA71 		add	r1, r4, #340
 528 0030 4FF48072 		mov	r2, #256
 529 0034 044B     		ldr	r3, .L24+8
 530 0036 FFF7FEFF 		bl	chOQObjectInit
 531              	.LVL55:
 532              		.loc 1 201 0
 533 003a 02B0     		add	sp, sp, #8
 534              		.cfi_def_cfa_offset 8
 535              		@ sp needed
 536 003c 10BD     		pop	{r4, pc}
 537              	.LVL56:
 538              	.L25:
 539 003e 00BF     		.align	2
 540              	.L24:
 541 0040 00000000 		.word	.LANCHOR0
 542 0044 00000000 		.word	inotify
 543 0048 00000000 		.word	onotify
 544              		.cfi_endproc
 545              	.LFE267:
 546              		.size	sduObjectInit, .-sduObjectInit
 547              		.section	.text.sduStart,"ax",%progbits
 548              		.align	2
 549              		.p2align 4,,15
 550              		.global	sduStart
 551              		.thumb
 552              		.thumb_func
 553              		.type	sduStart, %function
 554              	sduStart:
 555              	.LFB268:
 556              		.loc 1 211 0
 557              		.cfi_startproc
 558              		@ args = 0, pretend = 0, frame = 0
 559              		@ frame_needed = 0, uses_anonymous_args = 0
 560              		@ link register save eliminated.
 561              	.LVL57:
 562              		.loc 1 212 0
 563 0000 0B68     		ldr	r3, [r1]
 564              	.LVL58:
 565              	.LBB229:
 566              	.LBB230:
 567              	.LBB231:
 568              	.LBB232:
 569              	.LBB233:
 570              		.loc 3 546 0
ARM GAS  /tmp/ccbSTq1A.s 			page 11


 571 0002 2022     		movs	r2, #32
 572              	@ 546 "ChibiOS_3.0.2/os/ext/CMSIS/include/core_cmFunc.h" 1
 573 0004 82F31188 		MSR basepri, r2
 574              	@ 0 "" 2
 575              		.thumb
 576              	.LBE233:
 577              	.LBE232:
 578              	.LBE231:
 579              	.LBE230:
 580              	.LBE229:
 581              		.loc 1 219 0
 582 0008 0A79     		ldrb	r2, [r1, #4]	@ zero_extendqisi2
 583 000a 03EB8202 		add	r2, r3, r2, lsl #2
 584 000e 9061     		str	r0, [r2, #24]
 585              		.loc 1 220 0
 586 0010 4A79     		ldrb	r2, [r1, #5]	@ zero_extendqisi2
 587 0012 0932     		adds	r2, r2, #9
 588 0014 43F82200 		str	r0, [r3, r2, lsl #2]
 589              		.loc 1 221 0
 590 0018 8A79     		ldrb	r2, [r1, #6]	@ zero_extendqisi2
 591 001a 12B1     		cbz	r2, .L27
 592              		.loc 1 222 0
 593 001c 03EB8203 		add	r3, r3, r2, lsl #2
 594              	.LVL59:
 595 0020 9861     		str	r0, [r3, #24]
 596              	.L27:
 597              		.loc 1 225 0
 598 0022 0223     		movs	r3, #2
 599 0024 0372     		strb	r3, [r0, #8]
 600              	.LVL60:
 601              		.loc 1 224 0
 602 0026 C0F85412 		str	r1, [r0, #596]
 603              	.LBB234:
 604              	.LBB235:
 605              	.LBB236:
 606              	.LBB237:
 607              	.LBB238:
 608              	.LBB239:
 609              		.loc 3 546 0
 610 002a 0023     		movs	r3, #0
 611              	@ 546 "ChibiOS_3.0.2/os/ext/CMSIS/include/core_cmFunc.h" 1
 612 002c 83F31188 		MSR basepri, r3
 613              	@ 0 "" 2
 614              		.thumb
 615 0030 7047     		bx	lr
 616              	.LBE239:
 617              	.LBE238:
 618              	.LBE237:
 619              	.LBE236:
 620              	.LBE235:
 621              	.LBE234:
 622              		.cfi_endproc
 623              	.LFE268:
 624              		.size	sduStart, .-sduStart
 625 0032 00BF     		.section	.text.sduStop,"ax",%progbits
 626              		.align	2
 627              		.p2align 4,,15
ARM GAS  /tmp/ccbSTq1A.s 			page 12


 628              		.global	sduStop
 629              		.thumb
 630              		.thumb_func
 631              		.type	sduStop, %function
 632              	sduStop:
 633              	.LFB269:
 634              		.loc 1 238 0
 635              		.cfi_startproc
 636              		@ args = 0, pretend = 0, frame = 0
 637              		@ frame_needed = 0, uses_anonymous_args = 0
 638              	.LVL61:
 639              		.loc 1 239 0
 640 0000 D0F85422 		ldr	r2, [r0, #596]
 641              		.loc 1 238 0
 642 0004 10B5     		push	{r4, lr}
 643              		.cfi_def_cfa_offset 8
 644              		.cfi_offset 4, -8
 645              		.cfi_offset 14, -4
 646              	.LBB240:
 647              	.LBB241:
 648              	.LBB242:
 649              	.LBB243:
 650              	.LBB244:
 651              		.loc 3 546 0
 652 0006 2023     		movs	r3, #32
 653              	.LBE244:
 654              	.LBE243:
 655              	.LBE242:
 656              	.LBE241:
 657              	.LBE240:
 658              		.loc 1 238 0
 659 0008 0446     		mov	r4, r0
 660              		.loc 1 239 0
 661 000a 1268     		ldr	r2, [r2]
 662              	.LVL62:
 663              	.LBB249:
 664              	.LBB248:
 665              	.LBB247:
 666              	.LBB246:
 667              	.LBB245:
 668              		.loc 3 546 0
 669              	@ 546 "ChibiOS_3.0.2/os/ext/CMSIS/include/core_cmFunc.h" 1
 670 000c 83F31188 		MSR basepri, r3
 671              	@ 0 "" 2
 672              		.thumb
 673              	.LBE245:
 674              	.LBE246:
 675              	.LBE247:
 676              	.LBE248:
 677              	.LBE249:
 678              		.loc 1 248 0
 679 0010 D0F85412 		ldr	r1, [r0, #596]
 680 0014 0B79     		ldrb	r3, [r1, #4]	@ zero_extendqisi2
 681 0016 0533     		adds	r3, r3, #5
 682 0018 02EB8303 		add	r3, r2, r3, lsl #2
 683 001c 0020     		movs	r0, #0
 684              	.LVL63:
ARM GAS  /tmp/ccbSTq1A.s 			page 13


 685 001e 5860     		str	r0, [r3, #4]
 686              		.loc 1 249 0
 687 0020 4B79     		ldrb	r3, [r1, #5]	@ zero_extendqisi2
 688 0022 0933     		adds	r3, r3, #9
 689 0024 42F82300 		str	r0, [r2, r3, lsl #2]
 690              		.loc 1 250 0
 691 0028 8B79     		ldrb	r3, [r1, #6]	@ zero_extendqisi2
 692 002a 1BB1     		cbz	r3, .L32
 693              		.loc 1 251 0
 694 002c 0533     		adds	r3, r3, #5
 695 002e 02EB8302 		add	r2, r2, r3, lsl #2
 696              	.LVL64:
 697 0032 5060     		str	r0, [r2, #4]
 698              	.L32:
 699              		.loc 1 253 0
 700 0034 0123     		movs	r3, #1
 701 0036 2372     		strb	r3, [r4, #8]
 702              	.LVL65:
 703              	.LBB250:
 704              	.LBB251:
 705              		.file 5 "ChibiOS_3.0.2/os/hal/osal/rt/osal.h"
 706              		.loc 5 844 0
 707 0038 0221     		movs	r1, #2
 708 003a 201D     		adds	r0, r4, #4
 709              	.LVL66:
 710 003c FFF7FEFF 		bl	chEvtBroadcastFlagsI
 711              	.LVL67:
 712              	.LBE251:
 713              	.LBE250:
 714              		.loc 1 257 0
 715 0040 04F10C00 		add	r0, r4, #12
 716 0044 FFF7FEFF 		bl	chIQResetI
 717              	.LVL68:
 718              		.loc 1 258 0
 719 0048 04F13000 		add	r0, r4, #48
 720 004c FFF7FEFF 		bl	chIQResetI
 721              	.LVL69:
 722              	.LBB252:
 723              	.LBB253:
 724              		.loc 5 600 0
 725 0050 FFF7FEFF 		bl	chSchRescheduleS
 726              	.LVL70:
 727              	.LBE253:
 728              	.LBE252:
 729              	.LBB254:
 730              	.LBB255:
 731              	.LBB256:
 732              	.LBB257:
 733              	.LBB258:
 734              	.LBB259:
 735              		.loc 3 546 0
 736 0054 0023     		movs	r3, #0
 737              	@ 546 "ChibiOS_3.0.2/os/ext/CMSIS/include/core_cmFunc.h" 1
 738 0056 83F31188 		MSR basepri, r3
 739              	@ 0 "" 2
 740              		.thumb
 741 005a 10BD     		pop	{r4, pc}
ARM GAS  /tmp/ccbSTq1A.s 			page 14


 742              	.LBE259:
 743              	.LBE258:
 744              	.LBE257:
 745              	.LBE256:
 746              	.LBE255:
 747              	.LBE254:
 748              		.cfi_endproc
 749              	.LFE269:
 750              		.size	sduStop, .-sduStop
 751              		.section	.text.sduConfigureHookI,"ax",%progbits
 752              		.align	2
 753              		.p2align 4,,15
 754              		.global	sduConfigureHookI
 755              		.thumb
 756              		.thumb_func
 757              		.type	sduConfigureHookI, %function
 758              	sduConfigureHookI:
 759              	.LFB270:
 760              		.loc 1 270 0
 761              		.cfi_startproc
 762              		@ args = 0, pretend = 0, frame = 0
 763              		@ frame_needed = 0, uses_anonymous_args = 0
 764              	.LVL71:
 765 0000 70B5     		push	{r4, r5, r6, lr}
 766              		.cfi_def_cfa_offset 16
 767              		.cfi_offset 4, -16
 768              		.cfi_offset 5, -12
 769              		.cfi_offset 6, -8
 770              		.cfi_offset 14, -4
 771              		.loc 1 271 0
 772 0002 D0F85432 		ldr	r3, [r0, #596]
 773              		.loc 1 273 0
 774 0006 00F10C06 		add	r6, r0, #12
 775              		.loc 1 270 0
 776 000a 0446     		mov	r4, r0
 777              		.loc 1 273 0
 778 000c 3046     		mov	r0, r6
 779              	.LVL72:
 780              		.loc 1 271 0
 781 000e 1D68     		ldr	r5, [r3]
 782              	.LVL73:
 783              		.loc 1 273 0
 784 0010 FFF7FEFF 		bl	chIQResetI
 785              	.LVL74:
 786              		.loc 1 274 0
 787 0014 04F13000 		add	r0, r4, #48
 788 0018 FFF7FEFF 		bl	chOQResetI
 789              	.LVL75:
 790              	.LBB260:
 791              	.LBB261:
 792              		.loc 5 844 0
 793 001c 201D     		adds	r0, r4, #4
 794              	.LVL76:
 795 001e 0121     		movs	r1, #1
 796 0020 FFF7FEFF 		bl	chEvtBroadcastFlagsI
 797              	.LVL77:
 798              	.LBE261:
ARM GAS  /tmp/ccbSTq1A.s 			page 15


 799              	.LBE260:
 800              		.loc 1 279 0
 801 0024 D4F85432 		ldr	r3, [r4, #596]
 802 0028 5979     		ldrb	r1, [r3, #5]	@ zero_extendqisi2
 803 002a 05EB8103 		add	r3, r5, r1, lsl #2
 804              		.loc 1 278 0
 805 002e 2846     		mov	r0, r5
 806              		.loc 1 279 0
 807 0030 DB68     		ldr	r3, [r3, #12]
 808              		.loc 1 278 0
 809 0032 3246     		mov	r2, r6
 810 0034 5B8A     		ldrh	r3, [r3, #18]
 811 0036 FFF7FEFF 		bl	usbPrepareQueuedReceive
 812              	.LVL78:
 813              		.loc 1 280 0
 814 003a D4F85432 		ldr	r3, [r4, #596]
 815 003e 2846     		mov	r0, r5
 816 0040 5979     		ldrb	r1, [r3, #5]	@ zero_extendqisi2
 817              		.loc 1 281 0
 818 0042 BDE87040 		pop	{r4, r5, r6, lr}
 819              		.cfi_restore 14
 820              		.cfi_restore 6
 821              		.cfi_restore 5
 822              		.cfi_restore 4
 823              		.cfi_def_cfa_offset 0
 824              	.LVL79:
 825              		.loc 1 280 0
 826 0046 FFF7FEBF 		b	usbStartReceiveI
 827              	.LVL80:
 828              		.cfi_endproc
 829              	.LFE270:
 830              		.size	sduConfigureHookI, .-sduConfigureHookI
 831 004a 00BF     		.section	.text.sduRequestsHook,"ax",%progbits
 832              		.align	2
 833              		.p2align 4,,15
 834              		.global	sduRequestsHook
 835              		.thumb
 836              		.thumb_func
 837              		.type	sduRequestsHook, %function
 838              	sduRequestsHook:
 839              	.LFB271:
 840              		.loc 1 298 0
 841              		.cfi_startproc
 842              		@ args = 0, pretend = 0, frame = 0
 843              		@ frame_needed = 0, uses_anonymous_args = 0
 844              		@ link register save eliminated.
 845              	.LVL81:
 846              		.loc 1 300 0
 847 0000 90F84430 		ldrb	r3, [r0, #68]	@ zero_extendqisi2
 848 0004 03F06003 		and	r3, r3, #96
 849 0008 202B     		cmp	r3, #32
 850 000a 01D0     		beq	.L47
 851              	.L46:
 852              		.loc 1 313 0
 853 000c 0020     		movs	r0, #0
 854              	.LVL82:
 855              		.loc 1 317 0
ARM GAS  /tmp/ccbSTq1A.s 			page 16


 856 000e 7047     		bx	lr
 857              	.LVL83:
 858              	.L47:
 859              		.loc 1 301 0
 860 0010 90F84530 		ldrb	r3, [r0, #69]	@ zero_extendqisi2
 861 0014 212B     		cmp	r3, #33
 862 0016 03D0     		beq	.L43
 863 0018 222B     		cmp	r3, #34
 864 001a 09D0     		beq	.L42
 865 001c 202B     		cmp	r3, #32
 866 001e F5D1     		bne	.L46
 867              	.L43:
 868              		.loc 1 306 0
 869 0020 064B     		ldr	r3, .L48
 870 0022 8363     		str	r3, [r0, #56]
 871 0024 0722     		movs	r2, #7
 872 0026 0023     		movs	r3, #0
 873 0028 C263     		str	r2, [r0, #60]
 874 002a 0364     		str	r3, [r0, #64]
 875              		.loc 1 307 0
 876 002c 0120     		movs	r0, #1
 877              	.LVL84:
 878 002e 7047     		bx	lr
 879              	.LVL85:
 880              	.L42:
 881              		.loc 1 310 0
 882 0030 0023     		movs	r3, #0
 883 0032 8363     		str	r3, [r0, #56]
 884 0034 C363     		str	r3, [r0, #60]
 885 0036 0364     		str	r3, [r0, #64]
 886              		.loc 1 311 0
 887 0038 0120     		movs	r0, #1
 888              	.LVL86:
 889 003a 7047     		bx	lr
 890              	.L49:
 891              		.align	2
 892              	.L48:
 893 003c 00000000 		.word	.LANCHOR1
 894              		.cfi_endproc
 895              	.LFE271:
 896              		.size	sduRequestsHook, .-sduRequestsHook
 897              		.section	.text.sduDataTransmitted,"ax",%progbits
 898              		.align	2
 899              		.p2align 4,,15
 900              		.global	sduDataTransmitted
 901              		.thumb
 902              		.thumb_func
 903              		.type	sduDataTransmitted, %function
 904              	sduDataTransmitted:
 905              	.LFB272:
 906              		.loc 1 327 0
 907              		.cfi_startproc
 908              		@ args = 0, pretend = 0, frame = 0
 909              		@ frame_needed = 0, uses_anonymous_args = 0
 910              	.LVL87:
 911 0000 F8B5     		push	{r3, r4, r5, r6, r7, lr}
 912              		.cfi_def_cfa_offset 24
ARM GAS  /tmp/ccbSTq1A.s 			page 17


 913              		.cfi_offset 3, -24
 914              		.cfi_offset 4, -20
 915              		.cfi_offset 5, -16
 916              		.cfi_offset 6, -12
 917              		.cfi_offset 7, -8
 918              		.cfi_offset 14, -4
 919              		.loc 1 329 0
 920 0002 00EB8103 		add	r3, r0, r1, lsl #2
 921 0006 9C69     		ldr	r4, [r3, #24]
 922              	.LVL88:
 923              		.loc 1 331 0
 924 0008 BCB1     		cbz	r4, .L50
 925              	.LVL89:
 926 000a 0E46     		mov	r6, r1
 927 000c 0546     		mov	r5, r0
 928              	.LBB262:
 929              	.LBB263:
 930              	.LBB264:
 931              	.LBB265:
 932              	.LBB266:
 933              	.LBB267:
 934              		.loc 3 546 0
 935 000e 2027     		movs	r7, #32
 936              	@ 546 "ChibiOS_3.0.2/os/ext/CMSIS/include/core_cmFunc.h" 1
 937 0010 87F31188 		MSR basepri, r7
 938              	@ 0 "" 2
 939              	.LVL90:
 940              		.thumb
 941              	.LBE267:
 942              	.LBE266:
 943              	.LBE265:
 944              	.LBE264:
 945              	.LBE263:
 946              	.LBE262:
 947              	.LBB268:
 948              	.LBB269:
 949              		.loc 5 844 0
 950 0014 0821     		movs	r1, #8
 951              	.LVL91:
 952 0016 201D     		adds	r0, r4, #4
 953              	.LVL92:
 954 0018 FFF7FEFF 		bl	chEvtBroadcastFlagsI
 955              	.LVL93:
 956              	.LBE269:
 957              	.LBE268:
 958              	.LBB270:
 959              	.LBB271:
 960              		.loc 2 357 0
 961 001c 226C     		ldr	r2, [r4, #64]
 962 001e E36B     		ldr	r3, [r4, #60]
 963 0020 A16B     		ldr	r1, [r4, #56]
 964 0022 D31A     		subs	r3, r2, r3
 965              	.LBE271:
 966              	.LBE270:
 967              		.loc 1 339 0
 968 0024 5B1A     		subs	r3, r3, r1
 969 0026 10D1     		bne	.L62
ARM GAS  /tmp/ccbSTq1A.s 			page 18


 970              		.loc 1 349 0
 971 0028 05EB8603 		add	r3, r5, r6, lsl #2
 972 002c DB68     		ldr	r3, [r3, #12]
 973 002e 5A69     		ldr	r2, [r3, #20]
 974 0030 5268     		ldr	r2, [r2, #4]
 975 0032 1AB9     		cbnz	r2, .L63
 976              	.L53:
 977              	.LVL94:
 978              	.LBB272:
 979              	.LBB273:
 980              	.LBB274:
 981              	.LBB275:
 982              	.LBB276:
 983              	.LBB277:
 984              		.loc 3 546 0
 985 0034 0023     		movs	r3, #0
 986              	@ 546 "ChibiOS_3.0.2/os/ext/CMSIS/include/core_cmFunc.h" 1
 987 0036 83F31188 		MSR basepri, r3
 988              	@ 0 "" 2
 989              	.LVL95:
 990              		.thumb
 991              	.L50:
 992 003a F8BD     		pop	{r3, r4, r5, r6, r7, pc}
 993              	.LVL96:
 994              	.L63:
 995              	.LBE277:
 996              	.LBE276:
 997              	.LBE275:
 998              	.LBE274:
 999              	.LBE273:
 1000              	.LBE272:
 1001              		.loc 1 351 0 discriminator 1
 1002 003c 1B8A     		ldrh	r3, [r3, #16]
 1003 003e 013B     		subs	r3, r3, #1
 1004              		.loc 1 349 0 discriminator 1
 1005 0040 1340     		ands	r3, r3, r2
 1006 0042 F7D1     		bne	.L53
 1007              	.LVL97:
 1008              	.LBB278:
 1009              	.LBB279:
 1010              	.LBB280:
 1011              	.LBB281:
 1012              	.LBB282:
 1013              	.LBB283:
 1014              		.loc 3 546 0
 1015              	@ 546 "ChibiOS_3.0.2/os/ext/CMSIS/include/core_cmFunc.h" 1
 1016 0044 83F31188 		MSR basepri, r3
 1017              	@ 0 "" 2
 1018              		.thumb
 1019 0048 02E0     		b	.L61
 1020              	.LVL98:
 1021              	.L62:
 1022              	.LBE283:
 1023              	.LBE282:
 1024              	.LBE281:
 1025              	.LBE280:
 1026              	.LBE279:
ARM GAS  /tmp/ccbSTq1A.s 			page 19


 1027              	.LBE278:
 1028              	.LBB284:
 1029              	.LBB285:
 1030              	.LBB286:
 1031              	.LBB287:
 1032              	.LBB288:
 1033              	.LBB289:
 1034 004a 0022     		movs	r2, #0
 1035              	@ 546 "ChibiOS_3.0.2/os/ext/CMSIS/include/core_cmFunc.h" 1
 1036 004c 82F31188 		MSR basepri, r2
 1037              	@ 0 "" 2
 1038              	.LVL99:
 1039              		.thumb
 1040              	.L61:
 1041              	.LBE289:
 1042              	.LBE288:
 1043              	.LBE287:
 1044              	.LBE286:
 1045              	.LBE285:
 1046              	.LBE284:
 1047              		.loc 1 358 0
 1048 0050 04F13002 		add	r2, r4, #48
 1049 0054 2846     		mov	r0, r5
 1050 0056 3146     		mov	r1, r6
 1051 0058 FFF7FEFF 		bl	usbPrepareQueuedTransmit
 1052              	.LVL100:
 1053              	.LBB290:
 1054              	.LBB291:
 1055              	.LBB292:
 1056              	.LBB293:
 1057              	.LBB294:
 1058              	.LBB295:
 1059              		.loc 3 546 0
 1060              	@ 546 "ChibiOS_3.0.2/os/ext/CMSIS/include/core_cmFunc.h" 1
 1061 005c 87F31188 		MSR basepri, r7
 1062              	@ 0 "" 2
 1063              		.thumb
 1064              	.LBE295:
 1065              	.LBE294:
 1066              	.LBE293:
 1067              	.LBE292:
 1068              	.LBE291:
 1069              	.LBE290:
 1070              		.loc 1 361 0
 1071 0060 2846     		mov	r0, r5
 1072 0062 3146     		mov	r1, r6
 1073 0064 FFF7FEFF 		bl	usbStartTransmitI
 1074              	.LVL101:
 1075 0068 E4E7     		b	.L53
 1076              		.cfi_endproc
 1077              	.LFE272:
 1078              		.size	sduDataTransmitted, .-sduDataTransmitted
 1079 006a 00BF     		.section	.text.sduDataReceived,"ax",%progbits
 1080              		.align	2
 1081              		.p2align 4,,15
 1082              		.global	sduDataReceived
 1083              		.thumb
ARM GAS  /tmp/ccbSTq1A.s 			page 20


 1084              		.thumb_func
 1085              		.type	sduDataReceived, %function
 1086              	sduDataReceived:
 1087              	.LFB273:
 1088              		.loc 1 376 0
 1089              		.cfi_startproc
 1090              		@ args = 0, pretend = 0, frame = 0
 1091              		@ frame_needed = 0, uses_anonymous_args = 0
 1092              	.LVL102:
 1093 0000 2DE9F843 		push	{r3, r4, r5, r6, r7, r8, r9, lr}
 1094              		.cfi_def_cfa_offset 32
 1095              		.cfi_offset 3, -32
 1096              		.cfi_offset 4, -28
 1097              		.cfi_offset 5, -24
 1098              		.cfi_offset 6, -20
 1099              		.cfi_offset 7, -16
 1100              		.cfi_offset 8, -12
 1101              		.cfi_offset 9, -8
 1102              		.cfi_offset 14, -4
 1103              		.loc 1 378 0
 1104 0004 01F10903 		add	r3, r1, #9
 1105 0008 50F82360 		ldr	r6, [r0, r3, lsl #2]
 1106              	.LVL103:
 1107              		.loc 1 380 0
 1108 000c BEB1     		cbz	r6, .L64
 1109              	.LVL104:
 1110 000e 8046     		mov	r8, r0
 1111 0010 0F46     		mov	r7, r1
 1112              	.LBB296:
 1113              	.LBB297:
 1114              	.LBB298:
 1115              	.LBB299:
 1116              	.LBB300:
 1117              	.LBB301:
 1118              		.loc 3 546 0
 1119 0012 4FF02009 		mov	r9, #32
 1120              	@ 546 "ChibiOS_3.0.2/os/ext/CMSIS/include/core_cmFunc.h" 1
 1121 0016 89F31188 		MSR basepri, r9
 1122              	@ 0 "" 2
 1123              	.LVL105:
 1124              		.thumb
 1125              	.LBE301:
 1126              	.LBE300:
 1127              	.LBE299:
 1128              	.LBE298:
 1129              	.LBE297:
 1130              	.LBE296:
 1131              	.LBB302:
 1132              	.LBB303:
 1133              		.loc 5 844 0
 1134 001a 0421     		movs	r1, #4
 1135              	.LVL106:
 1136 001c 7018     		adds	r0, r6, r1
 1137              	.LVL107:
 1138 001e FFF7FEFF 		bl	chEvtBroadcastFlagsI
 1139              	.LVL108:
 1140              	.LBE303:
ARM GAS  /tmp/ccbSTq1A.s 			page 21


 1141              	.LBE302:
 1142              		.loc 1 389 0
 1143 0022 08EB8703 		add	r3, r8, r7, lsl #2
 1144              	.LBB304:
 1145              	.LBB305:
 1146              		.loc 2 290 0
 1147 0026 B469     		ldr	r4, [r6, #24]
 1148              	.LBE305:
 1149              	.LBE304:
 1150              		.loc 1 389 0
 1151 0028 DA68     		ldr	r2, [r3, #12]
 1152              	.LBB308:
 1153              	.LBB306:
 1154              		.loc 2 290 0
 1155 002a F569     		ldr	r5, [r6, #28]
 1156 002c 7369     		ldr	r3, [r6, #20]
 1157              	.LBE306:
 1158              	.LBE308:
 1159              		.loc 1 389 0
 1160 002e 518A     		ldrh	r1, [r2, #18]
 1161              	.LVL109:
 1162              	.LBB309:
 1163              	.LBB307:
 1164              		.loc 2 290 0
 1165 0030 2D1B     		subs	r5, r5, r4
 1166 0032 EC1A     		subs	r4, r5, r3
 1167              	.LBE307:
 1168              	.LBE309:
 1169              		.loc 1 390 0
 1170 0034 A142     		cmp	r1, r4
 1171 0036 04D9     		bls	.L71
 1172              	.LVL110:
 1173              	.L66:
 1174              	.LBB310:
 1175              	.LBB311:
 1176              	.LBB312:
 1177              	.LBB313:
 1178              	.LBB314:
 1179              	.LBB315:
 1180              		.loc 3 546 0
 1181 0038 0023     		movs	r3, #0
 1182              	@ 546 "ChibiOS_3.0.2/os/ext/CMSIS/include/core_cmFunc.h" 1
 1183 003a 83F31188 		MSR basepri, r3
 1184              	@ 0 "" 2
 1185              	.LVL111:
 1186              		.thumb
 1187              	.L64:
 1188 003e BDE8F883 		pop	{r3, r4, r5, r6, r7, r8, r9, pc}
 1189              	.LVL112:
 1190              	.L71:
 1191              	.LBE315:
 1192              	.LBE314:
 1193              	.LBE313:
 1194              	.LBE312:
 1195              	.LBE311:
 1196              	.LBE310:
 1197              	.LBB316:
ARM GAS  /tmp/ccbSTq1A.s 			page 22


 1198              	.LBB317:
 1199              	.LBB318:
 1200              	.LBB319:
 1201              	.LBB320:
 1202              	.LBB321:
 1203 0042 0023     		movs	r3, #0
 1204              	@ 546 "ChibiOS_3.0.2/os/ext/CMSIS/include/core_cmFunc.h" 1
 1205 0044 83F31188 		MSR basepri, r3
 1206              	@ 0 "" 2
 1207              	.LVL113:
 1208              		.thumb
 1209              	.LBE321:
 1210              	.LBE320:
 1211              	.LBE319:
 1212              	.LBE318:
 1213              	.LBE317:
 1214              	.LBE316:
 1215              		.loc 1 395 0
 1216 0048 B4FBF1F3 		udiv	r3, r4, r1
 1217              		.loc 1 396 0
 1218 004c 06F10C02 		add	r2, r6, #12
 1219 0050 01FB03F3 		mul	r3, r1, r3
 1220              	.LVL114:
 1221 0054 4046     		mov	r0, r8
 1222 0056 3946     		mov	r1, r7
 1223              	.LVL115:
 1224 0058 FFF7FEFF 		bl	usbPrepareQueuedReceive
 1225              	.LVL116:
 1226              	.LBB322:
 1227              	.LBB323:
 1228              	.LBB324:
 1229              	.LBB325:
 1230              	.LBB326:
 1231              	.LBB327:
 1232              		.loc 3 546 0
 1233              	@ 546 "ChibiOS_3.0.2/os/ext/CMSIS/include/core_cmFunc.h" 1
 1234 005c 89F31188 		MSR basepri, r9
 1235              	@ 0 "" 2
 1236              		.thumb
 1237              	.LBE327:
 1238              	.LBE326:
 1239              	.LBE325:
 1240              	.LBE324:
 1241              	.LBE323:
 1242              	.LBE322:
 1243              		.loc 1 399 0
 1244 0060 4046     		mov	r0, r8
 1245 0062 3946     		mov	r1, r7
 1246 0064 FFF7FEFF 		bl	usbStartReceiveI
 1247              	.LVL117:
 1248 0068 E6E7     		b	.L66
 1249              		.cfi_endproc
 1250              	.LFE273:
 1251              		.size	sduDataReceived, .-sduDataReceived
 1252 006a 00BF     		.section	.text.sduInterruptTransmitted,"ax",%progbits
 1253              		.align	2
 1254              		.p2align 4,,15
ARM GAS  /tmp/ccbSTq1A.s 			page 23


 1255              		.global	sduInterruptTransmitted
 1256              		.thumb
 1257              		.thumb_func
 1258              		.type	sduInterruptTransmitted, %function
 1259              	sduInterruptTransmitted:
 1260              	.LFB274:
 1261              		.loc 1 412 0
 1262              		.cfi_startproc
 1263              		@ args = 0, pretend = 0, frame = 0
 1264              		@ frame_needed = 0, uses_anonymous_args = 0
 1265              		@ link register save eliminated.
 1266              	.LVL118:
 1267 0000 7047     		bx	lr
 1268              		.cfi_endproc
 1269              	.LFE274:
 1270              		.size	sduInterruptTransmitted, .-sduInterruptTransmitted
 1271 0002 00BF     		.section	.rodata.vmt,"a",%progbits
 1272              		.align	2
 1273              		.set	.LANCHOR0,. + 0
 1274              		.type	vmt, %object
 1275              		.size	vmt, 32
 1276              	vmt:
 1277 0000 00000000 		.word	write
 1278 0004 00000000 		.word	read
 1279 0008 00000000 		.word	put
 1280 000c 00000000 		.word	get
 1281 0010 00000000 		.word	putt
 1282 0014 00000000 		.word	gett
 1283 0018 00000000 		.word	writet
 1284 001c 00000000 		.word	readt
 1285              		.section	.data.linecoding,"aw",%progbits
 1286              		.align	2
 1287              		.set	.LANCHOR1,. + 0
 1288              		.type	linecoding, %object
 1289              		.size	linecoding, 7
 1290              	linecoding:
 1291 0000 00       		.byte	0
 1292 0001 96       		.byte	-106
 1293 0002 00       		.byte	0
 1294 0003 00       		.byte	0
 1295 0004 00       		.byte	0
 1296 0005 00       		.byte	0
 1297 0006 08       		.byte	8
 1298              		.text
 1299              	.Letext0:
 1300              		.file 6 "/usr/lib/gcc/arm-none-eabi/4.9.3/include/stddef.h"
 1301              		.file 7 "/usr/arm-none-eabi/include/machine/_default_types.h"
 1302              		.file 8 "/usr/arm-none-eabi/include/sys/_stdint.h"
 1303              		.file 9 "ChibiOS_3.0.2/os/rt/ports/ARMCMx/compilers/GCC/chtypes.h"
 1304              		.file 10 "ChibiOS_3.0.2/os/rt/include/chsystypes.h"
 1305              		.file 11 "ChibiOS_3.0.2/os/rt/include/chschd.h"
 1306              		.file 12 "ChibiOS_3.0.2/os/rt/ports/ARMCMx/chcore.h"
 1307              		.file 13 "ChibiOS_3.0.2/os/rt/ports/ARMCMx/chcore_v7m.h"
 1308              		.file 14 "ChibiOS_3.0.2/os/rt/include/chtm.h"
 1309              		.file 15 "ChibiOS_3.0.2/os/rt/include/chsem.h"
 1310              		.file 16 "ChibiOS_3.0.2/os/rt/include/chmtx.h"
 1311              		.file 17 "ChibiOS_3.0.2/os/hal/include/usb.h"
ARM GAS  /tmp/ccbSTq1A.s 			page 24


 1312              		.file 18 "ChibiOS_3.0.2/os/hal/ports/STM32/LLD/OTGv1/usb_lld.h"
 1313              		.file 19 "ChibiOS_3.0.2/os/hal/ports/STM32/LLD/OTGv1/stm32_otg.h"
 1314              		.file 20 "ChibiOS_3.0.2/os/hal/include/serial_usb.h"
 1315              		.file 21 "ChibiOS_3.0.2/os/rt/include/chsys.h"
 1316              		.file 22 "ChibiOS_3.0.2/os/ext/CMSIS/include/core_cm4.h"