ARM GAS  /tmp/ccs1tseK.s 			page 1


   1              		.syntax unified
   2              		.cpu cortex-m4
   3              		.eabi_attribute 27, 1
   4              		.eabi_attribute 28, 1
   5              		.fpu fpv4-sp-d16
   6              		.eabi_attribute 20, 1
   7              		.eabi_attribute 21, 1
   8              		.eabi_attribute 23, 3
   9              		.eabi_attribute 24, 1
  10              		.eabi_attribute 25, 1
  11              		.eabi_attribute 26, 1
  12              		.eabi_attribute 30, 2
  13              		.eabi_attribute 34, 1
  14              		.eabi_attribute 18, 4
  15              		.thumb
  16              		.file	"servo_dec.c"
  17              		.text
  18              	.Ltext0:
  19              		.cfi_sections	.debug_frame
  20              		.section	.text.icuperiodcb,"ax",%progbits
  21              		.align	2
  22              		.p2align 4,,15
  23              		.thumb
  24              		.thumb_func
  25              		.type	icuperiodcb, %function
  26              	icuperiodcb:
  27              	.LFB257:
  28              		.file 1 "servo_dec.c"
  29              		.loc 1 93 0
  30              		.cfi_startproc
  31              		@ args = 0, pretend = 0, frame = 0
  32              		@ frame_needed = 0, uses_anonymous_args = 0
  33              		@ link register save eliminated.
  34              	.LVL0:
  35 0000 7047     		bx	lr
  36              		.cfi_endproc
  37              	.LFE257:
  38              		.size	icuperiodcb, .-icuperiodcb
  39 0002 00BF     		.section	.text.icuwidthcb,"ax",%progbits
  40              		.align	2
  41              		.p2align 4,,15
  42              		.thumb
  43              		.thumb_func
  44              		.type	icuwidthcb, %function
  45              	icuwidthcb:
  46              	.LFB256:
  47              		.loc 1 49 0
  48              		.cfi_startproc
  49              		@ args = 0, pretend = 0, frame = 0
  50              		@ frame_needed = 0, uses_anonymous_args = 0
  51              	.LVL1:
  52              		.loc 1 50 0
  53 0000 0369     		ldr	r3, [r0, #16]
  54 0002 9FED407A 		flds	s14, .L25
  55 0006 1B68     		ldr	r3, [r3]
  56 0008 3F49     		ldr	r1, .L25+4
  57              		.loc 1 51 0
ARM GAS  /tmp/ccs1tseK.s 			page 2


  58 000a 404A     		ldr	r2, .L25+8
  59              		.loc 1 52 0
  60 000c 4048     		ldr	r0, .L25+12
  61              	.LVL2:
  62              		.loc 1 50 0
  63 000e 0133     		adds	r3, r3, #1
  64 0010 07EE903A 		fmsr	s15, r3	@ int
  65 0014 F8EE677A 		fuitos	s15, s15
  66              		.loc 1 49 0
  67 0018 70B5     		push	{r4, r5, r6, lr}
  68              		.cfi_def_cfa_offset 16
  69              		.cfi_offset 4, -16
  70              		.cfi_offset 5, -12
  71              		.cfi_offset 6, -8
  72              		.cfi_offset 14, -4
  73              		.loc 1 50 0
  74 001a C7EE877A 		fdivs	s15, s15, s14
  75              		.loc 1 49 0
  76 001e 2DED028B 		fstmfdd	sp!, {d8}
  77              		.cfi_def_cfa_offset 24
  78              		.cfi_offset 80, -24
  79              		.cfi_offset 81, -20
  80              		.loc 1 50 0
  81 0022 C1ED007A 		fsts	s15, [r1]
  82              		.loc 1 51 0
  83 0026 D1ED007A 		flds	s15, [r1]
  84 002a D2ED006A 		flds	s13, [r2]
  85              		.loc 1 52 0
  86 002e 90ED007A 		flds	s14, [r0]
  87 0032 92ED008A 		flds	s16, [r2]
  88              		.loc 1 51 0
  89 0036 77EEE67A 		fsubs	s15, s15, s13
  90              	.LVL3:
  91              		.loc 1 52 0
  92 003a 37EE488A 		fsubs	s16, s14, s16
  93              	.LVL4:
  94              		.loc 1 54 0
  95 003e F4EEC87A 		fcmpes	s15, s16
  96 0042 F1EE10FA 		fmstat
  97 0046 2DDD     		ble	.L21
  98              		.loc 1 55 0
  99 0048 9FED327A 		flds	s14, .L25+16
 100 004c 28EE077A 		fmuls	s14, s16, s14
 101 0050 F4EEC77A 		fcmpes	s15, s14
 102 0054 F1EE10FA 		fmstat
 103 0058 3BD5     		bpl	.L2
 104              		.loc 1 56 0
 105 005a F0EE487A 		fcpys	s15, s16
 106              	.LVL5:
 107              	.L5:
 108              		.loc 1 70 0
 109 005e F5EEC07A 		fcmpezs	s15
 110 0062 F1EE10FA 		fmstat
 111 0066 34DB     		blt	.L2
 112 0068 77EEA77A 		fadds	s15, s15, s15
 113              	.LVL6:
 114              	.L8:
ARM GAS  /tmp/ccs1tseK.s 			page 3


 115              		.loc 1 71 0
 116 006c 2A4B     		ldr	r3, .L25+20
 117 006e 1B78     		ldrb	r3, [r3]	@ zero_extendqisi2
 118 0070 93BB     		cbnz	r3, .L24
 119              		.loc 1 82 0
 120 0072 77EEC87A 		fsubs	s15, s15, s16
 121 0076 294B     		ldr	r3, .L25+24
 122 0078 C7EE887A 		fdivs	s15, s15, s16
 123 007c C3ED007A 		fsts	s15, [r3]
 124              	.LVL7:
 125              	.L12:
 126              	.LBB46:
 127              	.LBB47:
 128              	.LBB48:
 129              	.LBB49:
 130              	.LBB50:
 131              	.LBB51:
 132              		.file 2 "ChibiOS_3.0.2/os/ext/CMSIS/include/core_cmFunc.h"
 133              		.loc 2 546 0
 134 0080 2023     		movs	r3, #32
 135              	@ 546 "ChibiOS_3.0.2/os/ext/CMSIS/include/core_cmFunc.h" 1
 136 0082 83F31188 		MSR basepri, r3
 137              	@ 0 "" 2
 138              		.thumb
 139              	.LBE51:
 140              	.LBE50:
 141              	.LBE49:
 142              	.LBE48:
 143              	.LBB52:
 144              	.LBB53:
 145              		.file 3 "ChibiOS_3.0.2/os/rt/include/chvt.h"
 146              		.loc 3 231 0
 147 0086 264A     		ldr	r2, .L25+28
 148              	.LBE53:
 149              	.LBE52:
 150              	.LBB55:
 151              	.LBB56:
 152              	.LBB57:
 153              	.LBB58:
 154              	.LBB59:
 155              		.loc 2 546 0
 156 0088 0023     		movs	r3, #0
 157              	.LBE59:
 158              	.LBE58:
 159              	.LBE57:
 160              	.LBE56:
 161              	.LBE55:
 162              	.LBB64:
 163              	.LBB54:
 164              		.loc 3 231 0
 165 008a 916A     		ldr	r1, [r2, #40]
 166              	.LVL8:
 167              	.LBE54:
 168              	.LBE64:
 169              	.LBB65:
 170              	.LBB63:
 171              	.LBB62:
ARM GAS  /tmp/ccs1tseK.s 			page 4


 172              	.LBB61:
 173              	.LBB60:
 174              		.loc 2 546 0
 175              	@ 546 "ChibiOS_3.0.2/os/ext/CMSIS/include/core_cmFunc.h" 1
 176 008c 83F31188 		MSR basepri, r3
 177              	@ 0 "" 2
 178              		.thumb
 179              	.LBE60:
 180              	.LBE61:
 181              	.LBE62:
 182              	.LBE63:
 183              	.LBE65:
 184              	.LBE47:
 185              	.LBE46:
 186              		.loc 1 87 0
 187 0090 244B     		ldr	r3, .L25+32
 188              		.loc 1 85 0
 189 0092 254A     		ldr	r2, .L25+36
 190              		.loc 1 87 0
 191 0094 1B68     		ldr	r3, [r3]
 192              		.loc 1 85 0
 193 0096 1160     		str	r1, [r2]
 194              		.loc 1 87 0
 195 0098 DBB1     		cbz	r3, .L2
 196              		.loc 1 91 0
 197 009a BDEC028B 		fldmfdd	sp!, {d8}
 198              		.cfi_remember_state
 199              		.cfi_restore 80
 200              		.cfi_restore 81
 201              		.cfi_def_cfa_offset 16
 202 009e BDE87040 		pop	{r4, r5, r6, lr}
 203              		.cfi_restore 14
 204              		.cfi_restore 6
 205              		.cfi_restore 5
 206              		.cfi_restore 4
 207              		.cfi_def_cfa_offset 0
 208              		.loc 1 88 0
 209 00a2 1847     		bx	r3	@ indirect register sibling call
 210              	.LVL9:
 211              	.L21:
 212              		.cfi_restore_state
 213              		.loc 1 61 0
 214 00a4 F5EEC07A 		fcmpezs	s15
 215 00a8 F1EE10FA 		fmstat
 216 00ac D7D5     		bpl	.L5
 217              		.loc 1 62 0
 218 00ae 92ED007A 		flds	s14, [r2]
 219 00b2 9FED1E6A 		flds	s12, .L25+40
 220 00b6 D2ED006A 		flds	s13, [r2]
 221 00ba 37EE877A 		fadds	s14, s15, s14
 222 00be 66EE867A 		fmuls	s15, s13, s12
 223              	.LVL10:
 224 00c2 B4EEE77A 		fcmpes	s14, s15
 225 00c6 F1EE10FA 		fmstat
 226 00ca 02DD     		ble	.L2
 227 00cc DFED187A 		flds	s15, .L25+44
 228 00d0 CCE7     		b	.L8
ARM GAS  /tmp/ccs1tseK.s 			page 5


 229              	.LVL11:
 230              	.L2:
 231              		.loc 1 91 0
 232 00d2 BDEC028B 		fldmfdd	sp!, {d8}
 233              		.cfi_remember_state
 234              		.cfi_restore 80
 235              		.cfi_restore 81
 236              		.cfi_def_cfa_offset 16
 237 00d6 70BD     		pop	{r4, r5, r6, pc}
 238              	.LVL12:
 239              	.L24:
 240              		.cfi_restore_state
 241              	.LBB66:
 242              		.loc 1 72 0
 243 00d8 37EEC87A 		fsubs	s14, s15, s16
 244              		.loc 1 75 0
 245 00dc 154C     		ldr	r4, .L25+48
 246 00de 164D     		ldr	r5, .L25+52
 247 00e0 D4ED000A 		flds	s1, [r4]
 248 00e4 95ED001A 		flds	s2, [r5]
 249              		.loc 1 72 0
 250 00e8 87EE088A 		fdivs	s16, s14, s16
 251              	.LVL13:
 252              		.loc 1 75 0
 253 00ec B0EE480A 		fcpys	s0, s16
 254 00f0 FFF7FEFF 		bl	utils_middle_of_3
 255              	.LVL14:
 256              		.loc 1 80 0
 257 00f4 094B     		ldr	r3, .L25+24
 258              		.loc 1 77 0
 259 00f6 2268     		ldr	r2, [r4]	@ float
 260 00f8 2A60     		str	r2, [r5]	@ float
 261              		.loc 1 78 0
 262 00fa 84ED008A 		fsts	s16, [r4]
 263              		.loc 1 80 0
 264 00fe 83ED000A 		fsts	s0, [r3]
 265              	.LBE66:
 266 0102 BDE7     		b	.L12
 267              	.L26:
 268              		.align	2
 269              	.L25:
 270 0104 00007A44 		.word	1148846080
 271 0108 00000000 		.word	.LANCHOR0
 272 010c 00000000 		.word	.LANCHOR1
 273 0110 00000000 		.word	.LANCHOR2
 274 0114 9A99993F 		.word	1067030938
 275 0118 00000000 		.word	.LANCHOR3
 276 011c 00000000 		.word	.LANCHOR6
 277 0120 00000000 		.word	ch
 278 0124 00000000 		.word	.LANCHOR8
 279 0128 00000000 		.word	.LANCHOR7
 280 012c CDCC4C3F 		.word	1061997773
 281 0130 00000000 		.word	0
 282 0134 00000000 		.word	.LANCHOR4
 283 0138 00000000 		.word	.LANCHOR5
 284              		.cfi_endproc
 285              	.LFE256:
ARM GAS  /tmp/ccs1tseK.s 			page 6


 286              		.size	icuwidthcb, .-icuwidthcb
 287              		.section	.text.servodec_init,"ax",%progbits
 288              		.align	2
 289              		.p2align 4,,15
 290              		.global	servodec_init
 291              		.thumb
 292              		.thumb_func
 293              		.type	servodec_init, %function
 294              	servodec_init:
 295              	.LFB258:
 296              		.loc 1 114 0
 297              		.cfi_startproc
 298              		@ args = 0, pretend = 0, frame = 0
 299              		@ frame_needed = 0, uses_anonymous_args = 0
 300              	.LVL15:
 301 0000 38B5     		push	{r3, r4, r5, lr}
 302              		.cfi_def_cfa_offset 16
 303              		.cfi_offset 3, -16
 304              		.cfi_offset 4, -12
 305              		.cfi_offset 5, -8
 306              		.cfi_offset 14, -4
 307              		.loc 1 115 0
 308 0002 0D4C     		ldr	r4, .L29
 309 0004 0D49     		ldr	r1, .L29+4
 310              		.loc 1 114 0
 311 0006 0546     		mov	r5, r0
 312              		.loc 1 115 0
 313 0008 2046     		mov	r0, r4
 314              	.LVL16:
 315 000a FFF7FEFF 		bl	icuStart
 316              	.LVL17:
 317              		.loc 1 116 0
 318 000e 2021     		movs	r1, #32
 319 0010 4FF48172 		mov	r2, #258
 320 0014 0A48     		ldr	r0, .L29+8
 321 0016 FFF7FEFF 		bl	_pal_lld_setgroupmode
 322              	.LVL18:
 323              		.loc 1 117 0
 324 001a 2046     		mov	r0, r4
 325 001c FFF7FEFF 		bl	icuStartCapture
 326              	.LVL19:
 327              		.loc 1 118 0
 328 0020 2046     		mov	r0, r4
 329 0022 FFF7FEFF 		bl	icuEnableNotifications
 330              	.LVL20:
 331              		.loc 1 126 0
 332 0026 0748     		ldr	r0, .L29+12
 333              	.LBB67:
 334              		.loc 1 121 0
 335 0028 0749     		ldr	r1, .L29+16
 336              		.loc 1 122 0
 337 002a 084A     		ldr	r2, .L29+20
 338              	.LBE67:
 339              		.loc 1 126 0
 340 002c 0560     		str	r5, [r0]
 341              	.LBB68:
 342              		.loc 1 121 0
ARM GAS  /tmp/ccs1tseK.s 			page 7


 343 002e 0023     		movs	r3, #0
 344 0030 0B60     		str	r3, [r1]	@ float
 345              		.loc 1 122 0
 346 0032 1360     		str	r3, [r2]	@ float
 347              	.LVL21:
 348 0034 38BD     		pop	{r3, r4, r5, pc}
 349              	.LVL22:
 350              	.L30:
 351 0036 00BF     		.align	2
 352              	.L29:
 353 0038 00000000 		.word	ICUD3
 354 003c 00000000 		.word	.LANCHOR9
 355 0040 00040240 		.word	1073873920
 356 0044 00000000 		.word	.LANCHOR8
 357 0048 00000000 		.word	.LANCHOR6
 358 004c 00000000 		.word	.LANCHOR0
 359              	.LBE68:
 360              		.cfi_endproc
 361              	.LFE258:
 362              		.size	servodec_init, .-servodec_init
 363              		.section	.text.servodec_set_pulse_options,"ax",%progbits
 364              		.align	2
 365              		.p2align 4,,15
 366              		.global	servodec_set_pulse_options
 367              		.thumb
 368              		.thumb_func
 369              		.type	servodec_set_pulse_options, %function
 370              	servodec_set_pulse_options:
 371              	.LFB259:
 372              		.loc 1 138 0
 373              		.cfi_startproc
 374              		@ args = 0, pretend = 0, frame = 0
 375              		@ frame_needed = 0, uses_anonymous_args = 0
 376              		@ link register save eliminated.
 377              	.LVL23:
 378              		.loc 1 139 0
 379 0000 0449     		ldr	r1, .L32
 380              		.loc 1 140 0
 381 0002 054A     		ldr	r2, .L32+4
 382              		.loc 1 141 0
 383 0004 054B     		ldr	r3, .L32+8
 384              		.loc 1 139 0
 385 0006 81ED000A 		fsts	s0, [r1]
 386              		.loc 1 140 0
 387 000a C2ED000A 		fsts	s1, [r2]
 388              		.loc 1 141 0
 389 000e 1870     		strb	r0, [r3]
 390 0010 7047     		bx	lr
 391              	.L33:
 392 0012 00BF     		.align	2
 393              	.L32:
 394 0014 00000000 		.word	.LANCHOR1
 395 0018 00000000 		.word	.LANCHOR2
 396 001c 00000000 		.word	.LANCHOR3
 397              		.cfi_endproc
 398              	.LFE259:
 399              		.size	servodec_set_pulse_options, .-servodec_set_pulse_options
ARM GAS  /tmp/ccs1tseK.s 			page 8


 400              		.section	.text.servodec_get_servo,"ax",%progbits
 401              		.align	2
 402              		.p2align 4,,15
 403              		.global	servodec_get_servo
 404              		.thumb
 405              		.thumb_func
 406              		.type	servodec_get_servo, %function
 407              	servodec_get_servo:
 408              	.LFB260:
 409              		.loc 1 153 0
 410              		.cfi_startproc
 411              		@ args = 0, pretend = 0, frame = 0
 412              		@ frame_needed = 0, uses_anonymous_args = 0
 413              		@ link register save eliminated.
 414              	.LVL24:
 415              		.loc 1 154 0
 416 0000 0028     		cmp	r0, #0
 417              		.loc 1 155 0
 418 0002 DDBF     		ittte	le
 419 0004 034B     		ldrle	r3, .L37
 420 0006 03EB8000 		addle	r0, r3, r0, lsl #2
 421              	.LVL25:
 422 000a 90ED000A 		fldsle	s0, [r0]
 423              		.loc 1 157 0
 424 000e 9FED020A 		fldsgt	s0, .L37+4
 425              		.loc 1 159 0
 426 0012 7047     		bx	lr
 427              	.L38:
 428              		.align	2
 429              	.L37:
 430 0014 00000000 		.word	.LANCHOR6
 431 0018 00000000 		.word	0
 432              		.cfi_endproc
 433              	.LFE260:
 434              		.size	servodec_get_servo, .-servodec_get_servo
 435              		.section	.text.servodec_get_time_since_update,"ax",%progbits
 436              		.align	2
 437              		.p2align 4,,15
 438              		.global	servodec_get_time_since_update
 439              		.thumb
 440              		.thumb_func
 441              		.type	servodec_get_time_since_update, %function
 442              	servodec_get_time_since_update:
 443              	.LFB261:
 444              		.loc 1 168 0
 445              		.cfi_startproc
 446              		@ args = 0, pretend = 0, frame = 0
 447              		@ frame_needed = 0, uses_anonymous_args = 0
 448              		@ link register save eliminated.
 449              		.loc 1 169 0
 450 0000 044A     		ldr	r2, .L40
 451              	.LBB69:
 452              	.LBB70:
 453              	.LBB71:
 454              	.LBB72:
 455              		.loc 3 231 0
 456 0002 054B     		ldr	r3, .L40+4
ARM GAS  /tmp/ccs1tseK.s 			page 9


 457              	.LBE72:
 458              	.LBE71:
 459              	.LBE70:
 460              	.LBE69:
 461              		.loc 1 169 0
 462 0004 1068     		ldr	r0, [r2]
 463              	.LVL26:
 464              	.LBB77:
 465              	.LBB75:
 466              	.LBB74:
 467              	.LBB73:
 468              		.loc 3 231 0
 469 0006 9B6A     		ldr	r3, [r3, #40]
 470              	.LBE73:
 471              	.LBE74:
 472              	.LBE75:
 473              	.LBE77:
 474              		.loc 1 169 0
 475 0008 044A     		ldr	r2, .L40+8
 476              	.LBB78:
 477              	.LBB76:
 478              		.loc 3 267 0
 479 000a 181A     		subs	r0, r3, r0
 480              	.LVL27:
 481              	.LBE76:
 482              	.LBE78:
 483              		.loc 1 169 0
 484 000c A2FB0030 		umull	r3, r0, r2, r0
 485              		.loc 1 170 0
 486 0010 C008     		lsrs	r0, r0, #3
 487 0012 7047     		bx	lr
 488              	.L41:
 489              		.align	2
 490              	.L40:
 491 0014 00000000 		.word	.LANCHOR7
 492 0018 00000000 		.word	ch
 493 001c CDCCCCCC 		.word	-858993459
 494              		.cfi_endproc
 495              	.LFE261:
 496              		.size	servodec_get_time_since_update, .-servodec_get_time_since_update
 497              		.section	.text.servodec_get_last_pulse_len,"ax",%progbits
 498              		.align	2
 499              		.p2align 4,,15
 500              		.global	servodec_get_last_pulse_len
 501              		.thumb
 502              		.thumb_func
 503              		.type	servodec_get_last_pulse_len, %function
 504              	servodec_get_last_pulse_len:
 505              	.LFB262:
 506              		.loc 1 181 0
 507              		.cfi_startproc
 508              		@ args = 0, pretend = 0, frame = 0
 509              		@ frame_needed = 0, uses_anonymous_args = 0
 510              		@ link register save eliminated.
 511              	.LVL28:
 512              		.loc 1 182 0
 513 0000 0028     		cmp	r0, #0
ARM GAS  /tmp/ccs1tseK.s 			page 10


 514              		.loc 1 183 0
 515 0002 DDBF     		ittte	le
 516 0004 034B     		ldrle	r3, .L45
 517 0006 03EB8000 		addle	r0, r3, r0, lsl #2
 518              	.LVL29:
 519 000a 90ED000A 		fldsle	s0, [r0]
 520              		.loc 1 185 0
 521 000e 9FED020A 		fldsgt	s0, .L45+4
 522              		.loc 1 187 0
 523 0012 7047     		bx	lr
 524              	.L46:
 525              		.align	2
 526              	.L45:
 527 0014 00000000 		.word	.LANCHOR0
 528 0018 00000000 		.word	0
 529              		.cfi_endproc
 530              	.LFE262:
 531              		.size	servodec_get_last_pulse_len, .-servodec_get_last_pulse_len
 532              		.section	.bss.servo_pos,"aw",%nobits
 533              		.align	2
 534              		.set	.LANCHOR6,. + 0
 535              		.type	servo_pos, %object
 536              		.size	servo_pos, 4
 537              	servo_pos:
 538 0000 00000000 		.space	4
 539              		.section	.data.c2.9022,"aw",%progbits
 540              		.align	2
 541              		.set	.LANCHOR5,. + 0
 542              		.type	c2.9022, %object
 543              		.size	c2.9022, 4
 544              	c2.9022:
 545 0000 0000003F 		.word	1056964608
 546              		.section	.data.pulse_end,"aw",%progbits
 547              		.align	2
 548              		.set	.LANCHOR2,. + 0
 549              		.type	pulse_end, %object
 550              		.size	pulse_end, 4
 551              	pulse_end:
 552 0000 00000040 		.word	1073741824
 553              		.section	.bss.last_update_time,"aw",%nobits
 554              		.align	2
 555              		.set	.LANCHOR7,. + 0
 556              		.type	last_update_time, %object
 557              		.size	last_update_time, 4
 558              	last_update_time:
 559 0000 00000000 		.space	4
 560              		.section	.data.c1.9021,"aw",%progbits
 561              		.align	2
 562              		.set	.LANCHOR4,. + 0
 563              		.type	c1.9021, %object
 564              		.size	c1.9021, 4
 565              	c1.9021:
 566 0000 0000003F 		.word	1056964608
 567              		.section	.bss.last_len_received,"aw",%nobits
 568              		.align	2
 569              		.set	.LANCHOR0,. + 0
 570              		.type	last_len_received, %object
ARM GAS  /tmp/ccs1tseK.s 			page 11


 571              		.size	last_len_received, 4
 572              	last_len_received:
 573 0000 00000000 		.space	4
 574              		.section	.bss.use_median_filter,"aw",%nobits
 575              		.set	.LANCHOR3,. + 0
 576              		.type	use_median_filter, %object
 577              		.size	use_median_filter, 1
 578              	use_median_filter:
 579 0000 00       		.space	1
 580              		.section	.data.pulse_start,"aw",%progbits
 581              		.align	2
 582              		.set	.LANCHOR1,. + 0
 583              		.type	pulse_start, %object
 584              		.size	pulse_start, 4
 585              	pulse_start:
 586 0000 0000803F 		.word	1065353216
 587              		.section	.bss.done_func,"aw",%nobits
 588              		.align	2
 589              		.set	.LANCHOR8,. + 0
 590              		.type	done_func, %object
 591              		.size	done_func, 4
 592              	done_func:
 593 0000 00000000 		.space	4
 594              		.section	.data.icucfg,"aw",%progbits
 595              		.align	2
 596              		.set	.LANCHOR9,. + 0
 597              		.type	icucfg, %object
 598              		.size	icucfg, 28
 599              	icucfg:
 600 0000 00       		.byte	0
 601 0001 000000   		.space	3
 602 0004 40420F00 		.word	1000000
 603 0008 00000000 		.word	icuwidthcb
 604 000c 00000000 		.word	icuperiodcb
 605 0010 00000000 		.word	0
 606 0014 01       		.byte	1
 607 0015 000000   		.space	3
 608 0018 00000000 		.word	0
 609              		.text
 610              	.Letext0:
 611              		.file 4 "/usr/arm-none-eabi/include/machine/_default_types.h"
 612              		.file 5 "/usr/arm-none-eabi/include/sys/_stdint.h"
 613              		.file 6 "/usr/lib/gcc/arm-none-eabi/4.9.3/include/stddef.h"
 614              		.file 7 "ChibiOS_3.0.2/os/rt/ports/ARMCMx/compilers/GCC/chtypes.h"
 615              		.file 8 "ChibiOS_3.0.2/os/rt/include/chsystypes.h"
 616              		.file 9 "ChibiOS_3.0.2/os/rt/include/chschd.h"
 617              		.file 10 "ChibiOS_3.0.2/os/rt/ports/ARMCMx/chcore.h"
 618              		.file 11 "ChibiOS_3.0.2/os/rt/ports/ARMCMx/chcore_v7m.h"
 619              		.file 12 "ChibiOS_3.0.2/os/rt/include/chtm.h"
 620              		.file 13 "ChibiOS_3.0.2/os/rt/include/chsem.h"
 621              		.file 14 "ChibiOS_3.0.2/os/rt/include/chmtx.h"
 622              		.file 15 "ChibiOS_3.0.2/os/hal/ports/STM32/LLD/GPIOv2/pal_lld.h"
 623              		.file 16 "ChibiOS_3.0.2/os/hal/include/icu.h"
 624              		.file 17 "ChibiOS_3.0.2/os/hal/ports/STM32/LLD/TIMv1/icu_lld.h"
 625              		.file 18 "ChibiOS_3.0.2/os/hal/ports/STM32/LLD/TIMv1/stm32_tim.h"
 626              		.file 19 "ChibiOS_3.0.2/os/rt/include/chsys.h"
 627              		.file 20 "ChibiOS_3.0.2/os/ext/CMSIS/include/core_cm4.h"
ARM GAS  /tmp/ccs1tseK.s 			page 12


 628              		.file 21 "utils.h"