ARM GAS  /tmp/ccs1tseK.s 			page 1


   1              		.syntax unified
   2              		.cpu cortex-m4
   3              		.eabi_attribute 27, 1
   4              		.eabi_attribute 28, 1
   5              		.fpu fpv4-sp-d16
   6              		.eabi_attribute 20, 1
   7              		.eabi_attribute 21, 1
   8              		.eabi_attribute 23, 3
   9              		.eabi_attribute 24, 1
  10              		.eabi_attribute 25, 1
  11              		.eabi_attribute 26, 1
  12              		.eabi_attribute 30, 2
  13              		.eabi_attribute 34, 1
  14              		.eabi_attribute 18, 4
  15              		.thumb
  16              		.file	"servo_dec.c"
  17              		.text
  18              	.Ltext0:
  19              		.cfi_sections	.debug_frame
  20              		.section	.text.icuperiodcb,"ax",%progbits
  21              		.align	2
  22              		.p2align 4,,15
  23              		.thumb
  24              		.thumb_func
  25              		.type	icuperiodcb, %function
  26              	icuperiodcb:
  27              	.LFB257:
  28              		.file 1 "servo_dec.c"
  29              		.loc 1 93 0
  30              		.cfi_startproc
  31              		@ args = 0, pretend = 0, frame = 0
  32              		@ frame_needed = 0, uses_anonymous_args = 0
  33              		@ link register save eliminated.
  34              	.LVL0:
  35 0000 7047     		bx	lr
  36              		.cfi_endproc
  37              	.LFE257:
  38              		.size	icuperiodcb, .-icuperiodcb
  39 0002 00BF     		.section	.text.icuwidthcb,"ax",%progbits
  40              		.align	2
  41              		.p2align 4,,15
  42              		.thumb
  43              		.thumb_func
  44              		.type	icuwidthcb, %function
  45              	icuwidthcb:
  46              	.LFB256:
  47              		.loc 1 49 0
  48              		.cfi_startproc
  49              		@ args = 0, pretend = 0, frame = 0
  50              		@ frame_needed = 0, uses_anonymous_args = 0
  51              	.LVL1:
  52              		.loc 1 50 0
  53 0000 0369     		ldr	r3, [r0, #16]
  54 0002 9FED407A 		flds	s14, .L25
  55 0006 1B68     		ldr	r3, [r3]
  56 0008 3F49     		ldr	r1, .L25+4
  57              		.loc 1 51 0
ARM GAS  /tmp/ccs1tseK.s 			page 2


  58 000a 404A     		ldr	r2, .L25+8
  59              		.loc 1 52 0
  60 000c 4048     		ldr	r0, .L25+12
  61              	.LVL2:
  62              		.loc 1 50 0
  63 000e 0133     		adds	r3, r3, #1
  64 0010 07EE903A 		fmsr	s15, r3	@ int
  65 0014 F8EE677A 		fuitos	s15, s15
  66              		.loc 1 49 0
  67 0018 70B5     		push	{r4, r5, r6, lr}
  68              		.cfi_def_cfa_offset 16
  69              		.cfi_offset 4, -16
  70              		.cfi_offset 5, -12
  71              		.cfi_offset 6, -8
  72              		.cfi_offset 14, -4
  73              		.loc 1 50 0
  74 001a C7EE877A 		fdivs	s15, s15, s14
  75              		.loc 1 49 0
  76 001e 2DED028B 		fstmfdd	sp!, {d8}
  77              		.cfi_def_cfa_offset 24
  78              		.cfi_offset 80, -24
  79              		.cfi_offset 81, -20
  80              		.loc 1 50 0
  81 0022 C1ED007A 		fsts	s15, [r1]
  82              		.loc 1 51 0
  83 0026 D1ED007A 		flds	s15, [r1]
  84 002a D2ED006A 		flds	s13, [r2]
  85              		.loc 1 52 0
  86 002e 90ED007A 		flds	s14, [r0]
  87 0032 92ED008A 		flds	s16, [r2]
  88              		.loc 1 51 0
  89 0036 77EEE67A 		fsubs	s15, s15, s13
  90              	.LVL3:
  91              		.loc 1 52 0
  92 003a 37EE488A 		fsubs	s16, s14, s16
  93              	.LVL4:
  94              		.loc 1 54 0
  95 003e F4EEC87A 		fcmpes	s15, s16
  96 0042 F1EE10FA 		fmstat
  97 0046 2DDD     		ble	.L21
  98              		.loc 1 55 0
  99 0048 9FED327A 		flds	s14, .L25+16
 100 004c 28EE077A 		fmuls	s14, s16, s14
 101 0050 F4EEC77A 		fcmpes	s15, s14
 102 0054 F1EE10FA 		fmstat
 103 0058 3BD5     		bpl	.L2
 104              		.loc 1 56 0
 105 005a F0EE487A 		fcpys	s15, s16
 106              	.LVL5:
 107              	.L5:
 108              		.loc 1 70 0
 109 005e F5EEC07A 		fcmpezs	s15
 110 0062 F1EE10FA 		fmstat
 111 0066 34DB     		blt	.L2
 112 0068 77EEA77A 		fadds	s15, s15, s15
 113              	.LVL6:
 114              	.L8:
ARM GAS  /tmp/ccs1tseK.s 			page 3


 115              		.loc 1 71 0
 116 006c 2A4B     		ldr	r3, .L25+20
 117 006e 1B78     		ldrb	r3, [r3]	@ zero_extendqisi2
 118 0070 93BB     		cbnz	r3, .L24
 119              		.loc 1 82 0
 120 0072 77EEC87A 		fsubs	s15, s15, s16
 121 0076 294B     		ldr	r3, .L25+24
 122 0078 C7EE887A 		fdivs	s15, s15, s16
 123 007c C3ED007A 		fsts	s15, [r3]
 124              	.LVL7:
 125              	.L12:
 126              	.LBB46:
 127              	.LBB47:
 128              	.LBB48:
 129              	.LBB49:
 130              	.LBB50:
 131              	.LBB51:
 132              		.file 2 "ChibiOS_3.0.2/os/ext/CMSIS/include/core_cmFunc.h"
 133              		.loc 2 546 0
 134 0080 2023     		movs	r3, #32
 135              	@ 546 "ChibiOS_3.0.2/os/ext/CMSIS/include/core_cmFunc.h" 1
 136 0082 83F31188 		MSR basepri, r3
 137              	@ 0 "" 2
 138              		.thumb
 139              	.LBE51:
 140              	.LBE50:
 141              	.LBE49:
 142              	.LBE48:
 143              	.LBB52:
 144              	.LBB53:
 145              		.file 3 "ChibiOS_3.0.2/os/rt/include/chvt.h"
 146              		.loc 3 231 0
 147 0086 264A     		ldr	r2, .L25+28
 148              	.LBE53:
 149              	.LBE52:
 150              	.LBB55:
 151              	.LBB56:
 152              	.LBB57:
 153              	.LBB58:
 154              	.LBB59:
 155              		.loc 2 546 0
 156 0088 0023     		movs	r3, #0
 157              	.LBE59:
 158              	.LBE58:
 159              	.LBE57:
 160              	.LBE56:
 161              	.LBE55:
 162              	.LBB64:
 163              	.LBB54:
 164              		.loc 3 231 0
 165 008a 916A     		ldr	r1, [r2, #40]
 166              	.LVL8:
 167              	.LBE54:
 168              	.LBE64:
 169              	.LBB65:
 170              	.LBB63:
 171              	.LBB62:
ARM GAS  /tmp/ccs1tseK.s 			page 4


 172              	.LBB61:
 173              	.LBB60:
 174              		.loc 2 546 0
 175              	@ 546 "ChibiOS_3.0.2/os/ext/CMSIS/include/core_cmFunc.h" 1
 176 008c 83F31188 		MSR basepri, r3
 177              	@ 0 "" 2
 178              		.thumb
 179              	.LBE60:
 180              	.LBE61:
 181              	.LBE62:
 182              	.LBE63:
 183              	.LBE65:
 184              	.LBE47:
 185              	.LBE46:
 186              		.loc 1 87 0
 187 0090 244B     		ldr	r3, .L25+32
 188              		.loc 1 85 0
 189 0092 254A     		ldr	r2, .L25+36
 190              		.loc 1 87 0
 191 0094 1B68     		ldr	r3, [r3]
 192              		.loc 1 85 0
 193 0096 1160     		str	r1, [r2]
 194              		.loc 1 87 0
 195 0098 DBB1     		cbz	r3, .L2
 196              		.loc 1 91 0
 197 009a BDEC028B 		fldmfdd	sp!, {d8}
 198              		.cfi_remember_state
 199              		.cfi_restore 80
 200              		.cfi_restore 81
 201              		.cfi_def_cfa_offset 16
 202 009e BDE87040 		pop	{r4, r5, r6, lr}
 203              		.cfi_restore 14
 204              		.cfi_restore 6
 205              		.cfi_restore 5
 206              		.cfi_restore 4
 207              		.cfi_def_cfa_offset 0
 208              		.loc 1 88 0
 209 00a2 1847     		bx	r3	@ indirect register sibling call
 210              	.LVL9:
 211              	.L21:
 212              		.cfi_restore_state
 213              		.loc 1 61 0
 214 00a4 F5EEC07A 		fcmpezs	s15
 215 00a8 F1EE10FA 		fmstat
 216 00ac D7D5     		bpl	.L5
 217              		.loc 1 62 0
 218 00ae 92ED007A 		flds	s14, [r2]
 219 00b2 9FED1E6A 		flds	s12, .L25+40
 220 00b6 D2ED006A 		flds	s13, [r2]
 221 00ba 37EE877A 		fadds	s14, s15, s14
 222 00be 66EE867A 		fmuls	s15, s13, s12
 223              	.LVL10:
 224 00c2 B4EEE77A 		fcmpes	s14, s15
 225 00c6 F1EE10FA 		fmstat
 226 00ca 02DD     		ble	.L2
 227 00cc DFED187A 		flds	s15, .L25+44
 228 00d0 CCE7     		b	.L8
ARM GAS  /tmp/ccs1tseK.s 			page 5


 229              	.LVL11:
 230              	.L2:
 231              		.loc 1 91 0
 232 00d2 BDEC028B 		fldmfdd	sp!, {d8}
 233              		.cfi_remember_state
 234              		.cfi_restore 80
 235              		.cfi_restore 81
 236              		.cfi_def_cfa_offset 16
 237 00d6 70BD     		pop	{r4, r5, r6, pc}
 238              	.LVL12:
 239              	.L24:
 240              		.cfi_restore_state
 241              	.LBB66:
 242              		.loc 1 72 0
 243 00d8 37EEC87A 		fsubs	s14, s15, s16
 244              		.loc 1 75 0
 245 00dc 154C     		ldr	r4, .L25+48
 246 00de 164D     		ldr	r5, .L25+52
 247 00e0 D4ED000A 		flds	s1, [r4]
 248 00e4 95ED001A 		flds	s2, [r5]
 249              		.loc 1 72 0
 250 00e8 87EE088A 		fdivs	s16, s14, s16
 251              	.LVL13:
 252              		.loc 1 75 0
 253 00ec B0EE480A 		fcpys	s0, s16
 254 00f0 FFF7FEFF 		bl	utils_middle_of_3
 255              	.LVL14:
 256              		.loc 1 80 0
 257 00f4 094B     		ldr	r3, .L25+24
 258              		.loc 1 77 0
 259 00f6 2268     		ldr	r2, [r4]	@ float
 260 00f8 2A60     		str	r2, [r5]	@ float
 261              		.loc 1 78 0
 262 00fa 84ED008A 		fsts	s16, [r4]
 263              		.loc 1 80 0
 264 00fe 83ED000A 		fsts	s0, [r3]
 265              	.LBE66:
 266 0102 BDE7     		b	.L12
 267              	.L26:
 268              		.align	2
 269              	.L25:
 270 0104 00007A44 		.word	1148846080
 271 0108 00000000 		.word	.LANCHOR0
 272 010c 00000000 		.word	.LANCHOR1
 273 0110 00000000 		.word	.LANCHOR2
 274 0114 9A99993F 		.word	1067030938
 275 0118 00000000 		.word	.LANCHOR3
 276 011c 00000000 		.word	.LANCHOR6
 277 0120 00000000 		.word	ch
 278 0124 00000000 		.word	.LANCHOR8
 279 0128 00000000 		.word	.LANCHOR7
 280 012c CDCC4C3F 		.word	1061997773
 281 0130 00000000 		.word	0
 282 0134 00000000 		.word	.LANCHOR4
 283 0138 00000000 		.word	.LANCHOR5
 284              		.cfi_endproc
 285              	.LFE256:
ARM GAS  /tmp/ccs1tseK.s 			page 6


 286              		.size	icuwidthcb, .-icuwidthcb
 287              		.section	.text.servodec_init,"ax",%progbits
 288              		.align	2
 289              		.p2align 4,,15
 290              		.global	servodec_init
 291              		.thumb
 292              		.thumb_func
 293              		.type	servodec_init, %function
 294              	servodec_init:
 295              	.LFB258:
 296              		.loc 1 114 0
 297              		.cfi_startproc
 298              		@ args = 0, pretend = 0, frame = 0
 299              		@ frame_needed = 0, uses_anonymous_args = 0
 300              	.LVL15:
 301 0000 38B5     		push	{r3, r4, r5, lr}
 302              		.cfi_def_cfa_offset 16
 303              		.cfi_offset 3, -16
 304              		.cfi_offset 4, -12
 305              		.cfi_offset 5, -8
 306              		.cfi_offset 14, -4
 307              		.loc 1 115 0
 308 0002 0D4C     		ldr	r4, .L29
 309 0004 0D49     		ldr	r1, .L29+4
 310              		.loc 1 114 0
 311 0006 0546     		mov	r5, r0
 312              		.loc 1 115 0
 313 0008 2046     		mov	r0, r4
 314              	.LVL16:
 315 000a FFF7FEFF 		bl	icuStart
 316              	.LVL17:
 317              		.loc 1 116 0
 318 000e 2021     		movs	r1, #32
 319 0010 4FF48172 		mov	r2, #258
 320 0014 0A48     		ldr	r0, .L29+8
 321 0016 FFF7FEFF 		bl	_pal_lld_setgroupmode
 322              	.LVL18:
 323              		.loc 1 117 0
 324 001a 2046     		mov	r0, r4
 325 001c FFF7FEFF 		bl	icuStartCapture
 326              	.LVL19:
 327              		.loc 1 118 0
 328 0020 2046     		mov	r0, r4
 329 0022 FFF7FEFF 		bl	icuEnableNotifications
 330              	.LVL20:
 331              		.loc 1 126 0
 332 0026 0748     		ldr	r0, .L29+12
 333              	.LBB67:
 334              		.loc 1 121 0
 335 0028 0749     		ldr	r1, .L29+16
 336              		.loc 1 122 0
 337 002a 084A     		ldr	r2, .L29+20
 338              	.LBE67:
 339              		.loc 1 126 0
 340 002c 0560     		str	r5, [r0]
 341              	.LBB68:
 342              		.loc 1 121 0
ARM GAS  /tmp/ccs1tseK.s 			page 7


 343 002e 0023     		movs	r3, #0
 344 0030 0B60     		str	r3, [r1]	@ float
 345              		.loc 1 122 0
 346 0032 1360     		str	r3, [r2]	@ float
 347              	.LVL21:
 348 0034 38BD     		pop	{r3, r4, r5, pc}
 349              	.LVL22:
 350              	.L30:
 351 0036 00BF     		.align	2
 352              	.L29:
 353 0038 00000000 		.word	ICUD3
 354 003c 00000000 		.word	.LANCHOR9
 355 0040 00040240 		.word	1073873920
 356 0044 00000000 		.word	.LANCHOR8
 357 0048 00000000 		.word	.LANCHOR6
 358 004c 00000000 		.word	.LANCHOR0
 359              	.LBE68:
 360              		.cfi_endproc
 361              	.LFE258:
 362              		.size	servodec_init, .-servodec_init
 363              		.section	.text.servodec_set_pulse_options,"ax",%progbits
 364              		.align	2
 365              		.p2align 4,,15
 366              		.global	servodec_set_pulse_options
 367              		.thumb
 368              		.thumb_func
 369              		.type	servodec_set_pulse_options, %function
 370              	servodec_set_pulse_options:
 371              	.LFB259:
 372              		.loc 1 138 0
 373              		.cfi_startproc
 374              		@ args = 0, pretend = 0, frame = 0
 375              		@ frame_needed = 0, uses_anonymous_args = 0
 376              		@ link register save eliminated.
 377              	.LVL23:
 378              		.loc 1 139 0
 379 0000 0449     		ldr	r1, .L32
 380              		.loc 1 140 0
 381 0002 054A     		ldr	r2, .L32+4
 382              		.loc 1 141 0
 383 0004 054B     		ldr	r3, .L32+8
 384              		.loc 1 139 0
 385 0006 81ED000A 		fsts	s0, [r1]
 386              		.loc 1 140 0
 387 000a C2ED000A 		fsts	s1, [r2]
 388              		.loc 1 141 0
 389 000e 1870     		strb	r0, [r3]
 390 0010 7047     		bx	lr
 391              	.L33:
 392 0012 00BF     		.align	2
 393              	.L32:
 394 0014 00000000 		.word	.LANCHOR1
 395 0018 00000000 		.word	.LANCHOR2
 396 001c 00000000 		.word	.LANCHOR3
 397              		.cfi_endproc
 398              	.LFE259:
 399              		.size	servodec_set_pulse_options, .-servodec_set_pulse_options
ARM GAS  /tmp/ccs1tseK.s 			page 8


 400              		.section	.text.servodec_get_servo,"ax",%progbits
 401              		.align	2
 402              		.p2align 4,,15
 403              		.global	servodec_get_servo
 404              		.thumb
 405              		.thumb_func
 406              		.type	servodec_get_servo, %function
 407              	servodec_get_servo:
 408              	.LFB260:
 409              		.loc 1 153 0
 410              		.cfi_startproc
 411              		@ args = 0, pretend = 0, frame = 0
 412              		@ frame_needed = 0, uses_anonymous_args = 0
 413              		@ link register save eliminated.
 414              	.LVL24:
 415              		.loc 1 154 0
 416 0000 0028     		cmp	r0, #0
 417              		.loc 1 155 0
 418 0002 DDBF     		ittte	le
 419 0004 034B     		ldrle	r3, .L37
 420 0006 03EB8000 		addle	r0, r3, r0, lsl #2
 421              	.LVL25:
 422 000a 90ED000A 		fldsle	s0, [r0]
 423              		.loc 1 157 0
 424 000e 9FED020A 		fldsgt	s0, .L37+4
 425              		.loc 1 159 0
 426 0012 7047     		bx	lr
 427              	.L38:
 428              		.align	2
 429              	.L37:
 430 0014 00000000 		.word	.LANCHOR6
 431 0018 00000000 		.word	0
 432              		.cfi_endproc
 433              	.LFE260:
 434              		.size	servodec_get_servo, .-servodec_get_servo
 435              		.section	.text.servodec_get_time_since_update,"ax",%progbits
 436              		.align	2
 437              		.p2align 4,,15
 438              		.global	servodec_get_time_since_update
 439              		.thumb
 440              		.thumb_func
 441              		.type	servodec_get_time_since_update, %function
 442              	servodec_get_time_since_update:
 443              	.LFB261:
 444              		.loc 1 168 0
 445              		.cfi_startproc
 446              		@ args = 0, pretend = 0, frame = 0
 447              		@ frame_needed = 0, uses_anonymous_args = 0
 448              		@ link register save eliminated.
 449              		.loc 1 169 0
 450 0000 044A     		ldr	r2, .L40
 451              	.LBB69:
 452              	.LBB70:
 453              	.LBB71:
 454              	.LBB72:
 455              		.loc 3 231 0
 456 0002 054B     		ldr	r3, .L40+4
ARM GAS  /tmp/ccs1tseK.s 			page 9


 457              	.LBE72:
 458              	.LBE71:
 459              	.LBE70:
 460              	.LBE69:
 461              		.loc 1 169 0
 462 0004 1068     		ldr	r0, [r2]
 463              	.LVL26:
 464              	.LBB77:
 465              	.LBB75:
 466              	.LBB74:
 467              	.LBB73:
 468              		.loc 3 231 0
 469 0006 9B6A     		ldr	r3, [r3, #40]
 470              	.LBE73:
 471              	.LBE74:
 472              	.LBE75:
 473              	.LBE77:
 474              		.loc 1 169 0
 475 0008 044A     		ldr	r2, .L40+8
 476              	.LBB78:
 477              	.LBB76:
 478              		.loc 3 267 0
 479 000a 181A     		subs	r0, r3, r0
 480              	.LVL27:
 481              	.LBE76:
 482              	.LBE78:
 483              		.loc 1 169 0
 484 000c A2FB0030 		umull	r3, r0, r2, r0
 485              		.loc 1 170 0
 486 0010 C008     		lsrs	r0, r0, #3
 487 0012 7047     		bx	lr
 488              	.L41:
 489              		.align	2
 490              	.L40:
 491 0014 00000000 		.word	.LANCHOR7
 492 0018 00000000 		.word	ch
 493 001c CDCCCCCC 		.word	-858993459
 494              		.cfi_endproc
 495              	.LFE261:
 496              		.size	servodec_get_time_since_update, .-servodec_get_time_since_update
 497              		.section	.text.servodec_get_last_pulse_len,"ax",%progbits
 498              		.align	2
 499              		.p2align 4,,15
 500              		.global	servodec_get_last_pulse_len
 501              		.thumb
 502              		.thumb_func
 503              		.type	servodec_get_last_pulse_len, %function
 504              	servodec_get_last_pulse_len:
 505              	.LFB262:
 506              		.loc 1 181 0
 507              		.cfi_startproc
 508              		@ args = 0, pretend = 0, frame = 0
 509              		@ frame_needed = 0, uses_anonymous_args = 0
 510              		@ link register save eliminated.
 511              	.LVL28:
 512              		.loc 1 182 0
 513 0000 0028     		cmp	r0, #0
ARM GAS  /tmp/ccs1tseK.s 			page 10


 514              		.loc 1 183 0
 515 0002 DDBF     		ittte	le
 516 0004 034B     		ldrle	r3, .L45
 517 0006 03EB8000 		addle	r0, r3, r0, lsl #2
 518              	.LVL29:
 519 000a 90ED000A 		fldsle	s0, [r0]
 520              		.loc 1 185 0
 521 000e 9FED020A 		fldsgt	s0, .L45+4
 522              		.loc 1 187 0
 523 0012 7047     		bx	lr
 524              	.L46:
 525              		.align	2
 526              	.L45:
 527 0014 00000000 		.word	.LANCHOR0
 528 0018 00000000 		.word	0
 529              		.cfi_endproc
 530              	.LFE262:
 531              		.size	servodec_get_last_pulse_len, .-servodec_get_last_pulse_len
 532              		.section	.bss.servo_pos,"aw",%nobits
 533              		.align	2
 534              		.set	.LANCHOR6,. + 0
 535              		.type	servo_pos, %object
 536              		.size	servo_pos, 4
 537              	servo_pos:
 538 0000 00000000 		.space	4
 539              		.section	.data.c2.9022,"aw",%progbits
 540              		.align	2
 541              		.set	.LANCHOR5,. + 0
 542              		.type	c2.9022, %object
 543              		.size	c2.9022, 4
 544              	c2.9022:
 545 0000 0000003F 		.word	1056964608
 546              		.section	.data.pulse_end,"aw",%progbits
 547              		.align	2
 548              		.set	.LANCHOR2,. + 0
 549              		.type	pulse_end, %object
 550              		.size	pulse_end, 4
 551              	pulse_end:
 552 0000 00000040 		.word	1073741824
 553              		.section	.bss.last_update_time,"aw",%nobits
 554              		.align	2
 555              		.set	.LANCHOR7,. + 0
 556              		.type	last_update_time, %object
 557              		.size	last_update_time, 4
 558              	last_update_time:
 559 0000 00000000 		.space	4
 560              		.section	.data.c1.9021,"aw",%progbits
 561              		.align	2
 562              		.set	.LANCHOR4,. + 0
 563              		.type	c1.9021, %object
 564              		.size	c1.9021, 4
 565              	c1.9021:
 566 0000 0000003F 		.word	1056964608
 567              		.section	.bss.last_len_received,"aw",%nobits
 568              		.align	2
 569              		.set	.LANCHOR0,. + 0
 570              		.type	last_len_received, %object
ARM GAS  /tmp/ccs1tseK.s 			page 11


 571              		.size	last_len_received, 4
 572              	last_len_received:
 573 0000 00000000 		.space	4
 574              		.section	.bss.use_median_filter,"aw",%nobits
 575              		.set	.LANCHOR3,. + 0
 576              		.type	use_median_filter, %object
 577              		.size	use_median_filter, 1
 578              	use_median_filter:
 579 0000 00       		.space	1
 580              		.section	.data.pulse_start,"aw",%progbits
 581              		.align	2
 582              		.set	.LANCHOR1,. + 0
 583              		.type	pulse_start, %object
 584              		.size	pulse_start, 4
 585              	pulse_start:
 586 0000 0000803F 		.word	1065353216
 587              		.section	.bss.done_func,"aw",%nobits
 588              		.align	2
 589              		.set	.LANCHOR8,. + 0
 590              		.type	done_func, %object
 591              		.size	done_func, 4
 592              	done_func:
 593 0000 00000000 		.space	4
 594              		.section	.data.icucfg,"aw",%progbits
 595              		.align	2
 596              		.set	.LANCHOR9,. + 0
 597              		.type	icucfg, %object
 598              		.size	icucfg, 28
 599              	icucfg:
 600 0000 00       		.byte	0
 601 0001 000000   		.space	3
 602 0004 40420F00 		.word	1000000
 603 0008 00000000 		.word	icuwidthcb
 604 000c 00000000 		.word	icuperiodcb
 605 0010 00000000 		.word	0
 606 0014 01       		.byte	1
 607 0015 000000   		.space	3
 608 0018 00000000 		.word	0
 609              		.text
 610              	.Letext0:
 611              		.file 4 "/usr/arm-none-eabi/include/machine/_default_types.h"
 612              		.file 5 "/usr/arm-none-eabi/include/sys/_stdint.h"
 613              		.file 6 "/usr/lib/gcc/arm-none-eabi/4.9.3/include/stddef.h"
 614              		.file 7 "ChibiOS_3.0.2/os/rt/ports/ARMCMx/compilers/GCC/chtypes.h"
 615              		.file 8 "ChibiOS_3.0.2/os/rt/include/chsystypes.h"
 616              		.file 9 "ChibiOS_3.0.2/os/rt/include/chschd.h"
 617              		.file 10 "ChibiOS_3.0.2/os/rt/ports/ARMCMx/chcore.h"
 618              		.file 11 "ChibiOS_3.0.2/os/rt/ports/ARMCMx/chcore_v7m.h"
 619              		.file 12 "ChibiOS_3.0.2/os/rt/include/chtm.h"
 620              		.file 13 "ChibiOS_3.0.2/os/rt/include/chsem.h"
 621              		.file 14 "ChibiOS_3.0.2/os/rt/include/chmtx.h"
 622              		.file 15 "ChibiOS_3.0.2/os/hal/ports/STM32/LLD/GPIOv2/pal_lld.h"
 623              		.file 16 "ChibiOS_3.0.2/os/hal/include/icu.h"
 624              		.file 17 "ChibiOS_3.0.2/os/hal/ports/STM32/LLD/TIMv1/icu_lld.h"
 625              		.file 18 "ChibiOS_3.0.2/os/hal/ports/STM32/LLD/TIMv1/stm32_tim.h"
 626              		.file 19 "ChibiOS_3.0.2/os/rt/include/chsys.h"
 627              		.file 20 "ChibiOS_3.0.2/os/ext/CMSIS/include/core_cm4.h"
ARM GAS  /tmp/ccs1tseK.s 			page 12


 628              		.file 21 "utils.h"
 629              		.section	.debug_info,"",%progbits
 630              	.Ldebug_info0:
 631 0000 EA0F0000 		.4byte	0xfea
 632 0004 0400     		.2byte	0x4
 633 0006 00000000 		.4byte	.Ldebug_abbrev0
 634 000a 04       		.byte	0x4
 635 000b 01       		.uleb128 0x1
 636 000c C1050000 		.4byte	.LASF194
 637 0010 01       		.byte	0x1
 638 0011 9B040000 		.4byte	.LASF195
 639 0015 2F050000 		.4byte	.LASF196
 640 0019 80000000 		.4byte	.Ldebug_ranges0+0x80
 641 001d 00000000 		.4byte	0
 642 0021 00000000 		.4byte	.Ldebug_line0
 643 0025 02       		.uleb128 0x2
 644 0026 04       		.byte	0x4
 645 0027 04       		.byte	0x4
 646 0028 AC010000 		.4byte	.LASF0
 647 002c 02       		.uleb128 0x2
 648 002d 01       		.byte	0x1
 649 002e 06       		.byte	0x6
 650 002f FC080000 		.4byte	.LASF1
 651 0033 03       		.uleb128 0x3
 652 0034 94070000 		.4byte	.LASF4
 653 0038 04       		.byte	0x4
 654 0039 1D       		.byte	0x1d
 655 003a 3E000000 		.4byte	0x3e
 656 003e 02       		.uleb128 0x2
 657 003f 01       		.byte	0x1
 658 0040 08       		.byte	0x8
 659 0041 2E080000 		.4byte	.LASF2
 660 0045 02       		.uleb128 0x2
 661 0046 02       		.byte	0x2
 662 0047 05       		.byte	0x5
 663 0048 99050000 		.4byte	.LASF3
 664 004c 03       		.uleb128 0x3
 665 004d 20020000 		.4byte	.LASF5
 666 0051 04       		.byte	0x4
 667 0052 2B       		.byte	0x2b
 668 0053 57000000 		.4byte	0x57
 669 0057 02       		.uleb128 0x2
 670 0058 02       		.byte	0x2
 671 0059 07       		.byte	0x7
 672 005a 13090000 		.4byte	.LASF6
 673 005e 03       		.uleb128 0x3
 674 005f C3000000 		.4byte	.LASF7
 675 0063 04       		.byte	0x4
 676 0064 3F       		.byte	0x3f
 677 0065 69000000 		.4byte	0x69
 678 0069 02       		.uleb128 0x2
 679 006a 04       		.byte	0x4
 680 006b 05       		.byte	0x5
 681 006c ED060000 		.4byte	.LASF8
 682 0070 03       		.uleb128 0x3
 683 0071 3C080000 		.4byte	.LASF9
 684 0075 04       		.byte	0x4
ARM GAS  /tmp/ccs1tseK.s 			page 13


 685 0076 41       		.byte	0x41
 686 0077 7B000000 		.4byte	0x7b
 687 007b 02       		.uleb128 0x2
 688 007c 04       		.byte	0x4
 689 007d 07       		.byte	0x7
 690 007e E2070000 		.4byte	.LASF10
 691 0082 02       		.uleb128 0x2
 692 0083 08       		.byte	0x8
 693 0084 05       		.byte	0x5
 694 0085 78030000 		.4byte	.LASF11
 695 0089 03       		.uleb128 0x3
 696 008a 1B030000 		.4byte	.LASF12
 697 008e 04       		.byte	0x4
 698 008f 5B       		.byte	0x5b
 699 0090 94000000 		.4byte	0x94
 700 0094 02       		.uleb128 0x2
 701 0095 08       		.byte	0x8
 702 0096 07       		.byte	0x7
 703 0097 EA010000 		.4byte	.LASF13
 704 009b 04       		.uleb128 0x4
 705 009c 04       		.byte	0x4
 706 009d 05       		.byte	0x5
 707 009e 696E7400 		.ascii	"int\000"
 708 00a2 02       		.uleb128 0x2
 709 00a3 04       		.byte	0x4
 710 00a4 07       		.byte	0x7
 711 00a5 87000000 		.4byte	.LASF14
 712 00a9 03       		.uleb128 0x3
 713 00aa 96030000 		.4byte	.LASF15
 714 00ae 05       		.byte	0x5
 715 00af 14       		.byte	0x14
 716 00b0 33000000 		.4byte	0x33
 717 00b4 03       		.uleb128 0x3
 718 00b5 D5040000 		.4byte	.LASF16
 719 00b9 05       		.byte	0x5
 720 00ba 1A       		.byte	0x1a
 721 00bb 4C000000 		.4byte	0x4c
 722 00bf 03       		.uleb128 0x3
 723 00c0 01080000 		.4byte	.LASF17
 724 00c4 05       		.byte	0x5
 725 00c5 1F       		.byte	0x1f
 726 00c6 5E000000 		.4byte	0x5e
 727 00ca 03       		.uleb128 0x3
 728 00cb 73010000 		.4byte	.LASF18
 729 00cf 05       		.byte	0x5
 730 00d0 20       		.byte	0x20
 731 00d1 70000000 		.4byte	0x70
 732 00d5 03       		.uleb128 0x3
 733 00d6 75070000 		.4byte	.LASF19
 734 00da 05       		.byte	0x5
 735 00db 26       		.byte	0x26
 736 00dc 89000000 		.4byte	0x89
 737 00e0 03       		.uleb128 0x3
 738 00e1 AE020000 		.4byte	.LASF20
 739 00e5 06       		.byte	0x6
 740 00e6 D4       		.byte	0xd4
 741 00e7 A2000000 		.4byte	0xa2
ARM GAS  /tmp/ccs1tseK.s 			page 14


 742 00eb 05       		.uleb128 0x5
 743 00ec BF000000 		.4byte	0xbf
 744 00f0 05       		.uleb128 0x5
 745 00f1 CA000000 		.4byte	0xca
 746 00f5 03       		.uleb128 0x3
 747 00f6 08050000 		.4byte	.LASF21
 748 00fa 07       		.byte	0x7
 749 00fb 45       		.byte	0x45
 750 00fc CA000000 		.4byte	0xca
 751 0100 03       		.uleb128 0x3
 752 0101 AD040000 		.4byte	.LASF22
 753 0105 07       		.byte	0x7
 754 0106 48       		.byte	0x48
 755 0107 A9000000 		.4byte	0xa9
 756 010b 03       		.uleb128 0x3
 757 010c 6F030000 		.4byte	.LASF23
 758 0110 07       		.byte	0x7
 759 0111 49       		.byte	0x49
 760 0112 A9000000 		.4byte	0xa9
 761 0116 03       		.uleb128 0x3
 762 0117 C8070000 		.4byte	.LASF24
 763 011b 07       		.byte	0x7
 764 011c 4A       		.byte	0x4a
 765 011d A9000000 		.4byte	0xa9
 766 0121 03       		.uleb128 0x3
 767 0122 89040000 		.4byte	.LASF25
 768 0126 07       		.byte	0x7
 769 0127 4B       		.byte	0x4b
 770 0128 A9000000 		.4byte	0xa9
 771 012c 03       		.uleb128 0x3
 772 012d BF010000 		.4byte	.LASF26
 773 0131 07       		.byte	0x7
 774 0132 4C       		.byte	0x4c
 775 0133 CA000000 		.4byte	0xca
 776 0137 03       		.uleb128 0x3
 777 0138 30040000 		.4byte	.LASF27
 778 013c 07       		.byte	0x7
 779 013d 4D       		.byte	0x4d
 780 013e BF000000 		.4byte	0xbf
 781 0142 03       		.uleb128 0x3
 782 0143 19040000 		.4byte	.LASF28
 783 0147 07       		.byte	0x7
 784 0148 4F       		.byte	0x4f
 785 0149 CA000000 		.4byte	0xca
 786 014d 03       		.uleb128 0x3
 787 014e 2B020000 		.4byte	.LASF29
 788 0152 07       		.byte	0x7
 789 0153 51       		.byte	0x51
 790 0154 BF000000 		.4byte	0xbf
 791 0158 03       		.uleb128 0x3
 792 0159 5F000000 		.4byte	.LASF30
 793 015d 08       		.byte	0x8
 794 015e 33       		.byte	0x33
 795 015f CA000000 		.4byte	0xca
 796 0163 03       		.uleb128 0x3
 797 0164 8F020000 		.4byte	.LASF31
 798 0168 08       		.byte	0x8
ARM GAS  /tmp/ccs1tseK.s 			page 15


 799 0169 3F       		.byte	0x3f
 800 016a 6E010000 		.4byte	0x16e
 801 016e 06       		.uleb128 0x6
 802 016f C1030000 		.4byte	.LASF53
 803 0173 48       		.byte	0x48
 804 0174 09       		.byte	0x9
 805 0175 C2       		.byte	0xc2
 806 0176 73020000 		.4byte	0x273
 807 017a 07       		.uleb128 0x7
 808 017b 66070000 		.4byte	.LASF32
 809 017f 09       		.byte	0x9
 810 0180 C3       		.byte	0xc3
 811 0181 7E020000 		.4byte	0x27e
 812 0185 00       		.byte	0
 813 0186 07       		.uleb128 0x7
 814 0187 B8070000 		.4byte	.LASF33
 815 018b 09       		.byte	0x9
 816 018c C5       		.byte	0xc5
 817 018d 7E020000 		.4byte	0x27e
 818 0191 04       		.byte	0x4
 819 0192 07       		.uleb128 0x7
 820 0193 42000000 		.4byte	.LASF34
 821 0197 09       		.byte	0x9
 822 0198 C7       		.byte	0xc7
 823 0199 2C010000 		.4byte	0x12c
 824 019d 08       		.byte	0x8
 825 019e 07       		.uleb128 0x7
 826 019f 7E070000 		.4byte	.LASF35
 827 01a3 09       		.byte	0x9
 828 01a4 C8       		.byte	0xc8
 829 01a5 CE040000 		.4byte	0x4ce
 830 01a9 0C       		.byte	0xc
 831 01aa 07       		.uleb128 0x7
 832 01ab 6A020000 		.4byte	.LASF36
 833 01af 09       		.byte	0x9
 834 01b0 CA       		.byte	0xca
 835 01b1 7E020000 		.4byte	0x27e
 836 01b5 10       		.byte	0x10
 837 01b6 07       		.uleb128 0x7
 838 01b7 86030000 		.4byte	.LASF37
 839 01bb 09       		.byte	0x9
 840 01bc CB       		.byte	0xcb
 841 01bd 7E020000 		.4byte	0x27e
 842 01c1 14       		.byte	0x14
 843 01c2 07       		.uleb128 0x7
 844 01c3 4C030000 		.4byte	.LASF38
 845 01c7 09       		.byte	0x9
 846 01c8 D2       		.byte	0xd2
 847 01c9 13070000 		.4byte	0x713
 848 01cd 18       		.byte	0x18
 849 01ce 07       		.uleb128 0x7
 850 01cf 8E030000 		.4byte	.LASF39
 851 01d3 09       		.byte	0x9
 852 01d4 DD       		.byte	0xdd
 853 01d5 0B010000 		.4byte	0x10b
 854 01d9 1C       		.byte	0x1c
 855 01da 07       		.uleb128 0x7
ARM GAS  /tmp/ccs1tseK.s 			page 16


 856 01db 4B040000 		.4byte	.LASF40
 857 01df 09       		.byte	0x9
 858 01e0 E1       		.byte	0xe1
 859 01e1 00010000 		.4byte	0x100
 860 01e5 1D       		.byte	0x1d
 861 01e6 07       		.uleb128 0x7
 862 01e7 5D080000 		.4byte	.LASF41
 863 01eb 09       		.byte	0x9
 864 01ec E6       		.byte	0xe6
 865 01ed 16010000 		.4byte	0x116
 866 01f1 1E       		.byte	0x1e
 867 01f2 07       		.uleb128 0x7
 868 01f3 6E080000 		.4byte	.LASF42
 869 01f7 09       		.byte	0x9
 870 01f8 EC       		.byte	0xec
 871 01f9 21010000 		.4byte	0x121
 872 01fd 1F       		.byte	0x1f
 873 01fe 07       		.uleb128 0x7
 874 01ff 28000000 		.4byte	.LASF43
 875 0203 09       		.byte	0x9
 876 0204 F3       		.byte	0xf3
 877 0205 25070000 		.4byte	0x725
 878 0209 20       		.byte	0x20
 879 020a 08       		.uleb128 0x8
 880 020b 705F7500 		.ascii	"p_u\000"
 881 020f 09       		.byte	0x9
 882 0210 3101     		.2byte	0x131
 883 0212 4E060000 		.4byte	0x64e
 884 0216 24       		.byte	0x24
 885 0217 09       		.uleb128 0x9
 886 0218 B9000000 		.4byte	.LASF44
 887 021c 09       		.byte	0x9
 888 021d 3601     		.2byte	0x136
 889 021f 84020000 		.4byte	0x284
 890 0223 28       		.byte	0x28
 891 0224 09       		.uleb128 0x9
 892 0225 7C000000 		.4byte	.LASF45
 893 0229 09       		.byte	0x9
 894 022a 3C01     		.2byte	0x13c
 895 022c A8020000 		.4byte	0x2a8
 896 0230 2C       		.byte	0x2c
 897 0231 09       		.uleb128 0x9
 898 0232 A7040000 		.4byte	.LASF46
 899 0236 09       		.byte	0x9
 900 0237 4001     		.2byte	0x140
 901 0239 37010000 		.4byte	0x137
 902 023d 34       		.byte	0x34
 903 023e 09       		.uleb128 0x9
 904 023f B6050000 		.4byte	.LASF47
 905 0243 09       		.byte	0x9
 906 0244 4601     		.2byte	0x146
 907 0246 42010000 		.4byte	0x142
 908 024a 38       		.byte	0x38
 909 024b 09       		.uleb128 0x9
 910 024c B2030000 		.4byte	.LASF48
 911 0250 09       		.byte	0x9
 912 0251 4D01     		.2byte	0x14d
ARM GAS  /tmp/ccs1tseK.s 			page 17


 913 0253 0D070000 		.4byte	0x70d
 914 0257 3C       		.byte	0x3c
 915 0258 09       		.uleb128 0x9
 916 0259 72050000 		.4byte	.LASF49
 917 025d 09       		.byte	0x9
 918 025e 5101     		.2byte	0x151
 919 0260 2C010000 		.4byte	0x12c
 920 0264 40       		.byte	0x40
 921 0265 09       		.uleb128 0x9
 922 0266 AA030000 		.4byte	.LASF50
 923 026a 09       		.byte	0x9
 924 026b 5801     		.2byte	0x158
 925 026d 5B030000 		.4byte	0x35b
 926 0271 44       		.byte	0x44
 927 0272 00       		.byte	0
 928 0273 03       		.uleb128 0x3
 929 0274 DE040000 		.4byte	.LASF51
 930 0278 08       		.byte	0x8
 931 0279 44       		.byte	0x44
 932 027a 7E020000 		.4byte	0x27e
 933 027e 0A       		.uleb128 0xa
 934 027f 04       		.byte	0x4
 935 0280 63010000 		.4byte	0x163
 936 0284 03       		.uleb128 0x3
 937 0285 AA000000 		.4byte	.LASF52
 938 0289 08       		.byte	0x8
 939 028a 49       		.byte	0x49
 940 028b 8F020000 		.4byte	0x28f
 941 028f 06       		.uleb128 0x6
 942 0290 31020000 		.4byte	.LASF54
 943 0294 04       		.byte	0x4
 944 0295 09       		.byte	0x9
 945 0296 B0       		.byte	0xb0
 946 0297 A8020000 		.4byte	0x2a8
 947 029b 07       		.uleb128 0x7
 948 029c 66070000 		.4byte	.LASF32
 949 02a0 09       		.byte	0x9
 950 02a1 B1       		.byte	0xb1
 951 02a2 7E020000 		.4byte	0x27e
 952 02a6 00       		.byte	0
 953 02a7 00       		.byte	0
 954 02a8 03       		.uleb128 0x3
 955 02a9 00000000 		.4byte	.LASF55
 956 02ad 08       		.byte	0x8
 957 02ae 50       		.byte	0x50
 958 02af B3020000 		.4byte	0x2b3
 959 02b3 06       		.uleb128 0x6
 960 02b4 E4030000 		.4byte	.LASF56
 961 02b8 08       		.byte	0x8
 962 02b9 09       		.byte	0x9
 963 02ba B7       		.byte	0xb7
 964 02bb D8020000 		.4byte	0x2d8
 965 02bf 07       		.uleb128 0x7
 966 02c0 66070000 		.4byte	.LASF32
 967 02c4 09       		.byte	0x9
 968 02c5 B8       		.byte	0xb8
 969 02c6 7E020000 		.4byte	0x27e
ARM GAS  /tmp/ccs1tseK.s 			page 18


 970 02ca 00       		.byte	0
 971 02cb 07       		.uleb128 0x7
 972 02cc B8070000 		.4byte	.LASF33
 973 02d0 09       		.byte	0x9
 974 02d1 B9       		.byte	0xb9
 975 02d2 7E020000 		.4byte	0x27e
 976 02d6 04       		.byte	0x4
 977 02d7 00       		.byte	0
 978 02d8 03       		.uleb128 0x3
 979 02d9 F4070000 		.4byte	.LASF57
 980 02dd 08       		.byte	0x8
 981 02de 57       		.byte	0x57
 982 02df E3020000 		.4byte	0x2e3
 983 02e3 0B       		.uleb128 0xb
 984 02e4 22010000 		.4byte	.LASF58
 985 02e8 1C       		.byte	0x1c
 986 02e9 09       		.byte	0x9
 987 02ea 9001     		.2byte	0x190
 988 02ec 3F030000 		.4byte	0x33f
 989 02f0 09       		.uleb128 0x9
 990 02f1 FF030000 		.4byte	.LASF59
 991 02f5 09       		.byte	0x9
 992 02f6 9101     		.2byte	0x191
 993 02f8 A8020000 		.4byte	0x2a8
 994 02fc 00       		.byte	0
 995 02fd 09       		.uleb128 0x9
 996 02fe 8F010000 		.4byte	.LASF60
 997 0302 09       		.byte	0x9
 998 0303 9201     		.2byte	0x192
 999 0305 2C010000 		.4byte	0x12c
 1000 0309 08       		.byte	0x8
 1001 030a 09       		.uleb128 0x9
 1002 030b 26090000 		.4byte	.LASF61
 1003 030f 09       		.byte	0x9
 1004 0310 9401     		.2byte	0x194
 1005 0312 CE040000 		.4byte	0x4ce
 1006 0316 0C       		.byte	0xc
 1007 0317 09       		.uleb128 0x9
 1008 0318 67030000 		.4byte	.LASF62
 1009 031c 09       		.byte	0x9
 1010 031d 9701     		.2byte	0x197
 1011 031f 7E020000 		.4byte	0x27e
 1012 0323 10       		.byte	0x10
 1013 0324 09       		.uleb128 0x9
 1014 0325 93040000 		.4byte	.LASF63
 1015 0329 09       		.byte	0x9
 1016 032a 9801     		.2byte	0x198
 1017 032c 7E020000 		.4byte	0x27e
 1018 0330 14       		.byte	0x14
 1019 0331 09       		.uleb128 0x9
 1020 0332 AC050000 		.4byte	.LASF64
 1021 0336 09       		.byte	0x9
 1022 0337 9B01     		.2byte	0x19b
 1023 0339 7E020000 		.4byte	0x27e
 1024 033d 18       		.byte	0x18
 1025 033e 00       		.byte	0
 1026 033f 03       		.uleb128 0x3
ARM GAS  /tmp/ccs1tseK.s 			page 19


 1027 0340 35010000 		.4byte	.LASF65
 1028 0344 08       		.byte	0x8
 1029 0345 5C       		.byte	0x5c
 1030 0346 4A030000 		.4byte	0x34a
 1031 034a 0A       		.uleb128 0xa
 1032 034b 04       		.byte	0x4
 1033 034c 50030000 		.4byte	0x350
 1034 0350 0C       		.uleb128 0xc
 1035 0351 5B030000 		.4byte	0x35b
 1036 0355 0D       		.uleb128 0xd
 1037 0356 5B030000 		.4byte	0x35b
 1038 035a 00       		.byte	0
 1039 035b 0E       		.uleb128 0xe
 1040 035c 04       		.byte	0x4
 1041 035d 03       		.uleb128 0x3
 1042 035e 53040000 		.4byte	.LASF66
 1043 0362 08       		.byte	0x8
 1044 0363 61       		.byte	0x61
 1045 0364 68030000 		.4byte	0x368
 1046 0368 0B       		.uleb128 0xb
 1047 0369 C7010000 		.4byte	.LASF67
 1048 036d 14       		.byte	0x14
 1049 036e 09       		.byte	0x9
 1050 036f 6B01     		.2byte	0x16b
 1051 0371 B7030000 		.4byte	0x3b7
 1052 0375 09       		.uleb128 0x9
 1053 0376 A7080000 		.4byte	.LASF68
 1054 037a 09       		.byte	0x9
 1055 037b 6C01     		.2byte	0x16c
 1056 037d 2A070000 		.4byte	0x72a
 1057 0381 00       		.byte	0
 1058 0382 09       		.uleb128 0x9
 1059 0383 67090000 		.4byte	.LASF69
 1060 0387 09       		.byte	0x9
 1061 0388 6D01     		.2byte	0x16d
 1062 038a 2A070000 		.4byte	0x72a
 1063 038e 04       		.byte	0x4
 1064 038f 09       		.uleb128 0x9
 1065 0390 5E030000 		.4byte	.LASF70
 1066 0394 09       		.byte	0x9
 1067 0395 6E01     		.2byte	0x16e
 1068 0397 58010000 		.4byte	0x158
 1069 039b 08       		.byte	0x8
 1070 039c 09       		.uleb128 0x9
 1071 039d 40090000 		.4byte	.LASF71
 1072 03a1 09       		.byte	0x9
 1073 03a2 6F01     		.2byte	0x16f
 1074 03a4 3F030000 		.4byte	0x33f
 1075 03a8 0C       		.byte	0xc
 1076 03a9 09       		.uleb128 0x9
 1077 03aa 9B010000 		.4byte	.LASF72
 1078 03ae 09       		.byte	0x9
 1079 03af 7101     		.2byte	0x171
 1080 03b1 5B030000 		.4byte	0x35b
 1081 03b5 10       		.byte	0x10
 1082 03b6 00       		.byte	0
 1083 03b7 03       		.uleb128 0x3
ARM GAS  /tmp/ccs1tseK.s 			page 20


 1084 03b8 47080000 		.4byte	.LASF73
 1085 03bc 08       		.byte	0x8
 1086 03bd 66       		.byte	0x66
 1087 03be C2030000 		.4byte	0x3c2
 1088 03c2 0B       		.uleb128 0xb
 1089 03c3 78020000 		.4byte	.LASF74
 1090 03c7 10       		.byte	0x10
 1091 03c8 09       		.byte	0x9
 1092 03c9 7B01     		.2byte	0x17b
 1093 03cb 04040000 		.4byte	0x404
 1094 03cf 09       		.uleb128 0x9
 1095 03d0 A7080000 		.4byte	.LASF68
 1096 03d4 09       		.byte	0x9
 1097 03d5 7C01     		.2byte	0x17c
 1098 03d7 2A070000 		.4byte	0x72a
 1099 03db 00       		.byte	0
 1100 03dc 09       		.uleb128 0x9
 1101 03dd 67090000 		.4byte	.LASF69
 1102 03e1 09       		.byte	0x9
 1103 03e2 7E01     		.2byte	0x17e
 1104 03e4 2A070000 		.4byte	0x72a
 1105 03e8 04       		.byte	0x4
 1106 03e9 09       		.uleb128 0x9
 1107 03ea 5E030000 		.4byte	.LASF70
 1108 03ee 09       		.byte	0x9
 1109 03ef 8001     		.2byte	0x180
 1110 03f1 58010000 		.4byte	0x158
 1111 03f5 08       		.byte	0x8
 1112 03f6 09       		.uleb128 0x9
 1113 03f7 71000000 		.4byte	.LASF75
 1114 03fb 09       		.byte	0x9
 1115 03fc 8201     		.2byte	0x182
 1116 03fe 25070000 		.4byte	0x725
 1117 0402 0C       		.byte	0xc
 1118 0403 00       		.byte	0
 1119 0404 03       		.uleb128 0x3
 1120 0405 CB030000 		.4byte	.LASF76
 1121 0409 08       		.byte	0x8
 1122 040a 6B       		.byte	0x6b
 1123 040b 0F040000 		.4byte	0x40f
 1124 040f 0B       		.uleb128 0xb
 1125 0410 63010000 		.4byte	.LASF77
 1126 0414 04       		.byte	0x4
 1127 0415 09       		.byte	0x9
 1128 0416 A201     		.2byte	0x1a2
 1129 0418 2A040000 		.4byte	0x42a
 1130 041c 09       		.uleb128 0x9
 1131 041d 64080000 		.4byte	.LASF78
 1132 0421 09       		.byte	0x9
 1133 0422 AA01     		.2byte	0x1aa
 1134 0424 30070000 		.4byte	0x730
 1135 0428 00       		.byte	0
 1136 0429 00       		.byte	0
 1137 042a 03       		.uleb128 0x3
 1138 042b B9080000 		.4byte	.LASF79
 1139 042f 08       		.byte	0x8
 1140 0430 70       		.byte	0x70
ARM GAS  /tmp/ccs1tseK.s 			page 21


 1141 0431 35040000 		.4byte	0x435
 1142 0435 0F       		.uleb128 0xf
 1143 0436 2B070000 		.4byte	.LASF80
 1144 043a 5802     		.2byte	0x258
 1145 043c 09       		.byte	0x9
 1146 043d C201     		.2byte	0x1c2
 1147 043f 91040000 		.4byte	0x491
 1148 0443 09       		.uleb128 0x9
 1149 0444 84070000 		.4byte	.LASF81
 1150 0448 09       		.byte	0x9
 1151 0449 C601     		.2byte	0x1c6
 1152 044b D8020000 		.4byte	0x2d8
 1153 044f 00       		.byte	0
 1154 0450 09       		.uleb128 0x9
 1155 0451 00010000 		.4byte	.LASF82
 1156 0455 09       		.byte	0x9
 1157 0456 CA01     		.2byte	0x1ca
 1158 0458 B7030000 		.4byte	0x3b7
 1159 045c 1C       		.byte	0x1c
 1160 045d 08       		.uleb128 0x8
 1161 045e 64626700 		.ascii	"dbg\000"
 1162 0462 09       		.byte	0x9
 1163 0463 CE01     		.2byte	0x1ce
 1164 0465 04040000 		.4byte	0x404
 1165 0469 2C       		.byte	0x2c
 1166 046a 09       		.uleb128 0x9
 1167 046b BD040000 		.4byte	.LASF83
 1168 046f 09       		.byte	0x9
 1169 0470 D201     		.2byte	0x1d2
 1170 0472 63010000 		.4byte	0x163
 1171 0476 30       		.byte	0x30
 1172 0477 08       		.uleb128 0x8
 1173 0478 746D00   		.ascii	"tm\000"
 1174 047b 09       		.byte	0x9
 1175 047c D701     		.2byte	0x1d7
 1176 047e 43060000 		.4byte	0x643
 1177 0482 78       		.byte	0x78
 1178 0483 09       		.uleb128 0x9
 1179 0484 07010000 		.4byte	.LASF84
 1180 0488 09       		.byte	0x9
 1181 0489 E301     		.2byte	0x1e3
 1182 048b 35070000 		.4byte	0x735
 1183 048f 80       		.byte	0x80
 1184 0490 00       		.byte	0
 1185 0491 02       		.uleb128 0x2
 1186 0492 04       		.byte	0x4
 1187 0493 07       		.byte	0x7
 1188 0494 BF070000 		.4byte	.LASF85
 1189 0498 10       		.uleb128 0x10
 1190 0499 CA000000 		.4byte	0xca
 1191 049d A8040000 		.4byte	0x4a8
 1192 04a1 11       		.uleb128 0x11
 1193 04a2 91040000 		.4byte	0x491
 1194 04a6 01       		.byte	0x1
 1195 04a7 00       		.byte	0
 1196 04a8 10       		.uleb128 0x10
 1197 04a9 CA000000 		.4byte	0xca
ARM GAS  /tmp/ccs1tseK.s 			page 22


 1198 04ad B8040000 		.4byte	0x4b8
 1199 04b1 11       		.uleb128 0x11
 1200 04b2 91040000 		.4byte	0x491
 1201 04b6 03       		.byte	0x3
 1202 04b7 00       		.byte	0
 1203 04b8 03       		.uleb128 0x3
 1204 04b9 39000000 		.4byte	.LASF86
 1205 04bd 0A       		.byte	0xa
 1206 04be 65       		.byte	0x65
 1207 04bf 5B030000 		.4byte	0x35b
 1208 04c3 03       		.uleb128 0x3
 1209 04c4 2C090000 		.4byte	.LASF87
 1210 04c8 0A       		.byte	0xa
 1211 04c9 6D       		.byte	0x6d
 1212 04ca D5000000 		.4byte	0xd5
 1213 04ce 06       		.uleb128 0x6
 1214 04cf 36040000 		.4byte	.LASF88
 1215 04d3 04       		.byte	0x4
 1216 04d4 0A       		.byte	0xa
 1217 04d5 89       		.byte	0x89
 1218 04d6 E7040000 		.4byte	0x4e7
 1219 04da 12       		.uleb128 0x12
 1220 04db 72313300 		.ascii	"r13\000"
 1221 04df 0A       		.byte	0xa
 1222 04e0 8A       		.byte	0x8a
 1223 04e1 28060000 		.4byte	0x628
 1224 04e5 00       		.byte	0
 1225 04e6 00       		.byte	0
 1226 04e7 06       		.uleb128 0x6
 1227 04e8 F6060000 		.4byte	.LASF89
 1228 04ec 64       		.byte	0x64
 1229 04ed 0B       		.byte	0xb
 1230 04ee F4       		.byte	0xf4
 1231 04ef 28060000 		.4byte	0x628
 1232 04f3 12       		.uleb128 0x12
 1233 04f4 73313600 		.ascii	"s16\000"
 1234 04f8 0B       		.byte	0xb
 1235 04f9 F6       		.byte	0xf6
 1236 04fa B8040000 		.4byte	0x4b8
 1237 04fe 00       		.byte	0
 1238 04ff 12       		.uleb128 0x12
 1239 0500 73313700 		.ascii	"s17\000"
 1240 0504 0B       		.byte	0xb
 1241 0505 F7       		.byte	0xf7
 1242 0506 B8040000 		.4byte	0x4b8
 1243 050a 04       		.byte	0x4
 1244 050b 12       		.uleb128 0x12
 1245 050c 73313800 		.ascii	"s18\000"
 1246 0510 0B       		.byte	0xb
 1247 0511 F8       		.byte	0xf8
 1248 0512 B8040000 		.4byte	0x4b8
 1249 0516 08       		.byte	0x8
 1250 0517 12       		.uleb128 0x12
 1251 0518 73313900 		.ascii	"s19\000"
 1252 051c 0B       		.byte	0xb
 1253 051d F9       		.byte	0xf9
 1254 051e B8040000 		.4byte	0x4b8
ARM GAS  /tmp/ccs1tseK.s 			page 23


 1255 0522 0C       		.byte	0xc
 1256 0523 12       		.uleb128 0x12
 1257 0524 73323000 		.ascii	"s20\000"
 1258 0528 0B       		.byte	0xb
 1259 0529 FA       		.byte	0xfa
 1260 052a B8040000 		.4byte	0x4b8
 1261 052e 10       		.byte	0x10
 1262 052f 12       		.uleb128 0x12
 1263 0530 73323100 		.ascii	"s21\000"
 1264 0534 0B       		.byte	0xb
 1265 0535 FB       		.byte	0xfb
 1266 0536 B8040000 		.4byte	0x4b8
 1267 053a 14       		.byte	0x14
 1268 053b 12       		.uleb128 0x12
 1269 053c 73323200 		.ascii	"s22\000"
 1270 0540 0B       		.byte	0xb
 1271 0541 FC       		.byte	0xfc
 1272 0542 B8040000 		.4byte	0x4b8
 1273 0546 18       		.byte	0x18
 1274 0547 12       		.uleb128 0x12
 1275 0548 73323300 		.ascii	"s23\000"
 1276 054c 0B       		.byte	0xb
 1277 054d FD       		.byte	0xfd
 1278 054e B8040000 		.4byte	0x4b8
 1279 0552 1C       		.byte	0x1c
 1280 0553 12       		.uleb128 0x12
 1281 0554 73323400 		.ascii	"s24\000"
 1282 0558 0B       		.byte	0xb
 1283 0559 FE       		.byte	0xfe
 1284 055a B8040000 		.4byte	0x4b8
 1285 055e 20       		.byte	0x20
 1286 055f 12       		.uleb128 0x12
 1287 0560 73323500 		.ascii	"s25\000"
 1288 0564 0B       		.byte	0xb
 1289 0565 FF       		.byte	0xff
 1290 0566 B8040000 		.4byte	0x4b8
 1291 056a 24       		.byte	0x24
 1292 056b 08       		.uleb128 0x8
 1293 056c 73323600 		.ascii	"s26\000"
 1294 0570 0B       		.byte	0xb
 1295 0571 0001     		.2byte	0x100
 1296 0573 B8040000 		.4byte	0x4b8
 1297 0577 28       		.byte	0x28
 1298 0578 08       		.uleb128 0x8
 1299 0579 73323700 		.ascii	"s27\000"
 1300 057d 0B       		.byte	0xb
 1301 057e 0101     		.2byte	0x101
 1302 0580 B8040000 		.4byte	0x4b8
 1303 0584 2C       		.byte	0x2c
 1304 0585 08       		.uleb128 0x8
 1305 0586 73323800 		.ascii	"s28\000"
 1306 058a 0B       		.byte	0xb
 1307 058b 0201     		.2byte	0x102
 1308 058d B8040000 		.4byte	0x4b8
 1309 0591 30       		.byte	0x30
 1310 0592 08       		.uleb128 0x8
 1311 0593 73323900 		.ascii	"s29\000"
ARM GAS  /tmp/ccs1tseK.s 			page 24


 1312 0597 0B       		.byte	0xb
 1313 0598 0301     		.2byte	0x103
 1314 059a B8040000 		.4byte	0x4b8
 1315 059e 34       		.byte	0x34
 1316 059f 08       		.uleb128 0x8
 1317 05a0 73333000 		.ascii	"s30\000"
 1318 05a4 0B       		.byte	0xb
 1319 05a5 0401     		.2byte	0x104
 1320 05a7 B8040000 		.4byte	0x4b8
 1321 05ab 38       		.byte	0x38
 1322 05ac 08       		.uleb128 0x8
 1323 05ad 73333100 		.ascii	"s31\000"
 1324 05b1 0B       		.byte	0xb
 1325 05b2 0501     		.2byte	0x105
 1326 05b4 B8040000 		.4byte	0x4b8
 1327 05b8 3C       		.byte	0x3c
 1328 05b9 08       		.uleb128 0x8
 1329 05ba 723400   		.ascii	"r4\000"
 1330 05bd 0B       		.byte	0xb
 1331 05be 0701     		.2byte	0x107
 1332 05c0 B8040000 		.4byte	0x4b8
 1333 05c4 40       		.byte	0x40
 1334 05c5 08       		.uleb128 0x8
 1335 05c6 723500   		.ascii	"r5\000"
 1336 05c9 0B       		.byte	0xb
 1337 05ca 0801     		.2byte	0x108
 1338 05cc B8040000 		.4byte	0x4b8
 1339 05d0 44       		.byte	0x44
 1340 05d1 08       		.uleb128 0x8
 1341 05d2 723600   		.ascii	"r6\000"
 1342 05d5 0B       		.byte	0xb
 1343 05d6 0901     		.2byte	0x109
 1344 05d8 B8040000 		.4byte	0x4b8
 1345 05dc 48       		.byte	0x48
 1346 05dd 08       		.uleb128 0x8
 1347 05de 723700   		.ascii	"r7\000"
 1348 05e1 0B       		.byte	0xb
 1349 05e2 0A01     		.2byte	0x10a
 1350 05e4 B8040000 		.4byte	0x4b8
 1351 05e8 4C       		.byte	0x4c
 1352 05e9 08       		.uleb128 0x8
 1353 05ea 723800   		.ascii	"r8\000"
 1354 05ed 0B       		.byte	0xb
 1355 05ee 0B01     		.2byte	0x10b
 1356 05f0 B8040000 		.4byte	0x4b8
 1357 05f4 50       		.byte	0x50
 1358 05f5 08       		.uleb128 0x8
 1359 05f6 723900   		.ascii	"r9\000"
 1360 05f9 0B       		.byte	0xb
 1361 05fa 0C01     		.2byte	0x10c
 1362 05fc B8040000 		.4byte	0x4b8
 1363 0600 54       		.byte	0x54
 1364 0601 08       		.uleb128 0x8
 1365 0602 72313000 		.ascii	"r10\000"
 1366 0606 0B       		.byte	0xb
 1367 0607 0D01     		.2byte	0x10d
 1368 0609 B8040000 		.4byte	0x4b8
ARM GAS  /tmp/ccs1tseK.s 			page 25


 1369 060d 58       		.byte	0x58
 1370 060e 08       		.uleb128 0x8
 1371 060f 72313100 		.ascii	"r11\000"
 1372 0613 0B       		.byte	0xb
 1373 0614 0E01     		.2byte	0x10e
 1374 0616 B8040000 		.4byte	0x4b8
 1375 061a 5C       		.byte	0x5c
 1376 061b 08       		.uleb128 0x8
 1377 061c 6C7200   		.ascii	"lr\000"
 1378 061f 0B       		.byte	0xb
 1379 0620 0F01     		.2byte	0x10f
 1380 0622 B8040000 		.4byte	0x4b8
 1381 0626 60       		.byte	0x60
 1382 0627 00       		.byte	0
 1383 0628 0A       		.uleb128 0xa
 1384 0629 04       		.byte	0x4
 1385 062a E7040000 		.4byte	0x4e7
 1386 062e 13       		.uleb128 0x13
 1387 062f 04       		.byte	0x4
 1388 0630 0C       		.byte	0xc
 1389 0631 38       		.byte	0x38
 1390 0632 43060000 		.4byte	0x643
 1391 0636 07       		.uleb128 0x7
 1392 0637 BC020000 		.4byte	.LASF90
 1393 063b 0C       		.byte	0xc
 1394 063c 3C       		.byte	0x3c
 1395 063d F5000000 		.4byte	0xf5
 1396 0641 00       		.byte	0
 1397 0642 00       		.byte	0
 1398 0643 03       		.uleb128 0x3
 1399 0644 17000000 		.4byte	.LASF91
 1400 0648 0C       		.byte	0xc
 1401 0649 3D       		.byte	0x3d
 1402 064a 2E060000 		.4byte	0x62e
 1403 064e 14       		.uleb128 0x14
 1404 064f 04       		.byte	0x4
 1405 0650 09       		.byte	0x9
 1406 0651 FA       		.byte	0xfa
 1407 0652 AB060000 		.4byte	0x6ab
 1408 0656 15       		.uleb128 0x15
 1409 0657 B5020000 		.4byte	.LASF92
 1410 065b 09       		.byte	0x9
 1411 065c 0101     		.2byte	0x101
 1412 065e 37010000 		.4byte	0x137
 1413 0662 15       		.uleb128 0x15
 1414 0663 75090000 		.4byte	.LASF93
 1415 0667 09       		.byte	0x9
 1416 0668 0801     		.2byte	0x108
 1417 066a 37010000 		.4byte	0x137
 1418 066e 15       		.uleb128 0x15
 1419 066f EF000000 		.4byte	.LASF94
 1420 0673 09       		.byte	0x9
 1421 0674 0F01     		.2byte	0x10f
 1422 0676 5B030000 		.4byte	0x35b
 1423 067a 15       		.uleb128 0x15
 1424 067b 6F090000 		.4byte	.LASF95
 1425 067f 09       		.byte	0x9
ARM GAS  /tmp/ccs1tseK.s 			page 26


 1426 0680 1601     		.2byte	0x116
 1427 0682 AB060000 		.4byte	0x6ab
 1428 0686 15       		.uleb128 0x15
 1429 0687 09080000 		.4byte	.LASF96
 1430 068b 09       		.byte	0x9
 1431 068c 1E01     		.2byte	0x11e
 1432 068e D6060000 		.4byte	0x6d6
 1433 0692 15       		.uleb128 0x15
 1434 0693 10000000 		.4byte	.LASF97
 1435 0697 09       		.byte	0x9
 1436 0698 2701     		.2byte	0x127
 1437 069a 0D070000 		.4byte	0x70d
 1438 069e 15       		.uleb128 0x15
 1439 069f 16010000 		.4byte	.LASF98
 1440 06a3 09       		.byte	0x9
 1441 06a4 2F01     		.2byte	0x12f
 1442 06a6 42010000 		.4byte	0x142
 1443 06aa 00       		.byte	0
 1444 06ab 0A       		.uleb128 0xa
 1445 06ac 04       		.byte	0x4
 1446 06ad 73020000 		.4byte	0x273
 1447 06b1 06       		.uleb128 0x6
 1448 06b2 B2010000 		.4byte	.LASF99
 1449 06b6 0C       		.byte	0xc
 1450 06b7 0D       		.byte	0xd
 1451 06b8 34       		.byte	0x34
 1452 06b9 D6060000 		.4byte	0x6d6
 1453 06bd 07       		.uleb128 0x7
 1454 06be 69000000 		.4byte	.LASF100
 1455 06c2 0D       		.byte	0xd
 1456 06c3 35       		.byte	0x35
 1457 06c4 A8020000 		.4byte	0x2a8
 1458 06c8 00       		.byte	0
 1459 06c9 07       		.uleb128 0x7
 1460 06ca 5D010000 		.4byte	.LASF101
 1461 06ce 0D       		.byte	0xd
 1462 06cf 37       		.byte	0x37
 1463 06d0 4D010000 		.4byte	0x14d
 1464 06d4 08       		.byte	0x8
 1465 06d5 00       		.byte	0
 1466 06d6 0A       		.uleb128 0xa
 1467 06d7 04       		.byte	0x4
 1468 06d8 B1060000 		.4byte	0x6b1
 1469 06dc 06       		.uleb128 0x6
 1470 06dd 01030000 		.4byte	.LASF102
 1471 06e1 10       		.byte	0x10
 1472 06e2 0E       		.byte	0xe
 1473 06e3 39       		.byte	0x39
 1474 06e4 0D070000 		.4byte	0x70d
 1475 06e8 07       		.uleb128 0x7
 1476 06e9 E5060000 		.4byte	.LASF103
 1477 06ed 0E       		.byte	0xe
 1478 06ee 3A       		.byte	0x3a
 1479 06ef A8020000 		.4byte	0x2a8
 1480 06f3 00       		.byte	0
 1481 06f4 07       		.uleb128 0x7
 1482 06f5 F9020000 		.4byte	.LASF104
ARM GAS  /tmp/ccs1tseK.s 			page 27


 1483 06f9 0E       		.byte	0xe
 1484 06fa 3C       		.byte	0x3c
 1485 06fb 7E020000 		.4byte	0x27e
 1486 06ff 08       		.byte	0x8
 1487 0700 07       		.uleb128 0x7
 1488 0701 E7080000 		.4byte	.LASF105
 1489 0705 0E       		.byte	0xe
 1490 0706 3E       		.byte	0x3e
 1491 0707 50070000 		.4byte	0x750
 1492 070b 0C       		.byte	0xc
 1493 070c 00       		.byte	0
 1494 070d 0A       		.uleb128 0xa
 1495 070e 04       		.byte	0x4
 1496 070f DC060000 		.4byte	0x6dc
 1497 0713 0A       		.uleb128 0xa
 1498 0714 04       		.byte	0x4
 1499 0715 19070000 		.4byte	0x719
 1500 0719 16       		.uleb128 0x16
 1501 071a 1E070000 		.4byte	0x71e
 1502 071e 02       		.uleb128 0x2
 1503 071f 01       		.byte	0x1
 1504 0720 08       		.byte	0x8
 1505 0721 34000000 		.4byte	.LASF106
 1506 0725 05       		.uleb128 0x5
 1507 0726 58010000 		.4byte	0x158
 1508 072a 0A       		.uleb128 0xa
 1509 072b 04       		.byte	0x4
 1510 072c 5D030000 		.4byte	0x35d
 1511 0730 05       		.uleb128 0x5
 1512 0731 13070000 		.4byte	0x713
 1513 0735 10       		.uleb128 0x10
 1514 0736 C3040000 		.4byte	0x4c3
 1515 073a 45070000 		.4byte	0x745
 1516 073e 11       		.uleb128 0x11
 1517 073f 91040000 		.4byte	0x491
 1518 0743 3A       		.byte	0x3a
 1519 0744 00       		.byte	0
 1520 0745 03       		.uleb128 0x3
 1521 0746 1B080000 		.4byte	.LASF107
 1522 074a 0E       		.byte	0xe
 1523 074b 34       		.byte	0x34
 1524 074c DC060000 		.4byte	0x6dc
 1525 0750 0A       		.uleb128 0xa
 1526 0751 04       		.byte	0x4
 1527 0752 45070000 		.4byte	0x745
 1528 0756 02       		.uleb128 0x2
 1529 0757 01       		.byte	0x1
 1530 0758 02       		.byte	0x2
 1531 0759 CF020000 		.4byte	.LASF108
 1532 075d 0A       		.uleb128 0xa
 1533 075e 04       		.byte	0x4
 1534 075f F0000000 		.4byte	0xf0
 1535 0763 13       		.uleb128 0x13
 1536 0764 04       		.byte	0x4
 1537 0765 0F       		.byte	0xf
 1538 0766 B3       		.byte	0xb3
 1539 0767 84070000 		.4byte	0x784
ARM GAS  /tmp/ccs1tseK.s 			page 28


 1540 076b 12       		.uleb128 0x12
 1541 076c 73657400 		.ascii	"set\000"
 1542 0770 0F       		.byte	0xf
 1543 0771 B4       		.byte	0xb4
 1544 0772 B4000000 		.4byte	0xb4
 1545 0776 00       		.byte	0
 1546 0777 07       		.uleb128 0x7
 1547 0778 22050000 		.4byte	.LASF109
 1548 077c 0F       		.byte	0xf
 1549 077d B5       		.byte	0xb5
 1550 077e B4000000 		.4byte	0xb4
 1551 0782 02       		.byte	0x2
 1552 0783 00       		.byte	0
 1553 0784 14       		.uleb128 0x14
 1554 0785 04       		.byte	0x4
 1555 0786 0F       		.byte	0xf
 1556 0787 B1       		.byte	0xb1
 1557 0788 9F070000 		.4byte	0x79f
 1558 078c 17       		.uleb128 0x17
 1559 078d 5700     		.ascii	"W\000"
 1560 078f 0F       		.byte	0xf
 1561 0790 B2       		.byte	0xb2
 1562 0791 CA000000 		.4byte	0xca
 1563 0795 17       		.uleb128 0x17
 1564 0796 4800     		.ascii	"H\000"
 1565 0798 0F       		.byte	0xf
 1566 0799 B6       		.byte	0xb6
 1567 079a 63070000 		.4byte	0x763
 1568 079e 00       		.byte	0
 1569 079f 13       		.uleb128 0x13
 1570 07a0 2C       		.byte	0x2c
 1571 07a1 0F       		.byte	0xf
 1572 07a2 A9       		.byte	0xa9
 1573 07a3 2C080000 		.4byte	0x82c
 1574 07a7 07       		.uleb128 0x7
 1575 07a8 41020000 		.4byte	.LASF110
 1576 07ac 0F       		.byte	0xf
 1577 07ad AB       		.byte	0xab
 1578 07ae F0000000 		.4byte	0xf0
 1579 07b2 00       		.byte	0
 1580 07b3 07       		.uleb128 0x7
 1581 07b4 51070000 		.4byte	.LASF111
 1582 07b8 0F       		.byte	0xf
 1583 07b9 AC       		.byte	0xac
 1584 07ba F0000000 		.4byte	0xf0
 1585 07be 04       		.byte	0x4
 1586 07bf 07       		.uleb128 0x7
 1587 07c0 98020000 		.4byte	.LASF112
 1588 07c4 0F       		.byte	0xf
 1589 07c5 AD       		.byte	0xad
 1590 07c6 F0000000 		.4byte	0xf0
 1591 07ca 08       		.byte	0x8
 1592 07cb 07       		.uleb128 0x7
 1593 07cc 46030000 		.4byte	.LASF113
 1594 07d0 0F       		.byte	0xf
 1595 07d1 AE       		.byte	0xae
 1596 07d2 F0000000 		.4byte	0xf0
ARM GAS  /tmp/ccs1tseK.s 			page 29


 1597 07d6 0C       		.byte	0xc
 1598 07d7 12       		.uleb128 0x12
 1599 07d8 49445200 		.ascii	"IDR\000"
 1600 07dc 0F       		.byte	0xf
 1601 07dd AF       		.byte	0xaf
 1602 07de F0000000 		.4byte	0xf0
 1603 07e2 10       		.byte	0x10
 1604 07e3 12       		.uleb128 0x12
 1605 07e4 4F445200 		.ascii	"ODR\000"
 1606 07e8 0F       		.byte	0xf
 1607 07e9 B0       		.byte	0xb0
 1608 07ea F0000000 		.4byte	0xf0
 1609 07ee 14       		.byte	0x14
 1610 07ef 07       		.uleb128 0x7
 1611 07f0 2F000000 		.4byte	.LASF114
 1612 07f4 0F       		.byte	0xf
 1613 07f5 B7       		.byte	0xb7
 1614 07f6 2C080000 		.4byte	0x82c
 1615 07fa 18       		.byte	0x18
 1616 07fb 07       		.uleb128 0x7
 1617 07fc 7E090000 		.4byte	.LASF115
 1618 0800 0F       		.byte	0xf
 1619 0801 B8       		.byte	0xb8
 1620 0802 F0000000 		.4byte	0xf0
 1621 0806 1C       		.byte	0x1c
 1622 0807 07       		.uleb128 0x7
 1623 0808 65020000 		.4byte	.LASF116
 1624 080c 0F       		.byte	0xf
 1625 080d B9       		.byte	0xb9
 1626 080e F0000000 		.4byte	0xf0
 1627 0812 20       		.byte	0x20
 1628 0813 07       		.uleb128 0x7
 1629 0814 53020000 		.4byte	.LASF117
 1630 0818 0F       		.byte	0xf
 1631 0819 BA       		.byte	0xba
 1632 081a F0000000 		.4byte	0xf0
 1633 081e 24       		.byte	0x24
 1634 081f 12       		.uleb128 0x12
 1635 0820 42525200 		.ascii	"BRR\000"
 1636 0824 0F       		.byte	0xf
 1637 0825 BB       		.byte	0xbb
 1638 0826 F0000000 		.4byte	0xf0
 1639 082a 28       		.byte	0x28
 1640 082b 00       		.byte	0
 1641 082c 05       		.uleb128 0x5
 1642 082d 84070000 		.4byte	0x784
 1643 0831 03       		.uleb128 0x3
 1644 0832 58020000 		.4byte	.LASF118
 1645 0836 0F       		.byte	0xf
 1646 0837 BC       		.byte	0xbc
 1647 0838 9F070000 		.4byte	0x79f
 1648 083c 18       		.uleb128 0x18
 1649 083d 3E040000 		.4byte	.LASF119
 1650 0841 0F       		.byte	0xf
 1651 0842 0E01     		.2byte	0x10e
 1652 0844 CA000000 		.4byte	0xca
 1653 0848 18       		.uleb128 0x18
ARM GAS  /tmp/ccs1tseK.s 			page 30


 1654 0849 DE080000 		.4byte	.LASF120
 1655 084d 0F       		.byte	0xf
 1656 084e 1301     		.2byte	0x113
 1657 0850 CA000000 		.4byte	0xca
 1658 0854 18       		.uleb128 0x18
 1659 0855 2B030000 		.4byte	.LASF121
 1660 0859 0F       		.byte	0xf
 1661 085a 1B01     		.2byte	0x11b
 1662 085c 60080000 		.4byte	0x860
 1663 0860 0A       		.uleb128 0xa
 1664 0861 04       		.byte	0x4
 1665 0862 31080000 		.4byte	0x831
 1666 0866 19       		.uleb128 0x19
 1667 0867 01       		.byte	0x1
 1668 0868 10       		.byte	0x10
 1669 0869 31       		.byte	0x31
 1670 086a 8D080000 		.4byte	0x88d
 1671 086e 1A       		.uleb128 0x1a
 1672 086f 10080000 		.4byte	.LASF122
 1673 0873 00       		.sleb128 0
 1674 0874 1A       		.uleb128 0x1a
 1675 0875 3E010000 		.4byte	.LASF123
 1676 0879 01       		.sleb128 1
 1677 087a 1A       		.uleb128 0x1a
 1678 087b A4070000 		.4byte	.LASF124
 1679 087f 02       		.sleb128 2
 1680 0880 1A       		.uleb128 0x1a
 1681 0881 53000000 		.4byte	.LASF125
 1682 0885 03       		.sleb128 3
 1683 0886 1A       		.uleb128 0x1a
 1684 0887 23080000 		.4byte	.LASF126
 1685 088b 04       		.sleb128 4
 1686 088c 00       		.byte	0
 1687 088d 03       		.uleb128 0x3
 1688 088e 25040000 		.4byte	.LASF127
 1689 0892 10       		.byte	0x10
 1690 0893 37       		.byte	0x37
 1691 0894 66080000 		.4byte	0x866
 1692 0898 03       		.uleb128 0x3
 1693 0899 AF080000 		.4byte	.LASF128
 1694 089d 10       		.byte	0x10
 1695 089e 3C       		.byte	0x3c
 1696 089f A3080000 		.4byte	0x8a3
 1697 08a3 0B       		.uleb128 0xb
 1698 08a4 AF080000 		.4byte	.LASF128
 1699 08a8 18       		.byte	0x18
 1700 08a9 11       		.byte	0x11
 1701 08aa 3101     		.2byte	0x131
 1702 08ac FF080000 		.4byte	0x8ff
 1703 08b0 09       		.uleb128 0x9
 1704 08b1 8C080000 		.4byte	.LASF129
 1705 08b5 11       		.byte	0x11
 1706 08b6 3501     		.2byte	0x135
 1707 08b8 8D080000 		.4byte	0x88d
 1708 08bc 00       		.byte	0
 1709 08bd 09       		.uleb128 0x9
 1710 08be 28050000 		.4byte	.LASF130
ARM GAS  /tmp/ccs1tseK.s 			page 31


 1711 08c2 11       		.byte	0x11
 1712 08c3 3901     		.2byte	0x139
 1713 08c5 FF0A0000 		.4byte	0xaff
 1714 08c9 04       		.byte	0x4
 1715 08ca 09       		.uleb128 0x9
 1716 08cb 40030000 		.4byte	.LASF131
 1717 08cf 11       		.byte	0x11
 1718 08d0 4101     		.2byte	0x141
 1719 08d2 CA000000 		.4byte	0xca
 1720 08d6 08       		.byte	0x8
 1721 08d7 08       		.uleb128 0x8
 1722 08d8 74696D00 		.ascii	"tim\000"
 1723 08dc 11       		.byte	0x11
 1724 08dd 4501     		.2byte	0x145
 1725 08df 0A0B0000 		.4byte	0xb0a
 1726 08e3 0C       		.byte	0xc
 1727 08e4 09       		.uleb128 0x9
 1728 08e5 D5020000 		.4byte	.LASF132
 1729 08e9 11       		.byte	0x11
 1730 08ea 4901     		.2byte	0x149
 1731 08ec 5D070000 		.4byte	0x75d
 1732 08f0 10       		.byte	0x10
 1733 08f1 09       		.uleb128 0x9
 1734 08f2 C5080000 		.4byte	.LASF133
 1735 08f6 11       		.byte	0x11
 1736 08f7 4D01     		.2byte	0x14d
 1737 08f9 5D070000 		.4byte	0x75d
 1738 08fd 14       		.byte	0x14
 1739 08fe 00       		.byte	0
 1740 08ff 03       		.uleb128 0x3
 1741 0900 EE080000 		.4byte	.LASF134
 1742 0904 10       		.byte	0x10
 1743 0905 43       		.byte	0x43
 1744 0906 0A090000 		.4byte	0x90a
 1745 090a 0A       		.uleb128 0xa
 1746 090b 04       		.byte	0x4
 1747 090c 10090000 		.4byte	0x910
 1748 0910 0C       		.uleb128 0xc
 1749 0911 1B090000 		.4byte	0x91b
 1750 0915 0D       		.uleb128 0xd
 1751 0916 1B090000 		.4byte	0x91b
 1752 091a 00       		.byte	0
 1753 091b 0A       		.uleb128 0xa
 1754 091c 04       		.byte	0x4
 1755 091d 98080000 		.4byte	0x898
 1756 0921 1B       		.uleb128 0x1b
 1757 0922 60       		.byte	0x60
 1758 0923 12       		.byte	0x12
 1759 0924 9E01     		.2byte	0x19e
 1760 0926 2D0A0000 		.4byte	0xa2d
 1761 092a 08       		.uleb128 0x8
 1762 092b 43523100 		.ascii	"CR1\000"
 1763 092f 12       		.byte	0x12
 1764 0930 9F01     		.2byte	0x19f
 1765 0932 F0000000 		.4byte	0xf0
 1766 0936 00       		.byte	0
 1767 0937 08       		.uleb128 0x8
ARM GAS  /tmp/ccs1tseK.s 			page 32


 1768 0938 43523200 		.ascii	"CR2\000"
 1769 093c 12       		.byte	0x12
 1770 093d A001     		.2byte	0x1a0
 1771 093f F0000000 		.4byte	0xf0
 1772 0943 04       		.byte	0x4
 1773 0944 09       		.uleb128 0x9
 1774 0945 BC030000 		.4byte	.LASF135
 1775 0949 12       		.byte	0x12
 1776 094a A101     		.2byte	0x1a1
 1777 094c F0000000 		.4byte	0xf0
 1778 0950 08       		.byte	0x8
 1779 0951 09       		.uleb128 0x9
 1780 0952 26030000 		.4byte	.LASF136
 1781 0956 12       		.byte	0x12
 1782 0957 A201     		.2byte	0x1a2
 1783 0959 F0000000 		.4byte	0xf0
 1784 095d 0C       		.byte	0xc
 1785 095e 08       		.uleb128 0x8
 1786 095f 535200   		.ascii	"SR\000"
 1787 0962 12       		.byte	0x12
 1788 0963 A301     		.2byte	0x1a3
 1789 0965 F0000000 		.4byte	0xf0
 1790 0969 10       		.byte	0x10
 1791 096a 08       		.uleb128 0x8
 1792 096b 45475200 		.ascii	"EGR\000"
 1793 096f 12       		.byte	0x12
 1794 0970 A401     		.2byte	0x1a4
 1795 0972 F0000000 		.4byte	0xf0
 1796 0976 14       		.byte	0x14
 1797 0977 09       		.uleb128 0x9
 1798 0978 D8010000 		.4byte	.LASF137
 1799 097c 12       		.byte	0x12
 1800 097d A501     		.2byte	0x1a5
 1801 097f F0000000 		.4byte	0xf0
 1802 0983 18       		.byte	0x18
 1803 0984 09       		.uleb128 0x9
 1804 0985 DE010000 		.4byte	.LASF138
 1805 0989 12       		.byte	0x12
 1806 098a A601     		.2byte	0x1a6
 1807 098c F0000000 		.4byte	0xf0
 1808 0990 1C       		.byte	0x1c
 1809 0991 09       		.uleb128 0x9
 1810 0992 59030000 		.4byte	.LASF139
 1811 0996 12       		.byte	0x12
 1812 0997 A701     		.2byte	0x1a7
 1813 0999 F0000000 		.4byte	0xf0
 1814 099d 20       		.byte	0x20
 1815 099e 08       		.uleb128 0x8
 1816 099f 434E5400 		.ascii	"CNT\000"
 1817 09a3 12       		.byte	0x12
 1818 09a4 A801     		.2byte	0x1a8
 1819 09a6 F0000000 		.4byte	0xf0
 1820 09aa 24       		.byte	0x24
 1821 09ab 08       		.uleb128 0x8
 1822 09ac 50534300 		.ascii	"PSC\000"
 1823 09b0 12       		.byte	0x12
 1824 09b1 A901     		.2byte	0x1a9
ARM GAS  /tmp/ccs1tseK.s 			page 33


 1825 09b3 F0000000 		.4byte	0xf0
 1826 09b7 28       		.byte	0x28
 1827 09b8 08       		.uleb128 0x8
 1828 09b9 41525200 		.ascii	"ARR\000"
 1829 09bd 12       		.byte	0x12
 1830 09be AA01     		.2byte	0x1aa
 1831 09c0 F0000000 		.4byte	0xf0
 1832 09c4 2C       		.byte	0x2c
 1833 09c5 08       		.uleb128 0x8
 1834 09c6 52435200 		.ascii	"RCR\000"
 1835 09ca 12       		.byte	0x12
 1836 09cb AB01     		.2byte	0x1ab
 1837 09cd F0000000 		.4byte	0xf0
 1838 09d1 30       		.byte	0x30
 1839 09d2 08       		.uleb128 0x8
 1840 09d3 43435200 		.ascii	"CCR\000"
 1841 09d7 12       		.byte	0x12
 1842 09d8 AC01     		.2byte	0x1ac
 1843 09da 2D0A0000 		.4byte	0xa2d
 1844 09de 34       		.byte	0x34
 1845 09df 09       		.uleb128 0x9
 1846 09e0 96010000 		.4byte	.LASF140
 1847 09e4 12       		.byte	0x12
 1848 09e5 AD01     		.2byte	0x1ad
 1849 09e7 F0000000 		.4byte	0xf0
 1850 09eb 44       		.byte	0x44
 1851 09ec 08       		.uleb128 0x8
 1852 09ed 44435200 		.ascii	"DCR\000"
 1853 09f1 12       		.byte	0x12
 1854 09f2 AE01     		.2byte	0x1ae
 1855 09f4 F0000000 		.4byte	0xf0
 1856 09f8 48       		.byte	0x48
 1857 09f9 09       		.uleb128 0x9
 1858 09fa 30010000 		.4byte	.LASF141
 1859 09fe 12       		.byte	0x12
 1860 09ff AF01     		.2byte	0x1af
 1861 0a01 F0000000 		.4byte	0xf0
 1862 0a05 4C       		.byte	0x4c
 1863 0a06 08       		.uleb128 0x8
 1864 0a07 4F5200   		.ascii	"OR\000"
 1865 0a0a 12       		.byte	0x12
 1866 0a0b B001     		.2byte	0x1b0
 1867 0a0d F0000000 		.4byte	0xf0
 1868 0a11 50       		.byte	0x50
 1869 0a12 09       		.uleb128 0x9
 1870 0a13 E4010000 		.4byte	.LASF142
 1871 0a17 12       		.byte	0x12
 1872 0a18 B101     		.2byte	0x1b1
 1873 0a1a F0000000 		.4byte	0xf0
 1874 0a1e 54       		.byte	0x54
 1875 0a1f 09       		.uleb128 0x9
 1876 0a20 1D050000 		.4byte	.LASF143
 1877 0a24 12       		.byte	0x12
 1878 0a25 B201     		.2byte	0x1b2
 1879 0a27 320A0000 		.4byte	0xa32
 1880 0a2b 58       		.byte	0x58
 1881 0a2c 00       		.byte	0
ARM GAS  /tmp/ccs1tseK.s 			page 34


 1882 0a2d 05       		.uleb128 0x5
 1883 0a2e A8040000 		.4byte	0x4a8
 1884 0a32 05       		.uleb128 0x5
 1885 0a33 98040000 		.4byte	0x498
 1886 0a37 18       		.uleb128 0x18
 1887 0a38 C3020000 		.4byte	.LASF144
 1888 0a3c 12       		.byte	0x12
 1889 0a3d B301     		.2byte	0x1b3
 1890 0a3f 21090000 		.4byte	0x921
 1891 0a43 19       		.uleb128 0x19
 1892 0a44 01       		.byte	0x1
 1893 0a45 11       		.byte	0x11
 1894 0a46 EE       		.byte	0xee
 1895 0a47 580A0000 		.4byte	0xa58
 1896 0a4b 1A       		.uleb128 0x1a
 1897 0a4c 6A040000 		.4byte	.LASF145
 1898 0a50 00       		.sleb128 0
 1899 0a51 1A       		.uleb128 0x1a
 1900 0a52 92080000 		.4byte	.LASF146
 1901 0a56 01       		.sleb128 1
 1902 0a57 00       		.byte	0
 1903 0a58 03       		.uleb128 0x3
 1904 0a59 8A070000 		.4byte	.LASF147
 1905 0a5d 11       		.byte	0x11
 1906 0a5e F1       		.byte	0xf1
 1907 0a5f 430A0000 		.4byte	0xa43
 1908 0a63 03       		.uleb128 0x3
 1909 0a64 AE070000 		.4byte	.LASF148
 1910 0a68 11       		.byte	0x11
 1911 0a69 F6       		.byte	0xf6
 1912 0a6a CA000000 		.4byte	0xca
 1913 0a6e 19       		.uleb128 0x19
 1914 0a6f 01       		.byte	0x1
 1915 0a70 11       		.byte	0x11
 1916 0a71 FB       		.byte	0xfb
 1917 0a72 830A0000 		.4byte	0xa83
 1918 0a76 1A       		.uleb128 0x1a
 1919 0a77 0F070000 		.4byte	.LASF149
 1920 0a7b 00       		.sleb128 0
 1921 0a7c 1A       		.uleb128 0x1a
 1922 0a7d 1D070000 		.4byte	.LASF150
 1923 0a81 01       		.sleb128 1
 1924 0a82 00       		.byte	0
 1925 0a83 03       		.uleb128 0x3
 1926 0a84 C8040000 		.4byte	.LASF151
 1927 0a88 11       		.byte	0x11
 1928 0a89 FE       		.byte	0xfe
 1929 0a8a 6E0A0000 		.4byte	0xa6e
 1930 0a8e 1B       		.uleb128 0x1b
 1931 0a8f 1C       		.byte	0x1c
 1932 0a90 11       		.byte	0x11
 1933 0a91 0901     		.2byte	0x109
 1934 0a93 F30A0000 		.4byte	0xaf3
 1935 0a97 09       		.uleb128 0x9
 1936 0a98 1D010000 		.4byte	.LASF152
 1937 0a9c 11       		.byte	0x11
 1938 0a9d 0D01     		.2byte	0x10d
ARM GAS  /tmp/ccs1tseK.s 			page 35


 1939 0a9f 580A0000 		.4byte	0xa58
 1940 0aa3 00       		.byte	0
 1941 0aa4 09       		.uleb128 0x9
 1942 0aa5 82080000 		.4byte	.LASF153
 1943 0aa9 11       		.byte	0x11
 1944 0aaa 1301     		.2byte	0x113
 1945 0aac 630A0000 		.4byte	0xa63
 1946 0ab0 04       		.byte	0x4
 1947 0ab1 09       		.uleb128 0x9
 1948 0ab2 80040000 		.4byte	.LASF154
 1949 0ab6 11       		.byte	0x11
 1950 0ab7 1701     		.2byte	0x117
 1951 0ab9 FF080000 		.4byte	0x8ff
 1952 0abd 08       		.byte	0x8
 1953 0abe 09       		.uleb128 0x9
 1954 0abf A2010000 		.4byte	.LASF155
 1955 0ac3 11       		.byte	0x11
 1956 0ac4 1B01     		.2byte	0x11b
 1957 0ac6 FF080000 		.4byte	0x8ff
 1958 0aca 0C       		.byte	0xc
 1959 0acb 09       		.uleb128 0x9
 1960 0acc 9E030000 		.4byte	.LASF156
 1961 0ad0 11       		.byte	0x11
 1962 0ad1 1F01     		.2byte	0x11f
 1963 0ad3 FF080000 		.4byte	0x8ff
 1964 0ad7 10       		.byte	0x10
 1965 0ad8 09       		.uleb128 0x9
 1966 0ad9 10050000 		.4byte	.LASF157
 1967 0add 11       		.byte	0x11
 1968 0ade 2501     		.2byte	0x125
 1969 0ae0 830A0000 		.4byte	0xa83
 1970 0ae4 14       		.byte	0x14
 1971 0ae5 09       		.uleb128 0x9
 1972 0ae6 18050000 		.4byte	.LASF158
 1973 0aea 11       		.byte	0x11
 1974 0aeb 2B01     		.2byte	0x12b
 1975 0aed CA000000 		.4byte	0xca
 1976 0af1 18       		.byte	0x18
 1977 0af2 00       		.byte	0
 1978 0af3 18       		.uleb128 0x18
 1979 0af4 DA030000 		.4byte	.LASF159
 1980 0af8 11       		.byte	0x11
 1981 0af9 2C01     		.2byte	0x12c
 1982 0afb 8E0A0000 		.4byte	0xa8e
 1983 0aff 0A       		.uleb128 0xa
 1984 0b00 04       		.byte	0x4
 1985 0b01 050B0000 		.4byte	0xb05
 1986 0b05 16       		.uleb128 0x16
 1987 0b06 F30A0000 		.4byte	0xaf3
 1988 0b0a 0A       		.uleb128 0xa
 1989 0b0b 04       		.byte	0x4
 1990 0b0c 370A0000 		.4byte	0xa37
 1991 0b10 1C       		.uleb128 0x1c
 1992 0b11 58070000 		.4byte	.LASF163
 1993 0b15 02       		.byte	0x2
 1994 0b16 2002     		.2byte	0x220
 1995 0b18 03       		.byte	0x3
ARM GAS  /tmp/ccs1tseK.s 			page 36


 1996 0b19 2A0B0000 		.4byte	0xb2a
 1997 0b1d 1D       		.uleb128 0x1d
 1998 0b1e 72020000 		.4byte	.LASF169
 1999 0b22 02       		.byte	0x2
 2000 0b23 2002     		.2byte	0x220
 2001 0b25 CA000000 		.4byte	0xca
 2002 0b29 00       		.byte	0
 2003 0b2a 1E       		.uleb128 0x1e
 2004 0b2b F6000000 		.4byte	.LASF160
 2005 0b2f 0B       		.byte	0xb
 2006 0b30 BC01     		.2byte	0x1bc
 2007 0b32 03       		.byte	0x3
 2008 0b33 1E       		.uleb128 0x1e
 2009 0b34 5B090000 		.4byte	.LASF161
 2010 0b38 0B       		.byte	0xb
 2011 0b39 CA01     		.2byte	0x1ca
 2012 0b3b 03       		.byte	0x3
 2013 0b3c 1E       		.uleb128 0x1e
 2014 0b3d 36030000 		.4byte	.LASF162
 2015 0b41 13       		.byte	0x13
 2016 0b42 5A01     		.2byte	0x15a
 2017 0b44 03       		.byte	0x3
 2018 0b45 1F       		.uleb128 0x1f
 2019 0b46 48090000 		.4byte	.LASF197
 2020 0b4a 03       		.byte	0x3
 2021 0b4b E4       		.byte	0xe4
 2022 0b4c 58010000 		.4byte	0x158
 2023 0b50 03       		.byte	0x3
 2024 0b51 1C       		.uleb128 0x1c
 2025 0b52 47020000 		.4byte	.LASF164
 2026 0b56 13       		.byte	0x13
 2027 0b57 6601     		.2byte	0x166
 2028 0b59 03       		.byte	0x3
 2029 0b5a 6C0B0000 		.4byte	0xb6c
 2030 0b5e 20       		.uleb128 0x20
 2031 0b5f 37090000 		.4byte	.LASF165
 2032 0b63 7C0B0000 		.4byte	0xb7c
 2033 0b67 47020000 		.4byte	.LASF164
 2034 0b6b 00       		.byte	0
 2035 0b6c 10       		.uleb128 0x10
 2036 0b6d 1E070000 		.4byte	0x71e
 2037 0b71 7C0B0000 		.4byte	0xb7c
 2038 0b75 11       		.uleb128 0x11
 2039 0b76 91040000 		.4byte	0x491
 2040 0b7a 0B       		.byte	0xb
 2041 0b7b 00       		.byte	0
 2042 0b7c 16       		.uleb128 0x16
 2043 0b7d 6C0B0000 		.4byte	0xb6c
 2044 0b81 21       		.uleb128 0x21
 2045 0b82 07040000 		.4byte	.LASF167
 2046 0b86 03       		.byte	0x3
 2047 0b87 F7       		.byte	0xf7
 2048 0b88 58010000 		.4byte	0x158
 2049 0b8c 03       		.byte	0x3
 2050 0b8d 9D0B0000 		.4byte	0xb9d
 2051 0b91 22       		.uleb128 0x22
 2052 0b92 B5040000 		.4byte	.LASF166
ARM GAS  /tmp/ccs1tseK.s 			page 37


 2053 0b96 03       		.byte	0x3
 2054 0b97 F8       		.byte	0xf8
 2055 0b98 58010000 		.4byte	0x158
 2056 0b9c 00       		.byte	0
 2057 0b9d 23       		.uleb128 0x23
 2058 0b9e 47010000 		.4byte	.LASF168
 2059 0ba2 03       		.byte	0x3
 2060 0ba3 0901     		.2byte	0x109
 2061 0ba5 58010000 		.4byte	0x158
 2062 0ba9 03       		.byte	0x3
 2063 0baa BB0B0000 		.4byte	0xbbb
 2064 0bae 1D       		.uleb128 0x1d
 2065 0baf 9E070000 		.4byte	.LASF170
 2066 0bb3 03       		.byte	0x3
 2067 0bb4 0901     		.2byte	0x109
 2068 0bb6 58010000 		.4byte	0x158
 2069 0bba 00       		.byte	0
 2070 0bbb 24       		.uleb128 0x24
 2071 0bbc DB020000 		.4byte	.LASF198
 2072 0bc0 01       		.byte	0x1
 2073 0bc1 5D       		.byte	0x5d
 2074 0bc2 00000000 		.4byte	.LFB257
 2075 0bc6 02000000 		.4byte	.LFE257-.LFB257
 2076 0bca 01       		.uleb128 0x1
 2077 0bcb 9C       		.byte	0x9c
 2078 0bcc DE0B0000 		.4byte	0xbde
 2079 0bd0 25       		.uleb128 0x25
 2080 0bd1 7C010000 		.4byte	.LASF171
 2081 0bd5 01       		.byte	0x1
 2082 0bd6 5D       		.byte	0x5d
 2083 0bd7 1B090000 		.4byte	0x91b
 2084 0bdb 01       		.uleb128 0x1
 2085 0bdc 50       		.byte	0x50
 2086 0bdd 00       		.byte	0
 2087 0bde 26       		.uleb128 0x26
 2088 0bdf 08090000 		.4byte	.LASF199
 2089 0be3 01       		.byte	0x1
 2090 0be4 31       		.byte	0x31
 2091 0be5 00000000 		.4byte	.LFB256
 2092 0be9 3C010000 		.4byte	.LFE256-.LFB256
 2093 0bed 01       		.uleb128 0x1
 2094 0bee 9C       		.byte	0x9c
 2095 0bef 2E0D0000 		.4byte	0xd2e
 2096 0bf3 27       		.uleb128 0x27
 2097 0bf4 7C010000 		.4byte	.LASF171
 2098 0bf8 01       		.byte	0x1
 2099 0bf9 31       		.byte	0x31
 2100 0bfa 1B090000 		.4byte	0x91b
 2101 0bfe 00000000 		.4byte	.LLST0
 2102 0c02 28       		.uleb128 0x28
 2103 0c03 6C656E00 		.ascii	"len\000"
 2104 0c07 01       		.byte	0x1
 2105 0c08 33       		.byte	0x33
 2106 0c09 25000000 		.4byte	0x25
 2107 0c0d 21000000 		.4byte	.LLST1
 2108 0c11 29       		.uleb128 0x29
 2109 0c12 6D070000 		.4byte	.LASF172
ARM GAS  /tmp/ccs1tseK.s 			page 38


 2110 0c16 01       		.byte	0x1
 2111 0c17 34       		.byte	0x34
 2112 0c18 2E0D0000 		.4byte	0xd2e
 2113 0c1c 41000000 		.4byte	.LLST2
 2114 0c20 2A       		.uleb128 0x2a
 2115 0c21 810B0000 		.4byte	0xb81
 2116 0c25 80000000 		.4byte	.LBB46
 2117 0c29 10000000 		.4byte	.LBE46-.LBB46
 2118 0c2d 01       		.byte	0x1
 2119 0c2e 55       		.byte	0x55
 2120 0c2f D70C0000 		.4byte	0xcd7
 2121 0c33 2B       		.uleb128 0x2b
 2122 0c34 80000000 		.4byte	.LBB47
 2123 0c38 10000000 		.4byte	.LBE47-.LBB47
 2124 0c3c 2C       		.uleb128 0x2c
 2125 0c3d 910B0000 		.4byte	0xb91
 2126 0c41 2A       		.uleb128 0x2a
 2127 0c42 3C0B0000 		.4byte	0xb3c
 2128 0c46 80000000 		.4byte	.LBB48
 2129 0c4a 06000000 		.4byte	.LBE48-.LBB48
 2130 0c4e 03       		.byte	0x3
 2131 0c4f FA       		.byte	0xfa
 2132 0c50 800C0000 		.4byte	0xc80
 2133 0c54 2D       		.uleb128 0x2d
 2134 0c55 2A0B0000 		.4byte	0xb2a
 2135 0c59 80000000 		.4byte	.LBB49
 2136 0c5d 06000000 		.4byte	.LBE49-.LBB49
 2137 0c61 13       		.byte	0x13
 2138 0c62 5C01     		.2byte	0x15c
 2139 0c64 2D       		.uleb128 0x2d
 2140 0c65 100B0000 		.4byte	0xb10
 2141 0c69 80000000 		.4byte	.LBB50
 2142 0c6d 06000000 		.4byte	.LBE50-.LBB50
 2143 0c71 0B       		.byte	0xb
 2144 0c72 BF01     		.2byte	0x1bf
 2145 0c74 2E       		.uleb128 0x2e
 2146 0c75 1D0B0000 		.4byte	0xb1d
 2147 0c79 6D000000 		.4byte	.LLST3
 2148 0c7d 00       		.byte	0
 2149 0c7e 00       		.byte	0
 2150 0c7f 00       		.byte	0
 2151 0c80 2F       		.uleb128 0x2f
 2152 0c81 450B0000 		.4byte	0xb45
 2153 0c85 86000000 		.4byte	.LBB52
 2154 0c89 00000000 		.4byte	.Ldebug_ranges0+0
 2155 0c8d 03       		.byte	0x3
 2156 0c8e FB       		.byte	0xfb
 2157 0c8f 30       		.uleb128 0x30
 2158 0c90 510B0000 		.4byte	0xb51
 2159 0c94 88000000 		.4byte	.LBB55
 2160 0c98 18000000 		.4byte	.Ldebug_ranges0+0x18
 2161 0c9c 03       		.byte	0x3
 2162 0c9d FC       		.byte	0xfc
 2163 0c9e 31       		.uleb128 0x31
 2164 0c9f 18000000 		.4byte	.Ldebug_ranges0+0x18
 2165 0ca3 2C       		.uleb128 0x2c
 2166 0ca4 5E0B0000 		.4byte	0xb5e
ARM GAS  /tmp/ccs1tseK.s 			page 39


 2167 0ca8 32       		.uleb128 0x32
 2168 0ca9 330B0000 		.4byte	0xb33
 2169 0cad 88000000 		.4byte	.LBB57
 2170 0cb1 18000000 		.4byte	.Ldebug_ranges0+0x18
 2171 0cb5 13       		.byte	0x13
 2172 0cb6 7301     		.2byte	0x173
 2173 0cb8 32       		.uleb128 0x32
 2174 0cb9 100B0000 		.4byte	0xb10
 2175 0cbd 88000000 		.4byte	.LBB58
 2176 0cc1 18000000 		.4byte	.Ldebug_ranges0+0x18
 2177 0cc5 0B       		.byte	0xb
 2178 0cc6 CD01     		.2byte	0x1cd
 2179 0cc8 2E       		.uleb128 0x2e
 2180 0cc9 1D0B0000 		.4byte	0xb1d
 2181 0ccd 82000000 		.4byte	.LLST4
 2182 0cd1 00       		.byte	0
 2183 0cd2 00       		.byte	0
 2184 0cd3 00       		.byte	0
 2185 0cd4 00       		.byte	0
 2186 0cd5 00       		.byte	0
 2187 0cd6 00       		.byte	0
 2188 0cd7 2B       		.uleb128 0x2b
 2189 0cd8 D8000000 		.4byte	.LBB66
 2190 0cdc 2A000000 		.4byte	.LBE66-.LBB66
 2191 0ce0 33       		.uleb128 0x33
 2192 0ce1 6300     		.ascii	"c\000"
 2193 0ce3 01       		.byte	0x1
 2194 0ce4 48       		.byte	0x48
 2195 0ce5 25000000 		.4byte	0x25
 2196 0ce9 02       		.uleb128 0x2
 2197 0cea 90       		.byte	0x90
 2198 0ceb 50       		.uleb128 0x50
 2199 0cec 33       		.uleb128 0x33
 2200 0ced 633100   		.ascii	"c1\000"
 2201 0cf0 01       		.byte	0x1
 2202 0cf1 49       		.byte	0x49
 2203 0cf2 25000000 		.4byte	0x25
 2204 0cf6 05       		.uleb128 0x5
 2205 0cf7 03       		.byte	0x3
 2206 0cf8 00000000 		.4byte	c1.9021
 2207 0cfc 33       		.uleb128 0x33
 2208 0cfd 633200   		.ascii	"c2\000"
 2209 0d00 01       		.byte	0x1
 2210 0d01 4A       		.byte	0x4a
 2211 0d02 25000000 		.4byte	0x25
 2212 0d06 05       		.uleb128 0x5
 2213 0d07 03       		.byte	0x3
 2214 0d08 00000000 		.4byte	c2.9022
 2215 0d0c 33       		.uleb128 0x33
 2216 0d0d 6D656400 		.ascii	"med\000"
 2217 0d11 01       		.byte	0x1
 2218 0d12 4B       		.byte	0x4b
 2219 0d13 25000000 		.4byte	0x25
 2220 0d17 02       		.uleb128 0x2
 2221 0d18 90       		.byte	0x90
 2222 0d19 40       		.uleb128 0x40
 2223 0d1a 34       		.uleb128 0x34
ARM GAS  /tmp/ccs1tseK.s 			page 40


 2224 0d1b F4000000 		.4byte	.LVL14
 2225 0d1f 7E0F0000 		.4byte	0xf7e
 2226 0d23 35       		.uleb128 0x35
 2227 0d24 02       		.uleb128 0x2
 2228 0d25 90       		.byte	0x90
 2229 0d26 40       		.uleb128 0x40
 2230 0d27 03       		.uleb128 0x3
 2231 0d28 F5       		.byte	0xf5
 2232 0d29 50       		.uleb128 0x50
 2233 0d2a 25       		.uleb128 0x25
 2234 0d2b 00       		.byte	0
 2235 0d2c 00       		.byte	0
 2236 0d2d 00       		.byte	0
 2237 0d2e 16       		.uleb128 0x16
 2238 0d2f 25000000 		.4byte	0x25
 2239 0d33 36       		.uleb128 0x36
 2240 0d34 A0020000 		.4byte	.LASF174
 2241 0d38 01       		.byte	0x1
 2242 0d39 72       		.byte	0x72
 2243 0d3a 00000000 		.4byte	.LFB258
 2244 0d3e 50000000 		.4byte	.LFE258-.LFB258
 2245 0d42 01       		.uleb128 0x1
 2246 0d43 9C       		.byte	0x9c
 2247 0d44 D40D0000 		.4byte	0xdd4
 2248 0d48 27       		.uleb128 0x27
 2249 0d49 63040000 		.4byte	.LASF173
 2250 0d4d 01       		.byte	0x1
 2251 0d4e 72       		.byte	0x72
 2252 0d4f D50D0000 		.4byte	0xdd5
 2253 0d53 96000000 		.4byte	.LLST5
 2254 0d57 37       		.uleb128 0x37
 2255 0d58 30000000 		.4byte	.Ldebug_ranges0+0x30
 2256 0d5c 6E0D0000 		.4byte	0xd6e
 2257 0d60 28       		.uleb128 0x28
 2258 0d61 6900     		.ascii	"i\000"
 2259 0d63 01       		.byte	0x1
 2260 0d64 78       		.byte	0x78
 2261 0d65 9B000000 		.4byte	0x9b
 2262 0d69 C3000000 		.4byte	.LLST6
 2263 0d6d 00       		.byte	0
 2264 0d6e 38       		.uleb128 0x38
 2265 0d6f 0E000000 		.4byte	.LVL17
 2266 0d73 9D0F0000 		.4byte	0xf9d
 2267 0d77 8B0D0000 		.4byte	0xd8b
 2268 0d7b 35       		.uleb128 0x35
 2269 0d7c 01       		.uleb128 0x1
 2270 0d7d 51       		.byte	0x51
 2271 0d7e 05       		.uleb128 0x5
 2272 0d7f 03       		.byte	0x3
 2273 0d80 00000000 		.4byte	.LANCHOR9
 2274 0d84 35       		.uleb128 0x35
 2275 0d85 01       		.uleb128 0x1
 2276 0d86 50       		.byte	0x50
 2277 0d87 02       		.uleb128 0x2
 2278 0d88 74       		.byte	0x74
 2279 0d89 00       		.sleb128 0
 2280 0d8a 00       		.byte	0
ARM GAS  /tmp/ccs1tseK.s 			page 41


 2281 0d8b 38       		.uleb128 0x38
 2282 0d8c 1A000000 		.4byte	.LVL18
 2283 0d90 B30F0000 		.4byte	0xfb3
 2284 0d94 AF0D0000 		.4byte	0xdaf
 2285 0d98 35       		.uleb128 0x35
 2286 0d99 01       		.uleb128 0x1
 2287 0d9a 52       		.byte	0x52
 2288 0d9b 03       		.uleb128 0x3
 2289 0d9c 0A       		.byte	0xa
 2290 0d9d 0201     		.2byte	0x102
 2291 0d9f 35       		.uleb128 0x35
 2292 0da0 01       		.uleb128 0x1
 2293 0da1 51       		.byte	0x51
 2294 0da2 02       		.uleb128 0x2
 2295 0da3 08       		.byte	0x8
 2296 0da4 20       		.byte	0x20
 2297 0da5 35       		.uleb128 0x35
 2298 0da6 01       		.uleb128 0x1
 2299 0da7 50       		.byte	0x50
 2300 0da8 05       		.uleb128 0x5
 2301 0da9 0C       		.byte	0xc
 2302 0daa 00040240 		.4byte	0x40020400
 2303 0dae 00       		.byte	0
 2304 0daf 38       		.uleb128 0x38
 2305 0db0 20000000 		.4byte	.LVL19
 2306 0db4 CF0F0000 		.4byte	0xfcf
 2307 0db8 C30D0000 		.4byte	0xdc3
 2308 0dbc 35       		.uleb128 0x35
 2309 0dbd 01       		.uleb128 0x1
 2310 0dbe 50       		.byte	0x50
 2311 0dbf 02       		.uleb128 0x2
 2312 0dc0 74       		.byte	0x74
 2313 0dc1 00       		.sleb128 0
 2314 0dc2 00       		.byte	0
 2315 0dc3 34       		.uleb128 0x34
 2316 0dc4 26000000 		.4byte	.LVL20
 2317 0dc8 E00F0000 		.4byte	0xfe0
 2318 0dcc 35       		.uleb128 0x35
 2319 0dcd 01       		.uleb128 0x1
 2320 0dce 50       		.byte	0x50
 2321 0dcf 02       		.uleb128 0x2
 2322 0dd0 74       		.byte	0x74
 2323 0dd1 00       		.sleb128 0
 2324 0dd2 00       		.byte	0
 2325 0dd3 00       		.byte	0
 2326 0dd4 39       		.uleb128 0x39
 2327 0dd5 0A       		.uleb128 0xa
 2328 0dd6 04       		.byte	0x4
 2329 0dd7 D40D0000 		.4byte	0xdd4
 2330 0ddb 36       		.uleb128 0x36
 2331 0ddc D4000000 		.4byte	.LASF175
 2332 0de0 01       		.byte	0x1
 2333 0de1 8A       		.byte	0x8a
 2334 0de2 00000000 		.4byte	.LFB259
 2335 0de6 20000000 		.4byte	.LFE259-.LFB259
 2336 0dea 01       		.uleb128 0x1
 2337 0deb 9C       		.byte	0x9c
ARM GAS  /tmp/ccs1tseK.s 			page 42


 2338 0dec 1A0E0000 		.4byte	0xe1a
 2339 0df0 25       		.uleb128 0x25
 2340 0df1 9E070000 		.4byte	.LASF170
 2341 0df5 01       		.byte	0x1
 2342 0df6 8A       		.byte	0x8a
 2343 0df7 25000000 		.4byte	0x25
 2344 0dfb 02       		.uleb128 0x2
 2345 0dfc 90       		.byte	0x90
 2346 0dfd 40       		.uleb128 0x40
 2347 0dfe 3A       		.uleb128 0x3a
 2348 0dff 656E6400 		.ascii	"end\000"
 2349 0e03 01       		.byte	0x1
 2350 0e04 8A       		.byte	0x8a
 2351 0e05 25000000 		.4byte	0x25
 2352 0e09 02       		.uleb128 0x2
 2353 0e0a 90       		.byte	0x90
 2354 0e0b 41       		.uleb128 0x41
 2355 0e0c 25       		.uleb128 0x25
 2356 0e0d 81010000 		.4byte	.LASF176
 2357 0e11 01       		.byte	0x1
 2358 0e12 8A       		.byte	0x8a
 2359 0e13 56070000 		.4byte	0x756
 2360 0e17 01       		.uleb128 0x1
 2361 0e18 50       		.byte	0x50
 2362 0e19 00       		.byte	0
 2363 0e1a 3B       		.uleb128 0x3b
 2364 0e1b CB080000 		.4byte	.LASF178
 2365 0e1f 01       		.byte	0x1
 2366 0e20 99       		.byte	0x99
 2367 0e21 25000000 		.4byte	0x25
 2368 0e25 00000000 		.4byte	.LFB260
 2369 0e29 1C000000 		.4byte	.LFE260-.LFB260
 2370 0e2d 01       		.uleb128 0x1
 2371 0e2e 9C       		.byte	0x9c
 2372 0e2f 430E0000 		.4byte	0xe43
 2373 0e33 27       		.uleb128 0x27
 2374 0e34 49000000 		.4byte	.LASF177
 2375 0e38 01       		.byte	0x1
 2376 0e39 99       		.byte	0x99
 2377 0e3a 9B000000 		.4byte	0x9b
 2378 0e3e E3000000 		.4byte	.LLST7
 2379 0e42 00       		.byte	0
 2380 0e43 3B       		.uleb128 0x3b
 2381 0e44 01020000 		.4byte	.LASF179
 2382 0e48 01       		.byte	0x1
 2383 0e49 A8       		.byte	0xa8
 2384 0e4a CA000000 		.4byte	0xca
 2385 0e4e 00000000 		.4byte	.LFB261
 2386 0e52 20000000 		.4byte	.LFE261-.LFB261
 2387 0e56 01       		.uleb128 0x1
 2388 0e57 9C       		.byte	0x9c
 2389 0e58 860E0000 		.4byte	0xe86
 2390 0e5c 30       		.uleb128 0x30
 2391 0e5d 9D0B0000 		.4byte	0xb9d
 2392 0e61 02000000 		.4byte	.LBB69
 2393 0e65 48000000 		.4byte	.Ldebug_ranges0+0x48
 2394 0e69 01       		.byte	0x1
ARM GAS  /tmp/ccs1tseK.s 			page 43


 2395 0e6a A9       		.byte	0xa9
 2396 0e6b 2E       		.uleb128 0x2e
 2397 0e6c AE0B0000 		.4byte	0xbae
 2398 0e70 04010000 		.4byte	.LLST8
 2399 0e74 3C       		.uleb128 0x3c
 2400 0e75 450B0000 		.4byte	0xb45
 2401 0e79 02000000 		.4byte	.LBB71
 2402 0e7d 68000000 		.4byte	.Ldebug_ranges0+0x68
 2403 0e81 03       		.byte	0x3
 2404 0e82 0B01     		.2byte	0x10b
 2405 0e84 00       		.byte	0
 2406 0e85 00       		.byte	0
 2407 0e86 3B       		.uleb128 0x3b
 2408 0e87 35070000 		.4byte	.LASF180
 2409 0e8b 01       		.byte	0x1
 2410 0e8c B5       		.byte	0xb5
 2411 0e8d 25000000 		.4byte	0x25
 2412 0e91 00000000 		.4byte	.LFB262
 2413 0e95 1C000000 		.4byte	.LFE262-.LFB262
 2414 0e99 01       		.uleb128 0x1
 2415 0e9a 9C       		.byte	0x9c
 2416 0e9b AF0E0000 		.4byte	0xeaf
 2417 0e9f 27       		.uleb128 0x27
 2418 0ea0 49000000 		.4byte	.LASF177
 2419 0ea4 01       		.byte	0x1
 2420 0ea5 B5       		.byte	0xb5
 2421 0ea6 9B000000 		.4byte	0x9b
 2422 0eaa 17010000 		.4byte	.LLST9
 2423 0eae 00       		.byte	0
 2424 0eaf 3D       		.uleb128 0x3d
 2425 0eb0 0A030000 		.4byte	.LASF181
 2426 0eb4 01       		.byte	0x1
 2427 0eb5 27       		.byte	0x27
 2428 0eb6 25070000 		.4byte	0x725
 2429 0eba 05       		.uleb128 0x5
 2430 0ebb 03       		.byte	0x3
 2431 0ebc 00000000 		.4byte	last_update_time
 2432 0ec0 10       		.uleb128 0x10
 2433 0ec1 25000000 		.4byte	0x25
 2434 0ec5 D00E0000 		.4byte	0xed0
 2435 0ec9 11       		.uleb128 0x11
 2436 0eca 91040000 		.4byte	0x491
 2437 0ece 00       		.byte	0
 2438 0ecf 00       		.byte	0
 2439 0ed0 3D       		.uleb128 0x3d
 2440 0ed1 78080000 		.4byte	.LASF182
 2441 0ed5 01       		.byte	0x1
 2442 0ed6 28       		.byte	0x28
 2443 0ed7 E10E0000 		.4byte	0xee1
 2444 0edb 05       		.uleb128 0x5
 2445 0edc 03       		.byte	0x3
 2446 0edd 00000000 		.4byte	servo_pos
 2447 0ee1 05       		.uleb128 0x5
 2448 0ee2 C00E0000 		.4byte	0xec0
 2449 0ee6 3D       		.uleb128 0x3d
 2450 0ee7 7D050000 		.4byte	.LASF183
 2451 0eeb 01       		.byte	0x1
ARM GAS  /tmp/ccs1tseK.s 			page 44


 2452 0eec 29       		.byte	0x29
 2453 0eed F70E0000 		.4byte	0xef7
 2454 0ef1 05       		.uleb128 0x5
 2455 0ef2 03       		.byte	0x3
 2456 0ef3 00000000 		.4byte	pulse_start
 2457 0ef7 05       		.uleb128 0x5
 2458 0ef8 25000000 		.4byte	0x25
 2459 0efc 3D       		.uleb128 0x3d
 2460 0efd F5030000 		.4byte	.LASF184
 2461 0f01 01       		.byte	0x1
 2462 0f02 2A       		.byte	0x2a
 2463 0f03 F70E0000 		.4byte	0xef7
 2464 0f07 05       		.uleb128 0x5
 2465 0f08 03       		.byte	0x3
 2466 0f09 00000000 		.4byte	pulse_end
 2467 0f0d 3D       		.uleb128 0x3d
 2468 0f0e E7020000 		.4byte	.LASF185
 2469 0f12 01       		.byte	0x1
 2470 0f13 2B       		.byte	0x2b
 2471 0f14 1E0F0000 		.4byte	0xf1e
 2472 0f18 05       		.uleb128 0x5
 2473 0f19 03       		.byte	0x3
 2474 0f1a 00000000 		.4byte	last_len_received
 2475 0f1e 05       		.uleb128 0x5
 2476 0f1f C00E0000 		.4byte	0xec0
 2477 0f23 3D       		.uleb128 0x3d
 2478 0f24 60050000 		.4byte	.LASF186
 2479 0f28 01       		.byte	0x1
 2480 0f29 2C       		.byte	0x2c
 2481 0f2a 340F0000 		.4byte	0xf34
 2482 0f2e 05       		.uleb128 0x5
 2483 0f2f 03       		.byte	0x3
 2484 0f30 00000000 		.4byte	use_median_filter
 2485 0f34 05       		.uleb128 0x5
 2486 0f35 56070000 		.4byte	0x756
 2487 0f39 3D       		.uleb128 0x3d
 2488 0f3a 83090000 		.4byte	.LASF187
 2489 0f3e 01       		.byte	0x1
 2490 0f3f 2F       		.byte	0x2f
 2491 0f40 D50D0000 		.4byte	0xdd5
 2492 0f44 05       		.uleb128 0x5
 2493 0f45 03       		.byte	0x3
 2494 0f46 00000000 		.4byte	done_func
 2495 0f4a 3D       		.uleb128 0x3d
 2496 0f4b CD000000 		.4byte	.LASF188
 2497 0f4f 01       		.byte	0x1
 2498 0f50 61       		.byte	0x61
 2499 0f51 F30A0000 		.4byte	0xaf3
 2500 0f55 05       		.uleb128 0x5
 2501 0f56 03       		.byte	0x3
 2502 0f57 00000000 		.4byte	icucfg
 2503 0f5b 3E       		.uleb128 0x3e
 2504 0f5c 02070000 		.4byte	.LASF189
 2505 0f60 14       		.byte	0x14
 2506 0f61 A706     		.2byte	0x6a7
 2507 0f63 EB000000 		.4byte	0xeb
 2508 0f67 3F       		.uleb128 0x3f
ARM GAS  /tmp/ccs1tseK.s 			page 45


 2509 0f68 636800   		.ascii	"ch\000"
 2510 0f6b 09       		.byte	0x9
 2511 0f6c 0902     		.2byte	0x209
 2512 0f6e 2A040000 		.4byte	0x42a
 2513 0f72 3E       		.uleb128 0x3e
 2514 0f73 53030000 		.4byte	.LASF190
 2515 0f77 11       		.byte	0x11
 2516 0f78 8601     		.2byte	0x186
 2517 0f7a 98080000 		.4byte	0x898
 2518 0f7e 40       		.uleb128 0x40
 2519 0f7f D0070000 		.4byte	.LASF200
 2520 0f83 15       		.byte	0x15
 2521 0f84 29       		.byte	0x29
 2522 0f85 25000000 		.4byte	0x25
 2523 0f89 9D0F0000 		.4byte	0xf9d
 2524 0f8d 0D       		.uleb128 0xd
 2525 0f8e 25000000 		.4byte	0x25
 2526 0f92 0D       		.uleb128 0xd
 2527 0f93 25000000 		.4byte	0x25
 2528 0f97 0D       		.uleb128 0xd
 2529 0f98 25000000 		.4byte	0x25
 2530 0f9c 00       		.byte	0
 2531 0f9d 41       		.uleb128 0x41
 2532 0f9e A3050000 		.4byte	.LASF191
 2533 0fa2 10       		.byte	0x10
 2534 0fa3 DF       		.byte	0xdf
 2535 0fa4 B30F0000 		.4byte	0xfb3
 2536 0fa8 0D       		.uleb128 0xd
 2537 0fa9 1B090000 		.4byte	0x91b
 2538 0fad 0D       		.uleb128 0xd
 2539 0fae FF0A0000 		.4byte	0xaff
 2540 0fb2 00       		.byte	0
 2541 0fb3 42       		.uleb128 0x42
 2542 0fb4 94000000 		.4byte	.LASF192
 2543 0fb8 0F       		.byte	0xf
 2544 0fb9 E001     		.2byte	0x1e0
 2545 0fbb CF0F0000 		.4byte	0xfcf
 2546 0fbf 0D       		.uleb128 0xd
 2547 0fc0 54080000 		.4byte	0x854
 2548 0fc4 0D       		.uleb128 0xd
 2549 0fc5 3C080000 		.4byte	0x83c
 2550 0fc9 0D       		.uleb128 0xd
 2551 0fca 48080000 		.4byte	0x848
 2552 0fce 00       		.byte	0
 2553 0fcf 41       		.uleb128 0x41
 2554 0fd0 89050000 		.4byte	.LASF193
 2555 0fd4 10       		.byte	0x10
 2556 0fd5 E1       		.byte	0xe1
 2557 0fd6 E00F0000 		.4byte	0xfe0
 2558 0fda 0D       		.uleb128 0xd
 2559 0fdb 1B090000 		.4byte	0x91b
 2560 0fdf 00       		.byte	0
 2561 0fe0 43       		.uleb128 0x43
 2562 0fe1 F1040000 		.4byte	.LASF201
 2563 0fe5 10       		.byte	0x10
 2564 0fe6 E4       		.byte	0xe4
 2565 0fe7 0D       		.uleb128 0xd
ARM GAS  /tmp/ccs1tseK.s 			page 46


 2566 0fe8 1B090000 		.4byte	0x91b
 2567 0fec 00       		.byte	0
 2568 0fed 00       		.byte	0
 2569              		.section	.debug_abbrev,"",%progbits
 2570              	.Ldebug_abbrev0:
 2571 0000 01       		.uleb128 0x1
 2572 0001 11       		.uleb128 0x11
 2573 0002 01       		.byte	0x1
 2574 0003 25       		.uleb128 0x25
 2575 0004 0E       		.uleb128 0xe
 2576 0005 13       		.uleb128 0x13
 2577 0006 0B       		.uleb128 0xb
 2578 0007 03       		.uleb128 0x3
 2579 0008 0E       		.uleb128 0xe
 2580 0009 1B       		.uleb128 0x1b
 2581 000a 0E       		.uleb128 0xe
 2582 000b 55       		.uleb128 0x55
 2583 000c 17       		.uleb128 0x17
 2584 000d 11       		.uleb128 0x11
 2585 000e 01       		.uleb128 0x1
 2586 000f 10       		.uleb128 0x10
 2587 0010 17       		.uleb128 0x17
 2588 0011 00       		.byte	0
 2589 0012 00       		.byte	0
 2590 0013 02       		.uleb128 0x2
 2591 0014 24       		.uleb128 0x24
 2592 0015 00       		.byte	0
 2593 0016 0B       		.uleb128 0xb
 2594 0017 0B       		.uleb128 0xb
 2595 0018 3E       		.uleb128 0x3e
 2596 0019 0B       		.uleb128 0xb
 2597 001a 03       		.uleb128 0x3
 2598 001b 0E       		.uleb128 0xe
 2599 001c 00       		.byte	0
 2600 001d 00       		.byte	0
 2601 001e 03       		.uleb128 0x3
 2602 001f 16       		.uleb128 0x16
 2603 0020 00       		.byte	0
 2604 0021 03       		.uleb128 0x3
 2605 0022 0E       		.uleb128 0xe
 2606 0023 3A       		.uleb128 0x3a
 2607 0024 0B       		.uleb128 0xb
 2608 0025 3B       		.uleb128 0x3b
 2609 0026 0B       		.uleb128 0xb
 2610 0027 49       		.uleb128 0x49
 2611 0028 13       		.uleb128 0x13
 2612 0029 00       		.byte	0
 2613 002a 00       		.byte	0
 2614 002b 04       		.uleb128 0x4
 2615 002c 24       		.uleb128 0x24
 2616 002d 00       		.byte	0
 2617 002e 0B       		.uleb128 0xb
 2618 002f 0B       		.uleb128 0xb
 2619 0030 3E       		.uleb128 0x3e
 2620 0031 0B       		.uleb128 0xb
 2621 0032 03       		.uleb128 0x3
 2622 0033 08       		.uleb128 0x8
ARM GAS  /tmp/ccs1tseK.s 			page 47


 2623 0034 00       		.byte	0
 2624 0035 00       		.byte	0
 2625 0036 05       		.uleb128 0x5
 2626 0037 35       		.uleb128 0x35
 2627 0038 00       		.byte	0
 2628 0039 49       		.uleb128 0x49
 2629 003a 13       		.uleb128 0x13
 2630 003b 00       		.byte	0
 2631 003c 00       		.byte	0
 2632 003d 06       		.uleb128 0x6
 2633 003e 13       		.uleb128 0x13
 2634 003f 01       		.byte	0x1
 2635 0040 03       		.uleb128 0x3
 2636 0041 0E       		.uleb128 0xe
 2637 0042 0B       		.uleb128 0xb
 2638 0043 0B       		.uleb128 0xb
 2639 0044 3A       		.uleb128 0x3a
 2640 0045 0B       		.uleb128 0xb
 2641 0046 3B       		.uleb128 0x3b
 2642 0047 0B       		.uleb128 0xb
 2643 0048 01       		.uleb128 0x1
 2644 0049 13       		.uleb128 0x13
 2645 004a 00       		.byte	0
 2646 004b 00       		.byte	0
 2647 004c 07       		.uleb128 0x7
 2648 004d 0D       		.uleb128 0xd
 2649 004e 00       		.byte	0
 2650 004f 03       		.uleb128 0x3
 2651 0050 0E       		.uleb128 0xe
 2652 0051 3A       		.uleb128 0x3a
 2653 0052 0B       		.uleb128 0xb
 2654 0053 3B       		.uleb128 0x3b
 2655 0054 0B       		.uleb128 0xb
 2656 0055 49       		.uleb128 0x49
 2657 0056 13       		.uleb128 0x13
 2658 0057 38       		.uleb128 0x38
 2659 0058 0B       		.uleb128 0xb
 2660 0059 00       		.byte	0
 2661 005a 00       		.byte	0
 2662 005b 08       		.uleb128 0x8
 2663 005c 0D       		.uleb128 0xd
 2664 005d 00       		.byte	0
 2665 005e 03       		.uleb128 0x3
 2666 005f 08       		.uleb128 0x8
 2667 0060 3A       		.uleb128 0x3a
 2668 0061 0B       		.uleb128 0xb
 2669 0062 3B       		.uleb128 0x3b
 2670 0063 05       		.uleb128 0x5
 2671 0064 49       		.uleb128 0x49
 2672 0065 13       		.uleb128 0x13
 2673 0066 38       		.uleb128 0x38
 2674 0067 0B       		.uleb128 0xb
 2675 0068 00       		.byte	0
 2676 0069 00       		.byte	0
 2677 006a 09       		.uleb128 0x9
 2678 006b 0D       		.uleb128 0xd
 2679 006c 00       		.byte	0
ARM GAS  /tmp/ccs1tseK.s 			page 48


 2680 006d 03       		.uleb128 0x3
 2681 006e 0E       		.uleb128 0xe
 2682 006f 3A       		.uleb128 0x3a
 2683 0070 0B       		.uleb128 0xb
 2684 0071 3B       		.uleb128 0x3b
 2685 0072 05       		.uleb128 0x5
 2686 0073 49       		.uleb128 0x49
 2687 0074 13       		.uleb128 0x13
 2688 0075 38       		.uleb128 0x38
 2689 0076 0B       		.uleb128 0xb
 2690 0077 00       		.byte	0
 2691 0078 00       		.byte	0
 2692 0079 0A       		.uleb128 0xa
 2693 007a 0F       		.uleb128 0xf
 2694 007b 00       		.byte	0
 2695 007c 0B       		.uleb128 0xb
 2696 007d 0B       		.uleb128 0xb
 2697 007e 49       		.uleb128 0x49
 2698 007f 13       		.uleb128 0x13
 2699 0080 00       		.byte	0
 2700 0081 00       		.byte	0
 2701 0082 0B       		.uleb128 0xb
 2702 0083 13       		.uleb128 0x13
 2703 0084 01       		.byte	0x1
 2704 0085 03       		.uleb128 0x3
 2705 0086 0E       		.uleb128 0xe
 2706 0087 0B       		.uleb128 0xb
 2707 0088 0B       		.uleb128 0xb
 2708 0089 3A       		.uleb128 0x3a
 2709 008a 0B       		.uleb128 0xb
 2710 008b 3B       		.uleb128 0x3b
 2711 008c 05       		.uleb128 0x5
 2712 008d 01       		.uleb128 0x1
 2713 008e 13       		.uleb128 0x13
 2714 008f 00       		.byte	0
 2715 0090 00       		.byte	0
 2716 0091 0C       		.uleb128 0xc
 2717 0092 15       		.uleb128 0x15
 2718 0093 01       		.byte	0x1
 2719 0094 27       		.uleb128 0x27
 2720 0095 19       		.uleb128 0x19
 2721 0096 01       		.uleb128 0x1
 2722 0097 13       		.uleb128 0x13
 2723 0098 00       		.byte	0
 2724 0099 00       		.byte	0
 2725 009a 0D       		.uleb128 0xd
 2726 009b 05       		.uleb128 0x5
 2727 009c 00       		.byte	0
 2728 009d 49       		.uleb128 0x49
 2729 009e 13       		.uleb128 0x13
 2730 009f 00       		.byte	0
 2731 00a0 00       		.byte	0
 2732 00a1 0E       		.uleb128 0xe
 2733 00a2 0F       		.uleb128 0xf
 2734 00a3 00       		.byte	0
 2735 00a4 0B       		.uleb128 0xb
 2736 00a5 0B       		.uleb128 0xb
ARM GAS  /tmp/ccs1tseK.s 			page 49


 2737 00a6 00       		.byte	0
 2738 00a7 00       		.byte	0
 2739 00a8 0F       		.uleb128 0xf
 2740 00a9 13       		.uleb128 0x13
 2741 00aa 01       		.byte	0x1
 2742 00ab 03       		.uleb128 0x3
 2743 00ac 0E       		.uleb128 0xe
 2744 00ad 0B       		.uleb128 0xb
 2745 00ae 05       		.uleb128 0x5
 2746 00af 3A       		.uleb128 0x3a
 2747 00b0 0B       		.uleb128 0xb
 2748 00b1 3B       		.uleb128 0x3b
 2749 00b2 05       		.uleb128 0x5
 2750 00b3 01       		.uleb128 0x1
 2751 00b4 13       		.uleb128 0x13
 2752 00b5 00       		.byte	0
 2753 00b6 00       		.byte	0
 2754 00b7 10       		.uleb128 0x10
 2755 00b8 01       		.uleb128 0x1
 2756 00b9 01       		.byte	0x1
 2757 00ba 49       		.uleb128 0x49
 2758 00bb 13       		.uleb128 0x13
 2759 00bc 01       		.uleb128 0x1
 2760 00bd 13       		.uleb128 0x13
 2761 00be 00       		.byte	0
 2762 00bf 00       		.byte	0
 2763 00c0 11       		.uleb128 0x11
 2764 00c1 21       		.uleb128 0x21
 2765 00c2 00       		.byte	0
 2766 00c3 49       		.uleb128 0x49
 2767 00c4 13       		.uleb128 0x13
 2768 00c5 2F       		.uleb128 0x2f
 2769 00c6 0B       		.uleb128 0xb
 2770 00c7 00       		.byte	0
 2771 00c8 00       		.byte	0
 2772 00c9 12       		.uleb128 0x12
 2773 00ca 0D       		.uleb128 0xd
 2774 00cb 00       		.byte	0
 2775 00cc 03       		.uleb128 0x3
 2776 00cd 08       		.uleb128 0x8
 2777 00ce 3A       		.uleb128 0x3a
 2778 00cf 0B       		.uleb128 0xb
 2779 00d0 3B       		.uleb128 0x3b
 2780 00d1 0B       		.uleb128 0xb
 2781 00d2 49       		.uleb128 0x49
 2782 00d3 13       		.uleb128 0x13
 2783 00d4 38       		.uleb128 0x38
 2784 00d5 0B       		.uleb128 0xb
 2785 00d6 00       		.byte	0
 2786 00d7 00       		.byte	0
 2787 00d8 13       		.uleb128 0x13
 2788 00d9 13       		.uleb128 0x13
 2789 00da 01       		.byte	0x1
 2790 00db 0B       		.uleb128 0xb
 2791 00dc 0B       		.uleb128 0xb
 2792 00dd 3A       		.uleb128 0x3a
 2793 00de 0B       		.uleb128 0xb
ARM GAS  /tmp/ccs1tseK.s 			page 50


 2794 00df 3B       		.uleb128 0x3b
 2795 00e0 0B       		.uleb128 0xb
 2796 00e1 01       		.uleb128 0x1
 2797 00e2 13       		.uleb128 0x13
 2798 00e3 00       		.byte	0
 2799 00e4 00       		.byte	0
 2800 00e5 14       		.uleb128 0x14
 2801 00e6 17       		.uleb128 0x17
 2802 00e7 01       		.byte	0x1
 2803 00e8 0B       		.uleb128 0xb
 2804 00e9 0B       		.uleb128 0xb
 2805 00ea 3A       		.uleb128 0x3a
 2806 00eb 0B       		.uleb128 0xb
 2807 00ec 3B       		.uleb128 0x3b
 2808 00ed 0B       		.uleb128 0xb
 2809 00ee 01       		.uleb128 0x1
 2810 00ef 13       		.uleb128 0x13
 2811 00f0 00       		.byte	0
 2812 00f1 00       		.byte	0
 2813 00f2 15       		.uleb128 0x15
 2814 00f3 0D       		.uleb128 0xd
 2815 00f4 00       		.byte	0
 2816 00f5 03       		.uleb128 0x3
 2817 00f6 0E       		.uleb128 0xe
 2818 00f7 3A       		.uleb128 0x3a
 2819 00f8 0B       		.uleb128 0xb
 2820 00f9 3B       		.uleb128 0x3b
 2821 00fa 05       		.uleb128 0x5
 2822 00fb 49       		.uleb128 0x49
 2823 00fc 13       		.uleb128 0x13
 2824 00fd 00       		.byte	0
 2825 00fe 00       		.byte	0
 2826 00ff 16       		.uleb128 0x16
 2827 0100 26       		.uleb128 0x26
 2828 0101 00       		.byte	0
 2829 0102 49       		.uleb128 0x49
 2830 0103 13       		.uleb128 0x13
 2831 0104 00       		.byte	0
 2832 0105 00       		.byte	0
 2833 0106 17       		.uleb128 0x17
 2834 0107 0D       		.uleb128 0xd
 2835 0108 00       		.byte	0
 2836 0109 03       		.uleb128 0x3
 2837 010a 08       		.uleb128 0x8
 2838 010b 3A       		.uleb128 0x3a
 2839 010c 0B       		.uleb128 0xb
 2840 010d 3B       		.uleb128 0x3b
 2841 010e 0B       		.uleb128 0xb
 2842 010f 49       		.uleb128 0x49
 2843 0110 13       		.uleb128 0x13
 2844 0111 00       		.byte	0
 2845 0112 00       		.byte	0
 2846 0113 18       		.uleb128 0x18
 2847 0114 16       		.uleb128 0x16
 2848 0115 00       		.byte	0
 2849 0116 03       		.uleb128 0x3
 2850 0117 0E       		.uleb128 0xe
ARM GAS  /tmp/ccs1tseK.s 			page 51


 2851 0118 3A       		.uleb128 0x3a
 2852 0119 0B       		.uleb128 0xb
 2853 011a 3B       		.uleb128 0x3b
 2854 011b 05       		.uleb128 0x5
 2855 011c 49       		.uleb128 0x49
 2856 011d 13       		.uleb128 0x13
 2857 011e 00       		.byte	0
 2858 011f 00       		.byte	0
 2859 0120 19       		.uleb128 0x19
 2860 0121 04       		.uleb128 0x4
 2861 0122 01       		.byte	0x1
 2862 0123 0B       		.uleb128 0xb
 2863 0124 0B       		.uleb128 0xb
 2864 0125 3A       		.uleb128 0x3a
 2865 0126 0B       		.uleb128 0xb
 2866 0127 3B       		.uleb128 0x3b
 2867 0128 0B       		.uleb128 0xb
 2868 0129 01       		.uleb128 0x1
 2869 012a 13       		.uleb128 0x13
 2870 012b 00       		.byte	0
 2871 012c 00       		.byte	0
 2872 012d 1A       		.uleb128 0x1a
 2873 012e 28       		.uleb128 0x28
 2874 012f 00       		.byte	0
 2875 0130 03       		.uleb128 0x3
 2876 0131 0E       		.uleb128 0xe
 2877 0132 1C       		.uleb128 0x1c
 2878 0133 0D       		.uleb128 0xd
 2879 0134 00       		.byte	0
 2880 0135 00       		.byte	0
 2881 0136 1B       		.uleb128 0x1b
 2882 0137 13       		.uleb128 0x13
 2883 0138 01       		.byte	0x1
 2884 0139 0B       		.uleb128 0xb
 2885 013a 0B       		.uleb128 0xb
 2886 013b 3A       		.uleb128 0x3a
 2887 013c 0B       		.uleb128 0xb
 2888 013d 3B       		.uleb128 0x3b
 2889 013e 05       		.uleb128 0x5
 2890 013f 01       		.uleb128 0x1
 2891 0140 13       		.uleb128 0x13
 2892 0141 00       		.byte	0
 2893 0142 00       		.byte	0
 2894 0143 1C       		.uleb128 0x1c
 2895 0144 2E       		.uleb128 0x2e
 2896 0145 01       		.byte	0x1
 2897 0146 03       		.uleb128 0x3
 2898 0147 0E       		.uleb128 0xe
 2899 0148 3A       		.uleb128 0x3a
 2900 0149 0B       		.uleb128 0xb
 2901 014a 3B       		.uleb128 0x3b
 2902 014b 05       		.uleb128 0x5
 2903 014c 27       		.uleb128 0x27
 2904 014d 19       		.uleb128 0x19
 2905 014e 20       		.uleb128 0x20
 2906 014f 0B       		.uleb128 0xb
 2907 0150 01       		.uleb128 0x1
ARM GAS  /tmp/ccs1tseK.s 			page 52


 2908 0151 13       		.uleb128 0x13
 2909 0152 00       		.byte	0
 2910 0153 00       		.byte	0
 2911 0154 1D       		.uleb128 0x1d
 2912 0155 05       		.uleb128 0x5
 2913 0156 00       		.byte	0
 2914 0157 03       		.uleb128 0x3
 2915 0158 0E       		.uleb128 0xe
 2916 0159 3A       		.uleb128 0x3a
 2917 015a 0B       		.uleb128 0xb
 2918 015b 3B       		.uleb128 0x3b
 2919 015c 05       		.uleb128 0x5
 2920 015d 49       		.uleb128 0x49
 2921 015e 13       		.uleb128 0x13
 2922 015f 00       		.byte	0
 2923 0160 00       		.byte	0
 2924 0161 1E       		.uleb128 0x1e
 2925 0162 2E       		.uleb128 0x2e
 2926 0163 00       		.byte	0
 2927 0164 03       		.uleb128 0x3
 2928 0165 0E       		.uleb128 0xe
 2929 0166 3A       		.uleb128 0x3a
 2930 0167 0B       		.uleb128 0xb
 2931 0168 3B       		.uleb128 0x3b
 2932 0169 05       		.uleb128 0x5
 2933 016a 27       		.uleb128 0x27
 2934 016b 19       		.uleb128 0x19
 2935 016c 20       		.uleb128 0x20
 2936 016d 0B       		.uleb128 0xb
 2937 016e 00       		.byte	0
 2938 016f 00       		.byte	0
 2939 0170 1F       		.uleb128 0x1f
 2940 0171 2E       		.uleb128 0x2e
 2941 0172 00       		.byte	0
 2942 0173 03       		.uleb128 0x3
 2943 0174 0E       		.uleb128 0xe
 2944 0175 3A       		.uleb128 0x3a
 2945 0176 0B       		.uleb128 0xb
 2946 0177 3B       		.uleb128 0x3b
 2947 0178 0B       		.uleb128 0xb
 2948 0179 27       		.uleb128 0x27
 2949 017a 19       		.uleb128 0x19
 2950 017b 49       		.uleb128 0x49
 2951 017c 13       		.uleb128 0x13
 2952 017d 20       		.uleb128 0x20
 2953 017e 0B       		.uleb128 0xb
 2954 017f 00       		.byte	0
 2955 0180 00       		.byte	0
 2956 0181 20       		.uleb128 0x20
 2957 0182 34       		.uleb128 0x34
 2958 0183 00       		.byte	0
 2959 0184 03       		.uleb128 0x3
 2960 0185 0E       		.uleb128 0xe
 2961 0186 49       		.uleb128 0x49
 2962 0187 13       		.uleb128 0x13
 2963 0188 34       		.uleb128 0x34
 2964 0189 19       		.uleb128 0x19
ARM GAS  /tmp/ccs1tseK.s 			page 53


 2965 018a 1C       		.uleb128 0x1c
 2966 018b 0E       		.uleb128 0xe
 2967 018c 00       		.byte	0
 2968 018d 00       		.byte	0
 2969 018e 21       		.uleb128 0x21
 2970 018f 2E       		.uleb128 0x2e
 2971 0190 01       		.byte	0x1
 2972 0191 03       		.uleb128 0x3
 2973 0192 0E       		.uleb128 0xe
 2974 0193 3A       		.uleb128 0x3a
 2975 0194 0B       		.uleb128 0xb
 2976 0195 3B       		.uleb128 0x3b
 2977 0196 0B       		.uleb128 0xb
 2978 0197 27       		.uleb128 0x27
 2979 0198 19       		.uleb128 0x19
 2980 0199 49       		.uleb128 0x49
 2981 019a 13       		.uleb128 0x13
 2982 019b 20       		.uleb128 0x20
 2983 019c 0B       		.uleb128 0xb
 2984 019d 01       		.uleb128 0x1
 2985 019e 13       		.uleb128 0x13
 2986 019f 00       		.byte	0
 2987 01a0 00       		.byte	0
 2988 01a1 22       		.uleb128 0x22
 2989 01a2 34       		.uleb128 0x34
 2990 01a3 00       		.byte	0
 2991 01a4 03       		.uleb128 0x3
 2992 01a5 0E       		.uleb128 0xe
 2993 01a6 3A       		.uleb128 0x3a
 2994 01a7 0B       		.uleb128 0xb
 2995 01a8 3B       		.uleb128 0x3b
 2996 01a9 0B       		.uleb128 0xb
 2997 01aa 49       		.uleb128 0x49
 2998 01ab 13       		.uleb128 0x13
 2999 01ac 00       		.byte	0
 3000 01ad 00       		.byte	0
 3001 01ae 23       		.uleb128 0x23
 3002 01af 2E       		.uleb128 0x2e
 3003 01b0 01       		.byte	0x1
 3004 01b1 03       		.uleb128 0x3
 3005 01b2 0E       		.uleb128 0xe
 3006 01b3 3A       		.uleb128 0x3a
 3007 01b4 0B       		.uleb128 0xb
 3008 01b5 3B       		.uleb128 0x3b
 3009 01b6 05       		.uleb128 0x5
 3010 01b7 27       		.uleb128 0x27
 3011 01b8 19       		.uleb128 0x19
 3012 01b9 49       		.uleb128 0x49
 3013 01ba 13       		.uleb128 0x13
 3014 01bb 20       		.uleb128 0x20
 3015 01bc 0B       		.uleb128 0xb
 3016 01bd 01       		.uleb128 0x1
 3017 01be 13       		.uleb128 0x13
 3018 01bf 00       		.byte	0
 3019 01c0 00       		.byte	0
 3020 01c1 24       		.uleb128 0x24
 3021 01c2 2E       		.uleb128 0x2e
ARM GAS  /tmp/ccs1tseK.s 			page 54


 3022 01c3 01       		.byte	0x1
 3023 01c4 03       		.uleb128 0x3
 3024 01c5 0E       		.uleb128 0xe
 3025 01c6 3A       		.uleb128 0x3a
 3026 01c7 0B       		.uleb128 0xb
 3027 01c8 3B       		.uleb128 0x3b
 3028 01c9 0B       		.uleb128 0xb
 3029 01ca 27       		.uleb128 0x27
 3030 01cb 19       		.uleb128 0x19
 3031 01cc 11       		.uleb128 0x11
 3032 01cd 01       		.uleb128 0x1
 3033 01ce 12       		.uleb128 0x12
 3034 01cf 06       		.uleb128 0x6
 3035 01d0 40       		.uleb128 0x40
 3036 01d1 18       		.uleb128 0x18
 3037 01d2 9742     		.uleb128 0x2117
 3038 01d4 19       		.uleb128 0x19
 3039 01d5 01       		.uleb128 0x1
 3040 01d6 13       		.uleb128 0x13
 3041 01d7 00       		.byte	0
 3042 01d8 00       		.byte	0
 3043 01d9 25       		.uleb128 0x25
 3044 01da 05       		.uleb128 0x5
 3045 01db 00       		.byte	0
 3046 01dc 03       		.uleb128 0x3
 3047 01dd 0E       		.uleb128 0xe
 3048 01de 3A       		.uleb128 0x3a
 3049 01df 0B       		.uleb128 0xb
 3050 01e0 3B       		.uleb128 0x3b
 3051 01e1 0B       		.uleb128 0xb
 3052 01e2 49       		.uleb128 0x49
 3053 01e3 13       		.uleb128 0x13
 3054 01e4 02       		.uleb128 0x2
 3055 01e5 18       		.uleb128 0x18
 3056 01e6 00       		.byte	0
 3057 01e7 00       		.byte	0
 3058 01e8 26       		.uleb128 0x26
 3059 01e9 2E       		.uleb128 0x2e
 3060 01ea 01       		.byte	0x1
 3061 01eb 03       		.uleb128 0x3
 3062 01ec 0E       		.uleb128 0xe
 3063 01ed 3A       		.uleb128 0x3a
 3064 01ee 0B       		.uleb128 0xb
 3065 01ef 3B       		.uleb128 0x3b
 3066 01f0 0B       		.uleb128 0xb
 3067 01f1 27       		.uleb128 0x27
 3068 01f2 19       		.uleb128 0x19
 3069 01f3 11       		.uleb128 0x11
 3070 01f4 01       		.uleb128 0x1
 3071 01f5 12       		.uleb128 0x12
 3072 01f6 06       		.uleb128 0x6
 3073 01f7 40       		.uleb128 0x40
 3074 01f8 18       		.uleb128 0x18
 3075 01f9 01       		.uleb128 0x1
 3076 01fa 13       		.uleb128 0x13
 3077 01fb 00       		.byte	0
 3078 01fc 00       		.byte	0
ARM GAS  /tmp/ccs1tseK.s 			page 55


 3079 01fd 27       		.uleb128 0x27
 3080 01fe 05       		.uleb128 0x5
 3081 01ff 00       		.byte	0
 3082 0200 03       		.uleb128 0x3
 3083 0201 0E       		.uleb128 0xe
 3084 0202 3A       		.uleb128 0x3a
 3085 0203 0B       		.uleb128 0xb
 3086 0204 3B       		.uleb128 0x3b
 3087 0205 0B       		.uleb128 0xb
 3088 0206 49       		.uleb128 0x49
 3089 0207 13       		.uleb128 0x13
 3090 0208 02       		.uleb128 0x2
 3091 0209 17       		.uleb128 0x17
 3092 020a 00       		.byte	0
 3093 020b 00       		.byte	0
 3094 020c 28       		.uleb128 0x28
 3095 020d 34       		.uleb128 0x34
 3096 020e 00       		.byte	0
 3097 020f 03       		.uleb128 0x3
 3098 0210 08       		.uleb128 0x8
 3099 0211 3A       		.uleb128 0x3a
 3100 0212 0B       		.uleb128 0xb
 3101 0213 3B       		.uleb128 0x3b
 3102 0214 0B       		.uleb128 0xb
 3103 0215 49       		.uleb128 0x49
 3104 0216 13       		.uleb128 0x13
 3105 0217 02       		.uleb128 0x2
 3106 0218 17       		.uleb128 0x17
 3107 0219 00       		.byte	0
 3108 021a 00       		.byte	0
 3109 021b 29       		.uleb128 0x29
 3110 021c 34       		.uleb128 0x34
 3111 021d 00       		.byte	0
 3112 021e 03       		.uleb128 0x3
 3113 021f 0E       		.uleb128 0xe
 3114 0220 3A       		.uleb128 0x3a
 3115 0221 0B       		.uleb128 0xb
 3116 0222 3B       		.uleb128 0x3b
 3117 0223 0B       		.uleb128 0xb
 3118 0224 49       		.uleb128 0x49
 3119 0225 13       		.uleb128 0x13
 3120 0226 02       		.uleb128 0x2
 3121 0227 17       		.uleb128 0x17
 3122 0228 00       		.byte	0
 3123 0229 00       		.byte	0
 3124 022a 2A       		.uleb128 0x2a
 3125 022b 1D       		.uleb128 0x1d
 3126 022c 01       		.byte	0x1
 3127 022d 31       		.uleb128 0x31
 3128 022e 13       		.uleb128 0x13
 3129 022f 11       		.uleb128 0x11
 3130 0230 01       		.uleb128 0x1
 3131 0231 12       		.uleb128 0x12
 3132 0232 06       		.uleb128 0x6
 3133 0233 58       		.uleb128 0x58
 3134 0234 0B       		.uleb128 0xb
 3135 0235 59       		.uleb128 0x59
ARM GAS  /tmp/ccs1tseK.s 			page 56


 3136 0236 0B       		.uleb128 0xb
 3137 0237 01       		.uleb128 0x1
 3138 0238 13       		.uleb128 0x13
 3139 0239 00       		.byte	0
 3140 023a 00       		.byte	0
 3141 023b 2B       		.uleb128 0x2b
 3142 023c 0B       		.uleb128 0xb
 3143 023d 01       		.byte	0x1
 3144 023e 11       		.uleb128 0x11
 3145 023f 01       		.uleb128 0x1
 3146 0240 12       		.uleb128 0x12
 3147 0241 06       		.uleb128 0x6
 3148 0242 00       		.byte	0
 3149 0243 00       		.byte	0
 3150 0244 2C       		.uleb128 0x2c
 3151 0245 34       		.uleb128 0x34
 3152 0246 00       		.byte	0
 3153 0247 31       		.uleb128 0x31
 3154 0248 13       		.uleb128 0x13
 3155 0249 00       		.byte	0
 3156 024a 00       		.byte	0
 3157 024b 2D       		.uleb128 0x2d
 3158 024c 1D       		.uleb128 0x1d
 3159 024d 01       		.byte	0x1
 3160 024e 31       		.uleb128 0x31
 3161 024f 13       		.uleb128 0x13
 3162 0250 11       		.uleb128 0x11
 3163 0251 01       		.uleb128 0x1
 3164 0252 12       		.uleb128 0x12
 3165 0253 06       		.uleb128 0x6
 3166 0254 58       		.uleb128 0x58
 3167 0255 0B       		.uleb128 0xb
 3168 0256 59       		.uleb128 0x59
 3169 0257 05       		.uleb128 0x5
 3170 0258 00       		.byte	0
 3171 0259 00       		.byte	0
 3172 025a 2E       		.uleb128 0x2e
 3173 025b 05       		.uleb128 0x5
 3174 025c 00       		.byte	0
 3175 025d 31       		.uleb128 0x31
 3176 025e 13       		.uleb128 0x13
 3177 025f 02       		.uleb128 0x2
 3178 0260 17       		.uleb128 0x17
 3179 0261 00       		.byte	0
 3180 0262 00       		.byte	0
 3181 0263 2F       		.uleb128 0x2f
 3182 0264 1D       		.uleb128 0x1d
 3183 0265 00       		.byte	0
 3184 0266 31       		.uleb128 0x31
 3185 0267 13       		.uleb128 0x13
 3186 0268 52       		.uleb128 0x52
 3187 0269 01       		.uleb128 0x1
 3188 026a 55       		.uleb128 0x55
 3189 026b 17       		.uleb128 0x17
 3190 026c 58       		.uleb128 0x58
 3191 026d 0B       		.uleb128 0xb
 3192 026e 59       		.uleb128 0x59
ARM GAS  /tmp/ccs1tseK.s 			page 57


 3193 026f 0B       		.uleb128 0xb
 3194 0270 00       		.byte	0
 3195 0271 00       		.byte	0
 3196 0272 30       		.uleb128 0x30
 3197 0273 1D       		.uleb128 0x1d
 3198 0274 01       		.byte	0x1
 3199 0275 31       		.uleb128 0x31
 3200 0276 13       		.uleb128 0x13
 3201 0277 52       		.uleb128 0x52
 3202 0278 01       		.uleb128 0x1
 3203 0279 55       		.uleb128 0x55
 3204 027a 17       		.uleb128 0x17
 3205 027b 58       		.uleb128 0x58
 3206 027c 0B       		.uleb128 0xb
 3207 027d 59       		.uleb128 0x59
 3208 027e 0B       		.uleb128 0xb
 3209 027f 00       		.byte	0
 3210 0280 00       		.byte	0
 3211 0281 31       		.uleb128 0x31
 3212 0282 0B       		.uleb128 0xb
 3213 0283 01       		.byte	0x1
 3214 0284 55       		.uleb128 0x55
 3215 0285 17       		.uleb128 0x17
 3216 0286 00       		.byte	0
 3217 0287 00       		.byte	0
 3218 0288 32       		.uleb128 0x32
 3219 0289 1D       		.uleb128 0x1d
 3220 028a 01       		.byte	0x1
 3221 028b 31       		.uleb128 0x31
 3222 028c 13       		.uleb128 0x13
 3223 028d 52       		.uleb128 0x52
 3224 028e 01       		.uleb128 0x1
 3225 028f 55       		.uleb128 0x55
 3226 0290 17       		.uleb128 0x17
 3227 0291 58       		.uleb128 0x58
 3228 0292 0B       		.uleb128 0xb
 3229 0293 59       		.uleb128 0x59
 3230 0294 05       		.uleb128 0x5
 3231 0295 00       		.byte	0
 3232 0296 00       		.byte	0
 3233 0297 33       		.uleb128 0x33
 3234 0298 34       		.uleb128 0x34
 3235 0299 00       		.byte	0
 3236 029a 03       		.uleb128 0x3
 3237 029b 08       		.uleb128 0x8
 3238 029c 3A       		.uleb128 0x3a
 3239 029d 0B       		.uleb128 0xb
 3240 029e 3B       		.uleb128 0x3b
 3241 029f 0B       		.uleb128 0xb
 3242 02a0 49       		.uleb128 0x49
 3243 02a1 13       		.uleb128 0x13
 3244 02a2 02       		.uleb128 0x2
 3245 02a3 18       		.uleb128 0x18
 3246 02a4 00       		.byte	0
 3247 02a5 00       		.byte	0
 3248 02a6 34       		.uleb128 0x34
 3249 02a7 898201   		.uleb128 0x4109
ARM GAS  /tmp/ccs1tseK.s 			page 58


 3250 02aa 01       		.byte	0x1
 3251 02ab 11       		.uleb128 0x11
 3252 02ac 01       		.uleb128 0x1
 3253 02ad 31       		.uleb128 0x31
 3254 02ae 13       		.uleb128 0x13
 3255 02af 00       		.byte	0
 3256 02b0 00       		.byte	0
 3257 02b1 35       		.uleb128 0x35
 3258 02b2 8A8201   		.uleb128 0x410a
 3259 02b5 00       		.byte	0
 3260 02b6 02       		.uleb128 0x2
 3261 02b7 18       		.uleb128 0x18
 3262 02b8 9142     		.uleb128 0x2111
 3263 02ba 18       		.uleb128 0x18
 3264 02bb 00       		.byte	0
 3265 02bc 00       		.byte	0
 3266 02bd 36       		.uleb128 0x36
 3267 02be 2E       		.uleb128 0x2e
 3268 02bf 01       		.byte	0x1
 3269 02c0 3F       		.uleb128 0x3f
 3270 02c1 19       		.uleb128 0x19
 3271 02c2 03       		.uleb128 0x3
 3272 02c3 0E       		.uleb128 0xe
 3273 02c4 3A       		.uleb128 0x3a
 3274 02c5 0B       		.uleb128 0xb
 3275 02c6 3B       		.uleb128 0x3b
 3276 02c7 0B       		.uleb128 0xb
 3277 02c8 27       		.uleb128 0x27
 3278 02c9 19       		.uleb128 0x19
 3279 02ca 11       		.uleb128 0x11
 3280 02cb 01       		.uleb128 0x1
 3281 02cc 12       		.uleb128 0x12
 3282 02cd 06       		.uleb128 0x6
 3283 02ce 40       		.uleb128 0x40
 3284 02cf 18       		.uleb128 0x18
 3285 02d0 9742     		.uleb128 0x2117
 3286 02d2 19       		.uleb128 0x19
 3287 02d3 01       		.uleb128 0x1
 3288 02d4 13       		.uleb128 0x13
 3289 02d5 00       		.byte	0
 3290 02d6 00       		.byte	0
 3291 02d7 37       		.uleb128 0x37
 3292 02d8 0B       		.uleb128 0xb
 3293 02d9 01       		.byte	0x1
 3294 02da 55       		.uleb128 0x55
 3295 02db 17       		.uleb128 0x17
 3296 02dc 01       		.uleb128 0x1
 3297 02dd 13       		.uleb128 0x13
 3298 02de 00       		.byte	0
 3299 02df 00       		.byte	0
 3300 02e0 38       		.uleb128 0x38
 3301 02e1 898201   		.uleb128 0x4109
 3302 02e4 01       		.byte	0x1
 3303 02e5 11       		.uleb128 0x11
 3304 02e6 01       		.uleb128 0x1
 3305 02e7 31       		.uleb128 0x31
 3306 02e8 13       		.uleb128 0x13
ARM GAS  /tmp/ccs1tseK.s 			page 59


 3307 02e9 01       		.uleb128 0x1
 3308 02ea 13       		.uleb128 0x13
 3309 02eb 00       		.byte	0
 3310 02ec 00       		.byte	0
 3311 02ed 39       		.uleb128 0x39
 3312 02ee 15       		.uleb128 0x15
 3313 02ef 00       		.byte	0
 3314 02f0 27       		.uleb128 0x27
 3315 02f1 19       		.uleb128 0x19
 3316 02f2 00       		.byte	0
 3317 02f3 00       		.byte	0
 3318 02f4 3A       		.uleb128 0x3a
 3319 02f5 05       		.uleb128 0x5
 3320 02f6 00       		.byte	0
 3321 02f7 03       		.uleb128 0x3
 3322 02f8 08       		.uleb128 0x8
 3323 02f9 3A       		.uleb128 0x3a
 3324 02fa 0B       		.uleb128 0xb
 3325 02fb 3B       		.uleb128 0x3b
 3326 02fc 0B       		.uleb128 0xb
 3327 02fd 49       		.uleb128 0x49
 3328 02fe 13       		.uleb128 0x13
 3329 02ff 02       		.uleb128 0x2
 3330 0300 18       		.uleb128 0x18
 3331 0301 00       		.byte	0
 3332 0302 00       		.byte	0
 3333 0303 3B       		.uleb128 0x3b
 3334 0304 2E       		.uleb128 0x2e
 3335 0305 01       		.byte	0x1
 3336 0306 3F       		.uleb128 0x3f
 3337 0307 19       		.uleb128 0x19
 3338 0308 03       		.uleb128 0x3
 3339 0309 0E       		.uleb128 0xe
 3340 030a 3A       		.uleb128 0x3a
 3341 030b 0B       		.uleb128 0xb
 3342 030c 3B       		.uleb128 0x3b
 3343 030d 0B       		.uleb128 0xb
 3344 030e 27       		.uleb128 0x27
 3345 030f 19       		.uleb128 0x19
 3346 0310 49       		.uleb128 0x49
 3347 0311 13       		.uleb128 0x13
 3348 0312 11       		.uleb128 0x11
 3349 0313 01       		.uleb128 0x1
 3350 0314 12       		.uleb128 0x12
 3351 0315 06       		.uleb128 0x6
 3352 0316 40       		.uleb128 0x40
 3353 0317 18       		.uleb128 0x18
 3354 0318 9742     		.uleb128 0x2117
 3355 031a 19       		.uleb128 0x19
 3356 031b 01       		.uleb128 0x1
 3357 031c 13       		.uleb128 0x13
 3358 031d 00       		.byte	0
 3359 031e 00       		.byte	0
 3360 031f 3C       		.uleb128 0x3c
 3361 0320 1D       		.uleb128 0x1d
 3362 0321 00       		.byte	0
 3363 0322 31       		.uleb128 0x31
ARM GAS  /tmp/ccs1tseK.s 			page 60


 3364 0323 13       		.uleb128 0x13
 3365 0324 52       		.uleb128 0x52
 3366 0325 01       		.uleb128 0x1
 3367 0326 55       		.uleb128 0x55
 3368 0327 17       		.uleb128 0x17
 3369 0328 58       		.uleb128 0x58
 3370 0329 0B       		.uleb128 0xb
 3371 032a 59       		.uleb128 0x59
 3372 032b 05       		.uleb128 0x5
 3373 032c 00       		.byte	0
 3374 032d 00       		.byte	0
 3375 032e 3D       		.uleb128 0x3d
 3376 032f 34       		.uleb128 0x34
 3377 0330 00       		.byte	0
 3378 0331 03       		.uleb128 0x3
 3379 0332 0E       		.uleb128 0xe
 3380 0333 3A       		.uleb128 0x3a
 3381 0334 0B       		.uleb128 0xb
 3382 0335 3B       		.uleb128 0x3b
 3383 0336 0B       		.uleb128 0xb
 3384 0337 49       		.uleb128 0x49
 3385 0338 13       		.uleb128 0x13
 3386 0339 02       		.uleb128 0x2
 3387 033a 18       		.uleb128 0x18
 3388 033b 00       		.byte	0
 3389 033c 00       		.byte	0
 3390 033d 3E       		.uleb128 0x3e
 3391 033e 34       		.uleb128 0x34
 3392 033f 00       		.byte	0
 3393 0340 03       		.uleb128 0x3
 3394 0341 0E       		.uleb128 0xe
 3395 0342 3A       		.uleb128 0x3a
 3396 0343 0B       		.uleb128 0xb
 3397 0344 3B       		.uleb128 0x3b
 3398 0345 05       		.uleb128 0x5
 3399 0346 49       		.uleb128 0x49
 3400 0347 13       		.uleb128 0x13
 3401 0348 3F       		.uleb128 0x3f
 3402 0349 19       		.uleb128 0x19
 3403 034a 3C       		.uleb128 0x3c
 3404 034b 19       		.uleb128 0x19
 3405 034c 00       		.byte	0
 3406 034d 00       		.byte	0
 3407 034e 3F       		.uleb128 0x3f
 3408 034f 34       		.uleb128 0x34
 3409 0350 00       		.byte	0
 3410 0351 03       		.uleb128 0x3
 3411 0352 08       		.uleb128 0x8
 3412 0353 3A       		.uleb128 0x3a
 3413 0354 0B       		.uleb128 0xb
 3414 0355 3B       		.uleb128 0x3b
 3415 0356 05       		.uleb128 0x5
 3416 0357 49       		.uleb128 0x49
 3417 0358 13       		.uleb128 0x13
 3418 0359 3F       		.uleb128 0x3f
 3419 035a 19       		.uleb128 0x19
 3420 035b 3C       		.uleb128 0x3c
ARM GAS  /tmp/ccs1tseK.s 			page 61


 3421 035c 19       		.uleb128 0x19
 3422 035d 00       		.byte	0
 3423 035e 00       		.byte	0
 3424 035f 40       		.uleb128 0x40
 3425 0360 2E       		.uleb128 0x2e
 3426 0361 01       		.byte	0x1
 3427 0362 3F       		.uleb128 0x3f
 3428 0363 19       		.uleb128 0x19
 3429 0364 03       		.uleb128 0x3
 3430 0365 0E       		.uleb128 0xe
 3431 0366 3A       		.uleb128 0x3a
 3432 0367 0B       		.uleb128 0xb
 3433 0368 3B       		.uleb128 0x3b
 3434 0369 0B       		.uleb128 0xb
 3435 036a 27       		.uleb128 0x27
 3436 036b 19       		.uleb128 0x19
 3437 036c 49       		.uleb128 0x49
 3438 036d 13       		.uleb128 0x13
 3439 036e 3C       		.uleb128 0x3c
 3440 036f 19       		.uleb128 0x19
 3441 0370 01       		.uleb128 0x1
 3442 0371 13       		.uleb128 0x13
 3443 0372 00       		.byte	0
 3444 0373 00       		.byte	0
 3445 0374 41       		.uleb128 0x41
 3446 0375 2E       		.uleb128 0x2e
 3447 0376 01       		.byte	0x1
 3448 0377 3F       		.uleb128 0x3f
 3449 0378 19       		.uleb128 0x19
 3450 0379 03       		.uleb128 0x3
 3451 037a 0E       		.uleb128 0xe
 3452 037b 3A       		.uleb128 0x3a
 3453 037c 0B       		.uleb128 0xb
 3454 037d 3B       		.uleb128 0x3b
 3455 037e 0B       		.uleb128 0xb
 3456 037f 27       		.uleb128 0x27
 3457 0380 19       		.uleb128 0x19
 3458 0381 3C       		.uleb128 0x3c
 3459 0382 19       		.uleb128 0x19
 3460 0383 01       		.uleb128 0x1
 3461 0384 13       		.uleb128 0x13
 3462 0385 00       		.byte	0
 3463 0386 00       		.byte	0
 3464 0387 42       		.uleb128 0x42
 3465 0388 2E       		.uleb128 0x2e
 3466 0389 01       		.byte	0x1
 3467 038a 3F       		.uleb128 0x3f
 3468 038b 19       		.uleb128 0x19
 3469 038c 03       		.uleb128 0x3
 3470 038d 0E       		.uleb128 0xe
 3471 038e 3A       		.uleb128 0x3a
 3472 038f 0B       		.uleb128 0xb
 3473 0390 3B       		.uleb128 0x3b
 3474 0391 05       		.uleb128 0x5
 3475 0392 27       		.uleb128 0x27
 3476 0393 19       		.uleb128 0x19
 3477 0394 3C       		.uleb128 0x3c
ARM GAS  /tmp/ccs1tseK.s 			page 62


 3478 0395 19       		.uleb128 0x19
 3479 0396 01       		.uleb128 0x1
 3480 0397 13       		.uleb128 0x13
 3481 0398 00       		.byte	0
 3482 0399 00       		.byte	0
 3483 039a 43       		.uleb128 0x43
 3484 039b 2E       		.uleb128 0x2e
 3485 039c 01       		.byte	0x1
 3486 039d 3F       		.uleb128 0x3f
 3487 039e 19       		.uleb128 0x19
 3488 039f 03       		.uleb128 0x3
 3489 03a0 0E       		.uleb128 0xe
 3490 03a1 3A       		.uleb128 0x3a
 3491 03a2 0B       		.uleb128 0xb
 3492 03a3 3B       		.uleb128 0x3b
 3493 03a4 0B       		.uleb128 0xb
 3494 03a5 27       		.uleb128 0x27
 3495 03a6 19       		.uleb128 0x19
 3496 03a7 3C       		.uleb128 0x3c
 3497 03a8 19       		.uleb128 0x19
 3498 03a9 00       		.byte	0
 3499 03aa 00       		.byte	0
 3500 03ab 00       		.byte	0
 3501              		.section	.debug_loc,"",%progbits
 3502              	.Ldebug_loc0:
 3503              	.LLST0:
 3504 0000 00000000 		.4byte	.LVL1
 3505 0004 0E000000 		.4byte	.LVL2
 3506 0008 0100     		.2byte	0x1
 3507 000a 50       		.byte	0x50
 3508 000b 0E000000 		.4byte	.LVL2
 3509 000f 3C010000 		.4byte	.LFE256
 3510 0013 0400     		.2byte	0x4
 3511 0015 F3       		.byte	0xf3
 3512 0016 01       		.uleb128 0x1
 3513 0017 50       		.byte	0x50
 3514 0018 9F       		.byte	0x9f
 3515 0019 00000000 		.4byte	0
 3516 001d 00000000 		.4byte	0
 3517              	.LLST1:
 3518 0021 3A000000 		.4byte	.LVL3
 3519 0025 6C000000 		.4byte	.LVL6
 3520 0029 0200     		.2byte	0x2
 3521 002b 90       		.byte	0x90
 3522 002c 4F       		.uleb128 0x4f
 3523 002d A4000000 		.4byte	.LVL9
 3524 0031 C2000000 		.4byte	.LVL10
 3525 0035 0200     		.2byte	0x2
 3526 0037 90       		.byte	0x90
 3527 0038 4F       		.uleb128 0x4f
 3528 0039 00000000 		.4byte	0
 3529 003d 00000000 		.4byte	0
 3530              	.LLST2:
 3531 0041 3E000000 		.4byte	.LVL4
 3532 0045 80000000 		.4byte	.LVL7
 3533 0049 0200     		.2byte	0x2
 3534 004b 90       		.byte	0x90
ARM GAS  /tmp/ccs1tseK.s 			page 63


 3535 004c 50       		.uleb128 0x50
 3536 004d A4000000 		.4byte	.LVL9
 3537 0051 D2000000 		.4byte	.LVL11
 3538 0055 0200     		.2byte	0x2
 3539 0057 90       		.byte	0x90
 3540 0058 50       		.uleb128 0x50
 3541 0059 D8000000 		.4byte	.LVL12
 3542 005d EC000000 		.4byte	.LVL13
 3543 0061 0200     		.2byte	0x2
 3544 0063 90       		.byte	0x90
 3545 0064 50       		.uleb128 0x50
 3546 0065 00000000 		.4byte	0
 3547 0069 00000000 		.4byte	0
 3548              	.LLST3:
 3549 006d 80000000 		.4byte	.LVL7
 3550 0071 A4000000 		.4byte	.LVL9
 3551 0075 0300     		.2byte	0x3
 3552 0077 08       		.byte	0x8
 3553 0078 20       		.byte	0x20
 3554 0079 9F       		.byte	0x9f
 3555 007a 00000000 		.4byte	0
 3556 007e 00000000 		.4byte	0
 3557              	.LLST4:
 3558 0082 8C000000 		.4byte	.LVL8
 3559 0086 A4000000 		.4byte	.LVL9
 3560 008a 0200     		.2byte	0x2
 3561 008c 30       		.byte	0x30
 3562 008d 9F       		.byte	0x9f
 3563 008e 00000000 		.4byte	0
 3564 0092 00000000 		.4byte	0
 3565              	.LLST5:
 3566 0096 00000000 		.4byte	.LVL15
 3567 009a 0A000000 		.4byte	.LVL16
 3568 009e 0100     		.2byte	0x1
 3569 00a0 50       		.byte	0x50
 3570 00a1 0A000000 		.4byte	.LVL16
 3571 00a5 36000000 		.4byte	.LVL22
 3572 00a9 0100     		.2byte	0x1
 3573 00ab 55       		.byte	0x55
 3574 00ac 36000000 		.4byte	.LVL22
 3575 00b0 50000000 		.4byte	.LFE258
 3576 00b4 0500     		.2byte	0x5
 3577 00b6 03       		.byte	0x3
 3578 00b7 00000000 		.4byte	done_func
 3579 00bb 00000000 		.4byte	0
 3580 00bf 00000000 		.4byte	0
 3581              	.LLST6:
 3582 00c3 26000000 		.4byte	.LVL20
 3583 00c7 34000000 		.4byte	.LVL21
 3584 00cb 0200     		.2byte	0x2
 3585 00cd 30       		.byte	0x30
 3586 00ce 9F       		.byte	0x9f
 3587 00cf 34000000 		.4byte	.LVL21
 3588 00d3 50000000 		.4byte	.LFE258
 3589 00d7 0200     		.2byte	0x2
 3590 00d9 31       		.byte	0x31
 3591 00da 9F       		.byte	0x9f
ARM GAS  /tmp/ccs1tseK.s 			page 64


 3592 00db 00000000 		.4byte	0
 3593 00df 00000000 		.4byte	0
 3594              	.LLST7:
 3595 00e3 00000000 		.4byte	.LVL24
 3596 00e7 0A000000 		.4byte	.LVL25
 3597 00eb 0100     		.2byte	0x1
 3598 00ed 50       		.byte	0x50
 3599 00ee 0A000000 		.4byte	.LVL25
 3600 00f2 1C000000 		.4byte	.LFE260
 3601 00f6 0400     		.2byte	0x4
 3602 00f8 F3       		.byte	0xf3
 3603 00f9 01       		.uleb128 0x1
 3604 00fa 50       		.byte	0x50
 3605 00fb 9F       		.byte	0x9f
 3606 00fc 00000000 		.4byte	0
 3607 0100 00000000 		.4byte	0
 3608              	.LLST8:
 3609 0104 06000000 		.4byte	.LVL26
 3610 0108 0C000000 		.4byte	.LVL27
 3611 010c 0100     		.2byte	0x1
 3612 010e 50       		.byte	0x50
 3613 010f 00000000 		.4byte	0
 3614 0113 00000000 		.4byte	0
 3615              	.LLST9:
 3616 0117 00000000 		.4byte	.LVL28
 3617 011b 0A000000 		.4byte	.LVL29
 3618 011f 0100     		.2byte	0x1
 3619 0121 50       		.byte	0x50
 3620 0122 0A000000 		.4byte	.LVL29
 3621 0126 1C000000 		.4byte	.LFE262
 3622 012a 0400     		.2byte	0x4
 3623 012c F3       		.byte	0xf3
 3624 012d 01       		.uleb128 0x1
 3625 012e 50       		.byte	0x50
 3626 012f 9F       		.byte	0x9f
 3627 0130 00000000 		.4byte	0
 3628 0134 00000000 		.4byte	0
 3629              		.section	.debug_aranges,"",%progbits
 3630 0000 4C000000 		.4byte	0x4c
 3631 0004 0200     		.2byte	0x2
 3632 0006 00000000 		.4byte	.Ldebug_info0
 3633 000a 04       		.byte	0x4
 3634 000b 00       		.byte	0
 3635 000c 0000     		.2byte	0
 3636 000e 0000     		.2byte	0
 3637 0010 00000000 		.4byte	.LFB257
 3638 0014 02000000 		.4byte	.LFE257-.LFB257
 3639 0018 00000000 		.4byte	.LFB256
 3640 001c 3C010000 		.4byte	.LFE256-.LFB256
 3641 0020 00000000 		.4byte	.LFB258
 3642 0024 50000000 		.4byte	.LFE258-.LFB258
 3643 0028 00000000 		.4byte	.LFB259
 3644 002c 20000000 		.4byte	.LFE259-.LFB259
 3645 0030 00000000 		.4byte	.LFB260
 3646 0034 1C000000 		.4byte	.LFE260-.LFB260
 3647 0038 00000000 		.4byte	.LFB261
 3648 003c 20000000 		.4byte	.LFE261-.LFB261
ARM GAS  /tmp/ccs1tseK.s 			page 65


 3649 0040 00000000 		.4byte	.LFB262
 3650 0044 1C000000 		.4byte	.LFE262-.LFB262
 3651 0048 00000000 		.4byte	0
 3652 004c 00000000 		.4byte	0
 3653              		.section	.debug_ranges,"",%progbits
 3654              	.Ldebug_ranges0:
 3655 0000 86000000 		.4byte	.LBB52
 3656 0004 88000000 		.4byte	.LBE52
 3657 0008 8A000000 		.4byte	.LBB64
 3658 000c 8C000000 		.4byte	.LBE64
 3659 0010 00000000 		.4byte	0
 3660 0014 00000000 		.4byte	0
 3661 0018 88000000 		.4byte	.LBB55
 3662 001c 8A000000 		.4byte	.LBE55
 3663 0020 8C000000 		.4byte	.LBB65
 3664 0024 90000000 		.4byte	.LBE65
 3665 0028 00000000 		.4byte	0
 3666 002c 00000000 		.4byte	0
 3667 0030 28000000 		.4byte	.LBB67
 3668 0034 2C000000 		.4byte	.LBE67
 3669 0038 2E000000 		.4byte	.LBB68
 3670 003c 50000000 		.4byte	.LBE68
 3671 0040 00000000 		.4byte	0
 3672 0044 00000000 		.4byte	0
 3673 0048 02000000 		.4byte	.LBB69
 3674 004c 04000000 		.4byte	.LBE69
 3675 0050 06000000 		.4byte	.LBB77
 3676 0054 08000000 		.4byte	.LBE77
 3677 0058 0A000000 		.4byte	.LBB78
 3678 005c 0C000000 		.4byte	.LBE78
 3679 0060 00000000 		.4byte	0
 3680 0064 00000000 		.4byte	0
 3681 0068 02000000 		.4byte	.LBB71
 3682 006c 04000000 		.4byte	.LBE71
 3683 0070 06000000 		.4byte	.LBB74
 3684 0074 08000000 		.4byte	.LBE74
 3685 0078 00000000 		.4byte	0
 3686 007c 00000000 		.4byte	0
 3687 0080 00000000 		.4byte	.LFB257
 3688 0084 02000000 		.4byte	.LFE257
 3689 0088 00000000 		.4byte	.LFB256
 3690 008c 3C010000 		.4byte	.LFE256
 3691 0090 00000000 		.4byte	.LFB258
 3692 0094 50000000 		.4byte	.LFE258
 3693 0098 00000000 		.4byte	.LFB259
 3694 009c 20000000 		.4byte	.LFE259
 3695 00a0 00000000 		.4byte	.LFB260
 3696 00a4 1C000000 		.4byte	.LFE260
 3697 00a8 00000000 		.4byte	.LFB261
 3698 00ac 20000000 		.4byte	.LFE261
 3699 00b0 00000000 		.4byte	.LFB262
 3700 00b4 1C000000 		.4byte	.LFE262
 3701 00b8 00000000 		.4byte	0
 3702 00bc 00000000 		.4byte	0
 3703              		.section	.debug_line,"",%progbits
 3704              	.Ldebug_line0:
 3705 0000 96030000 		.section	.debug_str,"MS",%progbits,1
ARM GAS  /tmp/ccs1tseK.s 			page 66


 3705      02009302 
 3705      00000201 
 3705      FB0E0D00 
 3705      01010101 
 3706              	.LASF55:
 3707 0000 74687265 		.ascii	"threads_queue_t\000"
 3707      6164735F 
 3707      71756575 
 3707      655F7400 
 3708              	.LASF97:
 3709 0010 77746D74 		.ascii	"wtmtxp\000"
 3709      787000
 3710              	.LASF91:
 3711 0017 746D5F63 		.ascii	"tm_calibration_t\000"
 3711      616C6962 
 3711      72617469 
 3711      6F6E5F74 
 3711      00
 3712              	.LASF43:
 3713 0028 705F7469 		.ascii	"p_time\000"
 3713      6D6500
 3714              	.LASF114:
 3715 002f 42535252 		.ascii	"BSRR\000"
 3715      00
 3716              	.LASF106:
 3717 0034 63686172 		.ascii	"char\000"
 3717      00
 3718              	.LASF86:
 3719 0039 72656761 		.ascii	"regarm_t\000"
 3719      726D5F74 
 3719      00
 3720              	.LASF34:
 3721 0042 705F7072 		.ascii	"p_prio\000"
 3721      696F00
 3722              	.LASF177:
 3723 0049 73657276 		.ascii	"servo_num\000"
 3723      6F5F6E75 
 3723      6D00
 3724              	.LASF125:
 3725 0053 4943555F 		.ascii	"ICU_WAITING\000"
 3725      57414954 
 3725      494E4700 
 3726              	.LASF30:
 3727 005f 73797374 		.ascii	"systime_t\000"
 3727      696D655F 
 3727      7400
 3728              	.LASF100:
 3729 0069 735F7175 		.ascii	"s_queue\000"
 3729      65756500 
 3730              	.LASF75:
 3731 0071 76745F73 		.ascii	"vt_systime\000"
 3731      79737469 
 3731      6D6500
 3732              	.LASF45:
 3733 007c 705F6D73 		.ascii	"p_msgqueue\000"
 3733      67717565 
 3733      756500
ARM GAS  /tmp/ccs1tseK.s 			page 67


 3734              	.LASF14:
 3735 0087 756E7369 		.ascii	"unsigned int\000"
 3735      676E6564 
 3735      20696E74 
 3735      00
 3736              	.LASF192:
 3737 0094 5F70616C 		.ascii	"_pal_lld_setgroupmode\000"
 3737      5F6C6C64 
 3737      5F736574 
 3737      67726F75 
 3737      706D6F64 
 3738              	.LASF52:
 3739 00aa 74687265 		.ascii	"threads_list_t\000"
 3739      6164735F 
 3739      6C697374 
 3739      5F7400
 3740              	.LASF44:
 3741 00b9 705F7761 		.ascii	"p_waiting\000"
 3741      6974696E 
 3741      6700
 3742              	.LASF7:
 3743 00c3 5F5F696E 		.ascii	"__int32_t\000"
 3743      7433325F 
 3743      7400
 3744              	.LASF188:
 3745 00cd 69637563 		.ascii	"icucfg\000"
 3745      666700
 3746              	.LASF175:
 3747 00d4 73657276 		.ascii	"servodec_set_pulse_options\000"
 3747      6F646563 
 3747      5F736574 
 3747      5F70756C 
 3747      73655F6F 
 3748              	.LASF94:
 3749 00ef 77746F62 		.ascii	"wtobjp\000"
 3749      6A7000
 3750              	.LASF160:
 3751 00f6 706F7274 		.ascii	"port_lock\000"
 3751      5F6C6F63 
 3751      6B00
 3752              	.LASF82:
 3753 0100 76746C69 		.ascii	"vtlist\000"
 3753      737400
 3754              	.LASF84:
 3755 0107 69646C65 		.ascii	"idle_thread_wa\000"
 3755      5F746872 
 3755      6561645F 
 3755      776100
 3756              	.LASF98:
 3757 0116 65776D61 		.ascii	"ewmask\000"
 3757      736B00
 3758              	.LASF152:
 3759 011d 6D6F6465 		.ascii	"mode\000"
 3759      00
 3760              	.LASF58:
 3761 0122 63685F72 		.ascii	"ch_ready_list\000"
 3761      65616479 
ARM GAS  /tmp/ccs1tseK.s 			page 68


 3761      5F6C6973 
 3761      7400
 3762              	.LASF141:
 3763 0130 444D4152 		.ascii	"DMAR\000"
 3763      00
 3764              	.LASF65:
 3765 0135 76746675 		.ascii	"vtfunc_t\000"
 3765      6E635F74 
 3765      00
 3766              	.LASF123:
 3767 013e 4943555F 		.ascii	"ICU_STOP\000"
 3767      53544F50 
 3767      00
 3768              	.LASF168:
 3769 0147 63685654 		.ascii	"chVTTimeElapsedSinceX\000"
 3769      54696D65 
 3769      456C6170 
 3769      73656453 
 3769      696E6365 
 3770              	.LASF101:
 3771 015d 735F636E 		.ascii	"s_cnt\000"
 3771      7400
 3772              	.LASF77:
 3773 0163 63685F73 		.ascii	"ch_system_debug\000"
 3773      79737465 
 3773      6D5F6465 
 3773      62756700 
 3774              	.LASF18:
 3775 0173 75696E74 		.ascii	"uint32_t\000"
 3775      33325F74 
 3775      00
 3776              	.LASF171:
 3777 017c 69637570 		.ascii	"icup\000"
 3777      00
 3778              	.LASF176:
 3779 0181 6D656469 		.ascii	"median_filter\000"
 3779      616E5F66 
 3779      696C7465 
 3779      7200
 3780              	.LASF60:
 3781 018f 725F7072 		.ascii	"r_prio\000"
 3781      696F00
 3782              	.LASF140:
 3783 0196 42445452 		.ascii	"BDTR\000"
 3783      00
 3784              	.LASF72:
 3785 019b 76745F70 		.ascii	"vt_par\000"
 3785      617200
 3786              	.LASF155:
 3787 01a2 70657269 		.ascii	"period_cb\000"
 3787      6F645F63 
 3787      6200
 3788              	.LASF0:
 3789 01ac 666C6F61 		.ascii	"float\000"
 3789      7400
 3790              	.LASF99:
 3791 01b2 63685F73 		.ascii	"ch_semaphore\000"
ARM GAS  /tmp/ccs1tseK.s 			page 69


 3791      656D6170 
 3791      686F7265 
 3791      00
 3792              	.LASF26:
 3793 01bf 74707269 		.ascii	"tprio_t\000"
 3793      6F5F7400 
 3794              	.LASF67:
 3795 01c7 63685F76 		.ascii	"ch_virtual_timer\000"
 3795      69727475 
 3795      616C5F74 
 3795      696D6572 
 3795      00
 3796              	.LASF137:
 3797 01d8 43434D52 		.ascii	"CCMR1\000"
 3797      3100
 3798              	.LASF138:
 3799 01de 43434D52 		.ascii	"CCMR2\000"
 3799      3200
 3800              	.LASF142:
 3801 01e4 43434D52 		.ascii	"CCMR3\000"
 3801      3300
 3802              	.LASF13:
 3803 01ea 6C6F6E67 		.ascii	"long long unsigned int\000"
 3803      206C6F6E 
 3803      6720756E 
 3803      7369676E 
 3803      65642069 
 3804              	.LASF179:
 3805 0201 73657276 		.ascii	"servodec_get_time_since_update\000"
 3805      6F646563 
 3805      5F676574 
 3805      5F74696D 
 3805      655F7369 
 3806              	.LASF5:
 3807 0220 5F5F7569 		.ascii	"__uint16_t\000"
 3807      6E743136 
 3807      5F7400
 3808              	.LASF29:
 3809 022b 636E745F 		.ascii	"cnt_t\000"
 3809      7400
 3810              	.LASF54:
 3811 0231 63685F74 		.ascii	"ch_threads_list\000"
 3811      68726561 
 3811      64735F6C 
 3811      69737400 
 3812              	.LASF110:
 3813 0241 4D4F4445 		.ascii	"MODER\000"
 3813      5200
 3814              	.LASF164:
 3815 0247 63685379 		.ascii	"chSysUnlock\000"
 3815      73556E6C 
 3815      6F636B00 
 3816              	.LASF117:
 3817 0253 41465248 		.ascii	"AFRH\000"
 3817      00
 3818              	.LASF118:
 3819 0258 73746D33 		.ascii	"stm32_gpio_t\000"
ARM GAS  /tmp/ccs1tseK.s 			page 70


 3819      325F6770 
 3819      696F5F74 
 3819      00
 3820              	.LASF116:
 3821 0265 4146524C 		.ascii	"AFRL\000"
 3821      00
 3822              	.LASF36:
 3823 026a 705F6E65 		.ascii	"p_newer\000"
 3823      77657200 
 3824              	.LASF169:
 3825 0272 76616C75 		.ascii	"value\000"
 3825      6500
 3826              	.LASF74:
 3827 0278 63685F76 		.ascii	"ch_virtual_timers_list\000"
 3827      69727475 
 3827      616C5F74 
 3827      696D6572 
 3827      735F6C69 
 3828              	.LASF31:
 3829 028f 74687265 		.ascii	"thread_t\000"
 3829      61645F74 
 3829      00
 3830              	.LASF112:
 3831 0298 4F535045 		.ascii	"OSPEEDR\000"
 3831      45445200 
 3832              	.LASF174:
 3833 02a0 73657276 		.ascii	"servodec_init\000"
 3833      6F646563 
 3833      5F696E69 
 3833      7400
 3834              	.LASF20:
 3835 02ae 73697A65 		.ascii	"size_t\000"
 3835      5F7400
 3836              	.LASF92:
 3837 02b5 7264796D 		.ascii	"rdymsg\000"
 3837      736700
 3838              	.LASF90:
 3839 02bc 6F666673 		.ascii	"offset\000"
 3839      657400
 3840              	.LASF144:
 3841 02c3 73746D33 		.ascii	"stm32_tim_t\000"
 3841      325F7469 
 3841      6D5F7400 
 3842              	.LASF108:
 3843 02cf 5F426F6F 		.ascii	"_Bool\000"
 3843      6C00
 3844              	.LASF132:
 3845 02d5 77636372 		.ascii	"wccrp\000"
 3845      7000
 3846              	.LASF198:
 3847 02db 69637570 		.ascii	"icuperiodcb\000"
 3847      6572696F 
 3847      64636200 
 3848              	.LASF185:
 3849 02e7 6C617374 		.ascii	"last_len_received\000"
 3849      5F6C656E 
 3849      5F726563 
ARM GAS  /tmp/ccs1tseK.s 			page 71


 3849      65697665 
 3849      6400
 3850              	.LASF104:
 3851 02f9 6D5F6F77 		.ascii	"m_owner\000"
 3851      6E657200 
 3852              	.LASF102:
 3853 0301 63685F6D 		.ascii	"ch_mutex\000"
 3853      75746578 
 3853      00
 3854              	.LASF181:
 3855 030a 6C617374 		.ascii	"last_update_time\000"
 3855      5F757064 
 3855      6174655F 
 3855      74696D65 
 3855      00
 3856              	.LASF12:
 3857 031b 5F5F7569 		.ascii	"__uint64_t\000"
 3857      6E743634 
 3857      5F7400
 3858              	.LASF136:
 3859 0326 44494552 		.ascii	"DIER\000"
 3859      00
 3860              	.LASF121:
 3861 032b 696F706F 		.ascii	"ioportid_t\000"
 3861      72746964 
 3861      5F7400
 3862              	.LASF162:
 3863 0336 63685379 		.ascii	"chSysLock\000"
 3863      734C6F63 
 3863      6B00
 3864              	.LASF131:
 3865 0340 636C6F63 		.ascii	"clock\000"
 3865      6B00
 3866              	.LASF113:
 3867 0346 50555044 		.ascii	"PUPDR\000"
 3867      5200
 3868              	.LASF38:
 3869 034c 705F6E61 		.ascii	"p_name\000"
 3869      6D6500
 3870              	.LASF190:
 3871 0353 49435544 		.ascii	"ICUD3\000"
 3871      3300
 3872              	.LASF139:
 3873 0359 43434552 		.ascii	"CCER\000"
 3873      00
 3874              	.LASF70:
 3875 035e 76745F64 		.ascii	"vt_delta\000"
 3875      656C7461 
 3875      00
 3876              	.LASF62:
 3877 0367 725F6E65 		.ascii	"r_newer\000"
 3877      77657200 
 3878              	.LASF23:
 3879 036f 74737461 		.ascii	"tstate_t\000"
 3879      74655F74 
 3879      00
 3880              	.LASF11:
ARM GAS  /tmp/ccs1tseK.s 			page 72


 3881 0378 6C6F6E67 		.ascii	"long long int\000"
 3881      206C6F6E 
 3881      6720696E 
 3881      7400
 3882              	.LASF37:
 3883 0386 705F6F6C 		.ascii	"p_older\000"
 3883      64657200 
 3884              	.LASF39:
 3885 038e 705F7374 		.ascii	"p_state\000"
 3885      61746500 
 3886              	.LASF15:
 3887 0396 75696E74 		.ascii	"uint8_t\000"
 3887      385F7400 
 3888              	.LASF156:
 3889 039e 6F766572 		.ascii	"overflow_cb\000"
 3889      666C6F77 
 3889      5F636200 
 3890              	.LASF50:
 3891 03aa 705F6D70 		.ascii	"p_mpool\000"
 3891      6F6F6C00 
 3892              	.LASF48:
 3893 03b2 705F6D74 		.ascii	"p_mtxlist\000"
 3893      786C6973 
 3893      7400
 3894              	.LASF135:
 3895 03bc 534D4352 		.ascii	"SMCR\000"
 3895      00
 3896              	.LASF53:
 3897 03c1 63685F74 		.ascii	"ch_thread\000"
 3897      68726561 
 3897      6400
 3898              	.LASF76:
 3899 03cb 73797374 		.ascii	"system_debug_t\000"
 3899      656D5F64 
 3899      65627567 
 3899      5F7400
 3900              	.LASF159:
 3901 03da 49435543 		.ascii	"ICUConfig\000"
 3901      6F6E6669 
 3901      6700
 3902              	.LASF56:
 3903 03e4 63685F74 		.ascii	"ch_threads_queue\000"
 3903      68726561 
 3903      64735F71 
 3903      75657565 
 3903      00
 3904              	.LASF184:
 3905 03f5 70756C73 		.ascii	"pulse_end\000"
 3905      655F656E 
 3905      6400
 3906              	.LASF59:
 3907 03ff 725F7175 		.ascii	"r_queue\000"
 3907      65756500 
 3908              	.LASF167:
 3909 0407 63685654 		.ascii	"chVTGetSystemTime\000"
 3909      47657453 
 3909      79737465 
ARM GAS  /tmp/ccs1tseK.s 			page 73


 3909      6D54696D 
 3909      6500
 3910              	.LASF28:
 3911 0419 6576656E 		.ascii	"eventmask_t\000"
 3911      746D6173 
 3911      6B5F7400 
 3912              	.LASF127:
 3913 0425 69637573 		.ascii	"icustate_t\000"
 3913      74617465 
 3913      5F7400
 3914              	.LASF27:
 3915 0430 6D73675F 		.ascii	"msg_t\000"
 3915      7400
 3916              	.LASF88:
 3917 0436 636F6E74 		.ascii	"context\000"
 3917      65787400 
 3918              	.LASF119:
 3919 043e 696F706F 		.ascii	"ioportmask_t\000"
 3919      72746D61 
 3919      736B5F74 
 3919      00
 3920              	.LASF40:
 3921 044b 705F666C 		.ascii	"p_flags\000"
 3921      61677300 
 3922              	.LASF66:
 3923 0453 76697274 		.ascii	"virtual_timer_t\000"
 3923      75616C5F 
 3923      74696D65 
 3923      725F7400 
 3924              	.LASF173:
 3925 0463 645F6675 		.ascii	"d_func\000"
 3925      6E6300
 3926              	.LASF145:
 3927 046a 4943555F 		.ascii	"ICU_INPUT_ACTIVE_HIGH\000"
 3927      494E5055 
 3927      545F4143 
 3927      54495645 
 3927      5F484947 
 3928              	.LASF154:
 3929 0480 77696474 		.ascii	"width_cb\000"
 3929      685F6362 
 3929      00
 3930              	.LASF25:
 3931 0489 74736C69 		.ascii	"tslices_t\000"
 3931      6365735F 
 3931      7400
 3932              	.LASF63:
 3933 0493 725F6F6C 		.ascii	"r_older\000"
 3933      64657200 
 3934              	.LASF195:
 3935 049b 73657276 		.ascii	"servo_dec.c\000"
 3935      6F5F6465 
 3935      632E6300 
 3936              	.LASF46:
 3937 04a7 705F6D73 		.ascii	"p_msg\000"
 3937      6700
 3938              	.LASF22:
ARM GAS  /tmp/ccs1tseK.s 			page 74


 3939 04ad 746D6F64 		.ascii	"tmode_t\000"
 3939      655F7400 
 3940              	.LASF166:
 3941 04b5 73797374 		.ascii	"systime\000"
 3941      696D6500 
 3942              	.LASF83:
 3943 04bd 6D61696E 		.ascii	"mainthread\000"
 3943      74687265 
 3943      616400
 3944              	.LASF151:
 3945 04c8 69637563 		.ascii	"icuchannel_t\000"
 3945      68616E6E 
 3945      656C5F74 
 3945      00
 3946              	.LASF16:
 3947 04d5 75696E74 		.ascii	"uint16_t\000"
 3947      31365F74 
 3947      00
 3948              	.LASF51:
 3949 04de 74687265 		.ascii	"thread_reference_t\000"
 3949      61645F72 
 3949      65666572 
 3949      656E6365 
 3949      5F7400
 3950              	.LASF201:
 3951 04f1 69637545 		.ascii	"icuEnableNotifications\000"
 3951      6E61626C 
 3951      654E6F74 
 3951      69666963 
 3951      6174696F 
 3952              	.LASF21:
 3953 0508 7274636E 		.ascii	"rtcnt_t\000"
 3953      745F7400 
 3954              	.LASF157:
 3955 0510 6368616E 		.ascii	"channel\000"
 3955      6E656C00 
 3956              	.LASF158:
 3957 0518 64696572 		.ascii	"dier\000"
 3957      00
 3958              	.LASF143:
 3959 051d 43435852 		.ascii	"CCXR\000"
 3959      00
 3960              	.LASF109:
 3961 0522 636C6561 		.ascii	"clear\000"
 3961      7200
 3962              	.LASF130:
 3963 0528 636F6E66 		.ascii	"config\000"
 3963      696700
 3964              	.LASF196:
 3965 052f 2F686F6D 		.ascii	"/home/sivert/Documents/GitHub/BLDC/bldc-firmware\000"
 3965      652F7369 
 3965      76657274 
 3965      2F446F63 
 3965      756D656E 
 3966              	.LASF186:
 3967 0560 7573655F 		.ascii	"use_median_filter\000"
 3967      6D656469 
ARM GAS  /tmp/ccs1tseK.s 			page 75


 3967      616E5F66 
 3967      696C7465 
 3967      7200
 3968              	.LASF49:
 3969 0572 705F7265 		.ascii	"p_realprio\000"
 3969      616C7072 
 3969      696F00
 3970              	.LASF183:
 3971 057d 70756C73 		.ascii	"pulse_start\000"
 3971      655F7374 
 3971      61727400 
 3972              	.LASF193:
 3973 0589 69637553 		.ascii	"icuStartCapture\000"
 3973      74617274 
 3973      43617074 
 3973      75726500 
 3974              	.LASF3:
 3975 0599 73686F72 		.ascii	"short int\000"
 3975      7420696E 
 3975      7400
 3976              	.LASF191:
 3977 05a3 69637553 		.ascii	"icuStart\000"
 3977      74617274 
 3977      00
 3978              	.LASF64:
 3979 05ac 725F6375 		.ascii	"r_current\000"
 3979      7272656E 
 3979      7400
 3980              	.LASF47:
 3981 05b6 705F6570 		.ascii	"p_epending\000"
 3981      656E6469 
 3981      6E6700
 3982              	.LASF194:
 3983 05c1 474E5520 		.ascii	"GNU C 4.9.3 20150529 (release) [ARM/embedded-4_9-br"
 3983      4320342E 
 3983      392E3320 
 3983      32303135 
 3983      30353239 
 3984 05f4 616E6368 		.ascii	"anch revision 227977] -mcpu=cortex-m4 -mfloat-abi=h"
 3984      20726576 
 3984      6973696F 
 3984      6E203232 
 3984      37393737 
 3985 0627 61726420 		.ascii	"ard -mfpu=fpv4-sp-d16 -mno-thumb-interwork -mthumb "
 3985      2D6D6670 
 3985      753D6670 
 3985      76342D73 
 3985      702D6431 
 3986 065a 2D676764 		.ascii	"-ggdb -O2 -std=gnu99 -fomit-frame-pointer -falign-f"
 3986      62202D4F 
 3986      32202D73 
 3986      74643D67 
 3986      6E753939 
 3987 068d 756E6374 		.ascii	"unctions=16 -ffunction-sections -fdata-sections -fn"
 3987      696F6E73 
 3987      3D313620 
 3987      2D666675 
ARM GAS  /tmp/ccs1tseK.s 			page 76


 3987      6E637469 
 3988 06c0 6F2D636F 		.ascii	"o-common -fsingle-precision-constant\000"
 3988      6D6D6F6E 
 3988      202D6673 
 3988      696E676C 
 3988      652D7072 
 3989              	.LASF103:
 3990 06e5 6D5F7175 		.ascii	"m_queue\000"
 3990      65756500 
 3991              	.LASF8:
 3992 06ed 6C6F6E67 		.ascii	"long int\000"
 3992      20696E74 
 3992      00
 3993              	.LASF89:
 3994 06f6 706F7274 		.ascii	"port_intctx\000"
 3994      5F696E74 
 3994      63747800 
 3995              	.LASF189:
 3996 0702 49544D5F 		.ascii	"ITM_RxBuffer\000"
 3996      52784275 
 3996      66666572 
 3996      00
 3997              	.LASF149:
 3998 070f 4943555F 		.ascii	"ICU_CHANNEL_1\000"
 3998      4348414E 
 3998      4E454C5F 
 3998      3100
 3999              	.LASF150:
 4000 071d 4943555F 		.ascii	"ICU_CHANNEL_2\000"
 4000      4348414E 
 4000      4E454C5F 
 4000      3200
 4001              	.LASF80:
 4002 072b 63685F73 		.ascii	"ch_system\000"
 4002      79737465 
 4002      6D00
 4003              	.LASF180:
 4004 0735 73657276 		.ascii	"servodec_get_last_pulse_len\000"
 4004      6F646563 
 4004      5F676574 
 4004      5F6C6173 
 4004      745F7075 
 4005              	.LASF111:
 4006 0751 4F545950 		.ascii	"OTYPER\000"
 4006      455200
 4007              	.LASF163:
 4008 0758 5F5F7365 		.ascii	"__set_BASEPRI\000"
 4008      745F4241 
 4008      53455052 
 4008      4900
 4009              	.LASF32:
 4010 0766 705F6E65 		.ascii	"p_next\000"
 4010      787400
 4011              	.LASF172:
 4012 076d 6C656E5F 		.ascii	"len_set\000"
 4012      73657400 
 4013              	.LASF19:
ARM GAS  /tmp/ccs1tseK.s 			page 77


 4014 0775 75696E74 		.ascii	"uint64_t\000"
 4014      36345F74 
 4014      00
 4015              	.LASF35:
 4016 077e 705F6374 		.ascii	"p_ctx\000"
 4016      7800
 4017              	.LASF81:
 4018 0784 726C6973 		.ascii	"rlist\000"
 4018      7400
 4019              	.LASF147:
 4020 078a 6963756D 		.ascii	"icumode_t\000"
 4020      6F64655F 
 4020      7400
 4021              	.LASF4:
 4022 0794 5F5F7569 		.ascii	"__uint8_t\000"
 4022      6E74385F 
 4022      7400
 4023              	.LASF170:
 4024 079e 73746172 		.ascii	"start\000"
 4024      7400
 4025              	.LASF124:
 4026 07a4 4943555F 		.ascii	"ICU_READY\000"
 4026      52454144 
 4026      5900
 4027              	.LASF148:
 4028 07ae 69637566 		.ascii	"icufreq_t\000"
 4028      7265715F 
 4028      7400
 4029              	.LASF33:
 4030 07b8 705F7072 		.ascii	"p_prev\000"
 4030      657600
 4031              	.LASF85:
 4032 07bf 73697A65 		.ascii	"sizetype\000"
 4032      74797065 
 4032      00
 4033              	.LASF24:
 4034 07c8 74726566 		.ascii	"trefs_t\000"
 4034      735F7400 
 4035              	.LASF200:
 4036 07d0 7574696C 		.ascii	"utils_middle_of_3\000"
 4036      735F6D69 
 4036      64646C65 
 4036      5F6F665F 
 4036      3300
 4037              	.LASF10:
 4038 07e2 6C6F6E67 		.ascii	"long unsigned int\000"
 4038      20756E73 
 4038      69676E65 
 4038      6420696E 
 4038      7400
 4039              	.LASF57:
 4040 07f4 72656164 		.ascii	"ready_list_t\000"
 4040      795F6C69 
 4040      73745F74 
 4040      00
 4041              	.LASF17:
 4042 0801 696E7433 		.ascii	"int32_t\000"
ARM GAS  /tmp/ccs1tseK.s 			page 78


 4042      325F7400 
 4043              	.LASF96:
 4044 0809 77747365 		.ascii	"wtsemp\000"
 4044      6D7000
 4045              	.LASF122:
 4046 0810 4943555F 		.ascii	"ICU_UNINIT\000"
 4046      554E494E 
 4046      495400
 4047              	.LASF107:
 4048 081b 6D757465 		.ascii	"mutex_t\000"
 4048      785F7400 
 4049              	.LASF126:
 4050 0823 4943555F 		.ascii	"ICU_ACTIVE\000"
 4050      41435449 
 4050      564500
 4051              	.LASF2:
 4052 082e 756E7369 		.ascii	"unsigned char\000"
 4052      676E6564 
 4052      20636861 
 4052      7200
 4053              	.LASF9:
 4054 083c 5F5F7569 		.ascii	"__uint32_t\000"
 4054      6E743332 
 4054      5F7400
 4055              	.LASF73:
 4056 0847 76697274 		.ascii	"virtual_timers_list_t\000"
 4056      75616C5F 
 4056      74696D65 
 4056      72735F6C 
 4056      6973745F 
 4057              	.LASF41:
 4058 085d 705F7265 		.ascii	"p_refs\000"
 4058      667300
 4059              	.LASF78:
 4060 0864 70616E69 		.ascii	"panic_msg\000"
 4060      635F6D73 
 4060      6700
 4061              	.LASF42:
 4062 086e 705F7072 		.ascii	"p_preempt\000"
 4062      65656D70 
 4062      7400
 4063              	.LASF182:
 4064 0878 73657276 		.ascii	"servo_pos\000"
 4064      6F5F706F 
 4064      7300
 4065              	.LASF153:
 4066 0882 66726571 		.ascii	"frequency\000"
 4066      75656E63 
 4066      7900
 4067              	.LASF129:
 4068 088c 73746174 		.ascii	"state\000"
 4068      6500
 4069              	.LASF146:
 4070 0892 4943555F 		.ascii	"ICU_INPUT_ACTIVE_LOW\000"
 4070      494E5055 
 4070      545F4143 
 4070      54495645 
ARM GAS  /tmp/ccs1tseK.s 			page 79


 4070      5F4C4F57 
 4071              	.LASF68:
 4072 08a7 76745F6E 		.ascii	"vt_next\000"
 4072      65787400 
 4073              	.LASF128:
 4074 08af 49435544 		.ascii	"ICUDriver\000"
 4074      72697665 
 4074      7200
 4075              	.LASF79:
 4076 08b9 63685F73 		.ascii	"ch_system_t\000"
 4076      79737465 
 4076      6D5F7400 
 4077              	.LASF133:
 4078 08c5 70636372 		.ascii	"pccrp\000"
 4078      7000
 4079              	.LASF178:
 4080 08cb 73657276 		.ascii	"servodec_get_servo\000"
 4080      6F646563 
 4080      5F676574 
 4080      5F736572 
 4080      766F00
 4081              	.LASF120:
 4082 08de 696F6D6F 		.ascii	"iomode_t\000"
 4082      64655F74 
 4082      00
 4083              	.LASF105:
 4084 08e7 6D5F6E65 		.ascii	"m_next\000"
 4084      787400
 4085              	.LASF134:
 4086 08ee 69637563 		.ascii	"icucallback_t\000"
 4086      616C6C62 
 4086      61636B5F 
 4086      7400
 4087              	.LASF1:
 4088 08fc 7369676E 		.ascii	"signed char\000"
 4088      65642063 
 4088      68617200 
 4089              	.LASF199:
 4090 0908 69637577 		.ascii	"icuwidthcb\000"
 4090      69647468 
 4090      636200
 4091              	.LASF6:
 4092 0913 73686F72 		.ascii	"short unsigned int\000"
 4092      7420756E 
 4092      7369676E 
 4092      65642069 
 4092      6E7400
 4093              	.LASF61:
 4094 0926 725F6374 		.ascii	"r_ctx\000"
 4094      7800
 4095              	.LASF87:
 4096 092c 73746B61 		.ascii	"stkalign_t\000"
 4096      6C69676E 
 4096      5F7400
 4097              	.LASF165:
 4098 0937 5F5F6675 		.ascii	"__func__\000"
 4098      6E635F5F 
ARM GAS  /tmp/ccs1tseK.s 			page 80


 4098      00
 4099              	.LASF71:
 4100 0940 76745F66 		.ascii	"vt_func\000"
 4100      756E6300 
 4101              	.LASF197:
 4102 0948 63685654 		.ascii	"chVTGetSystemTimeX\000"
 4102      47657453 
 4102      79737465 
 4102      6D54696D 
 4102      655800
 4103              	.LASF161:
 4104 095b 706F7274 		.ascii	"port_unlock\000"
 4104      5F756E6C 
 4104      6F636B00 
 4105              	.LASF69:
 4106 0967 76745F70 		.ascii	"vt_prev\000"
 4106      72657600 
 4107              	.LASF95:
 4108 096f 77747472 		.ascii	"wttrp\000"
 4108      7000
 4109              	.LASF93:
 4110 0975 65786974 		.ascii	"exitcode\000"
 4110      636F6465 
 4110      00
 4111              	.LASF115:
 4112 097e 4C434B52 		.ascii	"LCKR\000"
 4112      00
 4113              	.LASF187:
 4114 0983 646F6E65 		.ascii	"done_func\000"
 4114      5F66756E 
 4114      6300
 4115              		.ident	"GCC: (GNU Tools for ARM Embedded Processors) 4.9.3 20150529 (release) [ARM/embedded-4_9-br
ARM GAS  /tmp/ccs1tseK.s 			page 81


DEFINED SYMBOLS
                            *ABS*:0000000000000000 servo_dec.c
     /tmp/ccs1tseK.s:21     .text.icuperiodcb:0000000000000000 $t
     /tmp/ccs1tseK.s:26     .text.icuperiodcb:0000000000000000 icuperiodcb
     /tmp/ccs1tseK.s:40     .text.icuwidthcb:0000000000000000 $t
     /tmp/ccs1tseK.s:45     .text.icuwidthcb:0000000000000000 icuwidthcb
     /tmp/ccs1tseK.s:270    .text.icuwidthcb:0000000000000104 $d
     /tmp/ccs1tseK.s:288    .text.servodec_init:0000000000000000 $t
     /tmp/ccs1tseK.s:294    .text.servodec_init:0000000000000000 servodec_init
     /tmp/ccs1tseK.s:353    .text.servodec_init:0000000000000038 $d
     /tmp/ccs1tseK.s:364    .text.servodec_set_pulse_options:0000000000000000 $t
     /tmp/ccs1tseK.s:370    .text.servodec_set_pulse_options:0000000000000000 servodec_set_pulse_options
     /tmp/ccs1tseK.s:394    .text.servodec_set_pulse_options:0000000000000014 $d
     /tmp/ccs1tseK.s:401    .text.servodec_get_servo:0000000000000000 $t
     /tmp/ccs1tseK.s:407    .text.servodec_get_servo:0000000000000000 servodec_get_servo
     /tmp/ccs1tseK.s:430    .text.servodec_get_servo:0000000000000014 $d
     /tmp/ccs1tseK.s:436    .text.servodec_get_time_since_update:0000000000000000 $t
     /tmp/ccs1tseK.s:442    .text.servodec_get_time_since_update:0000000000000000 servodec_get_time_since_update
     /tmp/ccs1tseK.s:491    .text.servodec_get_time_since_update:0000000000000014 $d
     /tmp/ccs1tseK.s:498    .text.servodec_get_last_pulse_len:0000000000000000 $t
     /tmp/ccs1tseK.s:504    .text.servodec_get_last_pulse_len:0000000000000000 servodec_get_last_pulse_len
     /tmp/ccs1tseK.s:527    .text.servodec_get_last_pulse_len:0000000000000014 $d
     /tmp/ccs1tseK.s:533    .bss.servo_pos:0000000000000000 $d
     /tmp/ccs1tseK.s:537    .bss.servo_pos:0000000000000000 servo_pos
     /tmp/ccs1tseK.s:540    .data.c2.9022:0000000000000000 $d
     /tmp/ccs1tseK.s:544    .data.c2.9022:0000000000000000 c2.9022
     /tmp/ccs1tseK.s:547    .data.pulse_end:0000000000000000 $d
     /tmp/ccs1tseK.s:551    .data.pulse_end:0000000000000000 pulse_end
     /tmp/ccs1tseK.s:554    .bss.last_update_time:0000000000000000 $d
     /tmp/ccs1tseK.s:558    .bss.last_update_time:0000000000000000 last_update_time
     /tmp/ccs1tseK.s:561    .data.c1.9021:0000000000000000 $d
     /tmp/ccs1tseK.s:565    .data.c1.9021:0000000000000000 c1.9021
     /tmp/ccs1tseK.s:568    .bss.last_len_received:0000000000000000 $d
     /tmp/ccs1tseK.s:572    .bss.last_len_received:0000000000000000 last_len_received
     /tmp/ccs1tseK.s:578    .bss.use_median_filter:0000000000000000 use_median_filter
     /tmp/ccs1tseK.s:579    .bss.use_median_filter:0000000000000000 $d
     /tmp/ccs1tseK.s:581    .data.pulse_start:0000000000000000 $d
     /tmp/ccs1tseK.s:585    .data.pulse_start:0000000000000000 pulse_start
     /tmp/ccs1tseK.s:588    .bss.done_func:0000000000000000 $d
     /tmp/ccs1tseK.s:592    .bss.done_func:0000000000000000 done_func
     /tmp/ccs1tseK.s:595    .data.icucfg:0000000000000000 $d
     /tmp/ccs1tseK.s:599    .data.icucfg:0000000000000000 icucfg
                     .debug_frame:0000000000000010 $d

UNDEFINED SYMBOLS
utils_middle_of_3
ch
icuStart
_pal_lld_setgroupmode
icuStartCapture
icuEnableNotifications
ICUD3
