ARM GAS  /tmp/cc62Pzlz.s 			page 1


   1              		.syntax unified
   2              		.cpu cortex-m4
   3              		.eabi_attribute 27, 1
   4              		.eabi_attribute 28, 1
   5              		.fpu fpv4-sp-d16
   6              		.eabi_attribute 20, 1
   7              		.eabi_attribute 21, 1
   8              		.eabi_attribute 23, 3
   9              		.eabi_attribute 24, 1
  10              		.eabi_attribute 25, 1
  11              		.eabi_attribute 26, 1
  12              		.eabi_attribute 30, 2
  13              		.eabi_attribute 34, 1
  14              		.eabi_attribute 18, 4
  15              		.thumb
  16              		.file	"spi_sw.c"
  17              		.text
  18              	.Ltext0:
  19              		.cfi_sections	.debug_frame
  20              		.section	.text.spi_sw_init,"ax",%progbits
  21              		.align	2
  22              		.p2align 4,,15
  23              		.global	spi_sw_init
  24              		.thumb
  25              		.thumb_func
  26              		.type	spi_sw_init, %function
  27              	spi_sw_init:
  28              	.LFB256:
  29              		.file 1 "nrf/spi_sw.c"
  30              		.loc 1 29 0
  31              		.cfi_startproc
  32              		@ args = 0, pretend = 0, frame = 0
  33              		@ frame_needed = 0, uses_anonymous_args = 0
  34 0000 38B5     		push	{r3, r4, r5, lr}
  35              		.cfi_def_cfa_offset 16
  36              		.cfi_offset 3, -16
  37              		.cfi_offset 4, -12
  38              		.cfi_offset 5, -8
  39              		.cfi_offset 14, -4
  40              		.loc 1 30 0
  41 0002 0F4D     		ldr	r5, .L5
  42 0004 2A78     		ldrb	r2, [r5]	@ zero_extendqisi2
  43 0006 CAB9     		cbnz	r2, .L1
  44              		.loc 1 31 0
  45 0008 0E4C     		ldr	r4, .L5+4
  46 000a 4021     		movs	r1, #64
  47 000c 2046     		mov	r0, r4
  48 000e FFF7FEFF 		bl	_pal_lld_setgroupmode
  49              	.LVL0:
  50              		.loc 1 32 0
  51 0012 2046     		mov	r0, r4
  52 0014 1021     		movs	r1, #16
  53 0016 0122     		movs	r2, #1
  54 0018 FFF7FEFF 		bl	_pal_lld_setgroupmode
  55              	.LVL1:
  56              		.loc 1 33 0
  57 001c 2046     		mov	r0, r4
ARM GAS  /tmp/cc62Pzlz.s 			page 2


  58 001e 2021     		movs	r1, #32
  59 0020 0122     		movs	r2, #1
  60 0022 FFF7FEFF 		bl	_pal_lld_setgroupmode
  61              	.LVL2:
  62              		.loc 1 34 0
  63 0026 8021     		movs	r1, #128
  64 0028 0122     		movs	r2, #1
  65 002a 2046     		mov	r0, r4
  66 002c FFF7FEFF 		bl	_pal_lld_setgroupmode
  67              	.LVL3:
  68              		.loc 1 36 0
  69 0030 1021     		movs	r1, #16
  70              		.loc 1 37 0
  71 0032 2022     		movs	r2, #32
  72              		.loc 1 38 0
  73 0034 0123     		movs	r3, #1
  74              		.loc 1 36 0
  75 0036 2183     		strh	r1, [r4, #24]	@ movhi
  76              		.loc 1 37 0
  77 0038 6283     		strh	r2, [r4, #26]	@ movhi
  78              		.loc 1 38 0
  79 003a 2B70     		strb	r3, [r5]
  80              	.L1:
  81 003c 38BD     		pop	{r3, r4, r5, pc}
  82              	.L6:
  83 003e 00BF     		.align	2
  84              	.L5:
  85 0040 00000000 		.word	.LANCHOR0
  86 0044 00000240 		.word	1073872896
  87              		.cfi_endproc
  88              	.LFE256:
  89              		.size	spi_sw_init, .-spi_sw_init
  90              		.section	.text.spi_sw_transfer,"ax",%progbits
  91              		.align	2
  92              		.p2align 4,,15
  93              		.global	spi_sw_transfer
  94              		.thumb
  95              		.thumb_func
  96              		.type	spi_sw_transfer, %function
  97              	spi_sw_transfer:
  98              	.LFB257:
  99              		.loc 1 42 0
 100              		.cfi_startproc
 101              		@ args = 0, pretend = 0, frame = 16
 102              		@ frame_needed = 0, uses_anonymous_args = 0
 103              	.LVL4:
 104 0000 2DE9F043 		push	{r4, r5, r6, r7, r8, r9, lr}
 105              		.cfi_def_cfa_offset 28
 106              		.cfi_offset 4, -28
 107              		.cfi_offset 5, -24
 108              		.cfi_offset 6, -20
 109              		.cfi_offset 7, -16
 110              		.cfi_offset 8, -12
 111              		.cfi_offset 9, -8
 112              		.cfi_offset 14, -4
 113              		.loc 1 43 0
 114 0004 2F4C     		ldr	r4, .L40
ARM GAS  /tmp/cc62Pzlz.s 			page 3


 115              		.loc 1 42 0
 116 0006 85B0     		sub	sp, sp, #20
 117              		.cfi_def_cfa_offset 48
 118              	.LBB33:
 119              	.LBB34:
 120              		.loc 1 83 0
 121 0008 0023     		movs	r3, #0
 122              	.LBE34:
 123              	.LBE33:
 124              		.loc 1 43 0
 125 000a 2025     		movs	r5, #32
 126 000c 6583     		strh	r5, [r4, #26]	@ movhi
 127              	.LBB39:
 128              	.LBB37:
 129              		.loc 1 83 0
 130 000e 0193     		str	r3, [sp, #4]
 131 0010 019B     		ldr	r3, [sp, #4]
 132 0012 042B     		cmp	r3, #4
 133              	.LBE37:
 134              	.LBE39:
 135              		.loc 1 42 0
 136 0014 9046     		mov	r8, r2
 137              	.LBB40:
 138              	.LBB38:
 139              		.loc 1 83 0
 140 0016 06DC     		bgt	.L11
 141              	.L30:
 142              	.LBB35:
 143              	.LBB36:
 144              		.file 2 "ChibiOS_3.0.2/os/ext/CMSIS/include/core_cmInstr.h"
 145              		.loc 2 327 0
 146              	@ 327 "ChibiOS_3.0.2/os/ext/CMSIS/include/core_cmInstr.h" 1
 147 0018 00BF     		nop
 148              	@ 0 "" 2
 149              		.thumb
 150              	.LBE36:
 151              	.LBE35:
 152              		.loc 1 83 0
 153 001a 019B     		ldr	r3, [sp, #4]
 154 001c 0133     		adds	r3, r3, #1
 155 001e 0193     		str	r3, [sp, #4]
 156 0020 019B     		ldr	r3, [sp, #4]
 157 0022 042B     		cmp	r3, #4
 158 0024 F8DD     		ble	.L30
 159              	.L11:
 160              	.LVL5:
 161              	.LBE38:
 162              	.LBE40:
 163              	.LBB41:
 164              		.loc 1 46 0
 165 0026 B8F1000F 		cmp	r8, #0
 166 002a 45DD     		ble	.L7
 167 002c 4FF0000C 		mov	ip, #0
 168              	.LBB42:
 169              	.LBB43:
 170              		.loc 1 51 0
 171 0030 244E     		ldr	r6, .L40
ARM GAS  /tmp/cc62Pzlz.s 			page 4


 172              	.LBB44:
 173              	.LBB45:
 174              		.loc 1 83 0
 175 0032 6246     		mov	r2, ip
 176              	.LVL6:
 177              	.L9:
 178              	.LBE45:
 179              	.LBE44:
 180              	.LBE43:
 181              		.loc 1 47 0
 182 0034 0029     		cmp	r1, #0
 183 0036 42D0     		beq	.L24
 184              		.loc 1 47 0 is_stmt 0 discriminator 1
 185 0038 11F80C50 		ldrb	r5, [r1, ip]	@ zero_extendqisi2
 186              	.L12:
 187              	.LVL7:
 188 003c 0827     		movs	r7, #8
 189 003e 0024     		movs	r4, #0
 190              	.LBB58:
 191              		.loc 1 61 0 is_stmt 1 discriminator 1
 192 0040 4FF0200E 		mov	lr, #32	@ movhi
 193              	.LVL8:
 194              	.L19:
 195              		.loc 1 51 0
 196 0044 C5F3C713 		ubfx	r3, r5, #7, #8
 197 0048 002B     		cmp	r3, #0
 198 004a 4FEAC313 		lsl	r3, r3, #7
 199 004e 0CBF     		ite	eq
 200 0050 4FF40009 		moveq	r9, #8388608
 201 0054 4FF00009 		movne	r9, #0
 202 0058 DBB2     		uxtb	r3, r3
 203 005a 49EA0303 		orr	r3, r9, r3
 204 005e B361     		str	r3, [r6, #24]
 205              	.LBB51:
 206              	.LBB48:
 207              		.loc 1 83 0
 208 0060 0292     		str	r2, [sp, #8]
 209 0062 029B     		ldr	r3, [sp, #8]
 210              	.LBE48:
 211              	.LBE51:
 212              		.loc 1 52 0
 213 0064 6D00     		lsls	r5, r5, #1
 214              	.LVL9:
 215              	.LBB52:
 216              	.LBB49:
 217              		.loc 1 83 0
 218 0066 042B     		cmp	r3, #4
 219              	.LBE49:
 220              	.LBE52:
 221              		.loc 1 52 0
 222 0068 EDB2     		uxtb	r5, r5
 223              	.LVL10:
 224              	.LBB53:
 225              	.LBB50:
 226              		.loc 1 83 0
 227 006a 06DC     		bgt	.L17
 228              	.L29:
ARM GAS  /tmp/cc62Pzlz.s 			page 5


 229              	.LBB46:
 230              	.LBB47:
 231              		.loc 2 327 0
 232              	@ 327 "ChibiOS_3.0.2/os/ext/CMSIS/include/core_cmInstr.h" 1
 233 006c 00BF     		nop
 234              	@ 0 "" 2
 235              		.thumb
 236              	.LBE47:
 237              	.LBE46:
 238              		.loc 1 83 0
 239 006e 029B     		ldr	r3, [sp, #8]
 240 0070 0133     		adds	r3, r3, #1
 241 0072 0293     		str	r3, [sp, #8]
 242 0074 029B     		ldr	r3, [sp, #8]
 243 0076 042B     		cmp	r3, #4
 244 0078 F8DD     		ble	.L29
 245              	.L17:
 246              	.LBE50:
 247              	.LBE53:
 248              		.loc 1 57 0
 249 007a 3369     		ldr	r3, [r6, #16]
 250              		.loc 1 56 0
 251 007c 6400     		lsls	r4, r4, #1
 252              	.LVL11:
 253              		.loc 1 57 0
 254 007e 5B06     		lsls	r3, r3, #25
 255              		.loc 1 56 0
 256 0080 E4B2     		uxtb	r4, r4
 257              	.LVL12:
 258              		.loc 1 57 0
 259 0082 01D5     		bpl	.L16
 260              		.loc 1 58 0
 261 0084 44F00104 		orr	r4, r4, #1
 262              	.LVL13:
 263              	.L16:
 264              		.loc 1 61 0 discriminator 2
 265 0088 A6F818E0 		strh	lr, [r6, #24]	@ movhi
 266              	.LBB54:
 267              	.LBB55:
 268              		.loc 1 83 0 discriminator 2
 269 008c 0392     		str	r2, [sp, #12]
 270 008e 039B     		ldr	r3, [sp, #12]
 271 0090 042B     		cmp	r3, #4
 272 0092 06DC     		bgt	.L21
 273              	.L28:
 274              	.LBB56:
 275              	.LBB57:
 276              		.loc 2 327 0
 277              	@ 327 "ChibiOS_3.0.2/os/ext/CMSIS/include/core_cmInstr.h" 1
 278 0094 00BF     		nop
 279              	@ 0 "" 2
 280              		.thumb
 281              	.LBE57:
 282              	.LBE56:
 283              		.loc 1 83 0
 284 0096 039B     		ldr	r3, [sp, #12]
 285 0098 0133     		adds	r3, r3, #1
ARM GAS  /tmp/cc62Pzlz.s 			page 6


 286 009a 0393     		str	r3, [sp, #12]
 287 009c 039B     		ldr	r3, [sp, #12]
 288 009e 042B     		cmp	r3, #4
 289 00a0 F8DD     		ble	.L28
 290              	.L21:
 291              	.LBE55:
 292              	.LBE54:
 293              		.loc 1 50 0
 294 00a2 013F     		subs	r7, r7, #1
 295              	.LVL14:
 296              		.loc 1 63 0
 297 00a4 A6F81AE0 		strh	lr, [r6, #26]	@ movhi
 298              	.LVL15:
 299              		.loc 1 50 0
 300 00a8 CCD1     		bne	.L19
 301              	.LBE58:
 302              		.loc 1 66 0
 303 00aa 08B1     		cbz	r0, .L22
 304              		.loc 1 67 0
 305 00ac 00F80C40 		strb	r4, [r0, ip]
 306              	.L22:
 307              	.LBE42:
 308              		.loc 1 46 0 discriminator 2
 309 00b0 0CF1010C 		add	ip, ip, #1
 310              	.LVL16:
 311 00b4 C445     		cmp	ip, r8
 312 00b6 BDD1     		bne	.L9
 313              	.LVL17:
 314              	.L7:
 315              	.LBE41:
 316              		.loc 1 70 0
 317 00b8 05B0     		add	sp, sp, #20
 318              		.cfi_remember_state
 319              		.cfi_def_cfa_offset 28
 320              		@ sp needed
 321 00ba BDE8F083 		pop	{r4, r5, r6, r7, r8, r9, pc}
 322              	.LVL18:
 323              	.L24:
 324              		.cfi_restore_state
 325              	.LBB60:
 326              	.LBB59:
 327              		.loc 1 47 0
 328 00be 0D46     		mov	r5, r1
 329 00c0 BCE7     		b	.L12
 330              	.L41:
 331 00c2 00BF     		.align	2
 332              	.L40:
 333 00c4 00000240 		.word	1073872896
 334              	.LBE59:
 335              	.LBE60:
 336              		.cfi_endproc
 337              	.LFE257:
 338              		.size	spi_sw_transfer, .-spi_sw_transfer
 339              		.section	.text.spi_sw_begin,"ax",%progbits
 340              		.align	2
 341              		.p2align 4,,15
 342              		.global	spi_sw_begin
ARM GAS  /tmp/cc62Pzlz.s 			page 7


 343              		.thumb
 344              		.thumb_func
 345              		.type	spi_sw_begin, %function
 346              	spi_sw_begin:
 347              	.LFB258:
 348              		.loc 1 72 0
 349              		.cfi_startproc
 350              		@ args = 0, pretend = 0, frame = 8
 351              		@ frame_needed = 0, uses_anonymous_args = 0
 352              		@ link register save eliminated.
 353 0000 82B0     		sub	sp, sp, #8
 354              		.cfi_def_cfa_offset 8
 355              		.loc 1 73 0
 356 0002 084A     		ldr	r2, .L48
 357              	.LBB61:
 358              	.LBB62:
 359              		.loc 1 83 0
 360 0004 0023     		movs	r3, #0
 361              	.LBE62:
 362              	.LBE61:
 363              		.loc 1 73 0
 364 0006 1021     		movs	r1, #16
 365 0008 5183     		strh	r1, [r2, #26]	@ movhi
 366              	.LBB66:
 367              	.LBB65:
 368              		.loc 1 83 0
 369 000a 0193     		str	r3, [sp, #4]
 370 000c 019B     		ldr	r3, [sp, #4]
 371 000e 042B     		cmp	r3, #4
 372 0010 06DC     		bgt	.L42
 373              	.L45:
 374              	.LBB63:
 375              	.LBB64:
 376              		.loc 2 327 0
 377              	@ 327 "ChibiOS_3.0.2/os/ext/CMSIS/include/core_cmInstr.h" 1
 378 0012 00BF     		nop
 379              	@ 0 "" 2
 380              		.thumb
 381              	.LBE64:
 382              	.LBE63:
 383              		.loc 1 83 0
 384 0014 019B     		ldr	r3, [sp, #4]
 385 0016 0133     		adds	r3, r3, #1
 386 0018 0193     		str	r3, [sp, #4]
 387 001a 019B     		ldr	r3, [sp, #4]
 388 001c 042B     		cmp	r3, #4
 389 001e F8DD     		ble	.L45
 390              	.L42:
 391              	.LBE65:
 392              	.LBE66:
 393              		.loc 1 75 0
 394 0020 02B0     		add	sp, sp, #8
 395              		.cfi_def_cfa_offset 0
 396              		@ sp needed
 397 0022 7047     		bx	lr
 398              	.L49:
 399              		.align	2
ARM GAS  /tmp/cc62Pzlz.s 			page 8


 400              	.L48:
 401 0024 00000240 		.word	1073872896
 402              		.cfi_endproc
 403              	.LFE258:
 404              		.size	spi_sw_begin, .-spi_sw_begin
 405              		.section	.text.spi_sw_end,"ax",%progbits
 406              		.align	2
 407              		.p2align 4,,15
 408              		.global	spi_sw_end
 409              		.thumb
 410              		.thumb_func
 411              		.type	spi_sw_end, %function
 412              	spi_sw_end:
 413              	.LFB259:
 414              		.loc 1 77 0
 415              		.cfi_startproc
 416              		@ args = 0, pretend = 0, frame = 8
 417              		@ frame_needed = 0, uses_anonymous_args = 0
 418              		@ link register save eliminated.
 419 0000 82B0     		sub	sp, sp, #8
 420              		.cfi_def_cfa_offset 8
 421              	.LBB67:
 422              	.LBB68:
 423              		.loc 1 83 0
 424 0002 0023     		movs	r3, #0
 425 0004 0193     		str	r3, [sp, #4]
 426 0006 019B     		ldr	r3, [sp, #4]
 427 0008 042B     		cmp	r3, #4
 428 000a 06DC     		bgt	.L52
 429              	.L53:
 430              	.LBB69:
 431              	.LBB70:
 432              		.loc 2 327 0
 433              	@ 327 "ChibiOS_3.0.2/os/ext/CMSIS/include/core_cmInstr.h" 1
 434 000c 00BF     		nop
 435              	@ 0 "" 2
 436              		.thumb
 437              	.LBE70:
 438              	.LBE69:
 439              		.loc 1 83 0
 440 000e 019B     		ldr	r3, [sp, #4]
 441 0010 0133     		adds	r3, r3, #1
 442 0012 0193     		str	r3, [sp, #4]
 443 0014 019B     		ldr	r3, [sp, #4]
 444 0016 042B     		cmp	r3, #4
 445 0018 F8DD     		ble	.L53
 446              	.L52:
 447              	.LBE68:
 448              	.LBE67:
 449              		.loc 1 79 0
 450 001a 024B     		ldr	r3, .L57
 451 001c 1022     		movs	r2, #16
 452 001e 1A83     		strh	r2, [r3, #24]	@ movhi
 453              		.loc 1 80 0
 454 0020 02B0     		add	sp, sp, #8
 455              		.cfi_def_cfa_offset 0
 456              		@ sp needed
ARM GAS  /tmp/cc62Pzlz.s 			page 9


 457 0022 7047     		bx	lr
 458              	.L58:
 459              		.align	2
 460              	.L57:
 461 0024 00000240 		.word	1073872896
 462              		.cfi_endproc
 463              	.LFE259:
 464              		.size	spi_sw_end, .-spi_sw_end
 465              		.section	.bss.init_done,"aw",%nobits
 466              		.set	.LANCHOR0,. + 0
 467              		.type	init_done, %object
 468              		.size	init_done, 1
 469              	init_done:
 470 0000 00       		.space	1
 471              		.text
 472              	.Letext0:
 473              		.file 3 "/usr/arm-none-eabi/include/machine/_default_types.h"
 474              		.file 4 "/usr/arm-none-eabi/include/sys/_stdint.h"
 475              		.file 5 "/usr/lib/gcc/arm-none-eabi/4.9.3/include/stddef.h"
 476              		.file 6 "ChibiOS_3.0.2/os/rt/ports/ARMCMx/compilers/GCC/chtypes.h"
 477              		.file 7 "ChibiOS_3.0.2/os/rt/include/chsystypes.h"
 478              		.file 8 "ChibiOS_3.0.2/os/rt/include/chschd.h"
 479              		.file 9 "ChibiOS_3.0.2/os/rt/ports/ARMCMx/chcore.h"
 480              		.file 10 "ChibiOS_3.0.2/os/rt/ports/ARMCMx/chcore_v7m.h"
 481              		.file 11 "ChibiOS_3.0.2/os/rt/include/chtm.h"
 482              		.file 12 "ChibiOS_3.0.2/os/rt/include/chsem.h"
 483              		.file 13 "ChibiOS_3.0.2/os/rt/include/chmtx.h"
 484              		.file 14 "ChibiOS_3.0.2/os/hal/ports/STM32/LLD/GPIOv2/pal_lld.h"
 485              		.file 15 "ChibiOS_3.0.2/os/ext/CMSIS/include/core_cm4.h"