ARM GAS  /tmp/ccH66ojY.s 			page 1


   1              		.syntax unified
   2              		.cpu cortex-m4
   3              		.eabi_attribute 27, 1
   4              		.eabi_attribute 28, 1
   5              		.fpu fpv4-sp-d16
   6              		.eabi_attribute 20, 1
   7              		.eabi_attribute 21, 1
   8              		.eabi_attribute 23, 3
   9              		.eabi_attribute 24, 1
  10              		.eabi_attribute 25, 1
  11              		.eabi_attribute 26, 1
  12              		.eabi_attribute 30, 2
  13              		.eabi_attribute 34, 1
  14              		.eabi_attribute 18, 4
  15              		.thumb
  16              		.file	"terminal.c"
  17              		.text
  18              	.Ltext0:
  19              		.cfi_sections	.debug_frame
  20              		.global	__aeabi_f2d
  21              		.section	.text.terminal_process_string,"ax",%progbits
  22              		.align	2
  23              		.p2align 4,,15
  24              		.global	terminal_process_string
  25              		.thumb
  26              		.thumb_func
  27              		.type	terminal_process_string, %function
  28              	terminal_process_string:
  29              	.LFB256:
  30              		.file 1 "terminal.c"
  31              		.loc 1 46 0
  32              		.cfi_startproc
  33              		@ args = 0, pretend = 0, frame = 312
  34              		@ frame_needed = 0, uses_anonymous_args = 0
  35              	.LVL0:
  36 0000 2DE9F047 		push	{r4, r5, r6, r7, r8, r9, r10, lr}
  37              		.cfi_def_cfa_offset 32
  38              		.cfi_offset 4, -32
  39              		.cfi_offset 5, -28
  40              		.cfi_offset 6, -24
  41              		.cfi_offset 7, -20
  42              		.cfi_offset 8, -16
  43              		.cfi_offset 9, -12
  44              		.cfi_offset 10, -8
  45              		.cfi_offset 14, -4
  46 0004 2DED088B 		fstmfdd	sp!, {d8, d9, d10, d11}
  47              		.cfi_def_cfa_offset 64
  48              		.cfi_offset 80, -64
  49              		.cfi_offset 81, -60
  50              		.cfi_offset 82, -56
  51              		.cfi_offset 83, -52
  52              		.cfi_offset 84, -48
  53              		.cfi_offset 85, -44
  54              		.cfi_offset 86, -40
  55              		.cfi_offset 87, -36
  56              		.loc 1 51 0
  57 0008 8E49     		ldr	r1, .L135
ARM GAS  /tmp/ccH66ojY.s 			page 2


  58              		.loc 1 46 0
  59 000a D4B0     		sub	sp, sp, #336
  60              		.cfi_def_cfa_offset 400
  61              		.loc 1 51 0
  62 000c FFF7FEFF 		bl	strtok
  63              	.LVL1:
  64              		.loc 1 52 0
  65 0010 0346     		mov	r3, r0
  66 0012 0028     		cmp	r0, #0
  67 0014 7AD0     		beq	.L111
  68 0016 13AD     		add	r5, sp, #76
  69 0018 0024     		movs	r4, #0
  70 001a 01E0     		b	.L5
  71              	.LVL2:
  72              	.L112:
  73              		.loc 1 52 0 is_stmt 0 discriminator 1
  74 001c 402C     		cmp	r4, #64
  75 001e 09D0     		beq	.L6
  76              	.LVL3:
  77              	.L5:
  78              		.loc 1 53 0 is_stmt 1
  79 0020 45F8043F 		str	r3, [r5, #4]!
  80              		.loc 1 54 0
  81 0024 0020     		movs	r0, #0
  82              	.LVL4:
  83 0026 8749     		ldr	r1, .L135
  84 0028 FFF7FEFF 		bl	strtok
  85              	.LVL5:
  86              		.loc 1 53 0
  87 002c 0134     		adds	r4, r4, #1
  88              	.LVL6:
  89              		.loc 1 52 0
  90 002e 0346     		mov	r3, r0
  91 0030 0028     		cmp	r0, #0
  92 0032 F3D1     		bne	.L112
  93              	.L6:
  94              		.loc 1 64 0
  95 0034 FFF7FEFF 		bl	mc_interface_get_configuration
  96              	.LVL7:
  97 0038 4FF49872 		mov	r2, #304
  98 003c 0146     		mov	r1, r0
  99 003e 8248     		ldr	r0, .L135+4
 100 0040 FFF7FEFF 		bl	memcpy
 101              	.LVL8:
 102              		.loc 1 65 0
 103 0044 8049     		ldr	r1, .L135+4
 104 0046 8148     		ldr	r0, .L135+8
 105 0048 4FF49872 		mov	r2, #304
 106 004c FFF7FEFF 		bl	memcpy
 107              	.LVL9:
 108              		.loc 1 67 0
 109 0050 149D     		ldr	r5, [sp, #80]
 110 0052 7F49     		ldr	r1, .L135+12
 111 0054 2846     		mov	r0, r5
 112 0056 FFF7FEFF 		bl	strcmp
 113              	.LVL10:
 114 005a 0028     		cmp	r0, #0
ARM GAS  /tmp/ccH66ojY.s 			page 3


 115 005c 5ED0     		beq	.L113
 116              		.loc 1 69 0
 117 005e 2846     		mov	r0, r5
 118 0060 7C49     		ldr	r1, .L135+16
 119 0062 FFF7FEFF 		bl	strcmp
 120              	.LVL11:
 121 0066 0028     		cmp	r0, #0
 122 0068 6CD0     		beq	.L114
 123              		.loc 1 72 0
 124 006a 2846     		mov	r0, r5
 125 006c 7A49     		ldr	r1, .L135+20
 126 006e FFF7FEFF 		bl	strcmp
 127              	.LVL12:
 128 0072 0028     		cmp	r0, #0
 129 0074 72D0     		beq	.L115
 130              		.loc 1 76 0
 131 0076 2846     		mov	r0, r5
 132 0078 7849     		ldr	r1, .L135+24
 133 007a FFF7FEFF 		bl	strcmp
 134              	.LVL13:
 135 007e 0028     		cmp	r0, #0
 136 0080 54D0     		beq	.L116
 137              		.loc 1 78 0
 138 0082 2846     		mov	r0, r5
 139 0084 7649     		ldr	r1, .L135+28
 140 0086 FFF7FEFF 		bl	strcmp
 141              	.LVL14:
 142 008a 0028     		cmp	r0, #0
 143 008c 00F09980 		beq	.L117
 144              		.loc 1 84 0
 145 0090 2846     		mov	r0, r5
 146 0092 7449     		ldr	r1, .L135+32
 147 0094 FFF7FEFF 		bl	strcmp
 148              	.LVL15:
 149 0098 0028     		cmp	r0, #0
 150 009a 00F0A580 		beq	.L118
 151              		.loc 1 98 0
 152 009e 2846     		mov	r0, r5
 153 00a0 7149     		ldr	r1, .L135+36
 154 00a2 FFF7FEFF 		bl	strcmp
 155              	.LVL16:
 156 00a6 0028     		cmp	r0, #0
 157 00a8 00F0C380 		beq	.L119
 158              		.loc 1 100 0
 159 00ac 2846     		mov	r0, r5
 160 00ae 6F49     		ldr	r1, .L135+40
 161 00b0 FFF7FEFF 		bl	strcmp
 162              	.LVL17:
 163 00b4 0028     		cmp	r0, #0
 164 00b6 7BD0     		beq	.L120
 165              		.loc 1 122 0
 166 00b8 2846     		mov	r0, r5
 167 00ba 6D49     		ldr	r1, .L135+44
 168 00bc FFF7FEFF 		bl	strcmp
 169              	.LVL18:
 170 00c0 0028     		cmp	r0, #0
 171 00c2 00F07981 		beq	.L121
ARM GAS  /tmp/ccH66ojY.s 			page 4


 172              		.loc 1 124 0
 173 00c6 2846     		mov	r0, r5
 174 00c8 6A49     		ldr	r1, .L135+48
 175 00ca FFF7FEFF 		bl	strcmp
 176              	.LVL19:
 177 00ce 0028     		cmp	r0, #0
 178 00d0 00F07E81 		beq	.L122
 179              		.loc 1 126 0
 180 00d4 2846     		mov	r0, r5
 181 00d6 6849     		ldr	r1, .L135+52
 182 00d8 FFF7FEFF 		bl	strcmp
 183              	.LVL20:
 184 00dc 0028     		cmp	r0, #0
 185 00de 00F0B481 		beq	.L123
 186              		.loc 1 151 0
 187 00e2 2846     		mov	r0, r5
 188 00e4 6549     		ldr	r1, .L135+56
 189 00e6 FFF7FEFF 		bl	strcmp
 190              	.LVL21:
 191 00ea 0028     		cmp	r0, #0
 192 00ec 00F09481 		beq	.L124
 193              		.loc 1 153 0
 194 00f0 2846     		mov	r0, r5
 195 00f2 6349     		ldr	r1, .L135+60
 196 00f4 FFF7FEFF 		bl	strcmp
 197              	.LVL22:
 198 00f8 0028     		cmp	r0, #0
 199 00fa 40F07081 		bne	.L24
 200              		.loc 1 155 0
 201 00fe 042C     		cmp	r4, #4
 202 0100 00F0ED81 		beq	.L125
 203              		.loc 1 197 0
 204 0104 5F48     		ldr	r0, .L135+64
 205 0106 FFF7FEFF 		bl	commands_printf
 206              	.LVL23:
 207 010a 02E0     		b	.L1
 208              	.LVL24:
 209              	.L111:
 210              		.loc 1 58 0
 211 010c 5E48     		ldr	r0, .L135+68
 212              	.LVL25:
 213 010e FFF7FEFF 		bl	commands_printf
 214              	.LVL26:
 215              	.L1:
 216              		.loc 1 453 0
 217 0112 54B0     		add	sp, sp, #336
 218              		.cfi_remember_state
 219              		.cfi_def_cfa_offset 64
 220              		@ sp needed
 221 0114 BDEC088B 		fldmfdd	sp!, {d8-d11}
 222              		.cfi_restore 86
 223              		.cfi_restore 87
 224              		.cfi_restore 84
 225              		.cfi_restore 85
 226              		.cfi_restore 82
 227              		.cfi_restore 83
 228              		.cfi_restore 80
ARM GAS  /tmp/ccH66ojY.s 			page 5


 229              		.cfi_restore 81
 230              		.cfi_def_cfa_offset 32
 231 0118 BDE8F087 		pop	{r4, r5, r6, r7, r8, r9, r10, pc}
 232              	.LVL27:
 233              	.L113:
 234              		.cfi_restore_state
 235              		.loc 1 68 0
 236 011c 5B48     		ldr	r0, .L135+72
 237 011e FFF7FEFF 		bl	commands_printf
 238              	.LVL28:
 239              		.loc 1 453 0
 240 0122 54B0     		add	sp, sp, #336
 241              		.cfi_remember_state
 242              		.cfi_def_cfa_offset 64
 243              		@ sp needed
 244 0124 BDEC088B 		fldmfdd	sp!, {d8-d11}
 245              		.cfi_restore 80
 246              		.cfi_restore 81
 247              		.cfi_restore 82
 248              		.cfi_restore 83
 249              		.cfi_restore 84
 250              		.cfi_restore 85
 251              		.cfi_restore 86
 252              		.cfi_restore 87
 253              		.cfi_def_cfa_offset 32
 254 0128 BDE8F087 		pop	{r4, r5, r6, r7, r8, r9, r10, pc}
 255              	.LVL29:
 256              	.L116:
 257              		.cfi_restore_state
 258              		.loc 1 77 0
 259 012c FFF7FEFF 		bl	mcpwm_get_kv_filtered
 260              	.LVL30:
 261 0130 10EE100A 		fmrs	r0, s0
 262 0134 FFF7FEFF 		bl	__aeabi_f2d
 263              	.LVL31:
 264 0138 0246     		mov	r2, r0
 265 013a 0B46     		mov	r3, r1
 266 013c 5448     		ldr	r0, .L135+76
 267 013e FFF7FEFF 		bl	commands_printf
 268              	.LVL32:
 269 0142 E6E7     		b	.L1
 270              	.L114:
 271              		.loc 1 70 0
 272 0144 9FED530A 		flds	s0, .L135+80
 273 0148 FFF7FEFF 		bl	mc_interface_set_duty
 274              	.LVL33:
 275              		.loc 1 71 0
 276 014c 5248     		ldr	r0, .L135+84
 277 014e FFF7FEFF 		bl	commands_printf
 278              	.LVL34:
 279              		.loc 1 453 0
 280 0152 54B0     		add	sp, sp, #336
 281              		.cfi_remember_state
 282              		.cfi_def_cfa_offset 64
 283              		@ sp needed
 284 0154 BDEC088B 		fldmfdd	sp!, {d8-d11}
 285              		.cfi_restore 80
ARM GAS  /tmp/ccH66ojY.s 			page 6


 286              		.cfi_restore 81
 287              		.cfi_restore 82
 288              		.cfi_restore 83
 289              		.cfi_restore 84
 290              		.cfi_restore 85
 291              		.cfi_restore 86
 292              		.cfi_restore 87
 293              		.cfi_def_cfa_offset 32
 294 0158 BDE8F087 		pop	{r4, r5, r6, r7, r8, r9, r10, pc}
 295              	.LVL35:
 296              	.L115:
 297              		.cfi_restore_state
 298              		.loc 1 73 0
 299 015c FFF7FEFF 		bl	mcpwm_get_last_adc_isr_duration
 300              	.LVL36:
 301 0160 9FED4E8A 		flds	s16, .L135+88
 302 0164 60EE087A 		fmuls	s15, s0, s16
 303 0168 17EE900A 		fmrs	r0, s15
 304 016c FFF7FEFF 		bl	__aeabi_f2d
 305              	.LVL37:
 306 0170 0246     		mov	r2, r0
 307 0172 0B46     		mov	r3, r1
 308 0174 4A48     		ldr	r0, .L135+92
 309 0176 FFF7FEFF 		bl	commands_printf
 310              	.LVL38:
 311              		.loc 1 74 0
 312 017a FFF7FEFF 		bl	mc_interface_get_last_inj_adc_isr_duration
 313              	.LVL39:
 314 017e 60EE087A 		fmuls	s15, s0, s16
 315 0182 17EE900A 		fmrs	r0, s15
 316 0186 FFF7FEFF 		bl	__aeabi_f2d
 317              	.LVL40:
 318 018a 0246     		mov	r2, r0
 319 018c 0B46     		mov	r3, r1
 320 018e 4548     		ldr	r0, .L135+96
 321 0190 FFF7FEFF 		bl	commands_printf
 322              	.LVL41:
 323              		.loc 1 75 0
 324 0194 FFF7FEFF 		bl	mc_interface_get_last_sample_adc_isr_duration
 325              	.LVL42:
 326 0198 60EE087A 		fmuls	s15, s0, s16
 327 019c 17EE900A 		fmrs	r0, s15
 328 01a0 FFF7FEFF 		bl	__aeabi_f2d
 329              	.LVL43:
 330 01a4 0246     		mov	r2, r0
 331 01a6 0B46     		mov	r3, r1
 332 01a8 3F48     		ldr	r0, .L135+100
 333 01aa FFF7FEFF 		bl	commands_printf
 334              	.LVL44:
 335 01ae B0E7     		b	.L1
 336              	.L120:
 337              		.loc 1 101 0
 338 01b0 3E4F     		ldr	r7, .L135+104
 339 01b2 3B68     		ldr	r3, [r7]
 340 01b4 002B     		cmp	r3, #0
 341 01b6 40F08F80 		bne	.L17
 342              		.loc 1 102 0
ARM GAS  /tmp/ccH66ojY.s 			page 7


 343 01ba 3D48     		ldr	r0, .L135+108
 344 01bc FFF7FEFF 		bl	commands_printf
 345              	.LVL45:
 346 01c0 A7E7     		b	.L1
 347              	.L117:
 348              	.LBB53:
 349              		.loc 1 80 0
 350 01c2 0DA9     		add	r1, sp, #52
 351 01c4 FFF7FEFF 		bl	chHeapStatus
 352              	.LVL46:
 353 01c8 0446     		mov	r4, r0
 354              	.LVL47:
 355              		.loc 1 81 0
 356 01ca FFF7FEFF 		bl	chCoreGetStatusX
 357              	.LVL48:
 358 01ce 0146     		mov	r1, r0
 359 01d0 3848     		ldr	r0, .L135+112
 360 01d2 FFF7FEFF 		bl	commands_printf
 361              	.LVL49:
 362              		.loc 1 82 0
 363 01d6 2146     		mov	r1, r4
 364 01d8 3748     		ldr	r0, .L135+116
 365 01da FFF7FEFF 		bl	commands_printf
 366              	.LVL50:
 367              		.loc 1 83 0
 368 01de 0D99     		ldr	r1, [sp, #52]
 369 01e0 3648     		ldr	r0, .L135+120
 370 01e2 FFF7FEFF 		bl	commands_printf
 371              	.LVL51:
 372              	.LBE53:
 373 01e6 94E7     		b	.L1
 374              	.LVL52:
 375              	.L118:
 376              	.LBB54:
 377              		.loc 1 87 0
 378 01e8 3548     		ldr	r0, .L135+124
 379 01ea 364E     		ldr	r6, .L135+128
 380 01ec FFF7FEFF 		bl	commands_printf
 381              	.LVL53:
 382              		.loc 1 88 0
 383 01f0 3548     		ldr	r0, .L135+132
 384 01f2 FFF7FEFF 		bl	commands_printf
 385              	.LVL54:
 386              		.loc 1 89 0
 387 01f6 FFF7FEFF 		bl	chRegFirstThread
 388              	.LVL55:
 389 01fa 0446     		mov	r4, r0
 390              	.LVL56:
 391              	.L14:
 392              		.loc 1 93 0 discriminator 1
 393 01fc A17F     		ldrb	r1, [r4, #30]	@ zero_extendqisi2
 394              		.loc 1 91 0 discriminator 1
 395 01fe E268     		ldr	r2, [r4, #12]
 396 0200 A368     		ldr	r3, [r4, #8]
 397 0202 256A     		ldr	r5, [r4, #32]
 398 0204 3148     		ldr	r0, .L135+136
 399              	.LVL57:
ARM GAS  /tmp/ccH66ojY.s 			page 8


 400              		.loc 1 93 0 discriminator 1
 401 0206 0139     		subs	r1, r1, #1
 402              		.loc 1 91 0 discriminator 1
 403 0208 0091     		str	r1, [sp]
 404 020a 217F     		ldrb	r1, [r4, #28]	@ zero_extendqisi2
 405 020c 56F82110 		ldr	r1, [r6, r1, lsl #2]
 406 0210 0191     		str	r1, [sp, #4]
 407 0212 A169     		ldr	r1, [r4, #24]
 408 0214 0291     		str	r1, [sp, #8]
 409 0216 0395     		str	r5, [sp, #12]
 410 0218 2146     		mov	r1, r4
 411 021a FFF7FEFF 		bl	commands_printf
 412              	.LVL58:
 413              		.loc 1 95 0 discriminator 1
 414 021e 2046     		mov	r0, r4
 415 0220 FFF7FEFF 		bl	chRegNextThread
 416              	.LVL59:
 417              		.loc 1 96 0 discriminator 1
 418 0224 0446     		mov	r4, r0
 419 0226 0028     		cmp	r0, #0
 420 0228 E8D1     		bne	.L14
 421              		.loc 1 97 0
 422 022a 2948     		ldr	r0, .L135+140
 423              	.LVL60:
 424 022c FFF7FEFF 		bl	commands_printf
 425              	.LVL61:
 426              	.LBE54:
 427 0230 6FE7     		b	.L1
 428              	.LVL62:
 429              	.L119:
 430              		.loc 1 99 0
 431 0232 FFF7FEFF 		bl	mc_interface_get_fault
 432              	.LVL63:
 433 0236 FFF7FEFF 		bl	mc_interface_fault_to_string
 434              	.LVL64:
 435 023a 0146     		mov	r1, r0
 436 023c 2548     		ldr	r0, .L135+144
 437 023e FFF7FEFF 		bl	commands_printf
 438              	.LVL65:
 439 0242 66E7     		b	.L1
 440              	.L136:
 441              		.align	2
 442              	.L135:
 443 0244 00000000 		.word	.LC0
 444 0248 00000000 		.word	.LANCHOR0
 445 024c 00000000 		.word	.LANCHOR1
 446 0250 1C000000 		.word	.LC2
 447 0254 2C000000 		.word	.LC4
 448 0258 44000000 		.word	.LC6
 449 025c C8000000 		.word	.LC10
 450 0260 EC000000 		.word	.LC12
 451 0264 44010000 		.word	.LC16
 452 0268 F4010000 		.word	.LC21
 453 026c 00020000 		.word	.LC23
 454 0270 B4030000 		.word	.LC40
 455 0274 D4030000 		.word	.LC42
 456 0278 F4030000 		.word	.LC44
ARM GAS  /tmp/ccH66ojY.s 			page 9


 457 027c AC040000 		.word	.LC56
 458 0280 CC040000 		.word	.LC58
 459 0284 24060000 		.word	.LC69
 460 0288 04000000 		.word	.LC1
 461 028c 24000000 		.word	.LC3
 462 0290 CC000000 		.word	.LC11
 463 0294 00000000 		.word	0
 464 0298 34000000 		.word	.LC5
 465 029c 00007A44 		.word	1148846080
 466 02a0 58000000 		.word	.LC7
 467 02a4 78000000 		.word	.LC8
 468 02a8 A0000000 		.word	.LC9
 469 02ac 00000000 		.word	.LANCHOR3
 470 02b0 08020000 		.word	.LC24
 471 02b4 F0000000 		.word	.LC13
 472 02b8 0C010000 		.word	.LC14
 473 02bc 24010000 		.word	.LC15
 474 02c0 4C010000 		.word	.LC17
 475 02c4 00000000 		.word	.LANCHOR2
 476 02c8 8C010000 		.word	.LC18
 477 02cc CC010000 		.word	.LC19
 478 02d0 F0010000 		.word	.LC20
 479 02d4 FC010000 		.word	.LC22
 480              	.L17:
 481              		.loc 1 104 0
 482 02d8 C148     		ldr	r0, .L137
 483 02da FFF7FEFF 		bl	commands_printf
 484              	.LVL66:
 485              	.LBB55:
 486              		.loc 1 105 0
 487 02de 3B68     		ldr	r3, [r7]
 488 02e0 002B     		cmp	r3, #0
 489 02e2 7FF716AF 		ble	.L1
 490 02e6 BF4E     		ldr	r6, .L137+4
 491 02e8 0025     		movs	r5, #0
 492              	.LVL67:
 493              	.L18:
 494              		.loc 1 106 0 discriminator 3
 495 02ea 3423     		movs	r3, #52
 496 02ec 03FB05F3 		mul	r3, r3, r5
 497 02f0 F418     		adds	r4, r6, r3
 498 02f2 F05C     		ldrb	r0, [r6, r3]	@ zero_extendqisi2
 499 02f4 FFF7FEFF 		bl	mc_interface_fault_to_string
 500              	.LVL68:
 501 02f8 0146     		mov	r1, r0
 502 02fa BB48     		ldr	r0, .L137+8
 503 02fc FFF7FEFF 		bl	commands_printf
 504              	.LVL69:
 505              		.loc 1 107 0 discriminator 3
 506 0300 6068     		ldr	r0, [r4, #4]	@ float
 507 0302 FFF7FEFF 		bl	__aeabi_f2d
 508              	.LVL70:
 509 0306 0246     		mov	r2, r0
 510 0308 0B46     		mov	r3, r1
 511 030a B848     		ldr	r0, .L137+12
 512 030c FFF7FEFF 		bl	commands_printf
 513              	.LVL71:
ARM GAS  /tmp/ccH66ojY.s 			page 10


 514              		.loc 1 108 0 discriminator 3
 515 0310 A068     		ldr	r0, [r4, #8]	@ float
 516 0312 FFF7FEFF 		bl	__aeabi_f2d
 517              	.LVL72:
 518 0316 0246     		mov	r2, r0
 519 0318 0B46     		mov	r3, r1
 520 031a B548     		ldr	r0, .L137+16
 521 031c FFF7FEFF 		bl	commands_printf
 522              	.LVL73:
 523              		.loc 1 109 0 discriminator 3
 524 0320 E068     		ldr	r0, [r4, #12]	@ float
 525 0322 FFF7FEFF 		bl	__aeabi_f2d
 526              	.LVL74:
 527 0326 0246     		mov	r2, r0
 528 0328 0B46     		mov	r3, r1
 529 032a B248     		ldr	r0, .L137+20
 530 032c FFF7FEFF 		bl	commands_printf
 531              	.LVL75:
 532              		.loc 1 110 0 discriminator 3
 533 0330 2069     		ldr	r0, [r4, #16]	@ float
 534 0332 FFF7FEFF 		bl	__aeabi_f2d
 535              	.LVL76:
 536 0336 0246     		mov	r2, r0
 537 0338 0B46     		mov	r3, r1
 538 033a AF48     		ldr	r0, .L137+24
 539 033c FFF7FEFF 		bl	commands_printf
 540              	.LVL77:
 541              		.loc 1 111 0 discriminator 3
 542 0340 6069     		ldr	r0, [r4, #20]	@ float
 543 0342 FFF7FEFF 		bl	__aeabi_f2d
 544              	.LVL78:
 545 0346 0246     		mov	r2, r0
 546 0348 0B46     		mov	r3, r1
 547 034a AC48     		ldr	r0, .L137+28
 548 034c FFF7FEFF 		bl	commands_printf
 549              	.LVL79:
 550              		.loc 1 112 0 discriminator 3
 551 0350 A169     		ldr	r1, [r4, #24]
 552 0352 AB48     		ldr	r0, .L137+32
 553 0354 FFF7FEFF 		bl	commands_printf
 554              	.LVL80:
 555              		.loc 1 113 0 discriminator 3
 556 0358 E169     		ldr	r1, [r4, #28]
 557 035a AA48     		ldr	r0, .L137+36
 558 035c FFF7FEFF 		bl	commands_printf
 559              	.LVL81:
 560              		.loc 1 114 0 discriminator 3
 561 0360 D4ED0A7A 		flds	s15, [r4, #40]	@ int
 562 0364 94ED047A 		flds	s14, [r4, #16]
 563 0368 A748     		ldr	r0, .L137+40
 564 036a F8EEE77A 		fsitos	s15, s15
 565              		.loc 1 105 0 discriminator 3
 566 036e 0135     		adds	r5, r5, #1
 567              	.LVL82:
 568              		.loc 1 114 0 discriminator 3
 569 0370 67EE877A 		fmuls	s15, s15, s14
 570 0374 FDEEE77A 		ftosizs	s15, s15
ARM GAS  /tmp/ccH66ojY.s 			page 11


 571 0378 17EE901A 		fmrs	r1, s15	@ int
 572 037c FFF7FEFF 		bl	commands_printf
 573              	.LVL83:
 574              		.loc 1 115 0 discriminator 3
 575 0380 216A     		ldr	r1, [r4, #32]
 576 0382 A248     		ldr	r0, .L137+44
 577 0384 FFF7FEFF 		bl	commands_printf
 578              	.LVL84:
 579              		.loc 1 116 0 discriminator 3
 580 0388 616A     		ldr	r1, [r4, #36]
 581 038a A148     		ldr	r0, .L137+48
 582 038c FFF7FEFF 		bl	commands_printf
 583              	.LVL85:
 584              		.loc 1 117 0 discriminator 3
 585 0390 A16A     		ldr	r1, [r4, #40]
 586 0392 A048     		ldr	r0, .L137+52
 587 0394 FFF7FEFF 		bl	commands_printf
 588              	.LVL86:
 589              		.loc 1 118 0 discriminator 3
 590 0398 E16A     		ldr	r1, [r4, #44]
 591 039a 9F48     		ldr	r0, .L137+56
 592 039c FFF7FEFF 		bl	commands_printf
 593              	.LVL87:
 594              		.loc 1 119 0 discriminator 3
 595 03a0 206B     		ldr	r0, [r4, #48]	@ float
 596 03a2 FFF7FEFF 		bl	__aeabi_f2d
 597              	.LVL88:
 598 03a6 0246     		mov	r2, r0
 599 03a8 0B46     		mov	r3, r1
 600 03aa 9C48     		ldr	r0, .L137+60
 601 03ac FFF7FEFF 		bl	commands_printf
 602              	.LVL89:
 603              		.loc 1 105 0 discriminator 3
 604 03b0 3B68     		ldr	r3, [r7]
 605 03b2 AB42     		cmp	r3, r5
 606 03b4 99DC     		bgt	.L18
 607 03b6 ACE6     		b	.L1
 608              	.LVL90:
 609              	.L121:
 610              	.LBE55:
 611              		.loc 1 123 0
 612 03b8 FFF7FEFF 		bl	mc_interface_get_rpm
 613              	.LVL91:
 614 03bc 10EE100A 		fmrs	r0, s0
 615 03c0 FFF7FEFF 		bl	__aeabi_f2d
 616              	.LVL92:
 617 03c4 0246     		mov	r2, r0
 618 03c6 0B46     		mov	r3, r1
 619 03c8 9548     		ldr	r0, .L137+64
 620 03ca FFF7FEFF 		bl	commands_printf
 621              	.LVL93:
 622 03ce A0E6     		b	.L1
 623              	.L122:
 624              		.loc 1 125 0
 625 03d0 FFF7FEFF 		bl	mc_interface_get_tachometer_value
 626              	.LVL94:
 627 03d4 0146     		mov	r1, r0
ARM GAS  /tmp/ccH66ojY.s 			page 12


 628 03d6 9348     		ldr	r0, .L137+68
 629 03d8 FFF7FEFF 		bl	commands_printf
 630              	.LVL95:
 631 03dc 99E6     		b	.L1
 632              	.L24:
 633              		.loc 1 199 0
 634 03de 2846     		mov	r0, r5
 635 03e0 9149     		ldr	r1, .L137+72
 636 03e2 FFF7FEFF 		bl	strcmp
 637              	.LVL96:
 638 03e6 0028     		cmp	r0, #0
 639 03e8 00F05C81 		beq	.L126
 640              		.loc 1 204 0
 641 03ec 2846     		mov	r0, r5
 642 03ee 8F49     		ldr	r1, .L137+76
 643 03f0 FFF7FEFF 		bl	strcmp
 644              	.LVL97:
 645 03f4 0646     		mov	r6, r0
 646 03f6 0028     		cmp	r0, #0
 647 03f8 00F0D881 		beq	.L127
 648              		.loc 1 218 0
 649 03fc 2846     		mov	r0, r5
 650 03fe 8C49     		ldr	r1, .L137+80
 651 0400 FFF7FEFF 		bl	strcmp
 652              	.LVL98:
 653 0404 0028     		cmp	r0, #0
 654 0406 40F0B180 		bne	.L44
 655              		.loc 1 219 0
 656 040a 022C     		cmp	r4, #2
 657 040c 00F08C81 		beq	.L128
 658              	.L45:
 659              		.loc 1 247 0
 660 0410 8848     		ldr	r0, .L137+84
 661 0412 FFF7FEFF 		bl	commands_printf
 662              	.LVL99:
 663 0416 7CE6     		b	.L1
 664              	.L124:
 665              		.loc 1 152 0
 666 0418 874B     		ldr	r3, .L137+88
 667 041a DFED886A 		flds	s13, .L137+92
 668 041e 1B8A     		ldrh	r3, [r3, #16]
 669 0420 9FED877A 		flds	s14, .L137+96
 670 0424 9BB2     		uxth	r3, r3
 671 0426 07EE903A 		fmsr	s15, r3	@ int
 672 042a F8EE677A 		fuitos	s15, s15
 673 042e 67EEA67A 		fmuls	s15, s15, s13
 674 0432 67EE877A 		fmuls	s15, s15, s14
 675 0436 17EE900A 		fmrs	r0, s15
 676 043a FFF7FEFF 		bl	__aeabi_f2d
 677              	.LVL100:
 678 043e 0246     		mov	r2, r0
 679 0440 0B46     		mov	r3, r1
 680 0442 8048     		ldr	r0, .L137+100
 681 0444 FFF7FEFF 		bl	commands_printf
 682              	.LVL101:
 683 0448 63E6     		b	.L1
 684              	.L123:
ARM GAS  /tmp/ccH66ojY.s 			page 13


 685              	.LVL102:
 686              	.LBB56:
 687              	.LBB57:
 688              	.LBB58:
 689              	.LBB59:
 690              	.LBB60:
 691              		.file 2 "ChibiOS_3.0.2/os/ext/CMSIS/include/core_cmFunc.h"
 692              		.loc 2 546 0
 693 044a 2023     		movs	r3, #32
 694              	@ 546 "ChibiOS_3.0.2/os/ext/CMSIS/include/core_cmFunc.h" 1
 695 044c 83F31188 		MSR basepri, r3
 696              	@ 0 "" 2
 697              		.thumb
 698              	.LBE60:
 699              	.LBE59:
 700              	.LBE58:
 701              	.LBE57:
 702              		.loc 1 128 0
 703 0450 7D4B     		ldr	r3, .L137+104
 704              		.loc 1 129 0
 705 0452 7E49     		ldr	r1, .L137+108
 706              		.loc 1 128 0
 707 0454 5A6A     		ldr	r2, [r3, #36]
 708 0456 0A92     		str	r2, [sp, #40]
 709              		.loc 1 129 0
 710 0458 4A6A     		ldr	r2, [r1, #36]
 711 045a 0B92     		str	r2, [sp, #44]
 712              		.loc 1 130 0
 713 045c 1A68     		ldr	r2, [r3]
 714 045e C2F30012 		ubfx	r2, r2, #4, #1
 715 0462 0C92     		str	r2, [sp, #48]
 716              		.loc 1 131 0
 717 0464 0A68     		ldr	r2, [r1]
 718 0466 C2F30012 		ubfx	r2, r2, #4, #1
 719 046a 0D92     		str	r2, [sp, #52]
 720              	.LVL103:
 721              	.LBB61:
 722              	.LBB62:
 723              	.LBB63:
 724              	.LBB64:
 725              	.LBB65:
 726              		.loc 2 546 0
 727              	@ 546 "ChibiOS_3.0.2/os/ext/CMSIS/include/core_cmFunc.h" 1
 728 046c 80F31188 		MSR basepri, r0
 729              	@ 0 "" 2
 730              		.thumb
 731              	.LBE65:
 732              	.LBE64:
 733              	.LBE63:
 734              	.LBE62:
 735              	.LBE61:
 736              		.loc 1 140 0
 737 0470 7748     		ldr	r0, .L137+112
 738              		.loc 1 133 0
 739 0472 D3F834A0 		ldr	r10, [r3, #52]
 740              	.LVL104:
 741              		.loc 1 134 0
ARM GAS  /tmp/ccH66ojY.s 			page 14


 742 0476 D3F83890 		ldr	r9, [r3, #56]
 743              	.LVL105:
 744              		.loc 1 135 0
 745 047a D3F83C80 		ldr	r8, [r3, #60]
 746              	.LVL106:
 747              		.loc 1 136 0
 748 047e DF6A     		ldr	r7, [r3, #44]
 749              	.LVL107:
 750              		.loc 1 137 0
 751 0480 4E6B     		ldr	r6, [r1, #52]
 752              	.LVL108:
 753              		.loc 1 138 0
 754 0482 1D6C     		ldr	r5, [r3, #64]
 755              	.LVL109:
 756              		.loc 1 139 0
 757 0484 8C6B     		ldr	r4, [r1, #56]
 758              	.LVL110:
 759              		.loc 1 140 0
 760 0486 0A99     		ldr	r1, [sp, #40]
 761 0488 FFF7FEFF 		bl	commands_printf
 762              	.LVL111:
 763              		.loc 1 141 0
 764 048c 0B99     		ldr	r1, [sp, #44]
 765 048e 7148     		ldr	r0, .L137+116
 766 0490 FFF7FEFF 		bl	commands_printf
 767              	.LVL112:
 768              		.loc 1 142 0
 769 0494 5146     		mov	r1, r10
 770 0496 7048     		ldr	r0, .L137+120
 771 0498 FFF7FEFF 		bl	commands_printf
 772              	.LVL113:
 773              		.loc 1 143 0
 774 049c 4946     		mov	r1, r9
 775 049e 6F48     		ldr	r0, .L137+124
 776 04a0 FFF7FEFF 		bl	commands_printf
 777              	.LVL114:
 778              		.loc 1 144 0
 779 04a4 4146     		mov	r1, r8
 780 04a6 6E48     		ldr	r0, .L137+128
 781 04a8 FFF7FEFF 		bl	commands_printf
 782              	.LVL115:
 783              		.loc 1 145 0
 784 04ac 3946     		mov	r1, r7
 785 04ae 6D48     		ldr	r0, .L137+132
 786 04b0 FFF7FEFF 		bl	commands_printf
 787              	.LVL116:
 788              		.loc 1 146 0
 789 04b4 0C99     		ldr	r1, [sp, #48]
 790 04b6 6C48     		ldr	r0, .L137+136
 791 04b8 FFF7FEFF 		bl	commands_printf
 792              	.LVL117:
 793              		.loc 1 147 0
 794 04bc 0D99     		ldr	r1, [sp, #52]
 795 04be 6B48     		ldr	r0, .L137+140
 796 04c0 FFF7FEFF 		bl	commands_printf
 797              	.LVL118:
 798              		.loc 1 148 0
ARM GAS  /tmp/ccH66ojY.s 			page 15


 799 04c4 3146     		mov	r1, r6
 800 04c6 6A48     		ldr	r0, .L137+144
 801 04c8 FFF7FEFF 		bl	commands_printf
 802              	.LVL119:
 803              		.loc 1 149 0
 804 04cc 2946     		mov	r1, r5
 805 04ce 6948     		ldr	r0, .L137+148
 806 04d0 FFF7FEFF 		bl	commands_printf
 807              	.LVL120:
 808              		.loc 1 150 0
 809 04d4 2146     		mov	r1, r4
 810 04d6 6848     		ldr	r0, .L137+152
 811 04d8 FFF7FEFF 		bl	commands_printf
 812              	.LVL121:
 813              	.LBE56:
 814 04dc 19E6     		b	.L1
 815              	.LVL122:
 816              	.L125:
 817              	.LBB66:
 818              		.loc 1 156 0
 819 04de 674B     		ldr	r3, .L137+156
 820              		.loc 1 159 0
 821 04e0 6749     		ldr	r1, .L137+160
 822 04e2 1598     		ldr	r0, [sp, #84]
 823              		.loc 1 156 0
 824 04e4 0793     		str	r3, [sp, #28]	@ float
 825              		.loc 1 159 0
 826 04e6 07AA     		add	r2, sp, #28
 827              		.loc 1 157 0
 828 04e8 0893     		str	r3, [sp, #32]	@ float
 829              		.loc 1 158 0
 830 04ea 0993     		str	r3, [sp, #36]	@ float
 831              		.loc 1 159 0
 832 04ec FFF7FEFF 		bl	sscanf
 833              	.LVL123:
 834              		.loc 1 160 0
 835 04f0 08AA     		add	r2, sp, #32
 836 04f2 6349     		ldr	r1, .L137+160
 837 04f4 1698     		ldr	r0, [sp, #88]
 838 04f6 FFF7FEFF 		bl	sscanf
 839              	.LVL124:
 840              		.loc 1 161 0
 841 04fa 1798     		ldr	r0, [sp, #92]
 842 04fc 6049     		ldr	r1, .L137+160
 843 04fe 09AA     		add	r2, sp, #36
 844 0500 FFF7FEFF 		bl	sscanf
 845              	.LVL125:
 846              		.loc 1 163 0
 847 0504 9DED070A 		flds	s0, [sp, #28]
 848 0508 B5EEC00A 		fcmpezs	s0
 849 050c F1EE10FA 		fmstat
 850 0510 28DD     		ble	.L105
 851              		.loc 1 163 0 is_stmt 0 discriminator 1
 852 0512 5C4B     		ldr	r3, .L137+164
 853 0514 D3ED017A 		flds	s15, [r3, #4]
 854 0518 B4EEE70A 		fcmpes	s0, s15
 855 051c F1EE10FA 		fmstat
ARM GAS  /tmp/ccH66ojY.s 			page 16


 856 0520 20D5     		bpl	.L105
 857              		.loc 1 164 0 is_stmt 1 discriminator 2
 858 0522 DDED080A 		flds	s1, [sp, #32]
 859              		.loc 1 163 0 discriminator 2
 860 0526 F2EE047A 		fconsts	s15, #36
 861 052a F4EEE70A 		fcmpes	s1, s15
 862 052e F1EE10FA 		fmstat
 863 0532 17DD     		ble	.L105
 864              		.loc 1 164 0
 865 0534 DFED547A 		flds	s15, .L137+168
 866 0538 F4EEE70A 		fcmpes	s1, s15
 867 053c F1EE10FA 		fmstat
 868 0540 10D5     		bpl	.L105
 869              		.loc 1 165 0 discriminator 1
 870 0542 9DED091A 		flds	s2, [sp, #36]
 871              		.loc 1 164 0 discriminator 1
 872 0546 DFED517A 		flds	s15, .L137+172
 873 054a B4EEE71A 		fcmpes	s2, s15
 874 054e F1EE10FA 		fmstat
 875 0552 07DD     		ble	.L105
 876              		.loc 1 165 0
 877 0554 DFED4E7A 		flds	s15, .L137+176
 878 0558 B4EEE71A 		fcmpes	s2, s15
 879 055c F1EE10FA 		fmstat
 880 0560 00F1BC80 		bmi	.L129
 881              	.L105:
 882              	.LBE66:
 883              	.LBB69:
 884              		.loc 1 364 0
 885 0564 4B48     		ldr	r0, .L137+180
 886 0566 FFF7FEFF 		bl	commands_printf
 887              	.LVL126:
 888 056a D2E5     		b	.L1
 889              	.L44:
 890              	.LBE69:
 891              		.loc 1 249 0
 892 056c 2846     		mov	r0, r5
 893 056e 4A49     		ldr	r1, .L137+184
 894 0570 FFF7FEFF 		bl	strcmp
 895              	.LVL127:
 896 0574 0028     		cmp	r0, #0
 897 0576 40F07381 		bne	.L50
 898              		.loc 1 250 0
 899 057a 022C     		cmp	r4, #2
 900 057c 7FF448AF 		bne	.L45
 901              	.LBB75:
 902              		.loc 1 251 0
 903 0580 0DAD     		add	r5, sp, #52
 904 0582 3E4B     		ldr	r3, .L137+156
 905              		.loc 1 252 0
 906 0584 1598     		ldr	r0, [sp, #84]
 907 0586 3E49     		ldr	r1, .L137+160
 908              		.loc 1 251 0
 909 0588 0D93     		str	r3, [sp, #52]	@ float
 910              		.loc 1 252 0
 911 058a 2A46     		mov	r2, r5
 912 058c FFF7FEFF 		bl	sscanf
ARM GAS  /tmp/ccH66ojY.s 			page 17


 913              	.LVL128:
 914              		.loc 1 254 0
 915 0590 D5ED007A 		flds	s15, [r5]
 916 0594 F5EEC07A 		fcmpezs	s15
 917 0598 F1EE10FA 		fmstat
 918 059c E2DD     		ble	.L105
 919              		.loc 1 254 0 is_stmt 0 discriminator 1
 920 059e 394B     		ldr	r3, .L137+164
 921 05a0 93ED017A 		flds	s14, [r3, #4]
 922 05a4 F4EEC77A 		fcmpes	s15, s14
 923 05a8 F1EE10FA 		fmstat
 924 05ac DAD8     		bhi	.L105
 925              		.loc 1 255 0 is_stmt 1
 926 05ae 0222     		movs	r2, #2
 927              		.loc 1 256 0
 928 05b0 1846     		mov	r0, r3
 929              		.loc 1 255 0
 930 05b2 9A70     		strb	r2, [r3, #2]
 931              		.loc 1 256 0
 932 05b4 FFF7FEFF 		bl	mc_interface_set_configuration
 933              	.LVL129:
 934              		.loc 1 258 0
 935 05b8 95ED000A 		flds	s0, [r5]
 936 05bc 4FF4FA60 		mov	r0, #2000
 937 05c0 FFF7FEFF 		bl	mcpwm_foc_measure_resistance
 938              	.LVL130:
 939 05c4 10EE100A 		fmrs	r0, s0
 940 05c8 FFF7FEFF 		bl	__aeabi_f2d
 941              	.LVL131:
 942 05cc 0246     		mov	r2, r0
 943 05ce 0B46     		mov	r3, r1
 944 05d0 3248     		ldr	r0, .L137+188
 945 05d2 FFF7FEFF 		bl	commands_printf
 946              	.LVL132:
 947              		.loc 1 260 0
 948 05d6 3248     		ldr	r0, .L137+192
 949 05d8 FFF7FEFF 		bl	mc_interface_set_configuration
 950              	.LVL133:
 951 05dc 99E5     		b	.L1
 952              	.L138:
 953 05de 00BF     		.align	2
 954              	.L137:
 955 05e0 2C020000 		.word	.LC25
 956 05e4 00000000 		.word	.LANCHOR4
 957 05e8 60020000 		.word	.LC26
 958 05ec 78020000 		.word	.LC27
 959 05f0 90020000 		.word	.LC28
 960 05f4 A8020000 		.word	.LC29
 961 05f8 C0020000 		.word	.LC30
 962 05fc D8020000 		.word	.LC31
 963 0600 F0020000 		.word	.LC32
 964 0604 08030000 		.word	.LC33
 965 0608 20030000 		.word	.LC34
 966 060c 38030000 		.word	.LC35
 967 0610 50030000 		.word	.LC36
 968 0614 68030000 		.word	.LC37
 969 0618 80030000 		.word	.LC38
ARM GAS  /tmp/ccH66ojY.s 			page 18


 970 061c 98030000 		.word	.LC39
 971 0620 B8030000 		.word	.LC41
 972 0624 DC030000 		.word	.LC43
 973 0628 4C060000 		.word	.LC70
 974 062c A8060000 		.word	.LC74
 975 0630 84070000 		.word	.LC82
 976 0634 B0070000 		.word	.LC84
 977 0638 00000000 		.word	ADC_Value
 978 063c 6740533A 		.word	978534503
 979 0640 74D19541 		.word	1100337524
 980 0644 B4040000 		.word	.LC57
 981 0648 00000140 		.word	1073807360
 982 064c 00040140 		.word	1073808384
 983 0650 F8030000 		.word	.LC45
 984 0654 08040000 		.word	.LC46
 985 0658 18040000 		.word	.LC47
 986 065c 28040000 		.word	.LC48
 987 0660 38040000 		.word	.LC49
 988 0664 48040000 		.word	.LC50
 989 0668 50040000 		.word	.LC51
 990 066c 5C040000 		.word	.LC52
 991 0670 68040000 		.word	.LC53
 992 0674 7C040000 		.word	.LC54
 993 0678 94040000 		.word	.LC55
 994 067c 000080BF 		.word	-1082130432
 995 0680 DC040000 		.word	.LC59
 996 0684 00000000 		.word	.LANCHOR0
 997 0688 00803B45 		.word	1161527296
 998 068c 0AD7A33C 		.word	1017370378
 999 0690 CDCC4C3F 		.word	1061997773
 1000 0694 0C060000 		.word	.LC68
 1001 0698 D8070000 		.word	.LC85
 1002 069c E4070000 		.word	.LC86
 1003 06a0 00000000 		.word	.LANCHOR1
 1004              	.L126:
 1005              	.LBE75:
 1006              	.LBB76:
 1007              		.loc 1 200 0 discriminator 7
 1008 06a4 0DA8     		add	r0, sp, #52
 1009 06a6 FFF7FEFF 		bl	mcpwm_get_rpm_dep
 1010              	.LVL134:
 1011              		.loc 1 201 0 discriminator 7
 1012 06aa 0D98     		ldr	r0, [sp, #52]	@ float
 1013 06ac FFF7FEFF 		bl	__aeabi_f2d
 1014              	.LVL135:
 1015 06b0 0246     		mov	r2, r0
 1016 06b2 0B46     		mov	r3, r1
 1017 06b4 B248     		ldr	r0, .L139
 1018 06b6 FFF7FEFF 		bl	commands_printf
 1019              	.LVL136:
 1020              		.loc 1 202 0 discriminator 7
 1021 06ba 0E98     		ldr	r0, [sp, #56]	@ float
 1022 06bc FFF7FEFF 		bl	__aeabi_f2d
 1023              	.LVL137:
 1024 06c0 0246     		mov	r2, r0
 1025 06c2 0B46     		mov	r3, r1
 1026 06c4 AF48     		ldr	r0, .L139+4
ARM GAS  /tmp/ccH66ojY.s 			page 19


 1027 06c6 FFF7FEFF 		bl	commands_printf
 1028              	.LVL138:
 1029              		.loc 1 203 0 discriminator 7
 1030 06ca 0F98     		ldr	r0, [sp, #60]	@ float
 1031 06cc FFF7FEFF 		bl	__aeabi_f2d
 1032              	.LVL139:
 1033 06d0 0246     		mov	r2, r0
 1034 06d2 0B46     		mov	r3, r1
 1035 06d4 AC48     		ldr	r0, .L139+8
 1036 06d6 FFF7FEFF 		bl	commands_printf
 1037              	.LVL140:
 1038              	.LBE76:
 1039 06da 1AE5     		b	.L1
 1040              	.L129:
 1041              	.LBB77:
 1042              	.LBB67:
 1043              		.loc 1 171 0
 1044 06dc 0AA8     		add	r0, sp, #40
 1045 06de 0BA9     		add	r1, sp, #44
 1046 06e0 0DAA     		add	r2, sp, #52
 1047 06e2 0CAB     		add	r3, sp, #48
 1048 06e4 FFF7FEFF 		bl	conf_general_detect_motor_param
 1049              	.LVL141:
 1050 06e8 0028     		cmp	r0, #0
 1051 06ea 5BD0     		beq	.L33
 1052              		.loc 1 172 0
 1053 06ec 0A98     		ldr	r0, [sp, #40]	@ float
 1054 06ee FFF7FEFF 		bl	__aeabi_f2d
 1055              	.LVL142:
 1056 06f2 0246     		mov	r2, r0
 1057 06f4 0B46     		mov	r3, r1
 1058 06f6 A548     		ldr	r0, .L139+12
 1059 06f8 FFF7FEFF 		bl	commands_printf
 1060              	.LVL143:
 1061              		.loc 1 173 0
 1062 06fc 0B98     		ldr	r0, [sp, #44]	@ float
 1063 06fe FFF7FEFF 		bl	__aeabi_f2d
 1064              	.LVL144:
 1065 0702 0246     		mov	r2, r0
 1066 0704 0B46     		mov	r3, r1
 1067 0706 A248     		ldr	r0, .L139+16
 1068 0708 FFF7FEFF 		bl	commands_printf
 1069              	.LVL145:
 1070              		.loc 1 175 0
 1071 070c 0C9B     		ldr	r3, [sp, #48]
 1072 070e 002B     		cmp	r3, #0
 1073 0710 46D0     		beq	.L130
 1074              		.loc 1 180 0
 1075 0712 591C     		adds	r1, r3, #1
 1076 0714 28D0     		beq	.L131
 1077              		.loc 1 185 0
 1078 0716 9A1C     		adds	r2, r3, #2
 1079 0718 22D0     		beq	.L132
 1080              		.loc 1 187 0
 1081 071a 0333     		adds	r3, r3, #3
 1082 071c 7FF4F9AC 		bne	.L1
 1083              		.loc 1 188 0
ARM GAS  /tmp/ccH66ojY.s 			page 20


 1084 0720 9C48     		ldr	r0, .L139+20
 1085 0722 FFF7FEFF 		bl	commands_printf
 1086              	.LVL146:
 1087 0726 F4E4     		b	.L1
 1088              	.L128:
 1089              	.LBE67:
 1090              	.LBE77:
 1091              	.LBB78:
 1092              		.loc 1 220 0
 1093 0728 9B4B     		ldr	r3, .L139+24
 1094              		.loc 1 221 0
 1095 072a 1598     		ldr	r0, [sp, #84]
 1096 072c 9B49     		ldr	r1, .L139+28
 1097              		.loc 1 220 0
 1098 072e 0D93     		str	r3, [sp, #52]	@ float
 1099              		.loc 1 221 0
 1100 0730 0DAA     		add	r2, sp, #52
 1101 0732 FFF7FEFF 		bl	sscanf
 1102              	.LVL147:
 1103              		.loc 1 223 0
 1104 0736 DDED0D7A 		flds	s15, [sp, #52]
 1105 073a F5EEC07A 		fcmpezs	s15
 1106 073e F1EE10FA 		fmstat
 1107 0742 7FF70FAF 		ble	.L105
 1108              		.loc 1 223 0 is_stmt 0 discriminator 1
 1109 0746 964B     		ldr	r3, .L139+32
 1110 0748 93ED017A 		flds	s14, [r3, #4]
 1111 074c F4EEC77A 		fcmpes	s15, s14
 1112 0750 F1EE10FA 		fmstat
 1113 0754 3FF606AF 		bhi	.L105
 1114              		.loc 1 241 0 is_stmt 1
 1115 0758 9248     		ldr	r0, .L139+36
 1116 075a FFF7FEFF 		bl	commands_printf
 1117              	.LVL148:
 1118 075e D8E4     		b	.L1
 1119              	.L132:
 1120              	.LBE78:
 1121              	.LBB79:
 1122              	.LBB68:
 1123              		.loc 1 186 0
 1124 0760 9148     		ldr	r0, .L139+40
 1125 0762 FFF7FEFF 		bl	commands_printf
 1126              	.LVL149:
 1127 0766 D4E4     		b	.L1
 1128              	.L131:
 1129              		.loc 1 181 0
 1130 0768 9048     		ldr	r0, .L139+44
 1131              	.L107:
 1132 076a FFF7FEFF 		bl	commands_printf
 1133              	.LVL150:
 1134              		.loc 1 182 0
 1135 076e 9DF93B00 		ldrsb	r0, [sp, #59]
 1136 0772 9DF93770 		ldrsb	r7, [sp, #55]
 1137 0776 9DF93860 		ldrsb	r6, [sp, #56]
 1138 077a 9DF93950 		ldrsb	r5, [sp, #57]
 1139 077e 9DF93A40 		ldrsb	r4, [sp, #58]
 1140              	.LVL151:
ARM GAS  /tmp/ccH66ojY.s 			page 21


 1141 0782 0490     		str	r0, [sp, #16]
 1142 0784 9DF93410 		ldrsb	r1, [sp, #52]
 1143 0788 9DF93520 		ldrsb	r2, [sp, #53]
 1144 078c 9DF93630 		ldrsb	r3, [sp, #54]
 1145 0790 0097     		str	r7, [sp]
 1146 0792 0196     		str	r6, [sp, #4]
 1147 0794 0295     		str	r5, [sp, #8]
 1148 0796 0394     		str	r4, [sp, #12]
 1149 0798 8548     		ldr	r0, .L139+48
 1150 079a FFF7FEFF 		bl	commands_printf
 1151              	.LVL152:
 1152 079e B8E4     		b	.L1
 1153              	.LVL153:
 1154              	.L130:
 1155              		.loc 1 176 0
 1156 07a0 8448     		ldr	r0, .L139+52
 1157 07a2 E2E7     		b	.L107
 1158              	.L33:
 1159              		.loc 1 191 0
 1160 07a4 8448     		ldr	r0, .L139+56
 1161 07a6 FFF7FEFF 		bl	commands_printf
 1162              	.LVL154:
 1163              	.LBE68:
 1164              		.loc 1 165 0
 1165 07aa B2E4     		b	.L1
 1166              	.L127:
 1167              	.LBE79:
 1168              		.loc 1 205 0
 1169 07ac 8348     		ldr	r0, .L139+60
 1170              	.LBB80:
 1171              	.LBB81:
 1172              	.LBB82:
 1173              	.LBB83:
 1174              	.LBB84:
 1175              	.LBB85:
 1176              		.file 3 "ChibiOS_3.0.2/os/rt/include/chvt.h"
 1177              		.loc 3 231 0
 1178 07ae 844F     		ldr	r7, .L139+64
 1179              	.LBE85:
 1180              	.LBE84:
 1181              	.LBE83:
 1182              	.LBE82:
 1183              		.loc 1 209 0
 1184 07b0 9FED848A 		flds	s16, .L139+68
 1185              		.loc 1 212 0
 1186 07b4 DFED848A 		flds	s17, .L139+72
 1187              	.LBE81:
 1188              	.LBE80:
 1189              		.loc 1 205 0
 1190 07b8 FFF7FEFF 		bl	commands_printf
 1191              	.LVL155:
 1192              	.LBB96:
 1193              		.loc 1 206 0
 1194 07bc 3446     		mov	r4, r6
 1195              	.LVL156:
 1196 07be 02E0     		b	.L43
 1197              	.LVL157:
ARM GAS  /tmp/ccH66ojY.s 			page 22


 1198              	.L41:
 1199              		.loc 1 206 0 is_stmt 0 discriminator 2
 1200 07c0 0A2C     		cmp	r4, #10
 1201 07c2 3FF4A6AC 		beq	.L1
 1202              	.LVL158:
 1203              	.L43:
 1204              	.LBB94:
 1205              		.loc 1 207 0 is_stmt 1
 1206 07c6 2046     		mov	r0, r4
 1207 07c8 FFF7FEFF 		bl	comm_can_get_status_msg_index
 1208              	.LVL159:
 1209              		.loc 1 209 0
 1210 07cc 0168     		ldr	r1, [r0]
 1211 07ce 0029     		cmp	r1, #0
 1212              		.loc 1 207 0
 1213 07d0 0546     		mov	r5, r0
 1214              	.LVL160:
 1215              		.loc 1 209 0
 1216 07d2 B7EE007A 		fconsts	s14, #112
 1217              	.LBE94:
 1218              		.loc 1 206 0
 1219 07d6 04F10104 		add	r4, r4, #1
 1220              	.LVL161:
 1221              	.LBB95:
 1222              		.loc 1 209 0
 1223 07da F1DB     		blt	.L41
 1224              	.LBB89:
 1225              	.LBB88:
 1226              	.LBB87:
 1227              	.LBB86:
 1228              		.loc 3 231 0 discriminator 1
 1229 07dc BB6A     		ldr	r3, [r7, #40]
 1230              	.LBE86:
 1231              	.LBE87:
 1232              		.loc 3 267 0 discriminator 1
 1233 07de 4268     		ldr	r2, [r0, #4]
 1234 07e0 9B1A     		subs	r3, r3, r2
 1235 07e2 07EE903A 		fmsr	s15, r3	@ int
 1236              	.LBE88:
 1237              	.LBE89:
 1238              		.loc 1 209 0 discriminator 1
 1239 07e6 F8EE677A 		fuitos	s15, s15
 1240 07ea C7EE887A 		fdivs	s15, s15, s16
 1241 07ee F4EEC77A 		fcmpes	s15, s14
 1242 07f2 F1EE10FA 		fmstat
 1243 07f6 E3D5     		bpl	.L41
 1244              		.loc 1 210 0
 1245 07f8 7448     		ldr	r0, .L139+76
 1246              	.LVL162:
 1247 07fa FFF7FEFF 		bl	commands_printf
 1248              	.LVL163:
 1249              		.loc 1 211 0
 1250 07fe 6968     		ldr	r1, [r5, #4]
 1251 0800 7348     		ldr	r0, .L139+80
 1252 0802 FFF7FEFF 		bl	commands_printf
 1253              	.LVL164:
 1254              	.LBB90:
ARM GAS  /tmp/ccH66ojY.s 			page 23


 1255              	.LBB91:
 1256              		.loc 3 267 0
 1257 0806 6A68     		ldr	r2, [r5, #4]
 1258              	.LBB92:
 1259              	.LBB93:
 1260              		.loc 3 231 0
 1261 0808 BB6A     		ldr	r3, [r7, #40]
 1262              	.LBE93:
 1263              	.LBE92:
 1264              		.loc 3 267 0
 1265 080a 9B1A     		subs	r3, r3, r2
 1266 080c 07EE903A 		fmsr	s15, r3	@ int
 1267              	.LBE91:
 1268              	.LBE90:
 1269              		.loc 1 212 0
 1270 0810 F8EE677A 		fuitos	s15, s15
 1271 0814 C7EE887A 		fdivs	s15, s15, s16
 1272 0818 67EEA87A 		fmuls	s15, s15, s17
 1273 081c 17EE900A 		fmrs	r0, s15
 1274 0820 FFF7FEFF 		bl	__aeabi_f2d
 1275              	.LVL165:
 1276 0824 0246     		mov	r2, r0
 1277 0826 0B46     		mov	r3, r1
 1278 0828 6A48     		ldr	r0, .L139+84
 1279 082a FFF7FEFF 		bl	commands_printf
 1280              	.LVL166:
 1281              		.loc 1 213 0
 1282 082e A868     		ldr	r0, [r5, #8]	@ float
 1283 0830 FFF7FEFF 		bl	__aeabi_f2d
 1284              	.LVL167:
 1285 0834 0246     		mov	r2, r0
 1286 0836 0B46     		mov	r3, r1
 1287 0838 6748     		ldr	r0, .L139+88
 1288 083a FFF7FEFF 		bl	commands_printf
 1289              	.LVL168:
 1290              		.loc 1 214 0
 1291 083e E868     		ldr	r0, [r5, #12]	@ float
 1292 0840 FFF7FEFF 		bl	__aeabi_f2d
 1293              	.LVL169:
 1294 0844 0246     		mov	r2, r0
 1295 0846 0B46     		mov	r3, r1
 1296 0848 6448     		ldr	r0, .L139+92
 1297 084a FFF7FEFF 		bl	commands_printf
 1298              	.LVL170:
 1299              		.loc 1 215 0
 1300 084e 2869     		ldr	r0, [r5, #16]	@ float
 1301 0850 FFF7FEFF 		bl	__aeabi_f2d
 1302              	.LVL171:
 1303 0854 0246     		mov	r2, r0
 1304 0856 0B46     		mov	r3, r1
 1305 0858 6148     		ldr	r0, .L139+96
 1306 085a FFF7FEFF 		bl	commands_printf
 1307              	.LVL172:
 1308 085e AFE7     		b	.L41
 1309              	.LVL173:
 1310              	.L50:
 1311              	.LBE95:
ARM GAS  /tmp/ccH66ojY.s 			page 24


 1312              	.LBE96:
 1313              		.loc 1 267 0
 1314 0860 2846     		mov	r0, r5
 1315 0862 6049     		ldr	r1, .L139+100
 1316 0864 FFF7FEFF 		bl	strcmp
 1317              	.LVL174:
 1318 0868 70BB     		cbnz	r0, .L55
 1319              		.loc 1 268 0
 1320 086a 022C     		cmp	r4, #2
 1321 086c 7FF4D0AD 		bne	.L45
 1322              	.LBB97:
 1323              		.loc 1 269 0
 1324 0870 0DAD     		add	r5, sp, #52
 1325 0872 494B     		ldr	r3, .L139+24
 1326              		.loc 1 270 0
 1327 0874 1598     		ldr	r0, [sp, #84]
 1328 0876 4949     		ldr	r1, .L139+28
 1329              		.loc 1 269 0
 1330 0878 0D93     		str	r3, [sp, #52]	@ float
 1331              		.loc 1 270 0
 1332 087a 2A46     		mov	r2, r5
 1333 087c FFF7FEFF 		bl	sscanf
 1334              	.LVL175:
 1335              		.loc 1 272 0
 1336 0880 D5ED007A 		flds	s15, [r5]
 1337 0884 F5EEC07A 		fcmpezs	s15
 1338 0888 F1EE10FA 		fmstat
 1339 088c 7FF76AAE 		ble	.L105
 1340              		.loc 1 273 0
 1341 0890 434B     		ldr	r3, .L139+32
 1342              		.loc 1 274 0
 1343 0892 554A     		ldr	r2, .L139+104
 1344 0894 C3F89420 		str	r2, [r3, #148]	@ float
 1345              		.loc 1 273 0
 1346 0898 0221     		movs	r1, #2
 1347              		.loc 1 275 0
 1348 089a 1846     		mov	r0, r3
 1349              		.loc 1 273 0
 1350 089c 9970     		strb	r1, [r3, #2]
 1351              		.loc 1 275 0
 1352 089e FFF7FEFF 		bl	mc_interface_set_configuration
 1353              	.LVL176:
 1354              		.loc 1 277 0
 1355 08a2 C820     		movs	r0, #200
 1356 08a4 95ED000A 		flds	s0, [r5]
 1357 08a8 0021     		movs	r1, #0
 1358 08aa FFF7FEFF 		bl	mcpwm_foc_measure_inductance
 1359              	.LVL177:
 1360 08ae 10EE100A 		fmrs	r0, s0
 1361              	.L108:
 1362              	.LBE97:
 1363              	.LBB98:
 1364              		.loc 1 315 0 discriminator 18
 1365 08b2 FFF7FEFF 		bl	__aeabi_f2d
 1366              	.LVL178:
 1367 08b6 0246     		mov	r2, r0
 1368 08b8 0B46     		mov	r3, r1
ARM GAS  /tmp/ccH66ojY.s 			page 25


 1369 08ba 4C48     		ldr	r0, .L139+108
 1370 08bc FFF7FEFF 		bl	commands_printf
 1371              	.LVL179:
 1372              		.loc 1 317 0 discriminator 18
 1373 08c0 4B48     		ldr	r0, .L139+112
 1374 08c2 FFF7FEFF 		bl	mc_interface_set_configuration
 1375              	.LVL180:
 1376              	.LBE98:
 1377 08c6 24E4     		b	.L1
 1378              	.L55:
 1379              		.loc 1 286 0
 1380 08c8 2846     		mov	r0, r5
 1381 08ca 4A49     		ldr	r1, .L139+116
 1382 08cc FFF7FEFF 		bl	strcmp
 1383              	.LVL181:
 1384 08d0 0028     		cmp	r0, #0
 1385 08d2 40F09580 		bne	.L59
 1386              		.loc 1 287 0
 1387 08d6 052C     		cmp	r4, #5
 1388 08d8 7FF49AAD 		bne	.L45
 1389              	.LBB99:
 1390              		.loc 1 288 0
 1391 08dc 2E4B     		ldr	r3, .L139+24
 1392              		.loc 1 292 0
 1393 08de 2F49     		ldr	r1, .L139+28
 1394 08e0 1598     		ldr	r0, [sp, #84]
 1395              		.loc 1 288 0
 1396 08e2 0993     		str	r3, [sp, #36]	@ float
 1397              		.loc 1 292 0
 1398 08e4 09AA     		add	r2, sp, #36
 1399              		.loc 1 289 0
 1400 08e6 0A93     		str	r3, [sp, #40]	@ float
 1401              		.loc 1 290 0
 1402 08e8 0B93     		str	r3, [sp, #44]	@ float
 1403              		.loc 1 291 0
 1404 08ea 0C93     		str	r3, [sp, #48]	@ float
 1405              		.loc 1 292 0
 1406 08ec FFF7FEFF 		bl	sscanf
 1407              	.LVL182:
 1408              		.loc 1 293 0
 1409 08f0 0AAA     		add	r2, sp, #40
 1410 08f2 2A49     		ldr	r1, .L139+28
 1411 08f4 1698     		ldr	r0, [sp, #88]
 1412 08f6 FFF7FEFF 		bl	sscanf
 1413              	.LVL183:
 1414              		.loc 1 294 0
 1415 08fa 0BAA     		add	r2, sp, #44
 1416 08fc 2749     		ldr	r1, .L139+28
 1417 08fe 1798     		ldr	r0, [sp, #92]
 1418 0900 FFF7FEFF 		bl	sscanf
 1419              	.LVL184:
 1420              		.loc 1 295 0
 1421 0904 1898     		ldr	r0, [sp, #96]
 1422 0906 2549     		ldr	r1, .L139+28
 1423 0908 0CAA     		add	r2, sp, #48
 1424 090a FFF7FEFF 		bl	sscanf
 1425              	.LVL185:
ARM GAS  /tmp/ccH66ojY.s 			page 26


 1426              		.loc 1 297 0
 1427 090e 9DED090A 		flds	s0, [sp, #36]
 1428 0912 B5EEC00A 		fcmpezs	s0
 1429 0916 F1EE10FA 		fmstat
 1430 091a 7FF723AE 		ble	.L105
 1431              		.loc 1 297 0 is_stmt 0 discriminator 1
 1432 091e 204B     		ldr	r3, .L139+32
 1433 0920 D3ED017A 		flds	s15, [r3, #4]
 1434 0924 B4EEE70A 		fcmpes	s0, s15
 1435 0928 F1EE10FA 		fmstat
 1436 092c 3FF61AAE 		bhi	.L105
 1437              		.loc 1 297 0 discriminator 2
 1438 0930 9DED0B1A 		flds	s2, [sp, #44]
 1439 0934 B5EEC01A 		fcmpezs	s2
 1440 0938 F1EE10FA 		fmstat
 1441 093c 7FF712AE 		ble	.L105
 1442              		.loc 1 297 0 discriminator 3
 1443 0940 DDED0A0A 		flds	s1, [sp, #40]
 1444 0944 DFED2C7A 		flds	s15, .L139+120
 1445 0948 F4EEE70A 		fcmpes	s1, s15
 1446 094c F1EE10FA 		fmstat
 1447 0950 7FF708AE 		ble	.L105
 1448              		.loc 1 297 0 discriminator 4
 1449 0954 DDED0C1A 		flds	s3, [sp, #48]
 1450 0958 F5EEC01A 		fcmpezs	s3
 1451 095c F1EE10FA 		fmstat
 1452 0960 FFF600AE 		blt	.L105
 1453              	.LBB100:
 1454              		.loc 1 299 0 is_stmt 1
 1455 0964 0DA8     		add	r0, sp, #52
 1456 0966 FFF7FEFF 		bl	conf_general_measure_flux_linkage
 1457              	.LVL186:
 1458              		.loc 1 300 0
 1459 096a 0D98     		ldr	r0, [sp, #52]	@ float
 1460              	.LVL187:
 1461              	.L109:
 1462              	.LBE100:
 1463              	.LBE99:
 1464              	.LBB101:
 1465              	.LBB70:
 1466              		.loc 1 362 0
 1467 096c FFF7FEFF 		bl	__aeabi_f2d
 1468              	.LVL188:
 1469 0970 0246     		mov	r2, r0
 1470 0972 0B46     		mov	r3, r1
 1471 0974 2148     		ldr	r0, .L139+124
 1472 0976 FFF7FEFF 		bl	commands_printf
 1473              	.LVL189:
 1474              	.LBE70:
 1475 097a FFF7CABB 		b	.L1
 1476              	.L140:
 1477 097e 00BF     		.align	2
 1478              	.L139:
 1479 0980 54060000 		.word	.LC71
 1480 0984 6C060000 		.word	.LC72
 1481 0988 8C060000 		.word	.LC73
 1482 098c E0040000 		.word	.LC60
ARM GAS  /tmp/ccH66ojY.s 			page 27


 1483 0990 00050000 		.word	.LC61
 1484 0994 A4050000 		.word	.LC66
 1485 0998 000080BF 		.word	-1082130432
 1486 099c DC040000 		.word	.LC59
 1487 09a0 00000000 		.word	.LANCHOR0
 1488 09a4 98070000 		.word	.LC83
 1489 09a8 74050000 		.word	.LC65
 1490 09ac 54050000 		.word	.LC64
 1491 09b0 34050000 		.word	.LC63
 1492 09b4 18050000 		.word	.LC62
 1493 09b8 D4050000 		.word	.LC67
 1494 09bc B4060000 		.word	.LC75
 1495 09c0 00000000 		.word	ch
 1496 09c4 00401C46 		.word	1176256512
 1497 09c8 00007A44 		.word	1148846080
 1498 09cc E4060000 		.word	.LC76
 1499 09d0 FC060000 		.word	.LC77
 1500 09d4 14070000 		.word	.LC78
 1501 09d8 30070000 		.word	.LC79
 1502 09dc 4C070000 		.word	.LC80
 1503 09e0 68070000 		.word	.LC81
 1504 09e4 FC070000 		.word	.LC87
 1505 09e8 00803B45 		.word	1161527296
 1506 09ec 08080000 		.word	.LC88
 1507 09f0 00000000 		.word	.LANCHOR1
 1508 09f4 28080000 		.word	.LC89
 1509 09f8 0AD7A33C 		.word	1017370378
 1510 09fc 38080000 		.word	.LC90
 1511              	.LVL190:
 1512              	.L59:
 1513              	.LBE101:
 1514              		.loc 1 307 0
 1515 0a00 2846     		mov	r0, r5
 1516 0a02 AA49     		ldr	r1, .L141
 1517 0a04 FFF7FEFF 		bl	strcmp
 1518              	.LVL191:
 1519 0a08 0028     		cmp	r0, #0
 1520 0a0a 00F08280 		beq	.L133
 1521              		.loc 1 318 0
 1522 0a0e 2846     		mov	r0, r5
 1523 0a10 A749     		ldr	r1, .L141+4
 1524 0a12 FFF7FEFF 		bl	strcmp
 1525              	.LVL192:
 1526 0a16 0646     		mov	r6, r0
 1527 0a18 0028     		cmp	r0, #0
 1528 0a1a 40F09180 		bne	.L68
 1529              		.loc 1 319 0
 1530 0a1e 022C     		cmp	r4, #2
 1531 0a20 7FF4F6AC 		bne	.L45
 1532              	.LBB102:
 1533              		.loc 1 320 0
 1534 0a24 0DAD     		add	r5, sp, #52
 1535 0a26 A34B     		ldr	r3, .L141+8
 1536              		.loc 1 321 0
 1537 0a28 1598     		ldr	r0, [sp, #84]
 1538 0a2a A349     		ldr	r1, .L141+12
 1539              		.loc 1 320 0
ARM GAS  /tmp/ccH66ojY.s 			page 28


 1540 0a2c 2B60     		str	r3, [r5]	@ float
 1541              		.loc 1 321 0
 1542 0a2e 2A46     		mov	r2, r5
 1543 0a30 FFF7FEFF 		bl	sscanf
 1544              	.LVL193:
 1545              		.loc 1 323 0
 1546 0a34 D5ED007A 		flds	s15, [r5]
 1547 0a38 F5EEC07A 		fcmpezs	s15
 1548 0a3c F1EE10FA 		fmstat
 1549 0a40 7FF790AD 		ble	.L105
 1550              	.LBB74:
 1551              		.loc 1 324 0
 1552 0a44 9D4F     		ldr	r7, .L141+16
 1553              	.LBB71:
 1554              		.loc 1 334 0
 1555 0a46 9FED9E8A 		flds	s16, .L141+20
 1556              	.LBE71:
 1557              		.loc 1 324 0
 1558 0a4a BC70     		strb	r4, [r7, #2]
 1559              		.loc 1 325 0
 1560 0a4c 3846     		mov	r0, r7
 1561 0a4e FFF7FEFF 		bl	mc_interface_set_configuration
 1562              	.LVL194:
 1563              		.loc 1 326 0
 1564 0a52 D7ED2B7A 		flds	s15, [r7, #172]
 1565 0a56 B7EE08AA 		fconsts	s20, #120
 1566 0a5a 27EE8AAA 		fmuls	s20, s15, s20
 1567              	.LVL195:
 1568              		.loc 1 329 0
 1569 0a5e FFF7FEFF 		bl	timeout_get_timeout_msec
 1570              	.LVL196:
 1571 0a62 0746     		mov	r7, r0
 1572              	.LVL197:
 1573              		.loc 1 330 0
 1574 0a64 FFF7FEFF 		bl	timeout_get_brake_current
 1575              	.LVL198:
 1576              		.loc 1 331 0
 1577 0a68 4EF66020 		movw	r0, #60000
 1578              		.loc 1 330 0
 1579 0a6c F0EE40AA 		fcpys	s21, s0
 1580              	.LVL199:
 1581              		.loc 1 331 0
 1582 0a70 9FED940A 		flds	s0, .L141+24
 1583              	.LVL200:
 1584 0a74 FFF7FEFF 		bl	timeout_configure
 1585              	.LVL201:
 1586              	.LBB72:
 1587              		.loc 1 333 0
 1588 0a78 3446     		mov	r4, r6
 1589              	.LVL202:
 1590              	.L71:
 1591              		.loc 1 334 0 discriminator 3
 1592 0a7a 07EE904A 		fmsr	s15, r4	@ int
 1593 0a7e F8EEE77A 		fsitos	s15, s15
 1594 0a82 95ED000A 		flds	s0, [r5]
 1595 0a86 C7EE887A 		fdivs	s15, s15, s16
 1596              		.loc 1 333 0 discriminator 3
ARM GAS  /tmp/ccH66ojY.s 			page 29


 1597 0a8a 0134     		adds	r4, r4, #1
 1598              	.LVL203:
 1599              		.loc 1 334 0 discriminator 3
 1600 0a8c 27EE800A 		fmuls	s0, s15, s0
 1601 0a90 FFF7FEFF 		bl	mc_interface_set_duty
 1602              	.LVL204:
 1603              		.loc 1 335 0 discriminator 3
 1604 0a94 C820     		movs	r0, #200
 1605 0a96 FFF7FEFF 		bl	chThdSleep
 1606              	.LVL205:
 1607              		.loc 1 333 0 discriminator 3
 1608 0a9a 642C     		cmp	r4, #100
 1609 0a9c EDD1     		bne	.L71
 1610 0a9e 9FED898A 		flds	s16, .L141+24
 1611 0aa2 4FF47A74 		mov	r4, #1000
 1612              	.LVL206:
 1613 0aa6 F0EE489A 		fcpys	s19, s16
 1614 0aaa F0EE488A 		fcpys	s17, s16
 1615 0aae B0EE489A 		fcpys	s18, s16
 1616              	.LBE72:
 1617              	.LBB73:
 1618              		.loc 1 346 0 discriminator 3
 1619 0ab2 B7EE00BA 		fconsts	s22, #112
 1620              	.L72:
 1621              	.LVL207:
 1622              		.loc 1 343 0 discriminator 3
 1623 0ab6 FFF7FEFF 		bl	mcpwm_foc_get_vq
 1624              	.LVL208:
 1625 0aba 39EE009A 		fadds	s18, s18, s0
 1626              	.LVL209:
 1627              		.loc 1 344 0 discriminator 3
 1628 0abe FFF7FEFF 		bl	mc_interface_get_rpm
 1629              	.LVL210:
 1630 0ac2 78EE808A 		fadds	s17, s17, s0
 1631              	.LVL211:
 1632              		.loc 1 345 0 discriminator 3
 1633 0ac6 FFF7FEFF 		bl	mc_interface_get_tot_current_directional
 1634              	.LVL212:
 1635              		.loc 1 347 0 discriminator 3
 1636 0aca 0A20     		movs	r0, #10
 1637              		.loc 1 345 0 discriminator 3
 1638 0acc 38EE008A 		fadds	s16, s16, s0
 1639              	.LVL213:
 1640              		.loc 1 347 0 discriminator 3
 1641 0ad0 FFF7FEFF 		bl	chThdSleep
 1642              	.LVL214:
 1643              		.loc 1 342 0 discriminator 3
 1644 0ad4 013C     		subs	r4, r4, #1
 1645              	.LVL215:
 1646              		.loc 1 346 0 discriminator 3
 1647 0ad6 79EE8B9A 		fadds	s19, s19, s22
 1648              	.LVL216:
 1649              		.loc 1 342 0 discriminator 3
 1650 0ada ECD1     		bne	.L72
 1651              	.LBE73:
 1652              		.loc 1 350 0
 1653 0adc FFF7FEFF 		bl	mc_interface_release_motor
ARM GAS  /tmp/ccH66ojY.s 			page 30


 1654              	.LVL217:
 1655              		.loc 1 351 0
 1656 0ae0 7948     		ldr	r0, .L141+28
 1657 0ae2 FFF7FEFF 		bl	mc_interface_set_configuration
 1658              	.LVL218:
 1659              		.loc 1 354 0
 1660 0ae6 3846     		mov	r0, r7
 1661 0ae8 B0EE6A0A 		fcpys	s0, s21
 1662 0aec FFF7FEFF 		bl	timeout_configure
 1663              	.LVL219:
 1664              		.loc 1 356 0
 1665 0af0 89EE297A 		fdivs	s14, s18, s19
 1666              	.LVL220:
 1667              		.loc 1 358 0
 1668 0af4 88EE298A 		fdivs	s16, s16, s19
 1669              	.LVL221:
 1670              		.loc 1 357 0
 1671 0af8 C8EEA98A 		fdivs	s17, s17, s19
 1672              	.LVL222:
 1673              		.loc 1 360 0
 1674 0afc AAEE487A 		vfms.f32	s14, s20, s16
 1675              	.LVL223:
 1676 0b00 DFED727A 		flds	s15, .L141+32
 1677 0b04 68EEA77A 		fmuls	s15, s17, s15
 1678              		.loc 1 362 0
 1679 0b08 C7EE277A 		fdivs	s15, s14, s15
 1680 0b0c 17EE900A 		fmrs	r0, s15
 1681 0b10 2CE7     		b	.L109
 1682              	.LVL224:
 1683              	.L133:
 1684              	.LBE74:
 1685              	.LBE102:
 1686              	.LBB103:
 1687              		.loc 1 308 0 discriminator 18
 1688 0b12 6A4B     		ldr	r3, .L141+16
 1689 0b14 0222     		movs	r2, #2
 1690              		.loc 1 309 0 discriminator 18
 1691 0b16 1846     		mov	r0, r3
 1692              		.loc 1 308 0 discriminator 18
 1693 0b18 9A70     		strb	r2, [r3, #2]
 1694              		.loc 1 309 0 discriminator 18
 1695 0b1a FFF7FEFF 		bl	mc_interface_set_configuration
 1696              	.LVL225:
 1697              		.loc 1 311 0 discriminator 18
 1698 0b1e 0023     		movs	r3, #0
 1699              		.loc 1 313 0 discriminator 18
 1700 0b20 0DA9     		add	r1, sp, #52
 1701 0b22 0CA8     		add	r0, sp, #48
 1702              		.loc 1 311 0 discriminator 18
 1703 0b24 0C93     		str	r3, [sp, #48]	@ float
 1704              		.loc 1 312 0 discriminator 18
 1705 0b26 0D93     		str	r3, [sp, #52]	@ float
 1706              		.loc 1 313 0 discriminator 18
 1707 0b28 FFF7FEFF 		bl	mcpwm_foc_measure_res_ind
 1708              	.LVL226:
 1709              		.loc 1 314 0 discriminator 18
 1710 0b2c 0C98     		ldr	r0, [sp, #48]	@ float
ARM GAS  /tmp/ccH66ojY.s 			page 31


 1711 0b2e FFF7FEFF 		bl	__aeabi_f2d
 1712              	.LVL227:
 1713 0b32 0246     		mov	r2, r0
 1714 0b34 0B46     		mov	r3, r1
 1715 0b36 6648     		ldr	r0, .L141+36
 1716 0b38 FFF7FEFF 		bl	commands_printf
 1717              	.LVL228:
 1718              		.loc 1 315 0 discriminator 18
 1719 0b3c 0D98     		ldr	r0, [sp, #52]	@ float
 1720 0b3e B8E6     		b	.L108
 1721              	.L68:
 1722              	.LBE103:
 1723              		.loc 1 369 0
 1724 0b40 2846     		mov	r0, r5
 1725 0b42 6449     		ldr	r1, .L141+40
 1726 0b44 FFF7FEFF 		bl	strcmp
 1727              	.LVL229:
 1728 0b48 0028     		cmp	r0, #0
 1729 0b4a 00F0A880 		beq	.L134
 1730              		.loc 1 375 0
 1731 0b4e 2846     		mov	r0, r5
 1732 0b50 6149     		ldr	r1, .L141+44
 1733 0b52 FFF7FEFF 		bl	strcmp
 1734              	.LVL230:
 1735 0b56 0028     		cmp	r0, #0
 1736 0b58 40F09B80 		bne	.L75
 1737              		.loc 1 376 0
 1738 0b5c 5F48     		ldr	r0, .L141+48
 1739 0b5e FFF7FEFF 		bl	commands_printf
 1740              	.LVL231:
 1741              		.loc 1 377 0
 1742 0b62 5D48     		ldr	r0, .L141+44
 1743 0b64 FFF7FEFF 		bl	commands_printf
 1744              	.LVL232:
 1745              		.loc 1 378 0
 1746 0b68 5D48     		ldr	r0, .L141+52
 1747 0b6a FFF7FEFF 		bl	commands_printf
 1748              	.LVL233:
 1749              		.loc 1 380 0
 1750 0b6e 5D48     		ldr	r0, .L141+56
 1751 0b70 FFF7FEFF 		bl	commands_printf
 1752              	.LVL234:
 1753              		.loc 1 381 0
 1754 0b74 5C48     		ldr	r0, .L141+60
 1755 0b76 FFF7FEFF 		bl	commands_printf
 1756              	.LVL235:
 1757              		.loc 1 383 0
 1758 0b7a 5C48     		ldr	r0, .L141+64
 1759 0b7c FFF7FEFF 		bl	commands_printf
 1760              	.LVL236:
 1761              		.loc 1 384 0
 1762 0b80 5B48     		ldr	r0, .L141+68
 1763 0b82 FFF7FEFF 		bl	commands_printf
 1764              	.LVL237:
 1765              		.loc 1 386 0
 1766 0b86 5B48     		ldr	r0, .L141+72
 1767 0b88 FFF7FEFF 		bl	commands_printf
ARM GAS  /tmp/ccH66ojY.s 			page 32


 1768              	.LVL238:
 1769              		.loc 1 387 0
 1770 0b8c 5A48     		ldr	r0, .L141+76
 1771 0b8e FFF7FEFF 		bl	commands_printf
 1772              	.LVL239:
 1773              		.loc 1 389 0
 1774 0b92 5A48     		ldr	r0, .L141+80
 1775 0b94 FFF7FEFF 		bl	commands_printf
 1776              	.LVL240:
 1777              		.loc 1 390 0
 1778 0b98 5948     		ldr	r0, .L141+84
 1779 0b9a FFF7FEFF 		bl	commands_printf
 1780              	.LVL241:
 1781              		.loc 1 392 0
 1782 0b9e 5948     		ldr	r0, .L141+88
 1783 0ba0 FFF7FEFF 		bl	commands_printf
 1784              	.LVL242:
 1785              		.loc 1 393 0
 1786 0ba4 5848     		ldr	r0, .L141+92
 1787 0ba6 FFF7FEFF 		bl	commands_printf
 1788              	.LVL243:
 1789              		.loc 1 395 0
 1790 0baa 5848     		ldr	r0, .L141+96
 1791 0bac FFF7FEFF 		bl	commands_printf
 1792              	.LVL244:
 1793              		.loc 1 396 0
 1794 0bb0 5748     		ldr	r0, .L141+100
 1795 0bb2 FFF7FEFF 		bl	commands_printf
 1796              	.LVL245:
 1797              		.loc 1 398 0
 1798 0bb6 5748     		ldr	r0, .L141+104
 1799 0bb8 FFF7FEFF 		bl	commands_printf
 1800              	.LVL246:
 1801              		.loc 1 399 0
 1802 0bbc 5648     		ldr	r0, .L141+108
 1803 0bbe FFF7FEFF 		bl	commands_printf
 1804              	.LVL247:
 1805              		.loc 1 401 0
 1806 0bc2 5648     		ldr	r0, .L141+112
 1807 0bc4 FFF7FEFF 		bl	commands_printf
 1808              	.LVL248:
 1809              		.loc 1 402 0
 1810 0bc8 5548     		ldr	r0, .L141+116
 1811 0bca FFF7FEFF 		bl	commands_printf
 1812              	.LVL249:
 1813              		.loc 1 404 0
 1814 0bce 5548     		ldr	r0, .L141+120
 1815 0bd0 FFF7FEFF 		bl	commands_printf
 1816              	.LVL250:
 1817              		.loc 1 405 0
 1818 0bd4 5448     		ldr	r0, .L141+124
 1819 0bd6 FFF7FEFF 		bl	commands_printf
 1820              	.LVL251:
 1821              		.loc 1 407 0
 1822 0bda 5448     		ldr	r0, .L141+128
 1823 0bdc FFF7FEFF 		bl	commands_printf
 1824              	.LVL252:
ARM GAS  /tmp/ccH66ojY.s 			page 33


 1825              		.loc 1 408 0
 1826 0be0 5348     		ldr	r0, .L141+132
 1827 0be2 FFF7FEFF 		bl	commands_printf
 1828              	.LVL253:
 1829              		.loc 1 410 0
 1830 0be6 5348     		ldr	r0, .L141+136
 1831 0be8 FFF7FEFF 		bl	commands_printf
 1832              	.LVL254:
 1833              		.loc 1 411 0
 1834 0bec 5248     		ldr	r0, .L141+140
 1835 0bee FFF7FEFF 		bl	commands_printf
 1836              	.LVL255:
 1837              		.loc 1 413 0
 1838 0bf2 5248     		ldr	r0, .L141+144
 1839 0bf4 FFF7FEFF 		bl	commands_printf
 1840              	.LVL256:
 1841              		.loc 1 414 0
 1842 0bf8 5148     		ldr	r0, .L141+148
 1843 0bfa FFF7FEFF 		bl	commands_printf
 1844              	.LVL257:
 1845              		.loc 1 416 0
 1846 0bfe 5148     		ldr	r0, .L141+152
 1847 0c00 FFF7FEFF 		bl	commands_printf
 1848              	.LVL258:
 1849              		.loc 1 417 0
 1850 0c04 5048     		ldr	r0, .L141+156
 1851 0c06 FFF7FEFF 		bl	commands_printf
 1852              	.LVL259:
 1853              		.loc 1 418 0
 1854 0c0a 5048     		ldr	r0, .L141+160
 1855 0c0c FFF7FEFF 		bl	commands_printf
 1856              	.LVL260:
 1857              		.loc 1 419 0
 1858 0c10 4F48     		ldr	r0, .L141+164
 1859 0c12 FFF7FEFF 		bl	commands_printf
 1860              	.LVL261:
 1861              		.loc 1 421 0
 1862 0c16 4F48     		ldr	r0, .L141+168
 1863 0c18 FFF7FEFF 		bl	commands_printf
 1864              	.LVL262:
 1865              		.loc 1 422 0
 1866 0c1c 4E48     		ldr	r0, .L141+172
 1867 0c1e FFF7FEFF 		bl	commands_printf
 1868              	.LVL263:
 1869              		.loc 1 424 0
 1870 0c22 4E48     		ldr	r0, .L141+176
 1871 0c24 FFF7FEFF 		bl	commands_printf
 1872              	.LVL264:
 1873              		.loc 1 425 0
 1874 0c28 4D48     		ldr	r0, .L141+180
 1875 0c2a FFF7FEFF 		bl	commands_printf
 1876              	.LVL265:
 1877              		.loc 1 427 0
 1878 0c2e 4D48     		ldr	r0, .L141+184
 1879 0c30 FFF7FEFF 		bl	commands_printf
 1880              	.LVL266:
 1881              		.loc 1 428 0
ARM GAS  /tmp/ccH66ojY.s 			page 34


 1882 0c34 4C48     		ldr	r0, .L141+188
 1883 0c36 FFF7FEFF 		bl	commands_printf
 1884              	.LVL267:
 1885              		.loc 1 430 0
 1886 0c3a 4C48     		ldr	r0, .L141+192
 1887 0c3c FFF7FEFF 		bl	commands_printf
 1888              	.LVL268:
 1889              		.loc 1 431 0
 1890 0c40 4B48     		ldr	r0, .L141+196
 1891 0c42 FFF7FEFF 		bl	commands_printf
 1892              	.LVL269:
 1893              		.loc 1 433 0
 1894 0c46 4B48     		ldr	r0, .L141+200
 1895 0c48 FFF7FEFF 		bl	commands_printf
 1896              	.LVL270:
 1897              		.loc 1 434 0
 1898 0c4c 4A48     		ldr	r0, .L141+204
 1899 0c4e FFF7FEFF 		bl	commands_printf
 1900              	.LVL271:
 1901              		.loc 1 436 0
 1902 0c52 4A48     		ldr	r0, .L141+208
 1903 0c54 FFF7FEFF 		bl	commands_printf
 1904              	.LVL272:
 1905              		.loc 1 437 0
 1906 0c58 4948     		ldr	r0, .L141+212
 1907 0c5a FFF7FEFF 		bl	commands_printf
 1908              	.LVL273:
 1909              		.loc 1 438 0
 1910 0c5e 4948     		ldr	r0, .L141+216
 1911 0c60 FFF7FEFF 		bl	commands_printf
 1912              	.LVL274:
 1913              		.loc 1 439 0
 1914 0c64 4848     		ldr	r0, .L141+220
 1915 0c66 FFF7FEFF 		bl	commands_printf
 1916              	.LVL275:
 1917              		.loc 1 441 0
 1918 0c6a 1048     		ldr	r0, .L141
 1919 0c6c FFF7FEFF 		bl	commands_printf
 1920              	.LVL276:
 1921              		.loc 1 442 0
 1922 0c70 4648     		ldr	r0, .L141+224
 1923 0c72 FFF7FEFF 		bl	commands_printf
 1924              	.LVL277:
 1925              		.loc 1 444 0
 1926 0c76 4648     		ldr	r0, .L141+228
 1927 0c78 FFF7FEFF 		bl	commands_printf
 1928              	.LVL278:
 1929              		.loc 1 445 0
 1930 0c7c 4548     		ldr	r0, .L141+232
 1931 0c7e FFF7FEFF 		bl	commands_printf
 1932              	.LVL279:
 1933              		.loc 1 447 0
 1934 0c82 1448     		ldr	r0, .L141+40
 1935 0c84 FFF7FEFF 		bl	commands_printf
 1936              	.LVL280:
 1937              		.loc 1 448 0
 1938 0c88 4348     		ldr	r0, .L141+236
ARM GAS  /tmp/ccH66ojY.s 			page 35


 1939 0c8a FFF7FEFF 		bl	commands_printf
 1940              	.LVL281:
 1941 0c8e FFF740BA 		b	.L1
 1942              	.L75:
 1943              		.loc 1 450 0
 1944 0c92 2946     		mov	r1, r5
 1945 0c94 4148     		ldr	r0, .L141+240
 1946 0c96 FFF7FEFF 		bl	commands_printf
 1947              	.LVL282:
 1948 0c9a FFF73ABA 		b	.L1
 1949              	.L134:
 1950              		.loc 1 370 0
 1951 0c9e FFF7FEFF 		bl	mcpwm_foc_print_state
 1952              	.LVL283:
 1953              		.loc 1 371 0
 1954 0ca2 3F48     		ldr	r0, .L141+244
 1955 0ca4 FFF7FEFF 		bl	commands_printf
 1956              	.LVL284:
 1957 0ca8 FFF733BA 		b	.L1
 1958              	.L142:
 1959              		.align	2
 1960              	.L141:
 1961 0cac 4C080000 		.word	.LC91
 1962 0cb0 74080000 		.word	.LC93
 1963 0cb4 000080BF 		.word	-1082130432
 1964 0cb8 DC040000 		.word	.LC59
 1965 0cbc 00000000 		.word	.LANCHOR0
 1966 0cc0 0000C842 		.word	1120403456
 1967 0cc4 00000000 		.word	0
 1968 0cc8 00000000 		.word	.LANCHOR1
 1969 0ccc 5077D63D 		.word	1037465424
 1970 0cd0 5C080000 		.word	.LC92
 1971 0cd4 88080000 		.word	.LC94
 1972 0cd8 94080000 		.word	.LC95
 1973 0cdc 9C080000 		.word	.LC96
 1974 0ce0 B0080000 		.word	.LC97
 1975 0ce4 1C000000 		.word	.LC2
 1976 0ce8 C4080000 		.word	.LC98
 1977 0cec 2C000000 		.word	.LC4
 1978 0cf0 F0080000 		.word	.LC99
 1979 0cf4 44000000 		.word	.LC6
 1980 0cf8 04090000 		.word	.LC100
 1981 0cfc C8000000 		.word	.LC10
 1982 0d00 34090000 		.word	.LC101
 1983 0d04 EC000000 		.word	.LC12
 1984 0d08 58090000 		.word	.LC102
 1985 0d0c 44010000 		.word	.LC16
 1986 0d10 6C090000 		.word	.LC103
 1987 0d14 F4010000 		.word	.LC21
 1988 0d18 80090000 		.word	.LC104
 1989 0d1c 00020000 		.word	.LC23
 1990 0d20 A0090000 		.word	.LC105
 1991 0d24 B4030000 		.word	.LC40
 1992 0d28 E4090000 		.word	.LC106
 1993 0d2c D4030000 		.word	.LC42
 1994 0d30 080A0000 		.word	.LC107
 1995 0d34 F4030000 		.word	.LC44
ARM GAS  /tmp/ccH66ojY.s 			page 36


 1996 0d38 240A0000 		.word	.LC108
 1997 0d3c AC040000 		.word	.LC56
 1998 0d40 440A0000 		.word	.LC109
 1999 0d44 600A0000 		.word	.LC110
 2000 0d48 8C0A0000 		.word	.LC111
 2001 0d4c D00A0000 		.word	.LC112
 2002 0d50 0C0B0000 		.word	.LC113
 2003 0d54 4C060000 		.word	.LC70
 2004 0d58 340B0000 		.word	.LC114
 2005 0d5c A8060000 		.word	.LC74
 2006 0d60 540B0000 		.word	.LC115
 2007 0d64 900B0000 		.word	.LC116
 2008 0d68 B00B0000 		.word	.LC117
 2009 0d6c F40B0000 		.word	.LC118
 2010 0d70 0C0C0000 		.word	.LC119
 2011 0d74 4C0C0000 		.word	.LC120
 2012 0d78 600C0000 		.word	.LC121
 2013 0d7c B40C0000 		.word	.LC122
 2014 0d80 EC0C0000 		.word	.LC123
 2015 0d84 2C0D0000 		.word	.LC124
 2016 0d88 580D0000 		.word	.LC125
 2017 0d8c 900D0000 		.word	.LC126
 2018 0d90 E80D0000 		.word	.LC127
 2019 0d94 040E0000 		.word	.LC128
 2020 0d98 3C0E0000 		.word	.LC129
 2021 0d9c 600E0000 		.word	.LC130
 2022 0da0 00000000 		.word	.LC0
 2023              		.cfi_endproc
 2024              	.LFE256:
 2025              		.size	terminal_process_string, .-terminal_process_string
 2026              		.section	.text.terminal_add_fault_data,"ax",%progbits
 2027              		.align	2
 2028              		.p2align 4,,15
 2029              		.global	terminal_add_fault_data
 2030              		.thumb
 2031              		.thumb_func
 2032              		.type	terminal_add_fault_data, %function
 2033              	terminal_add_fault_data:
 2034              	.LFB257:
 2035              		.loc 1 455 0
 2036              		.cfi_startproc
 2037              		@ args = 0, pretend = 0, frame = 0
 2038              		@ frame_needed = 0, uses_anonymous_args = 0
 2039              	.LVL285:
 2040 0000 F0B5     		push	{r4, r5, r6, r7, lr}
 2041              		.cfi_def_cfa_offset 20
 2042              		.cfi_offset 4, -20
 2043              		.cfi_offset 5, -16
 2044              		.cfi_offset 6, -12
 2045              		.cfi_offset 7, -8
 2046              		.cfi_offset 14, -4
 2047              		.loc 1 456 0
 2048 0002 0646     		mov	r6, r0
 2049 0004 0FCE     		ldmia	r6!, {r0, r1, r2, r3}
 2050              	.LVL286:
 2051 0006 0C4F     		ldr	r7, .L146
 2052 0008 0C4C     		ldr	r4, .L146+4
ARM GAS  /tmp/ccH66ojY.s 			page 37


 2053 000a 3D68     		ldr	r5, [r7]
 2054 000c 4FF0340C 		mov	ip, #52
 2055 0010 05F1010E 		add	lr, r5, #1
 2056 0014 0CFB0544 		mla	r4, ip, r5, r4
 2057 0018 C7F800E0 		str	lr, [r7]
 2058 001c 0FC4     		stmia	r4!, {r0, r1, r2, r3}
 2059 001e 0FCE     		ldmia	r6!, {r0, r1, r2, r3}
 2060              	.LVL287:
 2061 0020 0FC4     		stmia	r4!, {r0, r1, r2, r3}
 2062 0022 0FCE     		ldmia	r6!, {r0, r1, r2, r3}
 2063              	.LVL288:
 2064 0024 0FC4     		stmia	r4!, {r0, r1, r2, r3}
 2065 0026 3368     		ldr	r3, [r6]
 2066 0028 2360     		str	r3, [r4]
 2067              		.loc 1 457 0
 2068 002a 3B68     		ldr	r3, [r7]
 2069 002c 182B     		cmp	r3, #24
 2070              		.loc 1 458 0
 2071 002e C4BF     		itt	gt
 2072 0030 0023     		movgt	r3, #0
 2073 0032 3B60     		strgt	r3, [r7]
 2074 0034 F0BD     		pop	{r4, r5, r6, r7, pc}
 2075              	.LVL289:
 2076              	.L147:
 2077 0036 00BF     		.align	2
 2078              	.L146:
 2079 0038 00000000 		.word	.LANCHOR3
 2080 003c 00000000 		.word	.LANCHOR4
 2081              		.cfi_endproc
 2082              	.LFE257:
 2083              		.size	terminal_add_fault_data, .-terminal_add_fault_data
 2084              		.section	.bss.mcconf.10997,"aw",%nobits
 2085              		.align	2
 2086              		.set	.LANCHOR0,. + 0
 2087              		.type	mcconf.10997, %object
 2088              		.size	mcconf.10997, 304
 2089              	mcconf.10997:
 2090 0000 00000000 		.space	304
 2090      00000000 
 2090      00000000 
 2090      00000000 
 2090      00000000 
 2091              		.section	.bss.mcconf_old.10998,"aw",%nobits
 2092              		.align	2
 2093              		.set	.LANCHOR1,. + 0
 2094              		.type	mcconf_old.10998, %object
 2095              		.size	mcconf_old.10998, 304
 2096              	mcconf_old.10998:
 2097 0000 00000000 		.space	304
 2097      00000000 
 2097      00000000 
 2097      00000000 
 2097      00000000 
 2098              		.section	.bss.fault_vec_write,"aw",%nobits
 2099              		.align	2
 2100              		.set	.LANCHOR3,. + 0
 2101              		.type	fault_vec_write, %object
ARM GAS  /tmp/ccH66ojY.s 			page 38


 2102              		.size	fault_vec_write, 4
 2103              	fault_vec_write:
 2104 0000 00000000 		.space	4
 2105              		.section	.rodata.states.11002,"a",%progbits
 2106              		.align	2
 2107              		.set	.LANCHOR2,. + 0
 2108              		.type	states.11002, %object
 2109              		.size	states.11002, 64
 2110              	states.11002:
 2111 0000 A00E0000 		.word	.LC131
 2112 0004 A80E0000 		.word	.LC132
 2113 0008 B00E0000 		.word	.LC133
 2114 000c B80E0000 		.word	.LC134
 2115 0010 C40E0000 		.word	.LC135
 2116 0014 CC0E0000 		.word	.LC136
 2117 0018 D40E0000 		.word	.LC137
 2118 001c DC0E0000 		.word	.LC138
 2119 0020 E40E0000 		.word	.LC139
 2120 0024 F00E0000 		.word	.LC140
 2121 0028 F80E0000 		.word	.LC141
 2122 002c 000F0000 		.word	.LC142
 2123 0030 0C0F0000 		.word	.LC143
 2124 0034 140F0000 		.word	.LC144
 2125 0038 1C0F0000 		.word	.LC145
 2126 003c 240F0000 		.word	.LC146
 2127              		.section	.rodata.str1.4,"aMS",%progbits,1
 2128              		.align	2
 2129              	.LC0:
 2130 0000 2000     		.ascii	" \000"
 2131 0002 0000     		.space	2
 2132              	.LC1:
 2133 0004 4E6F2063 		.ascii	"No command received\012\000"
 2133      6F6D6D61 
 2133      6E642072 
 2133      65636569 
 2133      7665640A 
 2134 0019 000000   		.space	3
 2135              	.LC2:
 2136 001c 70696E67 		.ascii	"ping\000"
 2136      00
 2137 0021 000000   		.space	3
 2138              	.LC3:
 2139 0024 706F6E67 		.ascii	"pong\012\000"
 2139      0A00
 2140 002a 0000     		.space	2
 2141              	.LC4:
 2142 002c 73746F70 		.ascii	"stop\000"
 2142      00
 2143 0031 000000   		.space	3
 2144              	.LC5:
 2145 0034 4D6F746F 		.ascii	"Motor stopped\012\000"
 2145      72207374 
 2145      6F707065 
 2145      640A00
 2146 0043 00       		.space	1
 2147              	.LC6:
 2148 0044 6C617374 		.ascii	"last_adc_duration\000"
ARM GAS  /tmp/ccH66ojY.s 			page 39


 2148      5F616463 
 2148      5F647572 
 2148      6174696F 
 2148      6E00
 2149 0056 0000     		.space	2
 2150              	.LC7:
 2151 0058 4C617465 		.ascii	"Latest ADC duration: %.4f ms\000"
 2151      73742041 
 2151      44432064 
 2151      75726174 
 2151      696F6E3A 
 2152 0075 000000   		.space	3
 2153              	.LC8:
 2154 0078 4C617465 		.ascii	"Latest injected ADC duration: %.4f ms\000"
 2154      73742069 
 2154      6E6A6563 
 2154      74656420 
 2154      41444320 
 2155 009e 0000     		.space	2
 2156              	.LC9:
 2157 00a0 4C617465 		.ascii	"Latest sample ADC duration: %.4f ms\012\000"
 2157      73742073 
 2157      616D706C 
 2157      65204144 
 2157      43206475 
 2158 00c5 000000   		.space	3
 2159              	.LC10:
 2160 00c8 6B7600   		.ascii	"kv\000"
 2161 00cb 00       		.space	1
 2162              	.LC11:
 2163 00cc 43616C63 		.ascii	"Calculated KV: %.2f rpm/volt\012\000"
 2163      756C6174 
 2163      6564204B 
 2163      563A2025 
 2163      2E326620 
 2164 00ea 0000     		.space	2
 2165              	.LC12:
 2166 00ec 6D656D00 		.ascii	"mem\000"
 2167              	.LC13:
 2168 00f0 636F7265 		.ascii	"core free memory : %u bytes\000"
 2168      20667265 
 2168      65206D65 
 2168      6D6F7279 
 2168      203A2025 
 2169              	.LC14:
 2170 010c 68656170 		.ascii	"heap fragments   : %u\000"
 2170      20667261 
 2170      676D656E 
 2170      74732020 
 2170      203A2025 
 2171 0122 0000     		.space	2
 2172              	.LC15:
 2173 0124 68656170 		.ascii	"heap free total  : %u bytes\012\000"
 2173      20667265 
 2173      6520746F 
 2173      74616C20 
 2173      203A2025 
ARM GAS  /tmp/ccH66ojY.s 			page 40


 2174 0141 000000   		.space	3
 2175              	.LC16:
 2176 0144 74687265 		.ascii	"threads\000"
 2176      61647300 
 2177              	.LC17:
 2178 014c 20202020 		.ascii	"    addr    stack prio refs     state           nam"
 2178      61646472 
 2178      20202020 
 2178      73746163 
 2178      6B207072 
 2179 017f 65207469 		.ascii	"e time    \000"
 2179      6D652020 
 2179      202000
 2180 018a 0000     		.space	2
 2181              	.LC18:
 2182 018c 2D2D2D2D 		.ascii	"---------------------------------------------------"
 2182      2D2D2D2D 
 2182      2D2D2D2D 
 2182      2D2D2D2D 
 2182      2D2D2D2D 
 2183 01bf 2D2D2D2D 		.ascii	"----------\000"
 2183      2D2D2D2D 
 2183      2D2D00
 2184 01ca 0000     		.space	2
 2185              	.LC19:
 2186 01cc 252E386C 		.ascii	"%.8lx %.8lx %4lu %4lu %9s %14s %lu\000"
 2186      7820252E 
 2186      386C7820 
 2186      25346C75 
 2186      2025346C 
 2187 01ef 00       		.space	1
 2188              	.LC20:
 2189 01f0 00       		.ascii	"\000"
 2190 01f1 000000   		.space	3
 2191              	.LC21:
 2192 01f4 6661756C 		.ascii	"fault\000"
 2192      7400
 2193 01fa 0000     		.space	2
 2194              	.LC22:
 2195 01fc 25730A00 		.ascii	"%s\012\000"
 2196              	.LC23:
 2197 0200 6661756C 		.ascii	"faults\000"
 2197      747300
 2198 0207 00       		.space	1
 2199              	.LC24:
 2200 0208 4E6F2066 		.ascii	"No faults registered since startup\012\000"
 2200      61756C74 
 2200      73207265 
 2200      67697374 
 2200      65726564 
 2201              	.LC25:
 2202 022c 54686520 		.ascii	"The following faults were registered since start:\012"
 2202      666F6C6C 
 2202      6F77696E 
 2202      67206661 
 2202      756C7473 
 2203 025e 00       		.ascii	"\000"
ARM GAS  /tmp/ccH66ojY.s 			page 41


 2204 025f 00       		.space	1
 2205              	.LC26:
 2206 0260 4661756C 		.ascii	"Fault            : %s\000"
 2206      74202020 
 2206      20202020 
 2206      20202020 
 2206      203A2025 
 2207 0276 0000     		.space	2
 2208              	.LC27:
 2209 0278 43757272 		.ascii	"Current          : %.1f\000"
 2209      656E7420 
 2209      20202020 
 2209      20202020 
 2209      203A2025 
 2210              	.LC28:
 2211 0290 43757272 		.ascii	"Current filtered : %.1f\000"
 2211      656E7420 
 2211      66696C74 
 2211      65726564 
 2211      203A2025 
 2212              	.LC29:
 2213 02a8 566F6C74 		.ascii	"Voltage          : %.2f\000"
 2213      61676520 
 2213      20202020 
 2213      20202020 
 2213      203A2025 
 2214              	.LC30:
 2215 02c0 44757479 		.ascii	"Duty             : %.2f\000"
 2215      20202020 
 2215      20202020 
 2215      20202020 
 2215      203A2025 
 2216              	.LC31:
 2217 02d8 52504D20 		.ascii	"RPM              : %.1f\000"
 2217      20202020 
 2217      20202020 
 2217      20202020 
 2217      203A2025 
 2218              	.LC32:
 2219 02f0 54616368 		.ascii	"Tacho            : %d\000"
 2219      6F202020 
 2219      20202020 
 2219      20202020 
 2219      203A2025 
 2220 0306 0000     		.space	2
 2221              	.LC33:
 2222 0308 4379636C 		.ascii	"Cycles running   : %d\000"
 2222      65732072 
 2222      756E6E69 
 2222      6E672020 
 2222      203A2025 
 2223 031e 0000     		.space	2
 2224              	.LC34:
 2225 0320 54494D20 		.ascii	"TIM duty         : %d\000"
 2225      64757479 
 2225      20202020 
 2225      20202020 
ARM GAS  /tmp/ccH66ojY.s 			page 42


 2225      203A2025 
 2226 0336 0000     		.space	2
 2227              	.LC35:
 2228 0338 54494D20 		.ascii	"TIM val samp     : %d\000"
 2228      76616C20 
 2228      73616D70 
 2228      20202020 
 2228      203A2025 
 2229 034e 0000     		.space	2
 2230              	.LC36:
 2231 0350 54494D20 		.ascii	"TIM current samp : %d\000"
 2231      63757272 
 2231      656E7420 
 2231      73616D70 
 2231      203A2025 
 2232 0366 0000     		.space	2
 2233              	.LC37:
 2234 0368 54494D20 		.ascii	"TIM top          : %d\000"
 2234      746F7020 
 2234      20202020 
 2234      20202020 
 2234      203A2025 
 2235 037e 0000     		.space	2
 2236              	.LC38:
 2237 0380 436F6D6D 		.ascii	"Comm step        : %d\000"
 2237      20737465 
 2237      70202020 
 2237      20202020 
 2237      203A2025 
 2238 0396 0000     		.space	2
 2239              	.LC39:
 2240 0398 54656D70 		.ascii	"Temperature      : %.2f\012\000"
 2240      65726174 
 2240      75726520 
 2240      20202020 
 2240      203A2025 
 2241 03b1 000000   		.space	3
 2242              	.LC40:
 2243 03b4 72706D00 		.ascii	"rpm\000"
 2244              	.LC41:
 2245 03b8 456C6563 		.ascii	"Electrical RPM: %.2f rpm\012\000"
 2245      74726963 
 2245      616C2052 
 2245      504D3A20 
 2245      252E3266 
 2246 03d2 0000     		.space	2
 2247              	.LC42:
 2248 03d4 74616368 		.ascii	"tacho\000"
 2248      6F00
 2249 03da 0000     		.space	2
 2250              	.LC43:
 2251 03dc 54616368 		.ascii	"Tachometer counts: %i\012\000"
 2251      6F6D6574 
 2251      65722063 
 2251      6F756E74 
 2251      733A2025 
 2252 03f3 00       		.space	1
ARM GAS  /tmp/ccH66ojY.s 			page 43


 2253              	.LC44:
 2254 03f4 74696D00 		.ascii	"tim\000"
 2255              	.LC45:
 2256 03f8 54696D31 		.ascii	"Tim1 CNT: %i\000"
 2256      20434E54 
 2256      3A202569 
 2256      00
 2257 0405 000000   		.space	3
 2258              	.LC46:
 2259 0408 54696D38 		.ascii	"Tim8 CNT: %u\000"
 2259      20434E54 
 2259      3A202575 
 2259      00
 2260 0415 000000   		.space	3
 2261              	.LC47:
 2262 0418 44757479 		.ascii	"Duty cycle1: %u\000"
 2262      20637963 
 2262      6C65313A 
 2262      20257500 
 2263              	.LC48:
 2264 0428 44757479 		.ascii	"Duty cycle2: %u\000"
 2264      20637963 
 2264      6C65323A 
 2264      20257500 
 2265              	.LC49:
 2266 0438 44757479 		.ascii	"Duty cycle3: %u\000"
 2266      20637963 
 2266      6C65333A 
 2266      20257500 
 2267              	.LC50:
 2268 0448 546F703A 		.ascii	"Top: %u\000"
 2268      20257500 
 2269              	.LC51:
 2270 0450 44697231 		.ascii	"Dir1: %u\000"
 2270      3A202575 
 2270      00
 2271 0459 000000   		.space	3
 2272              	.LC52:
 2273 045c 44697238 		.ascii	"Dir8: %u\000"
 2273      3A202575 
 2273      00
 2274 0465 000000   		.space	3
 2275              	.LC53:
 2276 0468 566F6C74 		.ascii	"Voltage sample: %u\000"
 2276      61676520 
 2276      73616D70 
 2276      6C653A20 
 2276      257500
 2277 047b 00       		.space	1
 2278              	.LC54:
 2279 047c 43757272 		.ascii	"Current 1 sample: %u\000"
 2279      656E7420 
 2279      31207361 
 2279      6D706C65 
 2279      3A202575 
 2280 0491 000000   		.space	3
 2281              	.LC55:
ARM GAS  /tmp/ccH66ojY.s 			page 44


 2282 0494 43757272 		.ascii	"Current 2 sample: %u\012\000"
 2282      656E7420 
 2282      32207361 
 2282      6D706C65 
 2282      3A202575 
 2283 04aa 0000     		.space	2
 2284              	.LC56:
 2285 04ac 766F6C74 		.ascii	"volt\000"
 2285      00
 2286 04b1 000000   		.space	3
 2287              	.LC57:
 2288 04b4 496E7075 		.ascii	"Input voltage: %.2f\012\000"
 2288      7420766F 
 2288      6C746167 
 2288      653A2025 
 2288      2E32660A 
 2289 04c9 000000   		.space	3
 2290              	.LC58:
 2291 04cc 70617261 		.ascii	"param_detect\000"
 2291      6D5F6465 
 2291      74656374 
 2291      00
 2292 04d9 000000   		.space	3
 2293              	.LC59:
 2294 04dc 256600   		.ascii	"%f\000"
 2295 04df 00       		.space	1
 2296              	.LC60:
 2297 04e0 4379636C 		.ascii	"Cycle integrator limit: %.2f\000"
 2297      6520696E 
 2297      74656772 
 2297      61746F72 
 2297      206C696D 
 2298 04fd 000000   		.space	3
 2299              	.LC61:
 2300 0500 436F7570 		.ascii	"Coupling factor: %.2f\000"
 2300      6C696E67 
 2300      20666163 
 2300      746F723A 
 2300      20252E32 
 2301 0516 0000     		.space	2
 2302              	.LC62:
 2303 0518 44657465 		.ascii	"Detected hall sensor table:\000"
 2303      63746564 
 2303      2068616C 
 2303      6C207365 
 2303      6E736F72 
 2304              	.LC63:
 2305 0534 25692C20 		.ascii	"%i, %i, %i, %i, %i, %i, %i, %i\012\000"
 2305      25692C20 
 2305      25692C20 
 2305      25692C20 
 2305      25692C20 
 2306              	.LC64:
 2307 0554 48616C6C 		.ascii	"Hall sensor detection failed:\000"
 2307      2073656E 
 2307      736F7220 
 2307      64657465 
ARM GAS  /tmp/ccH66ojY.s 			page 45


 2307      6374696F 
 2308 0572 0000     		.space	2
 2309              	.LC65:
 2310 0574 57533238 		.ascii	"WS2811 enabled. Hall sensors cannot be used.\012\000"
 2310      31312065 
 2310      6E61626C 
 2310      65642E20 
 2310      48616C6C 
 2311 05a2 0000     		.space	2
 2312              	.LC66:
 2313 05a4 456E636F 		.ascii	"Encoder enabled. Hall sensors cannot be used.\012\000"
 2313      64657220 
 2313      656E6162 
 2313      6C65642E 
 2313      2048616C 
 2314 05d3 00       		.space	1
 2315              	.LC67:
 2316 05d4 44657465 		.ascii	"Detection failed. Try again with different paramete"
 2316      6374696F 
 2316      6E206661 
 2316      696C6564 
 2316      2E205472 
 2317 0607 72732E0A 		.ascii	"rs.\012\000"
 2317      00
 2318              	.LC68:
 2319 060c 496E7661 		.ascii	"Invalid argument(s).\012\000"
 2319      6C696420 
 2319      61726775 
 2319      6D656E74 
 2319      2873292E 
 2320 0622 0000     		.space	2
 2321              	.LC69:
 2322 0624 54686973 		.ascii	"This command requires three arguments.\012\000"
 2322      20636F6D 
 2322      6D616E64 
 2322      20726571 
 2322      75697265 
 2323              	.LC70:
 2324 064c 72706D5F 		.ascii	"rpm_dep\000"
 2324      64657000 
 2325              	.LC71:
 2326 0654 4379636C 		.ascii	"Cycle int limit: %.2f\000"
 2326      6520696E 
 2326      74206C69 
 2326      6D69743A 
 2326      20252E32 
 2327 066a 0000     		.space	2
 2328              	.LC72:
 2329 066c 4379636C 		.ascii	"Cycle int limit running: %.2f\000"
 2329      6520696E 
 2329      74206C69 
 2329      6D697420 
 2329      72756E6E 
 2330 068a 0000     		.space	2
 2331              	.LC73:
 2332 068c 4379636C 		.ascii	"Cycle int limit max: %.2f\012\000"
 2332      6520696E 
ARM GAS  /tmp/ccH66ojY.s 			page 46


 2332      74206C69 
 2332      6D697420 
 2332      6D61783A 
 2333 06a7 00       		.space	1
 2334              	.LC74:
 2335 06a8 63616E5F 		.ascii	"can_devs\000"
 2335      64657673 
 2335      00
 2336 06b1 000000   		.space	3
 2337              	.LC75:
 2338 06b4 43414E20 		.ascii	"CAN devices seen on the bus the past second:\012\000"
 2338      64657669 
 2338      63657320 
 2338      7365656E 
 2338      206F6E20 
 2339 06e2 0000     		.space	2
 2340              	.LC76:
 2341 06e4 49442020 		.ascii	"ID                 : %i\000"
 2341      20202020 
 2341      20202020 
 2341      20202020 
 2341      2020203A 
 2342              	.LC77:
 2343 06fc 52582054 		.ascii	"RX Time            : %i\000"
 2343      696D6520 
 2343      20202020 
 2343      20202020 
 2343      2020203A 
 2344              	.LC78:
 2345 0714 41676520 		.ascii	"Age (milliseconds) : %.2f\000"
 2345      286D696C 
 2345      6C697365 
 2345      636F6E64 
 2345      7329203A 
 2346 072e 0000     		.space	2
 2347              	.LC79:
 2348 0730 52504D20 		.ascii	"RPM                : %.2f\000"
 2348      20202020 
 2348      20202020 
 2348      20202020 
 2348      2020203A 
 2349 074a 0000     		.space	2
 2350              	.LC80:
 2351 074c 43757272 		.ascii	"Current            : %.2f\000"
 2351      656E7420 
 2351      20202020 
 2351      20202020 
 2351      2020203A 
 2352 0766 0000     		.space	2
 2353              	.LC81:
 2354 0768 44757479 		.ascii	"Duty               : %.2f\012\000"
 2354      20202020 
 2354      20202020 
 2354      20202020 
 2354      2020203A 
 2355 0783 00       		.space	1
 2356              	.LC82:
ARM GAS  /tmp/ccH66ojY.s 			page 47


 2357 0784 666F635F 		.ascii	"foc_encoder_detect\000"
 2357      656E636F 
 2357      6465725F 
 2357      64657465 
 2357      637400
 2358 0797 00       		.space	1
 2359              	.LC83:
 2360 0798 456E636F 		.ascii	"Encoder not enabled.\012\000"
 2360      64657220 
 2360      6E6F7420 
 2360      656E6162 
 2360      6C65642E 
 2361 07ae 0000     		.space	2
 2362              	.LC84:
 2363 07b0 54686973 		.ascii	"This command requires one argument.\012\000"
 2363      20636F6D 
 2363      6D616E64 
 2363      20726571 
 2363      75697265 
 2364 07d5 000000   		.space	3
 2365              	.LC85:
 2366 07d8 6D656173 		.ascii	"measure_res\000"
 2366      7572655F 
 2366      72657300 
 2367              	.LC86:
 2368 07e4 52657369 		.ascii	"Resistance: %.6f ohm\012\000"
 2368      7374616E 
 2368      63653A20 
 2368      252E3666 
 2368      206F686D 
 2369 07fa 0000     		.space	2
 2370              	.LC87:
 2371 07fc 6D656173 		.ascii	"measure_ind\000"
 2371      7572655F 
 2371      696E6400 
 2372              	.LC88:
 2373 0808 496E6475 		.ascii	"Inductance: %.2f microhenry\012\000"
 2373      6374616E 
 2373      63653A20 
 2373      252E3266 
 2373      206D6963 
 2374 0825 000000   		.space	3
 2375              	.LC89:
 2376 0828 6D656173 		.ascii	"measure_linkage\000"
 2376      7572655F 
 2376      6C696E6B 
 2376      61676500 
 2377              	.LC90:
 2378 0838 466C7578 		.ascii	"Flux linkage: %.7f\012\000"
 2378      206C696E 
 2378      6B616765 
 2378      3A20252E 
 2378      37660A00 
 2379              	.LC91:
 2380 084c 6D656173 		.ascii	"measure_res_ind\000"
 2380      7572655F 
 2380      7265735F 
ARM GAS  /tmp/ccH66ojY.s 			page 48


 2380      696E6400 
 2381              	.LC92:
 2382 085c 52657369 		.ascii	"Resistance: %.6f ohm\000"
 2382      7374616E 
 2382      63653A20 
 2382      252E3666 
 2382      206F686D 
 2383 0871 000000   		.space	3
 2384              	.LC93:
 2385 0874 6D656173 		.ascii	"measure_linkage_foc\000"
 2385      7572655F 
 2385      6C696E6B 
 2385      6167655F 
 2385      666F6300 
 2386              	.LC94:
 2387 0888 666F635F 		.ascii	"foc_state\000"
 2387      73746174 
 2387      6500
 2388 0892 0000     		.space	2
 2389              	.LC95:
 2390 0894 68656C70 		.ascii	"help\000"
 2390      00
 2391 0899 000000   		.space	3
 2392              	.LC96:
 2393 089c 56616C69 		.ascii	"Valid commands are:\000"
 2393      6420636F 
 2393      6D6D616E 
 2393      64732061 
 2393      72653A00 
 2394              	.LC97:
 2395 08b0 20205368 		.ascii	"  Show this help\000"
 2395      6F772074 
 2395      68697320 
 2395      68656C70 
 2395      00
 2396 08c1 000000   		.space	3
 2397              	.LC98:
 2398 08c4 20205072 		.ascii	"  Print pong here to see if the reply works\000"
 2398      696E7420 
 2398      706F6E67 
 2398      20686572 
 2398      6520746F 
 2399              	.LC99:
 2400 08f0 20205374 		.ascii	"  Stop the motor\000"
 2400      6F702074 
 2400      6865206D 
 2400      6F746F72 
 2400      00
 2401 0901 000000   		.space	3
 2402              	.LC100:
 2403 0904 20205468 		.ascii	"  The time the latest ADC interrupt consumed\000"
 2403      65207469 
 2403      6D652074 
 2403      6865206C 
 2403      61746573 
 2404 0931 000000   		.space	3
 2405              	.LC101:
ARM GAS  /tmp/ccH66ojY.s 			page 49


 2406 0934 20205468 		.ascii	"  The calculated kv of the motor\000"
 2406      65206361 
 2406      6C63756C 
 2406      61746564 
 2406      206B7620 
 2407 0955 000000   		.space	3
 2408              	.LC102:
 2409 0958 20205368 		.ascii	"  Show memory usage\000"
 2409      6F77206D 
 2409      656D6F72 
 2409      79207573 
 2409      61676500 
 2410              	.LC103:
 2411 096c 20204C69 		.ascii	"  List all threads\000"
 2411      73742061 
 2411      6C6C2074 
 2411      68726561 
 2411      647300
 2412 097f 00       		.space	1
 2413              	.LC104:
 2414 0980 20205072 		.ascii	"  Prints the current fault code\000"
 2414      696E7473 
 2414      20746865 
 2414      20637572 
 2414      72656E74 
 2415              	.LC105:
 2416 09a0 20205072 		.ascii	"  Prints all stored fault codes and conditions when"
 2416      696E7473 
 2416      20616C6C 
 2416      2073746F 
 2416      72656420 
 2417 09d3 20746865 		.ascii	" they arrived\000"
 2417      79206172 
 2417      72697665 
 2417      6400
 2418 09e1 000000   		.space	3
 2419              	.LC106:
 2420 09e4 20205072 		.ascii	"  Prints the current electrical RPM\000"
 2420      696E7473 
 2420      20746865 
 2420      20637572 
 2420      72656E74 
 2421              	.LC107:
 2422 0a08 20205072 		.ascii	"  Prints tachometer value\000"
 2422      696E7473 
 2422      20746163 
 2422      686F6D65 
 2422      74657220 
 2423 0a22 0000     		.space	2
 2424              	.LC108:
 2425 0a24 20205072 		.ascii	"  Prints tim1 and tim8 settings\000"
 2425      696E7473 
 2425      2074696D 
 2425      3120616E 
 2425      64207469 
 2426              	.LC109:
 2427 0a44 20205072 		.ascii	"  Prints different voltages\000"
ARM GAS  /tmp/ccH66ojY.s 			page 50


 2427      696E7473 
 2427      20646966 
 2427      66657265 
 2427      6E742076 
 2428              	.LC110:
 2429 0a60 70617261 		.ascii	"param_detect [current] [min_rpm] [low_duty]\000"
 2429      6D5F6465 
 2429      74656374 
 2429      205B6375 
 2429      7272656E 
 2430              	.LC111:
 2431 0a8c 20205370 		.ascii	"  Spin up the motor in COMM_MODE_DELAY and compute "
 2431      696E2075 
 2431      70207468 
 2431      65206D6F 
 2431      746F7220 
 2432 0abf 69747320 		.ascii	"its parameters.\000"
 2432      70617261 
 2432      6D657465 
 2432      72732E00 
 2433 0acf 00       		.space	1
 2434              	.LC112:
 2435 0ad0 20205468 		.ascii	"  This test should be performed without load on the"
 2435      69732074 
 2435      65737420 
 2435      73686F75 
 2435      6C642062 
 2436 0b03 206D6F74 		.ascii	" motor.\000"
 2436      6F722E00 
 2437 0b0b 00       		.space	1
 2438              	.LC113:
 2439 0b0c 20204578 		.ascii	"  Example: param_detect 5.0 600 0.06\000"
 2439      616D706C 
 2439      653A2070 
 2439      6172616D 
 2439      5F646574 
 2440 0b31 000000   		.space	3
 2441              	.LC114:
 2442 0b34 20205072 		.ascii	"  Prints some rpm-dep values\000"
 2442      696E7473 
 2442      20736F6D 
 2442      65207270 
 2442      6D2D6465 
 2443 0b51 000000   		.space	3
 2444              	.LC115:
 2445 0b54 20205072 		.ascii	"  Prints all CAN devices seen on the bus the past s"
 2445      696E7473 
 2445      20616C6C 
 2445      2043414E 
 2445      20646576 
 2446 0b87 65636F6E 		.ascii	"econd\000"
 2446      6400
 2447 0b8d 000000   		.space	3
 2448              	.LC116:
 2449 0b90 666F635F 		.ascii	"foc_encoder_detect [current]\000"
 2449      656E636F 
 2449      6465725F 
ARM GAS  /tmp/ccH66ojY.s 			page 51


 2449      64657465 
 2449      6374205B 
 2450 0bad 000000   		.space	3
 2451              	.LC117:
 2452 0bb0 20205275 		.ascii	"  Run the motor at 1Hz on open loop and compute enc"
 2452      6E207468 
 2452      65206D6F 
 2452      746F7220 
 2452      61742031 
 2453 0be3 6F646572 		.ascii	"oder settings\000"
 2453      20736574 
 2453      74696E67 
 2453      7300
 2454 0bf1 000000   		.space	3
 2455              	.LC118:
 2456 0bf4 6D656173 		.ascii	"measure_res [current]\000"
 2456      7572655F 
 2456      72657320 
 2456      5B637572 
 2456      72656E74 
 2457 0c0a 0000     		.space	2
 2458              	.LC119:
 2459 0c0c 20204C6F 		.ascii	"  Lock the motor with a current and calculate its r"
 2459      636B2074 
 2459      6865206D 
 2459      6F746F72 
 2459      20776974 
 2460 0c3f 65736973 		.ascii	"esistance\000"
 2460      74616E63 
 2460      6500
 2461 0c49 000000   		.space	3
 2462              	.LC120:
 2463 0c4c 6D656173 		.ascii	"measure_ind [duty]\000"
 2463      7572655F 
 2463      696E6420 
 2463      5B647574 
 2463      795D00
 2464 0c5f 00       		.space	1
 2465              	.LC121:
 2466 0c60 20205365 		.ascii	"  Send short voltage pulses, measure the current an"
 2466      6E642073 
 2466      686F7274 
 2466      20766F6C 
 2466      74616765 
 2467 0c93 64206361 		.ascii	"d calculate the motor inductance\000"
 2467      6C63756C 
 2467      61746520 
 2467      74686520 
 2467      6D6F746F 
 2468              	.LC122:
 2469 0cb4 6D656173 		.ascii	"measure_linkage [current] [duty] [min_rpm] [motor_r"
 2469      7572655F 
 2469      6C696E6B 
 2469      61676520 
 2469      5B637572 
 2470 0ce7 65735D00 		.ascii	"es]\000"
 2471 0ceb 00       		.space	1
ARM GAS  /tmp/ccH66ojY.s 			page 52


 2472              	.LC123:
 2473 0cec 20205275 		.ascii	"  Run the motor in BLDC delay mode and measure the "
 2473      6E207468 
 2473      65206D6F 
 2473      746F7220 
 2473      696E2042 
 2474 0d1f 666C7578 		.ascii	"flux linkage\000"
 2474      206C696E 
 2474      6B616765 
 2474      00
 2475              	.LC124:
 2476 0d2c 20206578 		.ascii	"  example measure_linkage 5 0.5 700 0.076\000"
 2476      616D706C 
 2476      65206D65 
 2476      61737572 
 2476      655F6C69 
 2477 0d56 0000     		.space	2
 2478              	.LC125:
 2479 0d58 20207469 		.ascii	"  tip: measure the resistance with measure_res firs"
 2479      703A206D 
 2479      65617375 
 2479      72652074 
 2479      68652072 
 2480 0d8b 7400     		.ascii	"t\000"
 2481 0d8d 000000   		.space	3
 2482              	.LC126:
 2483 0d90 20204D65 		.ascii	"  Measure the motor resistance and inductance with "
 2483      61737572 
 2483      65207468 
 2483      65206D6F 
 2483      746F7220 
 2484 0dc3 616E2069 		.ascii	"an incremental adaptive algorithm.\000"
 2484      6E637265 
 2484      6D656E74 
 2484      616C2061 
 2484      64617074 
 2485 0de6 0000     		.space	2
 2486              	.LC127:
 2487 0de8 6D656173 		.ascii	"measure_linkage_foc [duty]\000"
 2487      7572655F 
 2487      6C696E6B 
 2487      6167655F 
 2487      666F6320 
 2488 0e03 00       		.space	1
 2489              	.LC128:
 2490 0e04 20205275 		.ascii	"  Run the motor with FOC and measure the flux linka"
 2490      6E207468 
 2490      65206D6F 
 2490      746F7220 
 2490      77697468 
 2491 0e37 67652E00 		.ascii	"ge.\000"
 2492 0e3b 00       		.space	1
 2493              	.LC129:
 2494 0e3c 20205072 		.ascii	"  Print some FOC state variables.\012\000"
 2494      696E7420 
 2494      736F6D65 
 2494      20464F43 
ARM GAS  /tmp/ccH66ojY.s 			page 53


 2494      20737461 
 2495 0e5f 00       		.space	1
 2496              	.LC130:
 2497 0e60 496E7661 		.ascii	"Invalid command: %s\012type help to list all availa"
 2497      6C696420 
 2497      636F6D6D 
 2497      616E643A 
 2497      2025730A 
 2498 0e90 626C6520 		.ascii	"ble commands\012\000"
 2498      636F6D6D 
 2498      616E6473 
 2498      0A00
 2499 0e9e 0000     		.space	2
 2500              	.LC131:
 2501 0ea0 52454144 		.ascii	"READY\000"
 2501      5900
 2502 0ea6 0000     		.space	2
 2503              	.LC132:
 2504 0ea8 43555252 		.ascii	"CURRENT\000"
 2504      454E5400 
 2505              	.LC133:
 2506 0eb0 57545354 		.ascii	"WTSTART\000"
 2506      41525400 
 2507              	.LC134:
 2508 0eb8 53555350 		.ascii	"SUSPENDED\000"
 2508      454E4445 
 2508      4400
 2509 0ec2 0000     		.space	2
 2510              	.LC135:
 2511 0ec4 51554555 		.ascii	"QUEUED\000"
 2511      454400
 2512 0ecb 00       		.space	1
 2513              	.LC136:
 2514 0ecc 57545345 		.ascii	"WTSEM\000"
 2514      4D00
 2515 0ed2 0000     		.space	2
 2516              	.LC137:
 2517 0ed4 57544D54 		.ascii	"WTMTX\000"
 2517      5800
 2518 0eda 0000     		.space	2
 2519              	.LC138:
 2520 0edc 5754434F 		.ascii	"WTCOND\000"
 2520      4E4400
 2521 0ee3 00       		.space	1
 2522              	.LC139:
 2523 0ee4 534C4545 		.ascii	"SLEEPING\000"
 2523      50494E47 
 2523      00
 2524 0eed 000000   		.space	3
 2525              	.LC140:
 2526 0ef0 57544558 		.ascii	"WTEXIT\000"
 2526      495400
 2527 0ef7 00       		.space	1
 2528              	.LC141:
 2529 0ef8 57544F52 		.ascii	"WTOREVT\000"
 2529      45565400 
 2530              	.LC142:
ARM GAS  /tmp/ccH66ojY.s 			page 54


 2531 0f00 5754414E 		.ascii	"WTANDEVT\000"
 2531      44455654 
 2531      00
 2532 0f09 000000   		.space	3
 2533              	.LC143:
 2534 0f0c 534E444D 		.ascii	"SNDMSGQ\000"
 2534      53475100 
 2535              	.LC144:
 2536 0f14 534E444D 		.ascii	"SNDMSG\000"
 2536      534700
 2537 0f1b 00       		.space	1
 2538              	.LC145:
 2539 0f1c 57544D53 		.ascii	"WTMSG\000"
 2539      4700
 2540 0f22 0000     		.space	2
 2541              	.LC146:
 2542 0f24 46494E41 		.ascii	"FINAL\000"
 2542      4C00
 2543              		.section	.bss.fault_vec,"aw",%nobits
 2544              		.align	2
 2545              		.set	.LANCHOR4,. + 0
 2546              		.type	fault_vec, %object
 2547              		.size	fault_vec, 1300
 2548              	fault_vec:
 2549 0000 00000000 		.space	1300
 2549      00000000 
 2549      00000000 
 2549      00000000 
 2549      00000000 
 2550              		.text
 2551              	.Letext0:
 2552              		.file 4 "/usr/lib/gcc/arm-none-eabi/4.9.3/include/stddef.h"
 2553              		.file 5 "/usr/arm-none-eabi/include/machine/_default_types.h"
 2554              		.file 6 "/usr/arm-none-eabi/include/sys/_stdint.h"
 2555              		.file 7 "ChibiOS_3.0.2/os/rt/ports/ARMCMx/compilers/GCC/chtypes.h"
 2556              		.file 8 "ChibiOS_3.0.2/os/rt/include/chsystypes.h"
 2557              		.file 9 "ChibiOS_3.0.2/os/rt/include/chschd.h"
 2558              		.file 10 "ChibiOS_3.0.2/os/ext/CMSIS/ST/stm32f407xx.h"
 2559              		.file 11 "ChibiOS_3.0.2/os/rt/ports/ARMCMx/chcore.h"
 2560              		.file 12 "ChibiOS_3.0.2/os/rt/ports/ARMCMx/chcore_v7m.h"
 2561              		.file 13 "ChibiOS_3.0.2/os/rt/include/chtm.h"
 2562              		.file 14 "ChibiOS_3.0.2/os/rt/include/chsem.h"
 2563              		.file 15 "ChibiOS_3.0.2/os/rt/include/chmtx.h"
 2564              		.file 16 "ChibiOS_3.0.2/os/rt/include/chmemcore.h"
 2565              		.file 17 "ChibiOS_3.0.2/os/rt/include/chheap.h"
 2566              		.file 18 "datatypes.h"
 2567              		.file 19 "ChibiOS_3.0.2/os/rt/include/chsys.h"
 2568              		.file 20 "ChibiOS_3.0.2/os/ext/CMSIS/include/core_cm4.h"
 2569              		.file 21 "mc_interface.h"
 2570              		.file 22 "ChibiOS_3.0.2/os/rt/include/chregistry.h"
 2571              		.file 23 "conf_general.h"
 2572              		.file 24 "/usr/arm-none-eabi/include/stdio.h"
 2573              		.file 25 "commands.h"
 2574              		.file 26 "ChibiOS_3.0.2/os/rt/include/chthreads.h"
 2575              		.file 27 "mcpwm_foc.h"
 2576              		.file 28 "timeout.h"
 2577              		.file 29 "mcpwm.h"
ARM GAS  /tmp/ccH66ojY.s 			page 55


 2578              		.file 30 "comm_can.h"
 2579              		.file 31 "/usr/arm-none-eabi/include/string.h"