ARM GAS  /tmp/ccO9BtFP.s 			page 1


   1              		.syntax unified
   2              		.cpu cortex-m4
   3              		.eabi_attribute 27, 1
   4              		.eabi_attribute 28, 1
   5              		.fpu fpv4-sp-d16
   6              		.eabi_attribute 20, 1
   7              		.eabi_attribute 21, 1
   8              		.eabi_attribute 23, 3
   9              		.eabi_attribute 24, 1
  10              		.eabi_attribute 25, 1
  11              		.eabi_attribute 26, 1
  12              		.eabi_attribute 30, 2
  13              		.eabi_attribute 34, 1
  14              		.eabi_attribute 18, 4
  15              		.thumb
  16              		.file	"timeout.c"
  17              		.text
  18              	.Ltext0:
  19              		.cfi_sections	.debug_frame
  20              		.section	.text.timeout_thread,"ax",%progbits
  21              		.align	2
  22              		.p2align 4,,15
  23              		.thumb
  24              		.thumb_func
  25              		.type	timeout_thread, %function
  26              	timeout_thread:
  27              	.LFB225:
  28              		.file 1 "timeout.c"
  29              		.loc 1 68 0
  30              		.cfi_startproc
  31              		@ Volatile: function does not return.
  32              		@ args = 0, pretend = 0, frame = 0
  33              		@ frame_needed = 0, uses_anonymous_args = 0
  34              	.LVL0:
  35 0000 2DE98848 		push	{r3, r7, fp, lr}
  36              		.cfi_def_cfa_offset 16
  37              		.cfi_offset 3, -16
  38              		.cfi_offset 7, -12
  39              		.cfi_offset 11, -8
  40              		.cfi_offset 14, -4
  41              	.LBB47:
  42              	.LBB48:
  43              		.file 2 "ChibiOS_3.0.2/os/rt/include/chregistry.h"
  44              		.loc 2 135 0
  45 0004 174F     		ldr	r7, .L11
  46 0006 184C     		ldr	r4, .L11+4
  47 0008 BB69     		ldr	r3, [r7, #24]
  48 000a 184A     		ldr	r2, .L11+8
  49 000c DFF864A0 		ldr	r10, .L11+16
  50 0010 DFF864B0 		ldr	fp, .L11+20
  51 0014 164D     		ldr	r5, .L11+12
  52              	.LBE48:
  53              	.LBE47:
  54              		.loc 1 74 0
  55 0016 DFF86490 		ldr	r9, .L11+24
  56              	.LBB50:
  57              	.LBB49:
ARM GAS  /tmp/ccO9BtFP.s 			page 2


  58              		.loc 2 135 0
  59 001a 9A61     		str	r2, [r3, #24]
  60              	.LBE49:
  61              	.LBE50:
  62              		.loc 1 74 0
  63 001c A046     		mov	r8, r4
  64              		.loc 1 79 0
  65 001e 0026     		movs	r6, #0
  66              	.LVL1:
  67              	.L4:
  68              		.loc 1 74 0
  69 0020 2268     		ldr	r2, [r4]
  70 0022 42F21073 		movw	r3, #10000
  71 0026 72B1     		cbz	r2, .L2
  72              		.loc 1 74 0 is_stmt 0 discriminator 1
  73 0028 DAF80010 		ldr	r1, [r10]
  74              	.LVL2:
  75              	.LBB51:
  76              	.LBB52:
  77              	.LBB53:
  78              	.LBB54:
  79              		.file 3 "ChibiOS_3.0.2/os/rt/include/chvt.h"
  80              		.loc 3 231 0 is_stmt 1 discriminator 1
  81 002c BA6A     		ldr	r2, [r7, #40]
  82              	.LBE54:
  83              	.LBE53:
  84              	.LBE52:
  85              	.LBE51:
  86              		.loc 1 74 0 discriminator 1
  87 002e D8F80000 		ldr	r0, [r8]
  88 0032 03FB00F3 		mul	r3, r3, r0
  89 0036 03F2E733 		addw	r3, r3, #999
  90              	.LBB56:
  91              	.LBB55:
  92              		.loc 3 267 0 discriminator 1
  93 003a 521A     		subs	r2, r2, r1
  94              	.LBE55:
  95              	.LBE56:
  96              		.loc 1 74 0 discriminator 1
  97 003c A9FB0313 		umull	r1, r3, r9, r3
  98              	.LVL3:
  99 0040 B2EB931F 		cmp	r2, r3, lsr #6
 100 0044 04D8     		bhi	.L10
 101              	.L2:
 102              		.loc 1 79 0
 103 0046 2E70     		strb	r6, [r5]
 104              	.L3:
 105              		.loc 1 82 0
 106 0048 6420     		movs	r0, #100
 107 004a FFF7FEFF 		bl	chThdSleep
 108              	.LVL4:
 109              		.loc 1 83 0
 110 004e E7E7     		b	.L4
 111              	.L10:
 112              		.loc 1 75 0
 113 0050 FFF7FEFF 		bl	mc_interface_unlock
 114              	.LVL5:
ARM GAS  /tmp/ccO9BtFP.s 			page 3


 115              		.loc 1 76 0
 116 0054 9BED000A 		flds	s0, [fp]
 117 0058 FFF7FEFF 		bl	mc_interface_set_brake_current
 118              	.LVL6:
 119              		.loc 1 77 0
 120 005c 0123     		movs	r3, #1
 121 005e 2B70     		strb	r3, [r5]
 122 0060 F2E7     		b	.L3
 123              	.L12:
 124 0062 00BF     		.align	2
 125              	.L11:
 126 0064 00000000 		.word	ch
 127 0068 00000000 		.word	.LANCHOR0
 128 006c 00000000 		.word	.LC0
 129 0070 00000000 		.word	.LANCHOR3
 130 0074 00000000 		.word	.LANCHOR1
 131 0078 00000000 		.word	.LANCHOR2
 132 007c D34D6210 		.word	274877907
 133              		.cfi_endproc
 134              	.LFE225:
 135              		.size	timeout_thread, .-timeout_thread
 136              		.section	.text.timeout_init,"ax",%progbits
 137              		.align	2
 138              		.p2align 4,,15
 139              		.global	timeout_init
 140              		.thumb
 141              		.thumb_func
 142              		.type	timeout_init, %function
 143              	timeout_init:
 144              	.LFB219:
 145              		.loc 1 38 0
 146              		.cfi_startproc
 147              		@ args = 0, pretend = 0, frame = 0
 148              		@ frame_needed = 0, uses_anonymous_args = 0
 149 0000 2DE9F041 		push	{r4, r5, r6, r7, r8, lr}
 150              		.cfi_def_cfa_offset 24
 151              		.cfi_offset 4, -24
 152              		.cfi_offset 5, -20
 153              		.cfi_offset 6, -16
 154              		.cfi_offset 7, -12
 155              		.cfi_offset 8, -8
 156              		.cfi_offset 14, -4
 157              		.loc 1 39 0
 158 0004 DFF844C0 		ldr	ip, .L15+16
 159              		.loc 1 40 0
 160 0008 DFF844E0 		ldr	lr, .L15+20
 161              		.loc 1 41 0
 162 000c 0B4E     		ldr	r6, .L15
 163              		.loc 1 42 0
 164 000e 0C4D     		ldr	r5, .L15+4
 165              		.loc 1 44 0
 166 0010 0C4B     		ldr	r3, .L15+8
 167 0012 0D48     		ldr	r0, .L15+12
 168              		.loc 1 38 0
 169 0014 82B0     		sub	sp, sp, #8
 170              		.cfi_def_cfa_offset 32
 171              		.loc 1 40 0
ARM GAS  /tmp/ccO9BtFP.s 			page 4


 172 0016 0024     		movs	r4, #0
 173              		.loc 1 39 0
 174 0018 4FF47A78 		mov	r8, #1000
 175 001c CCF80080 		str	r8, [ip]
 176              		.loc 1 44 0
 177 0020 0094     		str	r4, [sp]
 178              		.loc 1 41 0
 179 0022 0027     		movs	r7, #0
 180              		.loc 1 40 0
 181 0024 CEF80040 		str	r4, [lr]
 182              		.loc 1 44 0
 183 0028 4FF46671 		mov	r1, #920
 184 002c 4022     		movs	r2, #64
 185              		.loc 1 41 0
 186 002e 3760     		str	r7, [r6]	@ float
 187              		.loc 1 42 0
 188 0030 2C70     		strb	r4, [r5]
 189              		.loc 1 44 0
 190 0032 FFF7FEFF 		bl	chThdCreateStatic
 191              	.LVL7:
 192              		.loc 1 45 0
 193 0036 02B0     		add	sp, sp, #8
 194              		.cfi_def_cfa_offset 24
 195              		@ sp needed
 196 0038 BDE8F081 		pop	{r4, r5, r6, r7, r8, pc}
 197              	.L16:
 198              		.align	2
 199              	.L15:
 200 003c 00000000 		.word	.LANCHOR2
 201 0040 00000000 		.word	.LANCHOR3
 202 0044 00000000 		.word	timeout_thread
 203 0048 00000000 		.word	.LANCHOR4
 204 004c 00000000 		.word	.LANCHOR0
 205 0050 00000000 		.word	.LANCHOR1
 206              		.cfi_endproc
 207              	.LFE219:
 208              		.size	timeout_init, .-timeout_init
 209              		.section	.text.timeout_configure,"ax",%progbits
 210              		.align	2
 211              		.p2align 4,,15
 212              		.global	timeout_configure
 213              		.thumb
 214              		.thumb_func
 215              		.type	timeout_configure, %function
 216              	timeout_configure:
 217              	.LFB220:
 218              		.loc 1 47 0
 219              		.cfi_startproc
 220              		@ args = 0, pretend = 0, frame = 0
 221              		@ frame_needed = 0, uses_anonymous_args = 0
 222              		@ link register save eliminated.
 223              	.LVL8:
 224              		.loc 1 48 0
 225 0000 024A     		ldr	r2, .L18
 226              		.loc 1 49 0
 227 0002 034B     		ldr	r3, .L18+4
 228              		.loc 1 48 0
ARM GAS  /tmp/ccO9BtFP.s 			page 5


 229 0004 1060     		str	r0, [r2]
 230              		.loc 1 49 0
 231 0006 83ED000A 		fsts	s0, [r3]
 232 000a 7047     		bx	lr
 233              	.L19:
 234              		.align	2
 235              	.L18:
 236 000c 00000000 		.word	.LANCHOR0
 237 0010 00000000 		.word	.LANCHOR2
 238              		.cfi_endproc
 239              	.LFE220:
 240              		.size	timeout_configure, .-timeout_configure
 241              		.section	.text.timeout_reset,"ax",%progbits
 242              		.align	2
 243              		.p2align 4,,15
 244              		.global	timeout_reset
 245              		.thumb
 246              		.thumb_func
 247              		.type	timeout_reset, %function
 248              	timeout_reset:
 249              	.LFB221:
 250              		.loc 1 52 0
 251              		.cfi_startproc
 252              		@ args = 0, pretend = 0, frame = 0
 253              		@ frame_needed = 0, uses_anonymous_args = 0
 254              		@ link register save eliminated.
 255              	.LVL9:
 256              	.LBB57:
 257              	.LBB58:
 258              	.LBB59:
 259              	.LBB60:
 260              	.LBB61:
 261              	.LBB62:
 262              		.file 4 "ChibiOS_3.0.2/os/ext/CMSIS/include/core_cmFunc.h"
 263              		.loc 4 546 0
 264 0000 2023     		movs	r3, #32
 265              	@ 546 "ChibiOS_3.0.2/os/ext/CMSIS/include/core_cmFunc.h" 1
 266 0002 83F31188 		MSR basepri, r3
 267              	@ 0 "" 2
 268              		.thumb
 269              	.LBE62:
 270              	.LBE61:
 271              	.LBE60:
 272              	.LBE59:
 273              	.LBB63:
 274              	.LBB64:
 275              		.loc 3 231 0
 276 0006 044A     		ldr	r2, .L21
 277              	.LBE64:
 278              	.LBE63:
 279              	.LBB66:
 280              	.LBB67:
 281              	.LBB68:
 282              	.LBB69:
 283              	.LBB70:
 284              		.loc 4 546 0
 285 0008 0023     		movs	r3, #0
ARM GAS  /tmp/ccO9BtFP.s 			page 6


 286              	.LBE70:
 287              	.LBE69:
 288              	.LBE68:
 289              	.LBE67:
 290              	.LBE66:
 291              	.LBB75:
 292              	.LBB65:
 293              		.loc 3 231 0
 294 000a 926A     		ldr	r2, [r2, #40]
 295              	.LVL10:
 296              	.LBE65:
 297              	.LBE75:
 298              	.LBB76:
 299              	.LBB74:
 300              	.LBB73:
 301              	.LBB72:
 302              	.LBB71:
 303              		.loc 4 546 0
 304              	@ 546 "ChibiOS_3.0.2/os/ext/CMSIS/include/core_cmFunc.h" 1
 305 000c 83F31188 		MSR basepri, r3
 306              	@ 0 "" 2
 307              		.thumb
 308              	.LBE71:
 309              	.LBE72:
 310              	.LBE73:
 311              	.LBE74:
 312              	.LBE76:
 313              	.LBE58:
 314              	.LBE57:
 315              		.loc 1 53 0
 316 0010 024B     		ldr	r3, .L21+4
 317 0012 1A60     		str	r2, [r3]
 318 0014 7047     		bx	lr
 319              	.L22:
 320 0016 00BF     		.align	2
 321              	.L21:
 322 0018 00000000 		.word	ch
 323 001c 00000000 		.word	.LANCHOR1
 324              		.cfi_endproc
 325              	.LFE221:
 326              		.size	timeout_reset, .-timeout_reset
 327              		.section	.text.timeout_has_timeout,"ax",%progbits
 328              		.align	2
 329              		.p2align 4,,15
 330              		.global	timeout_has_timeout
 331              		.thumb
 332              		.thumb_func
 333              		.type	timeout_has_timeout, %function
 334              	timeout_has_timeout:
 335              	.LFB222:
 336              		.loc 1 56 0
 337              		.cfi_startproc
 338              		@ args = 0, pretend = 0, frame = 0
 339              		@ frame_needed = 0, uses_anonymous_args = 0
 340              		@ link register save eliminated.
 341              		.loc 1 57 0
 342 0000 014B     		ldr	r3, .L24
ARM GAS  /tmp/ccO9BtFP.s 			page 7


 343 0002 1878     		ldrb	r0, [r3]	@ zero_extendqisi2
 344              		.loc 1 58 0
 345 0004 7047     		bx	lr
 346              	.L25:
 347 0006 00BF     		.align	2
 348              	.L24:
 349 0008 00000000 		.word	.LANCHOR3
 350              		.cfi_endproc
 351              	.LFE222:
 352              		.size	timeout_has_timeout, .-timeout_has_timeout
 353              		.section	.text.timeout_get_timeout_msec,"ax",%progbits
 354              		.align	2
 355              		.p2align 4,,15
 356              		.global	timeout_get_timeout_msec
 357              		.thumb
 358              		.thumb_func
 359              		.type	timeout_get_timeout_msec, %function
 360              	timeout_get_timeout_msec:
 361              	.LFB223:
 362              		.loc 1 60 0
 363              		.cfi_startproc
 364              		@ args = 0, pretend = 0, frame = 0
 365              		@ frame_needed = 0, uses_anonymous_args = 0
 366              		@ link register save eliminated.
 367              		.loc 1 61 0
 368 0000 014B     		ldr	r3, .L27
 369 0002 1868     		ldr	r0, [r3]
 370              		.loc 1 62 0
 371 0004 7047     		bx	lr
 372              	.L28:
 373 0006 00BF     		.align	2
 374              	.L27:
 375 0008 00000000 		.word	.LANCHOR0
 376              		.cfi_endproc
 377              	.LFE223:
 378              		.size	timeout_get_timeout_msec, .-timeout_get_timeout_msec
 379              		.section	.text.timeout_get_brake_current,"ax",%progbits
 380              		.align	2
 381              		.p2align 4,,15
 382              		.global	timeout_get_brake_current
 383              		.thumb
 384              		.thumb_func
 385              		.type	timeout_get_brake_current, %function
 386              	timeout_get_brake_current:
 387              	.LFB224:
 388              		.loc 1 64 0
 389              		.cfi_startproc
 390              		@ args = 0, pretend = 0, frame = 0
 391              		@ frame_needed = 0, uses_anonymous_args = 0
 392              		@ link register save eliminated.
 393              		.loc 1 65 0
 394 0000 014B     		ldr	r3, .L30
 395 0002 93ED000A 		flds	s0, [r3]
 396              		.loc 1 66 0
 397 0006 7047     		bx	lr
 398              	.L31:
 399              		.align	2
ARM GAS  /tmp/ccO9BtFP.s 			page 8


 400              	.L30:
 401 0008 00000000 		.word	.LANCHOR2
 402              		.cfi_endproc
 403              	.LFE224:
 404              		.size	timeout_get_brake_current, .-timeout_get_brake_current
 405              		.section	.bss.timeout_thread_wa,"aw",%nobits
 406              		.align	3
 407              		.set	.LANCHOR4,. + 0
 408              		.type	timeout_thread_wa, %object
 409              		.size	timeout_thread_wa, 920
 410              	timeout_thread_wa:
 411 0000 00000000 		.space	920
 411      00000000 
 411      00000000 
 411      00000000 
 411      00000000 
 412              		.section	.bss.last_update_time,"aw",%nobits
 413              		.align	2
 414              		.set	.LANCHOR1,. + 0
 415              		.type	last_update_time, %object
 416              		.size	last_update_time, 4
 417              	last_update_time:
 418 0000 00000000 		.space	4
 419              		.section	.rodata.str1.4,"aMS",%progbits,1
 420              		.align	2
 421              	.LC0:
 422 0000 54696D65 		.ascii	"Timeout\000"
 422      6F757400 
 423              		.section	.bss.timeout_brake_current,"aw",%nobits
 424              		.align	2
 425              		.set	.LANCHOR2,. + 0
 426              		.type	timeout_brake_current, %object
 427              		.size	timeout_brake_current, 4
 428              	timeout_brake_current:
 429 0000 00000000 		.space	4
 430              		.section	.bss.has_timeout,"aw",%nobits
 431              		.set	.LANCHOR3,. + 0
 432              		.type	has_timeout, %object
 433              		.size	has_timeout, 1
 434              	has_timeout:
 435 0000 00       		.space	1
 436              		.section	.bss.timeout_msec,"aw",%nobits
 437              		.align	2
 438              		.set	.LANCHOR0,. + 0
 439              		.type	timeout_msec, %object
 440              		.size	timeout_msec, 4
 441              	timeout_msec:
 442 0000 00000000 		.space	4
 443              		.text
 444              	.Letext0:
 445              		.file 5 "/usr/lib/gcc/arm-none-eabi/4.9.3/include/stddef.h"
 446              		.file 6 "/usr/arm-none-eabi/include/machine/_default_types.h"
 447              		.file 7 "/usr/arm-none-eabi/include/sys/_stdint.h"
 448              		.file 8 "ChibiOS_3.0.2/os/rt/ports/ARMCMx/compilers/GCC/chtypes.h"
 449              		.file 9 "ChibiOS_3.0.2/os/rt/include/chsystypes.h"
 450              		.file 10 "ChibiOS_3.0.2/os/rt/include/chschd.h"
 451              		.file 11 "ChibiOS_3.0.2/os/rt/ports/ARMCMx/chcore.h"
ARM GAS  /tmp/ccO9BtFP.s 			page 9


 452              		.file 12 "ChibiOS_3.0.2/os/rt/ports/ARMCMx/chcore_v7m.h"
 453              		.file 13 "ChibiOS_3.0.2/os/rt/include/chtm.h"
 454              		.file 14 "ChibiOS_3.0.2/os/rt/include/chsem.h"
 455              		.file 15 "ChibiOS_3.0.2/os/rt/include/chmtx.h"
 456              		.file 16 "ChibiOS_3.0.2/os/rt/include/chthreads.h"
 457              		.file 17 "ChibiOS_3.0.2/os/rt/include/chsys.h"
 458              		.file 18 "mc_interface.h"
 459              		.file 19 "ChibiOS_3.0.2/os/ext/CMSIS/include/core_cm4.h"