ARM GAS  /tmp/ccQnQITK.s 			page 1


   1              		.syntax unified
   2              		.cpu cortex-m4
   3              		.eabi_attribute 27, 1
   4              		.eabi_attribute 28, 1
   5              		.fpu fpv4-sp-d16
   6              		.eabi_attribute 20, 1
   7              		.eabi_attribute 21, 1
   8              		.eabi_attribute 23, 3
   9              		.eabi_attribute 24, 1
  10              		.eabi_attribute 25, 1
  11              		.eabi_attribute 26, 1
  12              		.eabi_attribute 30, 2
  13              		.eabi_attribute 34, 1
  14              		.eabi_attribute 18, 4
  15              		.thumb
  16              		.file	"uart.c"
  17              		.text
  18              	.Ltext0:
  19              		.cfi_sections	.debug_frame
  20              		.section	.text.uartInit,"ax",%progbits
  21              		.align	2
  22              		.p2align 4,,15
  23              		.global	uartInit
  24              		.thumb
  25              		.thumb_func
  26              		.type	uartInit, %function
  27              	uartInit:
  28              	.LFB256:
  29              		.file 1 "ChibiOS_3.0.2/os/hal/src/uart.c"
  30              		.loc 1 56 0
  31              		.cfi_startproc
  32              		@ args = 0, pretend = 0, frame = 0
  33              		@ frame_needed = 0, uses_anonymous_args = 0
  34              		@ link register save eliminated.
  35              		.loc 1 58 0
  36 0000 FFF7FEBF 		b	uart_lld_init
  37              	.LVL0:
  38              		.cfi_endproc
  39              	.LFE256:
  40              		.size	uartInit, .-uartInit
  41              		.section	.text.uartObjectInit,"ax",%progbits
  42              		.align	2
  43              		.p2align 4,,15
  44              		.global	uartObjectInit
  45              		.thumb
  46              		.thumb_func
  47              		.type	uartObjectInit, %function
  48              	uartObjectInit:
  49              	.LFB257:
  50              		.loc 1 68 0
  51              		.cfi_startproc
  52              		@ args = 0, pretend = 0, frame = 0
  53              		@ frame_needed = 0, uses_anonymous_args = 0
  54              		@ link register save eliminated.
  55              	.LVL1:
  56              		.loc 1 71 0
  57 0000 0023     		movs	r3, #0
ARM GAS  /tmp/ccQnQITK.s 			page 2


  58              		.loc 1 70 0
  59 0002 0122     		movs	r2, #1
  60 0004 0270     		strb	r2, [r0]
  61              		.loc 1 71 0
  62 0006 4370     		strb	r3, [r0, #1]
  63              		.loc 1 72 0
  64 0008 8370     		strb	r3, [r0, #2]
  65              		.loc 1 73 0
  66 000a 4360     		str	r3, [r0, #4]
  67 000c 7047     		bx	lr
  68              		.cfi_endproc
  69              	.LFE257:
  70              		.size	uartObjectInit, .-uartObjectInit
  71 000e 00BF     		.section	.text.uartStart,"ax",%progbits
  72              		.align	2
  73              		.p2align 4,,15
  74              		.global	uartStart
  75              		.thumb
  76              		.thumb_func
  77              		.type	uartStart, %function
  78              	uartStart:
  79              	.LFB258:
  80              		.loc 1 88 0
  81              		.cfi_startproc
  82              		@ args = 0, pretend = 0, frame = 0
  83              		@ frame_needed = 0, uses_anonymous_args = 0
  84              	.LVL2:
  85 0000 10B5     		push	{r4, lr}
  86              		.cfi_def_cfa_offset 8
  87              		.cfi_offset 4, -8
  88              		.cfi_offset 14, -4
  89              	.LBB102:
  90              	.LBB103:
  91              	.LBB104:
  92              	.LBB105:
  93              	.LBB106:
  94              		.file 2 "ChibiOS_3.0.2/os/ext/CMSIS/include/core_cmFunc.h"
  95              		.loc 2 546 0
  96 0002 2023     		movs	r3, #32
  97              	.LBE106:
  98              	.LBE105:
  99              	.LBE104:
 100              	.LBE103:
 101              	.LBE102:
 102              		.loc 1 88 0
 103 0004 0446     		mov	r4, r0
 104              	.LBB111:
 105              	.LBB110:
 106              	.LBB109:
 107              	.LBB108:
 108              	.LBB107:
 109              		.loc 2 546 0
 110              	@ 546 "ChibiOS_3.0.2/os/ext/CMSIS/include/core_cmFunc.h" 1
 111 0006 83F31188 		MSR basepri, r3
 112              	@ 0 "" 2
 113              		.thumb
 114              	.LBE107:
ARM GAS  /tmp/ccQnQITK.s 			page 3


 115              	.LBE108:
 116              	.LBE109:
 117              	.LBE110:
 118              	.LBE111:
 119              		.loc 1 96 0
 120 000a 4160     		str	r1, [r0, #4]
 121              		.loc 1 97 0
 122 000c FFF7FEFF 		bl	uart_lld_start
 123              	.LVL3:
 124              		.loc 1 98 0
 125 0010 0223     		movs	r3, #2
 126 0012 2370     		strb	r3, [r4]
 127              	.LVL4:
 128              	.LBB112:
 129              	.LBB113:
 130              	.LBB114:
 131              	.LBB115:
 132              	.LBB116:
 133              	.LBB117:
 134              		.loc 2 546 0
 135 0014 0023     		movs	r3, #0
 136              	@ 546 "ChibiOS_3.0.2/os/ext/CMSIS/include/core_cmFunc.h" 1
 137 0016 83F31188 		MSR basepri, r3
 138              	@ 0 "" 2
 139              		.thumb
 140 001a 10BD     		pop	{r4, pc}
 141              	.LBE117:
 142              	.LBE116:
 143              	.LBE115:
 144              	.LBE114:
 145              	.LBE113:
 146              	.LBE112:
 147              		.cfi_endproc
 148              	.LFE258:
 149              		.size	uartStart, .-uartStart
 150              		.section	.text.uartStop,"ax",%progbits
 151              		.align	2
 152              		.p2align 4,,15
 153              		.global	uartStop
 154              		.thumb
 155              		.thumb_func
 156              		.type	uartStop, %function
 157              	uartStop:
 158              	.LFB259:
 159              		.loc 1 109 0
 160              		.cfi_startproc
 161              		@ args = 0, pretend = 0, frame = 0
 162              		@ frame_needed = 0, uses_anonymous_args = 0
 163              	.LVL5:
 164 0000 10B5     		push	{r4, lr}
 165              		.cfi_def_cfa_offset 8
 166              		.cfi_offset 4, -8
 167              		.cfi_offset 14, -4
 168              	.LBB118:
 169              	.LBB119:
 170              	.LBB120:
 171              	.LBB121:
ARM GAS  /tmp/ccQnQITK.s 			page 4


 172              	.LBB122:
 173              		.loc 2 546 0
 174 0002 2023     		movs	r3, #32
 175              	.LBE122:
 176              	.LBE121:
 177              	.LBE120:
 178              	.LBE119:
 179              	.LBE118:
 180              		.loc 1 109 0
 181 0004 0446     		mov	r4, r0
 182              	.LBB127:
 183              	.LBB126:
 184              	.LBB125:
 185              	.LBB124:
 186              	.LBB123:
 187              		.loc 2 546 0
 188              	@ 546 "ChibiOS_3.0.2/os/ext/CMSIS/include/core_cmFunc.h" 1
 189 0006 83F31188 		MSR basepri, r3
 190              	@ 0 "" 2
 191              		.thumb
 192              	.LBE123:
 193              	.LBE124:
 194              	.LBE125:
 195              	.LBE126:
 196              	.LBE127:
 197              		.loc 1 117 0
 198 000a FFF7FEFF 		bl	uart_lld_stop
 199              	.LVL6:
 200              		.loc 1 119 0
 201 000e 0023     		movs	r3, #0
 202              		.loc 1 118 0
 203 0010 0122     		movs	r2, #1
 204 0012 2270     		strb	r2, [r4]
 205              		.loc 1 119 0
 206 0014 6370     		strb	r3, [r4, #1]
 207              		.loc 1 120 0
 208 0016 A370     		strb	r3, [r4, #2]
 209              	.LVL7:
 210              	.LBB128:
 211              	.LBB129:
 212              	.LBB130:
 213              	.LBB131:
 214              	.LBB132:
 215              	.LBB133:
 216              		.loc 2 546 0
 217              	@ 546 "ChibiOS_3.0.2/os/ext/CMSIS/include/core_cmFunc.h" 1
 218 0018 83F31188 		MSR basepri, r3
 219              	@ 0 "" 2
 220              		.thumb
 221 001c 10BD     		pop	{r4, pc}
 222              	.LBE133:
 223              	.LBE132:
 224              	.LBE131:
 225              	.LBE130:
 226              	.LBE129:
 227              	.LBE128:
 228              		.cfi_endproc
ARM GAS  /tmp/ccQnQITK.s 			page 5


 229              	.LFE259:
 230              		.size	uartStop, .-uartStop
 231 001e 00BF     		.section	.text.uartStartSend,"ax",%progbits
 232              		.align	2
 233              		.p2align 4,,15
 234              		.global	uartStartSend
 235              		.thumb
 236              		.thumb_func
 237              		.type	uartStartSend, %function
 238              	uartStartSend:
 239              	.LFB260:
 240              		.loc 1 135 0
 241              		.cfi_startproc
 242              		@ args = 0, pretend = 0, frame = 0
 243              		@ frame_needed = 0, uses_anonymous_args = 0
 244              	.LVL8:
 245 0000 10B5     		push	{r4, lr}
 246              		.cfi_def_cfa_offset 8
 247              		.cfi_offset 4, -8
 248              		.cfi_offset 14, -4
 249              	.LBB134:
 250              	.LBB135:
 251              	.LBB136:
 252              	.LBB137:
 253              	.LBB138:
 254              		.loc 2 546 0
 255 0002 2023     		movs	r3, #32
 256              	.LBE138:
 257              	.LBE137:
 258              	.LBE136:
 259              	.LBE135:
 260              	.LBE134:
 261              		.loc 1 135 0
 262 0004 0446     		mov	r4, r0
 263              	.LBB143:
 264              	.LBB142:
 265              	.LBB141:
 266              	.LBB140:
 267              	.LBB139:
 268              		.loc 2 546 0
 269              	@ 546 "ChibiOS_3.0.2/os/ext/CMSIS/include/core_cmFunc.h" 1
 270 0006 83F31188 		MSR basepri, r3
 271              	@ 0 "" 2
 272              		.thumb
 273              	.LBE139:
 274              	.LBE140:
 275              	.LBE141:
 276              	.LBE142:
 277              	.LBE143:
 278              		.loc 1 143 0
 279 000a FFF7FEFF 		bl	uart_lld_start_send
 280              	.LVL9:
 281              		.loc 1 144 0
 282 000e 0123     		movs	r3, #1
 283 0010 6370     		strb	r3, [r4, #1]
 284              	.LVL10:
 285              	.LBB144:
ARM GAS  /tmp/ccQnQITK.s 			page 6


 286              	.LBB145:
 287              	.LBB146:
 288              	.LBB147:
 289              	.LBB148:
 290              	.LBB149:
 291              		.loc 2 546 0
 292 0012 0023     		movs	r3, #0
 293              	@ 546 "ChibiOS_3.0.2/os/ext/CMSIS/include/core_cmFunc.h" 1
 294 0014 83F31188 		MSR basepri, r3
 295              	@ 0 "" 2
 296              		.thumb
 297 0018 10BD     		pop	{r4, pc}
 298              	.LBE149:
 299              	.LBE148:
 300              	.LBE147:
 301              	.LBE146:
 302              	.LBE145:
 303              	.LBE144:
 304              		.cfi_endproc
 305              	.LFE260:
 306              		.size	uartStartSend, .-uartStartSend
 307 001a 00BF     		.section	.text.uartStartSendI,"ax",%progbits
 308              		.align	2
 309              		.p2align 4,,15
 310              		.global	uartStartSendI
 311              		.thumb
 312              		.thumb_func
 313              		.type	uartStartSendI, %function
 314              	uartStartSendI:
 315              	.LFB261:
 316              		.loc 1 160 0
 317              		.cfi_startproc
 318              		@ args = 0, pretend = 0, frame = 0
 319              		@ frame_needed = 0, uses_anonymous_args = 0
 320              	.LVL11:
 321 0000 10B5     		push	{r4, lr}
 322              		.cfi_def_cfa_offset 8
 323              		.cfi_offset 4, -8
 324              		.cfi_offset 14, -4
 325              		.loc 1 160 0
 326 0002 0446     		mov	r4, r0
 327              		.loc 1 167 0
 328 0004 FFF7FEFF 		bl	uart_lld_start_send
 329              	.LVL12:
 330              		.loc 1 168 0
 331 0008 0123     		movs	r3, #1
 332 000a 6370     		strb	r3, [r4, #1]
 333 000c 10BD     		pop	{r4, pc}
 334              		.cfi_endproc
 335              	.LFE261:
 336              		.size	uartStartSendI, .-uartStartSendI
 337 000e 00BF     		.section	.text.uartStopSend,"ax",%progbits
 338              		.align	2
 339              		.p2align 4,,15
 340              		.global	uartStopSend
 341              		.thumb
 342              		.thumb_func
ARM GAS  /tmp/ccQnQITK.s 			page 7


 343              		.type	uartStopSend, %function
 344              	uartStopSend:
 345              	.LFB262:
 346              		.loc 1 183 0
 347              		.cfi_startproc
 348              		@ args = 0, pretend = 0, frame = 0
 349              		@ frame_needed = 0, uses_anonymous_args = 0
 350              	.LVL13:
 351              	.LBB150:
 352              	.LBB151:
 353              	.LBB152:
 354              	.LBB153:
 355              	.LBB154:
 356              		.loc 2 546 0
 357 0000 2022     		movs	r2, #32
 358              	@ 546 "ChibiOS_3.0.2/os/ext/CMSIS/include/core_cmFunc.h" 1
 359 0002 82F31188 		MSR basepri, r2
 360              	@ 0 "" 2
 361              		.thumb
 362              	.LBE154:
 363              	.LBE153:
 364              	.LBE152:
 365              	.LBE151:
 366              	.LBE150:
 367              		.loc 1 191 0
 368 0006 4278     		ldrb	r2, [r0, #1]	@ zero_extendqisi2
 369 0008 012A     		cmp	r2, #1
 370 000a 04D0     		beq	.L17
 371              		.loc 1 196 0
 372 000c 0020     		movs	r0, #0
 373              	.LVL14:
 374              	.LBB155:
 375              	.LBB156:
 376              	.LBB157:
 377              	.LBB158:
 378              	.LBB159:
 379              	.LBB160:
 380              		.loc 2 546 0
 381 000e 0023     		movs	r3, #0
 382              	@ 546 "ChibiOS_3.0.2/os/ext/CMSIS/include/core_cmFunc.h" 1
 383 0010 83F31188 		MSR basepri, r3
 384              	@ 0 "" 2
 385              		.thumb
 386              	.LBE160:
 387              	.LBE159:
 388              	.LBE158:
 389              	.LBE157:
 390              	.LBE156:
 391              	.LBE155:
 392              		.loc 1 201 0
 393 0014 7047     		bx	lr
 394              	.LVL15:
 395              	.L17:
 396              		.loc 1 183 0
 397 0016 10B5     		push	{r4, lr}
 398              		.cfi_def_cfa_offset 8
 399              		.cfi_offset 4, -8
ARM GAS  /tmp/ccQnQITK.s 			page 8


 400              		.cfi_offset 14, -4
 401 0018 0446     		mov	r4, r0
 402              		.loc 1 192 0
 403 001a FFF7FEFF 		bl	uart_lld_stop_send
 404              	.LVL16:
 405              		.loc 1 193 0
 406 001e 0023     		movs	r3, #0
 407 0020 6370     		strb	r3, [r4, #1]
 408              	.LVL17:
 409              	.LBB166:
 410              	.LBB165:
 411              	.LBB164:
 412              	.LBB163:
 413              	.LBB162:
 414              	.LBB161:
 415              		.loc 2 546 0
 416 0022 0023     		movs	r3, #0
 417              	@ 546 "ChibiOS_3.0.2/os/ext/CMSIS/include/core_cmFunc.h" 1
 418 0024 83F31188 		MSR basepri, r3
 419              	@ 0 "" 2
 420              		.thumb
 421              	.LBE161:
 422              	.LBE162:
 423              	.LBE163:
 424              	.LBE164:
 425              	.LBE165:
 426              	.LBE166:
 427              		.loc 1 201 0
 428 0028 10BD     		pop	{r4, pc}
 429              		.cfi_endproc
 430              	.LFE262:
 431              		.size	uartStopSend, .-uartStopSend
 432 002a 00BF     		.section	.text.uartStopSendI,"ax",%progbits
 433              		.align	2
 434              		.p2align 4,,15
 435              		.global	uartStopSendI
 436              		.thumb
 437              		.thumb_func
 438              		.type	uartStopSendI, %function
 439              	uartStopSendI:
 440              	.LFB263:
 441              		.loc 1 216 0
 442              		.cfi_startproc
 443              		@ args = 0, pretend = 0, frame = 0
 444              		@ frame_needed = 0, uses_anonymous_args = 0
 445              	.LVL18:
 446              		.loc 1 222 0
 447 0000 4278     		ldrb	r2, [r0, #1]	@ zero_extendqisi2
 448 0002 012A     		cmp	r2, #1
 449 0004 01D0     		beq	.L23
 450              		.loc 1 227 0
 451 0006 0020     		movs	r0, #0
 452              	.LVL19:
 453 0008 7047     		bx	lr
 454              	.LVL20:
 455              	.L23:
 456              		.loc 1 216 0
ARM GAS  /tmp/ccQnQITK.s 			page 9


 457 000a 10B5     		push	{r4, lr}
 458              		.cfi_def_cfa_offset 8
 459              		.cfi_offset 4, -8
 460              		.cfi_offset 14, -4
 461 000c 0446     		mov	r4, r0
 462              	.LBB167:
 463              		.loc 1 223 0
 464 000e FFF7FEFF 		bl	uart_lld_stop_send
 465              	.LVL21:
 466              		.loc 1 224 0
 467 0012 0023     		movs	r3, #0
 468 0014 6370     		strb	r3, [r4, #1]
 469              		.loc 1 225 0
 470 0016 10BD     		pop	{r4, pc}
 471              	.LBE167:
 472              		.cfi_endproc
 473              	.LFE263:
 474              		.size	uartStopSendI, .-uartStopSendI
 475              		.section	.text.uartStartReceive,"ax",%progbits
 476              		.align	2
 477              		.p2align 4,,15
 478              		.global	uartStartReceive
 479              		.thumb
 480              		.thumb_func
 481              		.type	uartStartReceive, %function
 482              	uartStartReceive:
 483              	.LFB264:
 484              		.loc 1 241 0
 485              		.cfi_startproc
 486              		@ args = 0, pretend = 0, frame = 0
 487              		@ frame_needed = 0, uses_anonymous_args = 0
 488              	.LVL22:
 489 0000 10B5     		push	{r4, lr}
 490              		.cfi_def_cfa_offset 8
 491              		.cfi_offset 4, -8
 492              		.cfi_offset 14, -4
 493              	.LBB168:
 494              	.LBB169:
 495              	.LBB170:
 496              	.LBB171:
 497              	.LBB172:
 498              		.loc 2 546 0
 499 0002 2023     		movs	r3, #32
 500              	.LBE172:
 501              	.LBE171:
 502              	.LBE170:
 503              	.LBE169:
 504              	.LBE168:
 505              		.loc 1 241 0
 506 0004 0446     		mov	r4, r0
 507              	.LBB177:
 508              	.LBB176:
 509              	.LBB175:
 510              	.LBB174:
 511              	.LBB173:
 512              		.loc 2 546 0
 513              	@ 546 "ChibiOS_3.0.2/os/ext/CMSIS/include/core_cmFunc.h" 1
ARM GAS  /tmp/ccQnQITK.s 			page 10


 514 0006 83F31188 		MSR basepri, r3
 515              	@ 0 "" 2
 516              		.thumb
 517              	.LBE173:
 518              	.LBE174:
 519              	.LBE175:
 520              	.LBE176:
 521              	.LBE177:
 522              		.loc 1 249 0
 523 000a FFF7FEFF 		bl	uart_lld_start_receive
 524              	.LVL23:
 525              		.loc 1 250 0
 526 000e 0123     		movs	r3, #1
 527 0010 A370     		strb	r3, [r4, #2]
 528              	.LVL24:
 529              	.LBB178:
 530              	.LBB179:
 531              	.LBB180:
 532              	.LBB181:
 533              	.LBB182:
 534              	.LBB183:
 535              		.loc 2 546 0
 536 0012 0023     		movs	r3, #0
 537              	@ 546 "ChibiOS_3.0.2/os/ext/CMSIS/include/core_cmFunc.h" 1
 538 0014 83F31188 		MSR basepri, r3
 539              	@ 0 "" 2
 540              		.thumb
 541 0018 10BD     		pop	{r4, pc}
 542              	.LBE183:
 543              	.LBE182:
 544              	.LBE181:
 545              	.LBE180:
 546              	.LBE179:
 547              	.LBE178:
 548              		.cfi_endproc
 549              	.LFE264:
 550              		.size	uartStartReceive, .-uartStartReceive
 551 001a 00BF     		.section	.text.uartStartReceiveI,"ax",%progbits
 552              		.align	2
 553              		.p2align 4,,15
 554              		.global	uartStartReceiveI
 555              		.thumb
 556              		.thumb_func
 557              		.type	uartStartReceiveI, %function
 558              	uartStartReceiveI:
 559              	.LFB265:
 560              		.loc 1 266 0
 561              		.cfi_startproc
 562              		@ args = 0, pretend = 0, frame = 0
 563              		@ frame_needed = 0, uses_anonymous_args = 0
 564              	.LVL25:
 565 0000 10B5     		push	{r4, lr}
 566              		.cfi_def_cfa_offset 8
 567              		.cfi_offset 4, -8
 568              		.cfi_offset 14, -4
 569              		.loc 1 266 0
 570 0002 0446     		mov	r4, r0
ARM GAS  /tmp/ccQnQITK.s 			page 11


 571              		.loc 1 273 0
 572 0004 FFF7FEFF 		bl	uart_lld_start_receive
 573              	.LVL26:
 574              		.loc 1 274 0
 575 0008 0123     		movs	r3, #1
 576 000a A370     		strb	r3, [r4, #2]
 577 000c 10BD     		pop	{r4, pc}
 578              		.cfi_endproc
 579              	.LFE265:
 580              		.size	uartStartReceiveI, .-uartStartReceiveI
 581 000e 00BF     		.section	.text.uartStopReceive,"ax",%progbits
 582              		.align	2
 583              		.p2align 4,,15
 584              		.global	uartStopReceive
 585              		.thumb
 586              		.thumb_func
 587              		.type	uartStopReceive, %function
 588              	uartStopReceive:
 589              	.LFB266:
 590              		.loc 1 289 0
 591              		.cfi_startproc
 592              		@ args = 0, pretend = 0, frame = 0
 593              		@ frame_needed = 0, uses_anonymous_args = 0
 594              	.LVL27:
 595              	.LBB184:
 596              	.LBB185:
 597              	.LBB186:
 598              	.LBB187:
 599              	.LBB188:
 600              		.loc 2 546 0
 601 0000 2022     		movs	r2, #32
 602              	@ 546 "ChibiOS_3.0.2/os/ext/CMSIS/include/core_cmFunc.h" 1
 603 0002 82F31188 		MSR basepri, r2
 604              	@ 0 "" 2
 605              		.thumb
 606              	.LBE188:
 607              	.LBE187:
 608              	.LBE186:
 609              	.LBE185:
 610              	.LBE184:
 611              		.loc 1 297 0
 612 0006 8278     		ldrb	r2, [r0, #2]	@ zero_extendqisi2
 613 0008 012A     		cmp	r2, #1
 614 000a 04D0     		beq	.L33
 615              		.loc 1 302 0
 616 000c 0020     		movs	r0, #0
 617              	.LVL28:
 618              	.LBB189:
 619              	.LBB190:
 620              	.LBB191:
 621              	.LBB192:
 622              	.LBB193:
 623              	.LBB194:
 624              		.loc 2 546 0
 625 000e 0023     		movs	r3, #0
 626              	@ 546 "ChibiOS_3.0.2/os/ext/CMSIS/include/core_cmFunc.h" 1
 627 0010 83F31188 		MSR basepri, r3
ARM GAS  /tmp/ccQnQITK.s 			page 12


 628              	@ 0 "" 2
 629              		.thumb
 630              	.LBE194:
 631              	.LBE193:
 632              	.LBE192:
 633              	.LBE191:
 634              	.LBE190:
 635              	.LBE189:
 636              		.loc 1 307 0
 637 0014 7047     		bx	lr
 638              	.LVL29:
 639              	.L33:
 640              		.loc 1 289 0
 641 0016 10B5     		push	{r4, lr}
 642              		.cfi_def_cfa_offset 8
 643              		.cfi_offset 4, -8
 644              		.cfi_offset 14, -4
 645 0018 0446     		mov	r4, r0
 646              		.loc 1 298 0
 647 001a FFF7FEFF 		bl	uart_lld_stop_receive
 648              	.LVL30:
 649              		.loc 1 299 0
 650 001e 0023     		movs	r3, #0
 651 0020 A370     		strb	r3, [r4, #2]
 652              	.LVL31:
 653              	.LBB200:
 654              	.LBB199:
 655              	.LBB198:
 656              	.LBB197:
 657              	.LBB196:
 658              	.LBB195:
 659              		.loc 2 546 0
 660 0022 0023     		movs	r3, #0
 661              	@ 546 "ChibiOS_3.0.2/os/ext/CMSIS/include/core_cmFunc.h" 1
 662 0024 83F31188 		MSR basepri, r3
 663              	@ 0 "" 2
 664              		.thumb
 665              	.LBE195:
 666              	.LBE196:
 667              	.LBE197:
 668              	.LBE198:
 669              	.LBE199:
 670              	.LBE200:
 671              		.loc 1 307 0
 672 0028 10BD     		pop	{r4, pc}
 673              		.cfi_endproc
 674              	.LFE266:
 675              		.size	uartStopReceive, .-uartStopReceive
 676 002a 00BF     		.section	.text.uartStopReceiveI,"ax",%progbits
 677              		.align	2
 678              		.p2align 4,,15
 679              		.global	uartStopReceiveI
 680              		.thumb
 681              		.thumb_func
 682              		.type	uartStopReceiveI, %function
 683              	uartStopReceiveI:
 684              	.LFB267:
ARM GAS  /tmp/ccQnQITK.s 			page 13


 685              		.loc 1 322 0
 686              		.cfi_startproc
 687              		@ args = 0, pretend = 0, frame = 0
 688              		@ frame_needed = 0, uses_anonymous_args = 0
 689              	.LVL32:
 690              		.loc 1 328 0
 691 0000 8278     		ldrb	r2, [r0, #2]	@ zero_extendqisi2
 692 0002 012A     		cmp	r2, #1
 693 0004 01D0     		beq	.L39
 694              		.loc 1 333 0
 695 0006 0020     		movs	r0, #0
 696              	.LVL33:
 697 0008 7047     		bx	lr
 698              	.LVL34:
 699              	.L39:
 700              		.loc 1 322 0
 701 000a 10B5     		push	{r4, lr}
 702              		.cfi_def_cfa_offset 8
 703              		.cfi_offset 4, -8
 704              		.cfi_offset 14, -4
 705 000c 0446     		mov	r4, r0
 706              	.LBB201:
 707              		.loc 1 329 0
 708 000e FFF7FEFF 		bl	uart_lld_stop_receive
 709              	.LVL35:
 710              		.loc 1 330 0
 711 0012 0023     		movs	r3, #0
 712 0014 A370     		strb	r3, [r4, #2]
 713              		.loc 1 331 0
 714 0016 10BD     		pop	{r4, pc}
 715              	.LBE201:
 716              		.cfi_endproc
 717              	.LFE267:
 718              		.size	uartStopReceiveI, .-uartStopReceiveI
 719              		.text
 720              	.Letext0:
 721              		.file 3 "/usr/lib/gcc/arm-none-eabi/4.9.3/include/stddef.h"
 722              		.file 4 "/usr/arm-none-eabi/include/machine/_default_types.h"
 723              		.file 5 "/usr/arm-none-eabi/include/sys/_stdint.h"
 724              		.file 6 "ChibiOS_3.0.2/os/rt/ports/ARMCMx/compilers/GCC/chtypes.h"
 725              		.file 7 "ChibiOS_3.0.2/os/rt/include/chsystypes.h"
 726              		.file 8 "ChibiOS_3.0.2/os/rt/include/chschd.h"
 727              		.file 9 "ChibiOS_3.0.2/os/ext/CMSIS/ST/stm32f407xx.h"
 728              		.file 10 "ChibiOS_3.0.2/os/rt/ports/ARMCMx/chcore.h"
 729              		.file 11 "ChibiOS_3.0.2/os/rt/ports/ARMCMx/chcore_v7m.h"
 730              		.file 12 "ChibiOS_3.0.2/os/rt/include/chtm.h"
 731              		.file 13 "ChibiOS_3.0.2/os/rt/include/chsem.h"
 732              		.file 14 "ChibiOS_3.0.2/os/rt/include/chmtx.h"
 733              		.file 15 "ChibiOS_3.0.2/os/hal/ports/STM32/STM32F4xx/stm32_dma.h"
 734              		.file 16 "ChibiOS_3.0.2/os/hal/include/uart.h"
 735              		.file 17 "ChibiOS_3.0.2/os/hal/ports/STM32/LLD/USARTv1/uart_lld.h"
 736              		.file 18 "ChibiOS_3.0.2/os/rt/include/chsys.h"
 737              		.file 19 "ChibiOS_3.0.2/os/hal/osal/rt/osal.h"
 738              		.file 20 "ChibiOS_3.0.2/os/ext/CMSIS/include/core_cm4.h"