ARM GAS  /tmp/ccF97juf.s 			page 1


   1              		.syntax unified
   2              		.cpu cortex-m4
   3              		.eabi_attribute 27, 1
   4              		.eabi_attribute 28, 1
   5              		.fpu fpv4-sp-d16
   6              		.eabi_attribute 20, 1
   7              		.eabi_attribute 21, 1
   8              		.eabi_attribute 23, 3
   9              		.eabi_attribute 24, 1
  10              		.eabi_attribute 25, 1
  11              		.eabi_attribute 26, 1
  12              		.eabi_attribute 30, 2
  13              		.eabi_attribute 34, 1
  14              		.eabi_attribute 18, 4
  15              		.thumb
  16              		.file	"uart_lld.c"
  17              		.text
  18              	.Ltext0:
  19              		.cfi_sections	.debug_frame
  20              		.section	.text.usart_stop,"ax",%progbits
  21              		.align	2
  22              		.p2align 4,,15
  23              		.thumb
  24              		.thumb_func
  25              		.type	usart_stop, %function
  26              	usart_stop:
  27              	.LFB258:
  28              		.file 1 "ChibiOS_3.0.2/os/hal/ports/STM32/LLD/USARTv1/uart_lld.c"
  29              		.loc 1 180 0
  30              		.cfi_startproc
  31              		@ args = 0, pretend = 0, frame = 0
  32              		@ frame_needed = 0, uses_anonymous_args = 0
  33              		@ link register save eliminated.
  34              	.LVL0:
  35 0000 30B4     		push	{r4, r5}
  36              		.cfi_def_cfa_offset 8
  37              		.cfi_offset 4, -8
  38              		.cfi_offset 5, -4
  39              		.loc 1 183 0
  40 0002 0469     		ldr	r4, [r0, #16]
  41 0004 2268     		ldr	r2, [r4]
  42 0006 1368     		ldr	r3, [r2]
  43 0008 23F01F03 		bic	r3, r3, #31
  44 000c 1360     		str	r3, [r2]
  45              	.L2:
  46              		.loc 1 183 0 is_stmt 0 discriminator 2
  47 000e 1368     		ldr	r3, [r2]
  48 0010 DB07     		lsls	r3, r3, #31
  49 0012 FCD4     		bmi	.L2
  50              		.loc 1 183 0 discriminator 3
  51 0014 257A     		ldrb	r5, [r4, #8]	@ zero_extendqisi2
  52              		.loc 1 184 0 is_stmt 1 discriminator 3
  53 0016 4169     		ldr	r1, [r0, #20]
  54              		.loc 1 183 0 discriminator 3
  55 0018 6468     		ldr	r4, [r4, #4]
  56              		.loc 1 184 0 discriminator 3
  57 001a 0A68     		ldr	r2, [r1]
ARM GAS  /tmp/ccF97juf.s 			page 2


  58              		.loc 1 183 0 discriminator 3
  59 001c 3D23     		movs	r3, #61
  60 001e AB40     		lsls	r3, r3, r5
  61 0020 2360     		str	r3, [r4]
  62              		.loc 1 184 0 discriminator 3
  63 0022 1368     		ldr	r3, [r2]
  64 0024 23F01F03 		bic	r3, r3, #31
  65 0028 1360     		str	r3, [r2]
  66              	.L3:
  67              		.loc 1 184 0 is_stmt 0 discriminator 2
  68 002a 1368     		ldr	r3, [r2]
  69 002c 13F00103 		ands	r3, r3, #1
  70 0030 FBD1     		bne	.L3
  71              		.loc 1 184 0 discriminator 3
  72 0032 0C7A     		ldrb	r4, [r1, #8]	@ zero_extendqisi2
  73              		.loc 1 187 0 is_stmt 1 discriminator 3
  74 0034 8268     		ldr	r2, [r0, #8]
  75              		.loc 1 184 0 discriminator 3
  76 0036 4868     		ldr	r0, [r1, #4]
  77              	.LVL1:
  78 0038 3D21     		movs	r1, #61
  79 003a A140     		lsls	r1, r1, r4
  80 003c 0160     		str	r1, [r0]
  81              		.loc 1 190 0 discriminator 3
  82 003e 30BC     		pop	{r4, r5}
  83              		.cfi_restore 5
  84              		.cfi_restore 4
  85              		.cfi_def_cfa_offset 0
  86              		.loc 1 187 0 discriminator 3
  87 0040 D360     		str	r3, [r2, #12]
  88              		.loc 1 188 0 discriminator 3
  89 0042 1361     		str	r3, [r2, #16]
  90              		.loc 1 189 0 discriminator 3
  91 0044 5361     		str	r3, [r2, #20]
  92              		.loc 1 190 0 discriminator 3
  93 0046 7047     		bx	lr
  94              		.cfi_endproc
  95              	.LFE258:
  96              		.size	usart_stop, .-usart_stop
  97              		.section	.text.serve_usart_irq,"ax",%progbits
  98              		.align	2
  99              		.p2align 4,,15
 100              		.thumb
 101              		.thumb_func
 102              		.type	serve_usart_irq, %function
 103              	serve_usart_irq:
 104              	.LFB262:
 105              		.loc 1 310 0
 106              		.cfi_startproc
 107              		@ args = 0, pretend = 0, frame = 0
 108              		@ frame_needed = 0, uses_anonymous_args = 0
 109              	.LVL2:
 110 0000 2DE9F041 		push	{r4, r5, r6, r7, r8, lr}
 111              		.cfi_def_cfa_offset 24
 112              		.cfi_offset 4, -24
 113              		.cfi_offset 5, -20
 114              		.cfi_offset 6, -16
ARM GAS  /tmp/ccF97juf.s 			page 3


 115              		.cfi_offset 7, -12
 116              		.cfi_offset 8, -8
 117              		.cfi_offset 14, -4
 118              		.loc 1 312 0
 119 0004 8468     		ldr	r4, [r0, #8]
 120              	.LVL3:
 121              		.loc 1 313 0
 122 0006 E768     		ldr	r7, [r4, #12]
 123              	.LVL4:
 124              		.loc 1 315 0
 125 0008 2668     		ldr	r6, [r4]
 126              	.LVL5:
 127              		.loc 1 316 0
 128 000a 6268     		ldr	r2, [r4, #4]
 129              		.loc 1 318 0
 130 000c 40F20F13 		movw	r3, #271
 131 0010 3340     		ands	r3, r3, r6
 132              		.loc 1 310 0
 133 0012 0546     		mov	r5, r0
 134              		.loc 1 318 0
 135 0014 EBB1     		cbz	r3, .L10
 136              		.loc 1 321 0
 137 0016 4368     		ldr	r3, [r0, #4]
 138 0018 1A69     		ldr	r2, [r3, #16]
 139              		.loc 1 320 0
 140 001a 6FF48073 		mvn	r3, #256
 141 001e 2360     		str	r3, [r4]
 142              		.loc 1 321 0
 143 0020 BAB1     		cbz	r2, .L10
 144              		.loc 1 315 0
 145 0022 B3B2     		uxth	r3, r6
 146              	.LVL6:
 147              	.LBB18:
 148              	.LBB19:
 149              		.loc 1 142 0
 150 0024 13F0080F 		tst	r3, #8
 151 0028 0CBF     		ite	eq
 152 002a 0021     		moveq	r1, #0
 153 002c 1021     		movne	r1, #16
 154              	.LVL7:
 155              		.loc 1 143 0
 156 002e D807     		lsls	r0, r3, #31
 157              	.LVL8:
 158              		.loc 1 144 0
 159 0030 48BF     		it	mi
 160 0032 41F00401 		orrmi	r1, r1, #4
 161              	.LVL9:
 162              		.loc 1 145 0
 163 0036 9807     		lsls	r0, r3, #30
 164              		.loc 1 146 0
 165 0038 48BF     		it	mi
 166 003a 41F00801 		orrmi	r1, r1, #8
 167              	.LVL10:
 168              		.loc 1 147 0
 169 003e 5807     		lsls	r0, r3, #29
 170              		.loc 1 148 0
 171 0040 48BF     		it	mi
ARM GAS  /tmp/ccF97juf.s 			page 4


 172 0042 41F02001 		orrmi	r1, r1, #32
 173              	.LVL11:
 174              		.loc 1 149 0
 175 0046 D805     		lsls	r0, r3, #23
 176              		.loc 1 150 0
 177 0048 48BF     		it	mi
 178 004a 41F04001 		orrmi	r1, r1, #64
 179              	.LVL12:
 180              	.LBE19:
 181              	.LBE18:
 182              		.loc 1 322 0
 183 004e 2846     		mov	r0, r5
 184 0050 9047     		blx	r2
 185              	.LVL13:
 186              	.L10:
 187              		.loc 1 325 0
 188 0052 7206     		lsls	r2, r6, #25
 189 0054 0ED5     		bpl	.L8
 190              		.loc 1 325 0 is_stmt 0 discriminator 1
 191 0056 7B06     		lsls	r3, r7, #25
 192 0058 0CD5     		bpl	.L8
 193              		.loc 1 331 0 is_stmt 1
 194 005a 6B68     		ldr	r3, [r5, #4]
 195 005c 5B68     		ldr	r3, [r3, #4]
 196              		.loc 1 328 0
 197 005e 27F04007 		bic	r7, r7, #64
 198              	.LVL14:
 199              		.loc 1 327 0
 200 0062 6FF04002 		mvn	r2, #64
 201 0066 2260     		str	r2, [r4]
 202              		.loc 1 328 0
 203 0068 E760     		str	r7, [r4, #12]
 204              		.loc 1 331 0
 205 006a 1BB1     		cbz	r3, .L8
 206              		.loc 1 332 0
 207 006c 2846     		mov	r0, r5
 208              		.loc 1 334 0
 209 006e BDE8F041 		pop	{r4, r5, r6, r7, r8, lr}
 210              		.cfi_remember_state
 211              		.cfi_restore 14
 212              		.cfi_restore 8
 213              		.cfi_restore 7
 214              		.cfi_restore 6
 215              		.cfi_restore 5
 216              		.cfi_restore 4
 217              		.cfi_def_cfa_offset 0
 218              	.LVL15:
 219              		.loc 1 332 0
 220 0072 1847     		bx	r3	@ indirect register sibling call
 221              	.LVL16:
 222              	.L8:
 223              		.cfi_restore_state
 224 0074 BDE8F081 		pop	{r4, r5, r6, r7, r8, pc}
 225              		.cfi_endproc
 226              	.LFE262:
 227              		.size	serve_usart_irq, .-serve_usart_irq
 228              		.section	.text.uart_lld_serve_tx_end_irq,"ax",%progbits
ARM GAS  /tmp/ccF97juf.s 			page 5


 229              		.align	2
 230              		.p2align 4,,15
 231              		.thumb
 232              		.thumb_func
 233              		.type	uart_lld_serve_tx_end_irq, %function
 234              	uart_lld_serve_tx_end_irq:
 235              	.LFB261:
 236              		.loc 1 281 0
 237              		.cfi_startproc
 238              		@ args = 0, pretend = 0, frame = 0
 239              		@ frame_needed = 0, uses_anonymous_args = 0
 240              	.LVL17:
 241              		.loc 1 285 0
 242 0000 11F00C0F 		tst	r1, #12
 243              		.loc 1 281 0
 244 0004 38B5     		push	{r3, r4, r5, lr}
 245              		.cfi_def_cfa_offset 16
 246              		.cfi_offset 3, -16
 247              		.cfi_offset 4, -12
 248              		.cfi_offset 5, -8
 249              		.cfi_offset 14, -4
 250              		.loc 1 281 0
 251 0006 0446     		mov	r4, r0
 252              		.loc 1 285 0
 253 0008 1BD1     		bne	.L57
 254              	.LVL18:
 255              	.L44:
 256              		.loc 1 292 0
 257 000a 6169     		ldr	r1, [r4, #20]
 258 000c 0A68     		ldr	r2, [r1]
 259 000e 1368     		ldr	r3, [r2]
 260 0010 23F01F03 		bic	r3, r3, #31
 261 0014 1360     		str	r3, [r2]
 262              	.L45:
 263              		.loc 1 292 0 is_stmt 0 discriminator 2
 264 0016 1368     		ldr	r3, [r2]
 265 0018 DB07     		lsls	r3, r3, #31
 266 001a FCD4     		bmi	.L45
 267              		.loc 1 296 0 is_stmt 1 discriminator 3
 268 001c 6368     		ldr	r3, [r4, #4]
 269              		.loc 1 292 0 discriminator 3
 270 001e 0D7A     		ldrb	r5, [r1, #8]	@ zero_extendqisi2
 271 0020 4868     		ldr	r0, [r1, #4]
 272              		.loc 1 296 0 discriminator 3
 273 0022 1A68     		ldr	r2, [r3]
 274              		.loc 1 292 0 discriminator 3
 275 0024 3D23     		movs	r3, #61
 276 0026 AB40     		lsls	r3, r3, r5
 277              		.loc 1 295 0 discriminator 3
 278 0028 0221     		movs	r1, #2
 279              		.loc 1 292 0 discriminator 3
 280 002a 0360     		str	r3, [r0]
 281              		.loc 1 295 0 discriminator 3
 282 002c 6170     		strb	r1, [r4, #1]
 283              		.loc 1 296 0 discriminator 3
 284 002e 2AB1     		cbz	r2, .L48
 285              		.loc 1 297 0
ARM GAS  /tmp/ccF97juf.s 			page 6


 286 0030 2046     		mov	r0, r4
 287 0032 9047     		blx	r2
 288              	.LVL19:
 289              		.loc 1 301 0
 290 0034 6378     		ldrb	r3, [r4, #1]	@ zero_extendqisi2
 291 0036 022B     		cmp	r3, #2
 292 0038 00D0     		beq	.L48
 293 003a 38BD     		pop	{r3, r4, r5, pc}
 294              	.LVL20:
 295              	.L48:
 296              		.loc 1 302 0
 297 003c 0023     		movs	r3, #0
 298 003e 6370     		strb	r3, [r4, #1]
 299 0040 38BD     		pop	{r3, r4, r5, pc}
 300              	.LVL21:
 301              	.L57:
 302              	.LBB20:
 303              	.LBB21:
 304              		.file 2 "ChibiOS_3.0.2/os/hal/osal/rt/osal.h"
 305              		.loc 2 462 0
 306 0042 0248     		ldr	r0, .L58
 307              	.LVL22:
 308 0044 FFF7FEFF 		bl	chSysHalt
 309              	.LVL23:
 310 0048 DFE7     		b	.L44
 311              	.L59:
 312 004a 00BF     		.align	2
 313              	.L58:
 314 004c 00000000 		.word	.LC0
 315              	.LBE21:
 316              	.LBE20:
 317              		.cfi_endproc
 318              	.LFE261:
 319              		.size	uart_lld_serve_tx_end_irq, .-uart_lld_serve_tx_end_irq
 320              		.section	.text.uart_lld_serve_rx_end_irq,"ax",%progbits
 321              		.align	2
 322              		.p2align 4,,15
 323              		.thumb
 324              		.thumb_func
 325              		.type	uart_lld_serve_rx_end_irq, %function
 326              	uart_lld_serve_rx_end_irq:
 327              	.LFB260:
 328              		.loc 1 241 0
 329              		.cfi_startproc
 330              		@ args = 0, pretend = 0, frame = 0
 331              		@ frame_needed = 0, uses_anonymous_args = 0
 332              	.LVL24:
 333              		.loc 1 245 0
 334 0000 11F00C0F 		tst	r1, #12
 335              		.loc 1 241 0
 336 0004 70B5     		push	{r4, r5, r6, lr}
 337              		.cfi_def_cfa_offset 16
 338              		.cfi_offset 4, -16
 339              		.cfi_offset 5, -12
 340              		.cfi_offset 6, -8
 341              		.cfi_offset 14, -4
 342              		.loc 1 241 0
ARM GAS  /tmp/ccF97juf.s 			page 7


 343 0006 0446     		mov	r4, r0
 344              		.loc 1 245 0
 345 0008 3BD1     		bne	.L76
 346              	.LVL25:
 347              	.L61:
 348              		.loc 1 252 0
 349 000a A378     		ldrb	r3, [r4, #2]	@ zero_extendqisi2
 350 000c 4BB9     		cbnz	r3, .L62
 351              		.loc 1 255 0
 352 000e 6368     		ldr	r3, [r4, #4]
 353 0010 DB68     		ldr	r3, [r3, #12]
 354 0012 002B     		cmp	r3, #0
 355 0014 34D0     		beq	.L60
 356              		.loc 1 256 0
 357 0016 218B     		ldrh	r1, [r4, #24]
 358 0018 2046     		mov	r0, r4
 359 001a 89B2     		uxth	r1, r1
 360              		.loc 1 273 0
 361 001c BDE87040 		pop	{r4, r5, r6, lr}
 362              		.cfi_remember_state
 363              		.cfi_restore 14
 364              		.cfi_restore 6
 365              		.cfi_restore 5
 366              		.cfi_restore 4
 367              		.cfi_def_cfa_offset 0
 368              	.LVL26:
 369              		.loc 1 256 0
 370 0020 1847     		bx	r3	@ indirect register sibling call
 371              	.LVL27:
 372              	.L62:
 373              		.cfi_restore_state
 374              	.LBB30:
 375              	.LBB31:
 376              		.loc 1 261 0
 377 0022 2169     		ldr	r1, [r4, #16]
 378 0024 0A68     		ldr	r2, [r1]
 379 0026 1368     		ldr	r3, [r2]
 380 0028 23F01F03 		bic	r3, r3, #31
 381 002c 1360     		str	r3, [r2]
 382              	.L65:
 383 002e 1368     		ldr	r3, [r2]
 384 0030 DB07     		lsls	r3, r3, #31
 385 0032 FCD4     		bmi	.L65
 386              		.loc 1 263 0
 387 0034 6068     		ldr	r0, [r4, #4]
 388              		.loc 1 261 0
 389 0036 0D7A     		ldrb	r5, [r1, #8]	@ zero_extendqisi2
 390 0038 4E68     		ldr	r6, [r1, #4]
 391              		.loc 1 263 0
 392 003a 8168     		ldr	r1, [r0, #8]
 393              		.loc 1 261 0
 394 003c 3D23     		movs	r3, #61
 395 003e AB40     		lsls	r3, r3, r5
 396              		.loc 1 262 0
 397 0040 0225     		movs	r5, #2
 398              		.loc 1 261 0
 399 0042 3360     		str	r3, [r6]
ARM GAS  /tmp/ccF97juf.s 			page 8


 400              		.loc 1 262 0
 401 0044 A570     		strb	r5, [r4, #2]
 402              		.loc 1 263 0
 403 0046 39B1     		cbz	r1, .L66
 404              		.loc 1 264 0
 405 0048 2046     		mov	r0, r4
 406 004a 8847     		blx	r1
 407              	.LVL28:
 408              		.loc 1 268 0
 409 004c A378     		ldrb	r3, [r4, #2]	@ zero_extendqisi2
 410 004e AB42     		cmp	r3, r5
 411 0050 16D1     		bne	.L60
 412 0052 2369     		ldr	r3, [r4, #16]
 413 0054 6068     		ldr	r0, [r4, #4]
 414 0056 1A68     		ldr	r2, [r3]
 415              	.L66:
 416              	.LBB32:
 417              	.LBB33:
 418              		.loc 1 164 0
 419 0058 C168     		ldr	r1, [r0, #12]
 420              		.loc 1 170 0
 421 005a E368     		ldr	r3, [r4, #12]
 422              		.loc 1 167 0
 423 005c 0029     		cmp	r1, #0
 424 005e 0CBF     		ite	eq
 425 0060 4FF48071 		moveq	r1, #256
 426 0064 4FF48871 		movne	r1, #272
 427              		.loc 1 170 0
 428 0068 0B43     		orrs	r3, r3, r1
 429              	.LBE33:
 430              	.LBE32:
 431              		.loc 1 269 0
 432 006a 0025     		movs	r5, #0
 433              	.LBB36:
 434              	.LBB34:
 435              		.loc 1 169 0
 436 006c 0121     		movs	r1, #1
 437              		.loc 1 168 0
 438 006e 04F11800 		add	r0, r4, #24
 439              	.LBE34:
 440              	.LBE36:
 441              		.loc 1 269 0
 442 0072 A570     		strb	r5, [r4, #2]
 443              	.LVL29:
 444              	.LBB37:
 445              	.LBB35:
 446              		.loc 1 168 0
 447 0074 D060     		str	r0, [r2, #12]
 448              		.loc 1 169 0
 449 0076 5160     		str	r1, [r2, #4]
 450              		.loc 1 170 0
 451 0078 1360     		str	r3, [r2]
 452              		.loc 1 171 0
 453 007a 1368     		ldr	r3, [r2]
 454 007c 0B43     		orrs	r3, r3, r1
 455 007e 1360     		str	r3, [r2]
 456              	.LVL30:
ARM GAS  /tmp/ccF97juf.s 			page 9


 457              	.L60:
 458 0080 70BD     		pop	{r4, r5, r6, pc}
 459              	.LVL31:
 460              	.L76:
 461              	.LBE35:
 462              	.LBE37:
 463              	.LBE31:
 464              	.LBE30:
 465              	.LBB38:
 466              	.LBB39:
 467              		.loc 2 462 0
 468 0082 0248     		ldr	r0, .L77
 469              	.LVL32:
 470 0084 FFF7FEFF 		bl	chSysHalt
 471              	.LVL33:
 472 0088 BFE7     		b	.L61
 473              	.L78:
 474 008a 00BF     		.align	2
 475              	.L77:
 476 008c 00000000 		.word	.LC0
 477              	.LBE39:
 478              	.LBE38:
 479              		.cfi_endproc
 480              	.LFE260:
 481              		.size	uart_lld_serve_rx_end_irq, .-uart_lld_serve_rx_end_irq
 482              		.section	.text.VectorDC,"ax",%progbits
 483              		.align	2
 484              		.p2align 4,,15
 485              		.global	VectorDC
 486              		.thumb
 487              		.thumb_func
 488              		.type	VectorDC, %function
 489              	VectorDC:
 490              	.LFB263:
 491              		.loc 1 387 0
 492              		.cfi_startproc
 493              		@ args = 0, pretend = 0, frame = 0
 494              		@ frame_needed = 0, uses_anonymous_args = 0
 495 0000 08B5     		push	{r3, lr}
 496              		.cfi_def_cfa_offset 8
 497              		.cfi_offset 3, -8
 498              		.cfi_offset 14, -4
 499              		.loc 1 391 0
 500 0002 0348     		ldr	r0, .L81
 501 0004 FFF7FEFF 		bl	serve_usart_irq
 502              	.LVL34:
 503              		.loc 1 394 0
 504 0008 BDE80840 		pop	{r3, lr}
 505              		.cfi_restore 14
 506              		.cfi_restore 3
 507              		.cfi_def_cfa_offset 0
 508              		.loc 1 393 0
 509 000c FFF7FEBF 		b	_port_irq_epilogue
 510              	.LVL35:
 511              	.L82:
 512              		.align	2
 513              	.L81:
ARM GAS  /tmp/ccF97juf.s 			page 10


 514 0010 00000000 		.word	.LANCHOR0
 515              		.cfi_endproc
 516              	.LFE263:
 517              		.size	VectorDC, .-VectorDC
 518              		.section	.text.Vector15C,"ax",%progbits
 519              		.align	2
 520              		.p2align 4,,15
 521              		.global	Vector15C
 522              		.thumb
 523              		.thumb_func
 524              		.type	Vector15C, %function
 525              	Vector15C:
 526              	.LFB264:
 527              		.loc 1 444 0
 528              		.cfi_startproc
 529              		@ args = 0, pretend = 0, frame = 0
 530              		@ frame_needed = 0, uses_anonymous_args = 0
 531 0000 08B5     		push	{r3, lr}
 532              		.cfi_def_cfa_offset 8
 533              		.cfi_offset 3, -8
 534              		.cfi_offset 14, -4
 535              		.loc 1 448 0
 536 0002 0348     		ldr	r0, .L85
 537 0004 FFF7FEFF 		bl	serve_usart_irq
 538              	.LVL36:
 539              		.loc 1 451 0
 540 0008 BDE80840 		pop	{r3, lr}
 541              		.cfi_restore 14
 542              		.cfi_restore 3
 543              		.cfi_def_cfa_offset 0
 544              		.loc 1 450 0
 545 000c FFF7FEBF 		b	_port_irq_epilogue
 546              	.LVL37:
 547              	.L86:
 548              		.align	2
 549              	.L85:
 550 0010 00000000 		.word	.LANCHOR1
 551              		.cfi_endproc
 552              	.LFE264:
 553              		.size	Vector15C, .-Vector15C
 554              		.section	.text.uart_lld_init,"ax",%progbits
 555              		.align	2
 556              		.p2align 4,,15
 557              		.global	uart_lld_init
 558              		.thumb
 559              		.thumb_func
 560              		.type	uart_lld_init, %function
 561              	uart_lld_init:
 562              	.LFB265:
 563              		.loc 1 463 0
 564              		.cfi_startproc
 565              		@ args = 0, pretend = 0, frame = 0
 566              		@ frame_needed = 0, uses_anonymous_args = 0
 567 0000 70B5     		push	{r4, r5, r6, lr}
 568              		.cfi_def_cfa_offset 16
 569              		.cfi_offset 4, -16
 570              		.cfi_offset 5, -12
ARM GAS  /tmp/ccF97juf.s 			page 11


 571              		.cfi_offset 6, -8
 572              		.cfi_offset 14, -4
 573              		.loc 1 482 0
 574 0002 0C4D     		ldr	r5, .L89
 575              		.loc 1 485 0
 576 0004 0C4C     		ldr	r4, .L89+4
 577              		.loc 1 506 0
 578 0006 0D4E     		ldr	r6, .L89+8
 579              		.loc 1 482 0
 580 0008 2846     		mov	r0, r5
 581 000a FFF7FEFF 		bl	uartObjectInit
 582              	.LVL38:
 583              		.loc 1 483 0
 584 000e 0C4B     		ldr	r3, .L89+12
 585 0010 AB60     		str	r3, [r5, #8]
 586              		.loc 1 484 0
 587 0012 0622     		movs	r2, #6
 588              		.loc 1 486 0
 589 0014 04F11803 		add	r3, r4, #24
 590              		.loc 1 506 0
 591 0018 3046     		mov	r0, r6
 592              		.loc 1 485 0
 593 001a 2C61     		str	r4, [r5, #16]
 594              		.loc 1 486 0
 595 001c 6B61     		str	r3, [r5, #20]
 596              		.loc 1 484 0
 597 001e EA60     		str	r2, [r5, #12]
 598              		.loc 1 506 0
 599 0020 FFF7FEFF 		bl	uartObjectInit
 600              	.LVL39:
 601              		.loc 1 507 0
 602 0024 074B     		ldr	r3, .L89+16
 603 0026 B360     		str	r3, [r6, #8]
 604              		.loc 1 508 0
 605 0028 04F16C03 		add	r3, r4, #108
 606              		.loc 1 509 0
 607 002c A834     		adds	r4, r4, #168
 608              		.loc 1 508 0
 609 002e 3361     		str	r3, [r6, #16]
 610              		.loc 1 509 0
 611 0030 7461     		str	r4, [r6, #20]
 612 0032 70BD     		pop	{r4, r5, r6, pc}
 613              	.L90:
 614              		.align	2
 615              	.L89:
 616 0034 00000000 		.word	.LANCHOR0
 617 0038 0C000000 		.word	_stm32_dma_streams+12
 618 003c 00000000 		.word	.LANCHOR1
 619 0040 00480040 		.word	1073760256
 620 0044 00140140 		.word	1073812480
 621              		.cfi_endproc
 622              	.LFE265:
 623              		.size	uart_lld_init, .-uart_lld_init
 624              		.section	.text.uart_lld_start,"ax",%progbits
 625              		.align	2
 626              		.p2align 4,,15
 627              		.global	uart_lld_start
ARM GAS  /tmp/ccF97juf.s 			page 12


 628              		.thumb
 629              		.thumb_func
 630              		.type	uart_lld_start, %function
 631              	uart_lld_start:
 632              	.LFB266:
 633              		.loc 1 520 0
 634              		.cfi_startproc
 635              		@ args = 0, pretend = 0, frame = 0
 636              		@ frame_needed = 0, uses_anonymous_args = 0
 637              	.LVL40:
 638 0000 F8B5     		push	{r3, r4, r5, r6, r7, lr}
 639              		.cfi_def_cfa_offset 24
 640              		.cfi_offset 3, -24
 641              		.cfi_offset 4, -20
 642              		.cfi_offset 5, -16
 643              		.cfi_offset 6, -12
 644              		.cfi_offset 7, -8
 645              		.cfi_offset 14, -4
 646              		.loc 1 522 0
 647 0002 0378     		ldrb	r3, [r0]	@ zero_extendqisi2
 648 0004 012B     		cmp	r3, #1
 649              		.loc 1 520 0
 650 0006 0446     		mov	r4, r0
 651              		.loc 1 522 0
 652 0008 3FD0     		beq	.L92
 653 000a 8568     		ldr	r5, [r0, #8]
 654              	.LVL41:
 655              	.L93:
 656              		.loc 1 664 0
 657 000c 0023     		movs	r3, #0
 658 000e A370     		strb	r3, [r4, #2]
 659              		.loc 1 665 0
 660 0010 6370     		strb	r3, [r4, #1]
 661              	.LVL42:
 662              	.LBB46:
 663              	.LBB47:
 664              		.loc 1 203 0
 665 0012 2046     		mov	r0, r4
 666 0014 FFF7FEFF 		bl	usart_stop
 667              	.LVL43:
 668              		.loc 1 207 0
 669 0018 A368     		ldr	r3, [r4, #8]
 670 001a 484A     		ldr	r2, .L106
 671 001c 9342     		cmp	r3, r2
 672 001e 4CD0     		beq	.L97
 673 0020 02F58062 		add	r2, r2, #1024
 674 0024 9342     		cmp	r3, r2
 675 0026 48D0     		beq	.L97
 676              		.loc 1 213 0
 677 0028 6268     		ldr	r2, [r4, #4]
 678 002a 454B     		ldr	r3, .L106+4
 679 002c 5169     		ldr	r1, [r2, #20]
 680 002e B3FBF1F3 		udiv	r3, r3, r1
 681 0032 AB60     		str	r3, [r5, #8]
 682              	.L99:
 683              	.LBB48:
 684              	.LBB49:
ARM GAS  /tmp/ccF97juf.s 			page 13


 685              		.loc 1 164 0
 686 0034 D768     		ldr	r7, [r2, #12]
 687              	.LBE49:
 688              	.LBE48:
 689              		.loc 1 229 0
 690 0036 138B     		ldrh	r3, [r2, #24]
 691              		.loc 1 222 0
 692 0038 568B     		ldrh	r6, [r2, #26]
 693              		.loc 1 223 0
 694 003a 918B     		ldrh	r1, [r2, #28]
 695              	.LBB57:
 696              	.LBB50:
 697              		.loc 1 168 0
 698 003c 2269     		ldr	r2, [r4, #16]
 699              	.LBE50:
 700              	.LBE57:
 701              		.loc 1 216 0
 702 003e 2868     		ldr	r0, [r5]
 703              		.loc 1 217 0
 704 0040 6868     		ldr	r0, [r5, #4]
 705              	.LBB58:
 706              	.LBB51:
 707              		.loc 1 170 0
 708 0042 E068     		ldr	r0, [r4, #12]
 709              		.loc 1 168 0
 710 0044 1268     		ldr	r2, [r2]
 711              		.loc 1 164 0
 712 0046 002F     		cmp	r7, #0
 713              	.LBE51:
 714              	.LBE58:
 715              		.loc 1 229 0
 716 0048 43F40453 		orr	r3, r3, #8448
 717              	.LBB59:
 718              	.LBB52:
 719              		.loc 1 167 0
 720 004c 0CBF     		ite	eq
 721 004e 4FF48077 		moveq	r7, #256
 722 0052 4FF48877 		movne	r7, #272
 723              	.LBE52:
 724              	.LBE59:
 725              		.loc 1 222 0
 726 0056 46F04006 		orr	r6, r6, #64
 727              		.loc 1 229 0
 728 005a 43F00C03 		orr	r3, r3, #12
 729              		.loc 1 223 0
 730 005e 41F0C101 		orr	r1, r1, #193
 731              		.loc 1 229 0
 732 0062 9BB2     		uxth	r3, r3
 733              	.LBB60:
 734              	.LBB53:
 735              		.loc 1 170 0
 736 0064 3843     		orrs	r0, r0, r7
 737              	.LBE53:
 738              	.LBE60:
 739              		.loc 1 222 0
 740 0066 B6B2     		uxth	r6, r6
 741              	.LBB61:
ARM GAS  /tmp/ccF97juf.s 			page 14


 742              	.LBB54:
 743              		.loc 1 169 0
 744 0068 0127     		movs	r7, #1
 745              	.LBE54:
 746              	.LBE61:
 747              		.loc 1 218 0
 748 006a 4FF0000E 		mov	lr, #0
 749              		.loc 1 223 0
 750 006e 89B2     		uxth	r1, r1
 751              	.LBB62:
 752              	.LBB55:
 753              		.loc 1 168 0
 754 0070 1834     		adds	r4, r4, #24
 755              	.LVL44:
 756              	.LBE55:
 757              	.LBE62:
 758              		.loc 1 218 0
 759 0072 C5F800E0 		str	lr, [r5]
 760              		.loc 1 222 0
 761 0076 2E61     		str	r6, [r5, #16]
 762              		.loc 1 223 0
 763 0078 6961     		str	r1, [r5, #20]
 764              	.LVL45:
 765              		.loc 1 229 0
 766 007a EB60     		str	r3, [r5, #12]
 767              	.LVL46:
 768              	.LBB63:
 769              	.LBB56:
 770              		.loc 1 168 0
 771 007c D460     		str	r4, [r2, #12]
 772              		.loc 1 169 0
 773 007e 5760     		str	r7, [r2, #4]
 774              		.loc 1 170 0
 775 0080 1060     		str	r0, [r2]
 776              		.loc 1 171 0
 777 0082 1368     		ldr	r3, [r2]
 778 0084 3B43     		orrs	r3, r3, r7
 779 0086 1360     		str	r3, [r2]
 780 0088 F8BD     		pop	{r3, r4, r5, r6, r7, pc}
 781              	.LVL47:
 782              	.L92:
 783              	.LBE56:
 784              	.LBE63:
 785              	.LBE47:
 786              	.LBE46:
 787              		.loc 1 564 0
 788 008a 2E4B     		ldr	r3, .L106+8
 789 008c 9842     		cmp	r0, r3
 790 008e 3AD0     		beq	.L103
 791              		.loc 1 636 0
 792 0090 2D4B     		ldr	r3, .L106+12
 793 0092 9842     		cmp	r0, r3
 794 0094 1DD0     		beq	.L104
 795              	.LVL48:
 796              	.L95:
 797              		.loc 1 657 0
 798 0096 6368     		ldr	r3, [r4, #4]
ARM GAS  /tmp/ccF97juf.s 			page 15


 799 0098 1B8B     		ldrh	r3, [r3, #24]
 800 009a 03F4A053 		and	r3, r3, #5120
 801 009e B3F5805F 		cmp	r3, #4096
 802 00a2 11D0     		beq	.L105
 803              	.L96:
 804              		.loc 1 659 0
 805 00a4 2269     		ldr	r2, [r4, #16]
 806              		.loc 1 660 0
 807 00a6 6369     		ldr	r3, [r4, #20]
 808              		.loc 1 659 0
 809 00a8 A568     		ldr	r5, [r4, #8]
 810 00aa 1068     		ldr	r0, [r2]
 811              		.loc 1 660 0
 812 00ac 1968     		ldr	r1, [r3]
 813              		.loc 1 661 0
 814 00ae 0022     		movs	r2, #0
 815              		.loc 1 659 0
 816 00b0 2B1D     		adds	r3, r5, #4
 817 00b2 8360     		str	r3, [r0, #8]
 818              		.loc 1 660 0
 819 00b4 8B60     		str	r3, [r1, #8]
 820              		.loc 1 661 0
 821 00b6 2283     		strh	r2, [r4, #24]	@ movhi
 822 00b8 A8E7     		b	.L93
 823              	.LVL49:
 824              	.L97:
 825              	.LBB65:
 826              	.LBB64:
 827              		.loc 1 211 0
 828 00ba 6268     		ldr	r2, [r4, #4]
 829 00bc 234B     		ldr	r3, .L106+16
 830 00be 5169     		ldr	r1, [r2, #20]
 831 00c0 B3FBF1F3 		udiv	r3, r3, r1
 832 00c4 AB60     		str	r3, [r5, #8]
 833 00c6 B5E7     		b	.L99
 834              	.LVL50:
 835              	.L105:
 836              	.LBE64:
 837              	.LBE65:
 838              		.loc 1 658 0
 839 00c8 E368     		ldr	r3, [r4, #12]
 840 00ca 43F42053 		orr	r3, r3, #10240
 841 00ce E360     		str	r3, [r4, #12]
 842 00d0 E8E7     		b	.L96
 843              	.LVL51:
 844              	.L104:
 845              	.LBB66:
 846              		.loc 1 638 0
 847 00d2 1F4A     		ldr	r2, .L106+20
 848 00d4 0069     		ldr	r0, [r0, #16]
 849              	.LVL52:
 850 00d6 0C21     		movs	r1, #12
 851 00d8 2346     		mov	r3, r4
 852 00da FFF7FEFF 		bl	dmaStreamAllocate
 853              	.LVL53:
 854              		.loc 1 643 0
 855 00de 1D4A     		ldr	r2, .L106+24
ARM GAS  /tmp/ccF97juf.s 			page 16


 856 00e0 6069     		ldr	r0, [r4, #20]
 857 00e2 0C21     		movs	r1, #12
 858 00e4 2346     		mov	r3, r4
 859 00e6 FFF7FEFF 		bl	dmaStreamAllocate
 860              	.LVL54:
 861              		.loc 1 648 0
 862 00ea 1B4A     		ldr	r2, .L106+28
 863 00ec 536C     		ldr	r3, [r2, #68]
 864 00ee 43F02003 		orr	r3, r3, #32
 865 00f2 5364     		str	r3, [r2, #68]
 866              		.loc 1 649 0
 867 00f4 4720     		movs	r0, #71
 868 00f6 0C21     		movs	r1, #12
 869 00f8 FFF7FEFF 		bl	nvicEnableVector
 870              	.LVL55:
 871              		.loc 1 650 0
 872 00fc E368     		ldr	r3, [r4, #12]
 873 00fe 43F02063 		orr	r3, r3, #167772160
 874 0102 E360     		str	r3, [r4, #12]
 875 0104 C7E7     		b	.L95
 876              	.LVL56:
 877              	.L103:
 878              	.LBE66:
 879              	.LBB67:
 880              		.loc 1 566 0
 881 0106 124A     		ldr	r2, .L106+20
 882 0108 0069     		ldr	r0, [r0, #16]
 883              	.LVL57:
 884 010a 0C21     		movs	r1, #12
 885 010c 2346     		mov	r3, r4
 886 010e FFF7FEFF 		bl	dmaStreamAllocate
 887              	.LVL58:
 888              		.loc 1 571 0
 889 0112 104A     		ldr	r2, .L106+24
 890 0114 6069     		ldr	r0, [r4, #20]
 891 0116 0C21     		movs	r1, #12
 892 0118 2346     		mov	r3, r4
 893 011a FFF7FEFF 		bl	dmaStreamAllocate
 894              	.LVL59:
 895              		.loc 1 576 0
 896 011e 0E4A     		ldr	r2, .L106+28
 897 0120 136C     		ldr	r3, [r2, #64]
 898 0122 43F48023 		orr	r3, r3, #262144
 899 0126 1364     		str	r3, [r2, #64]
 900              		.loc 1 577 0
 901 0128 2720     		movs	r0, #39
 902 012a 0C21     		movs	r1, #12
 903 012c FFF7FEFF 		bl	nvicEnableVector
 904              	.LVL60:
 905              		.loc 1 578 0
 906 0130 E368     		ldr	r3, [r4, #12]
 907 0132 43F00063 		orr	r3, r3, #134217728
 908 0136 E360     		str	r3, [r4, #12]
 909 0138 ADE7     		b	.L95
 910              	.L107:
 911 013a 00BF     		.align	2
 912              	.L106:
ARM GAS  /tmp/ccF97juf.s 			page 17


 913 013c 00100140 		.word	1073811456
 914 0140 80DE8002 		.word	42000000
 915 0144 00000000 		.word	.LANCHOR0
 916 0148 00000000 		.word	.LANCHOR1
 917 014c 00BD0105 		.word	84000000
 918 0150 00000000 		.word	uart_lld_serve_rx_end_irq
 919 0154 00000000 		.word	uart_lld_serve_tx_end_irq
 920 0158 00380240 		.word	1073887232
 921              	.LBE67:
 922              		.cfi_endproc
 923              	.LFE266:
 924              		.size	uart_lld_start, .-uart_lld_start
 925              		.section	.text.uart_lld_stop,"ax",%progbits
 926              		.align	2
 927              		.p2align 4,,15
 928              		.global	uart_lld_stop
 929              		.thumb
 930              		.thumb_func
 931              		.type	uart_lld_stop, %function
 932              	uart_lld_stop:
 933              	.LFB267:
 934              		.loc 1 676 0
 935              		.cfi_startproc
 936              		@ args = 0, pretend = 0, frame = 0
 937              		@ frame_needed = 0, uses_anonymous_args = 0
 938              	.LVL61:
 939              		.loc 1 678 0
 940 0000 0278     		ldrb	r2, [r0]	@ zero_extendqisi2
 941 0002 022A     		cmp	r2, #2
 942 0004 00D0     		beq	.L115
 943 0006 7047     		bx	lr
 944              	.L115:
 945              		.loc 1 676 0
 946 0008 10B5     		push	{r4, lr}
 947              		.cfi_def_cfa_offset 8
 948              		.cfi_offset 4, -8
 949              		.cfi_offset 14, -4
 950 000a 0446     		mov	r4, r0
 951              		.loc 1 679 0
 952 000c FFF7FEFF 		bl	usart_stop
 953              	.LVL62:
 954              		.loc 1 680 0
 955 0010 2069     		ldr	r0, [r4, #16]
 956 0012 FFF7FEFF 		bl	dmaStreamRelease
 957              	.LVL63:
 958              		.loc 1 681 0
 959 0016 6069     		ldr	r0, [r4, #20]
 960 0018 FFF7FEFF 		bl	dmaStreamRelease
 961              	.LVL64:
 962              		.loc 1 700 0
 963 001c 0C4B     		ldr	r3, .L118
 964 001e 9C42     		cmp	r4, r3
 965 0020 0CD0     		beq	.L116
 966              		.loc 1 724 0
 967 0022 0C4B     		ldr	r3, .L118+4
 968 0024 9C42     		cmp	r4, r3
 969 0026 00D0     		beq	.L117
ARM GAS  /tmp/ccF97juf.s 			page 18


 970              	.L108:
 971 0028 10BD     		pop	{r4, pc}
 972              	.LVL65:
 973              	.L117:
 974              		.loc 1 725 0
 975 002a 4720     		movs	r0, #71
 976 002c FFF7FEFF 		bl	nvicDisableVector
 977              	.LVL66:
 978              		.loc 1 726 0
 979 0030 094A     		ldr	r2, .L118+8
 980 0032 536C     		ldr	r3, [r2, #68]
 981 0034 23F02003 		bic	r3, r3, #32
 982 0038 5364     		str	r3, [r2, #68]
 983              		.loc 1 727 0
 984 003a F5E7     		b	.L108
 985              	.L116:
 986              		.loc 1 701 0
 987 003c 2720     		movs	r0, #39
 988 003e FFF7FEFF 		bl	nvicDisableVector
 989              	.LVL67:
 990              		.loc 1 702 0
 991 0042 054A     		ldr	r2, .L118+8
 992 0044 136C     		ldr	r3, [r2, #64]
 993 0046 23F48023 		bic	r3, r3, #262144
 994 004a 1364     		str	r3, [r2, #64]
 995              		.loc 1 703 0
 996 004c 10BD     		pop	{r4, pc}
 997              	.LVL68:
 998              	.L119:
 999 004e 00BF     		.align	2
 1000              	.L118:
 1001 0050 00000000 		.word	.LANCHOR0
 1002 0054 00000000 		.word	.LANCHOR1
 1003 0058 00380240 		.word	1073887232
 1004              		.cfi_endproc
 1005              	.LFE267:
 1006              		.size	uart_lld_stop, .-uart_lld_stop
 1007              		.section	.text.uart_lld_start_send,"ax",%progbits
 1008              		.align	2
 1009              		.p2align 4,,15
 1010              		.global	uart_lld_start_send
 1011              		.thumb
 1012              		.thumb_func
 1013              		.type	uart_lld_start_send, %function
 1014              	uart_lld_start_send:
 1015              	.LFB268:
 1016              		.loc 1 744 0
 1017              		.cfi_startproc
 1018              		@ args = 0, pretend = 0, frame = 0
 1019              		@ frame_needed = 0, uses_anonymous_args = 0
 1020              		@ link register save eliminated.
 1021              	.LVL69:
 1022 0000 30B4     		push	{r4, r5}
 1023              		.cfi_def_cfa_offset 8
 1024              		.cfi_offset 4, -8
 1025              		.cfi_offset 5, -4
 1026              		.loc 1 747 0
ARM GAS  /tmp/ccF97juf.s 			page 19


 1027 0002 4369     		ldr	r3, [r0, #20]
 1028              		.loc 1 754 0
 1029 0004 4568     		ldr	r5, [r0, #4]
 1030              		.loc 1 749 0
 1031 0006 C468     		ldr	r4, [r0, #12]
 1032              		.loc 1 747 0
 1033 0008 1B68     		ldr	r3, [r3]
 1034              		.loc 1 754 0
 1035 000a 6D68     		ldr	r5, [r5, #4]
 1036              		.loc 1 747 0
 1037 000c DA60     		str	r2, [r3, #12]
 1038              		.loc 1 749 0
 1039 000e 44F48A64 		orr	r4, r4, #1104
 1040              		.loc 1 748 0
 1041 0012 5960     		str	r1, [r3, #4]
 1042              		.loc 1 749 0
 1043 0014 1C60     		str	r4, [r3]
 1044              		.loc 1 754 0
 1045 0016 3DB1     		cbz	r5, .L121
 1046              		.loc 1 755 0
 1047 0018 8268     		ldr	r2, [r0, #8]
 1048              	.LVL70:
 1049 001a 6FF04001 		mvn	r1, #64
 1050              	.LVL71:
 1051 001e 1160     		str	r1, [r2]
 1052              		.loc 1 756 0
 1053 0020 D168     		ldr	r1, [r2, #12]
 1054 0022 41F04001 		orr	r1, r1, #64
 1055 0026 D160     		str	r1, [r2, #12]
 1056              	.L121:
 1057              		.loc 1 760 0
 1058 0028 1A68     		ldr	r2, [r3]
 1059 002a 42F00102 		orr	r2, r2, #1
 1060 002e 1A60     		str	r2, [r3]
 1061              		.loc 1 761 0
 1062 0030 30BC     		pop	{r4, r5}
 1063              		.cfi_restore 5
 1064              		.cfi_restore 4
 1065              		.cfi_def_cfa_offset 0
 1066 0032 7047     		bx	lr
 1067              		.cfi_endproc
 1068              	.LFE268:
 1069              		.size	uart_lld_start_send, .-uart_lld_start_send
 1070              		.section	.text.uart_lld_stop_send,"ax",%progbits
 1071              		.align	2
 1072              		.p2align 4,,15
 1073              		.global	uart_lld_stop_send
 1074              		.thumb
 1075              		.thumb_func
 1076              		.type	uart_lld_stop_send, %function
 1077              	uart_lld_stop_send:
 1078              	.LFB269:
 1079              		.loc 1 774 0
 1080              		.cfi_startproc
 1081              		@ args = 0, pretend = 0, frame = 0
 1082              		@ frame_needed = 0, uses_anonymous_args = 0
 1083              		@ link register save eliminated.
ARM GAS  /tmp/ccF97juf.s 			page 20


 1084              	.LVL72:
 1085              		.loc 1 776 0
 1086 0000 4169     		ldr	r1, [r0, #20]
 1087 0002 0A68     		ldr	r2, [r1]
 1088 0004 1368     		ldr	r3, [r2]
 1089 0006 23F01F03 		bic	r3, r3, #31
 1090 000a 1360     		str	r3, [r2]
 1091              	.L127:
 1092              		.loc 1 776 0 is_stmt 0 discriminator 2
 1093 000c 1368     		ldr	r3, [r2]
 1094 000e DB07     		lsls	r3, r3, #31
 1095 0010 FCD4     		bmi	.L127
 1096              		.loc 1 776 0 discriminator 3
 1097 0012 087A     		ldrb	r0, [r1, #8]	@ zero_extendqisi2
 1098              	.LVL73:
 1099 0014 4968     		ldr	r1, [r1, #4]
 1100 0016 3D23     		movs	r3, #61
 1101 0018 8340     		lsls	r3, r3, r0
 1102 001a 0B60     		str	r3, [r1]
 1103              		.loc 1 778 0 is_stmt 1 discriminator 3
 1104 001c 5068     		ldr	r0, [r2, #4]
 1105              		.loc 1 779 0 discriminator 3
 1106 001e 7047     		bx	lr
 1107              		.cfi_endproc
 1108              	.LFE269:
 1109              		.size	uart_lld_stop_send, .-uart_lld_stop_send
 1110              		.section	.text.uart_lld_start_receive,"ax",%progbits
 1111              		.align	2
 1112              		.p2align 4,,15
 1113              		.global	uart_lld_start_receive
 1114              		.thumb
 1115              		.thumb_func
 1116              		.type	uart_lld_start_receive, %function
 1117              	uart_lld_start_receive:
 1118              	.LFB270:
 1119              		.loc 1 792 0
 1120              		.cfi_startproc
 1121              		@ args = 0, pretend = 0, frame = 0
 1122              		@ frame_needed = 0, uses_anonymous_args = 0
 1123              		@ link register save eliminated.
 1124              	.LVL74:
 1125 0000 70B4     		push	{r4, r5, r6}
 1126              		.cfi_def_cfa_offset 12
 1127              		.cfi_offset 4, -12
 1128              		.cfi_offset 5, -8
 1129              		.cfi_offset 6, -4
 1130              		.loc 1 795 0
 1131 0002 0569     		ldr	r5, [r0, #16]
 1132 0004 2C68     		ldr	r4, [r5]
 1133 0006 2368     		ldr	r3, [r4]
 1134 0008 23F01F03 		bic	r3, r3, #31
 1135 000c 2360     		str	r3, [r4]
 1136              	.L130:
 1137              		.loc 1 795 0 is_stmt 0 discriminator 2
 1138 000e 2368     		ldr	r3, [r4]
 1139 0010 DB07     		lsls	r3, r3, #31
 1140 0012 FCD4     		bmi	.L130
ARM GAS  /tmp/ccF97juf.s 			page 21


 1141              		.loc 1 795 0 discriminator 3
 1142 0014 2E7A     		ldrb	r6, [r5, #8]	@ zero_extendqisi2
 1143 0016 6D68     		ldr	r5, [r5, #4]
 1144 0018 3D23     		movs	r3, #61
 1145 001a B340     		lsls	r3, r3, r6
 1146 001c 2B60     		str	r3, [r5]
 1147              		.loc 1 800 0 is_stmt 1 discriminator 3
 1148 001e C368     		ldr	r3, [r0, #12]
 1149              		.loc 1 798 0 discriminator 3
 1150 0020 E260     		str	r2, [r4, #12]
 1151              		.loc 1 800 0 discriminator 3
 1152 0022 43F48263 		orr	r3, r3, #1040
 1153              		.loc 1 799 0 discriminator 3
 1154 0026 6160     		str	r1, [r4, #4]
 1155              		.loc 1 800 0 discriminator 3
 1156 0028 2360     		str	r3, [r4]
 1157              		.loc 1 804 0 discriminator 3
 1158 002a 2368     		ldr	r3, [r4]
 1159 002c 43F00103 		orr	r3, r3, #1
 1160 0030 2360     		str	r3, [r4]
 1161              		.loc 1 805 0 discriminator 3
 1162 0032 70BC     		pop	{r4, r5, r6}
 1163              		.cfi_restore 6
 1164              		.cfi_restore 5
 1165              		.cfi_restore 4
 1166              		.cfi_def_cfa_offset 0
 1167 0034 7047     		bx	lr
 1168              		.cfi_endproc
 1169              	.LFE270:
 1170              		.size	uart_lld_start_receive, .-uart_lld_start_receive
 1171 0036 00BF     		.section	.text.uart_lld_stop_receive,"ax",%progbits
 1172              		.align	2
 1173              		.p2align 4,,15
 1174              		.global	uart_lld_stop_receive
 1175              		.thumb
 1176              		.thumb_func
 1177              		.type	uart_lld_stop_receive, %function
 1178              	uart_lld_stop_receive:
 1179              	.LFB271:
 1180              		.loc 1 818 0
 1181              		.cfi_startproc
 1182              		@ args = 0, pretend = 0, frame = 0
 1183              		@ frame_needed = 0, uses_anonymous_args = 0
 1184              		@ link register save eliminated.
 1185              	.LVL75:
 1186 0000 0146     		mov	r1, r0
 1187              		.loc 1 821 0
 1188 0002 0069     		ldr	r0, [r0, #16]
 1189              	.LVL76:
 1190 0004 0268     		ldr	r2, [r0]
 1191 0006 1368     		ldr	r3, [r2]
 1192 0008 23F01F03 		bic	r3, r3, #31
 1193 000c 1360     		str	r3, [r2]
 1194              	.L134:
 1195              		.loc 1 821 0 is_stmt 0 discriminator 2
 1196 000e 1368     		ldr	r3, [r2]
 1197 0010 DB07     		lsls	r3, r3, #31
ARM GAS  /tmp/ccF97juf.s 			page 22


 1198 0012 FCD4     		bmi	.L134
 1199              		.loc 1 818 0 is_stmt 1 discriminator 3
 1200 0014 30B4     		push	{r4, r5}
 1201              		.cfi_def_cfa_offset 8
 1202              		.cfi_offset 4, -8
 1203              		.cfi_offset 5, -4
 1204              	.LBB68:
 1205              	.LBB69:
 1206              		.loc 1 164 0 discriminator 3
 1207 0016 4B68     		ldr	r3, [r1, #4]
 1208              	.LBE69:
 1209              	.LBE68:
 1210              		.loc 1 821 0 discriminator 3
 1211 0018 057A     		ldrb	r5, [r0, #8]	@ zero_extendqisi2
 1212              	.LBB73:
 1213              	.LBB70:
 1214              		.loc 1 164 0 discriminator 3
 1215 001a DC68     		ldr	r4, [r3, #12]
 1216              	.LBE70:
 1217              	.LBE73:
 1218              		.loc 1 821 0 discriminator 3
 1219 001c 4068     		ldr	r0, [r0, #4]
 1220 001e 3D23     		movs	r3, #61
 1221 0020 AB40     		lsls	r3, r3, r5
 1222 0022 0360     		str	r3, [r0]
 1223              	.LBB74:
 1224              	.LBB71:
 1225              		.loc 1 170 0 discriminator 3
 1226 0024 CB68     		ldr	r3, [r1, #12]
 1227              	.LBE71:
 1228              	.LBE74:
 1229              		.loc 1 822 0 discriminator 3
 1230 0026 5068     		ldr	r0, [r2, #4]
 1231              	.LVL77:
 1232              	.LBB75:
 1233              	.LBB72:
 1234              		.loc 1 167 0 discriminator 3
 1235 0028 002C     		cmp	r4, #0
 1236 002a 0CBF     		ite	eq
 1237 002c 4FF48074 		moveq	r4, #256
 1238 0030 4FF48874 		movne	r4, #272
 1239              	.LVL78:
 1240              		.loc 1 170 0 discriminator 3
 1241 0034 2343     		orrs	r3, r3, r4
 1242              		.loc 1 168 0 discriminator 3
 1243 0036 1831     		adds	r1, r1, #24
 1244              	.LVL79:
 1245              		.loc 1 169 0 discriminator 3
 1246 0038 0124     		movs	r4, #1
 1247              	.LVL80:
 1248              		.loc 1 168 0 discriminator 3
 1249 003a D160     		str	r1, [r2, #12]
 1250              		.loc 1 169 0 discriminator 3
 1251 003c 5460     		str	r4, [r2, #4]
 1252              		.loc 1 170 0 discriminator 3
 1253 003e 1360     		str	r3, [r2]
 1254              		.loc 1 171 0 discriminator 3
ARM GAS  /tmp/ccF97juf.s 			page 23


 1255 0040 1368     		ldr	r3, [r2]
 1256 0042 2343     		orrs	r3, r3, r4
 1257 0044 1360     		str	r3, [r2]
 1258              	.LBE72:
 1259              	.LBE75:
 1260              		.loc 1 826 0 discriminator 3
 1261 0046 30BC     		pop	{r4, r5}
 1262              		.cfi_restore 5
 1263              		.cfi_restore 4
 1264              		.cfi_def_cfa_offset 0
 1265 0048 7047     		bx	lr
 1266              		.cfi_endproc
 1267              	.LFE271:
 1268              		.size	uart_lld_stop_receive, .-uart_lld_stop_receive
 1269              		.global	UARTD6
 1270              		.global	UARTD3
 1271 004a 00BF     		.section	.rodata.str1.4,"aMS",%progbits,1
 1272              		.align	2
 1273              	.LC0:
 1274 0000 444D4120 		.ascii	"DMA failure\000"
 1274      6661696C 
 1274      75726500 
 1275              		.section	.bss.UARTD3,"aw",%nobits
 1276              		.align	2
 1277              		.set	.LANCHOR0,. + 0
 1278              		.type	UARTD3, %object
 1279              		.size	UARTD3, 28
 1280              	UARTD3:
 1281 0000 00000000 		.space	28
 1281      00000000 
 1281      00000000 
 1281      00000000 
 1281      00000000 
 1282              		.section	.bss.UARTD6,"aw",%nobits
 1283              		.align	2
 1284              		.set	.LANCHOR1,. + 0
 1285              		.type	UARTD6, %object
 1286              		.size	UARTD6, 28
 1287              	UARTD6:
 1288 0000 00000000 		.space	28
 1288      00000000 
 1288      00000000 
 1288      00000000 
 1288      00000000 
 1289              		.text
 1290              	.Letext0:
 1291              		.file 3 "/usr/lib/gcc/arm-none-eabi/4.9.3/include/stddef.h"
 1292              		.file 4 "/usr/arm-none-eabi/include/machine/_default_types.h"
 1293              		.file 5 "/usr/arm-none-eabi/include/sys/_stdint.h"
 1294              		.file 6 "ChibiOS_3.0.2/os/rt/ports/ARMCMx/compilers/GCC/chtypes.h"
 1295              		.file 7 "ChibiOS_3.0.2/os/rt/include/chsystypes.h"
 1296              		.file 8 "ChibiOS_3.0.2/os/rt/include/chschd.h"
 1297              		.file 9 "ChibiOS_3.0.2/os/ext/CMSIS/ST/stm32f407xx.h"
 1298              		.file 10 "ChibiOS_3.0.2/os/rt/ports/ARMCMx/chcore.h"
 1299              		.file 11 "ChibiOS_3.0.2/os/rt/ports/ARMCMx/chcore_v7m.h"
 1300              		.file 12 "ChibiOS_3.0.2/os/rt/include/chtm.h"
 1301              		.file 13 "ChibiOS_3.0.2/os/rt/include/chsem.h"
ARM GAS  /tmp/ccF97juf.s 			page 24


 1302              		.file 14 "ChibiOS_3.0.2/os/rt/include/chmtx.h"
 1303              		.file 15 "ChibiOS_3.0.2/os/hal/ports/STM32/STM32F4xx/stm32_dma.h"
 1304              		.file 16 "ChibiOS_3.0.2/os/hal/include/uart.h"
 1305              		.file 17 "ChibiOS_3.0.2/os/hal/ports/STM32/LLD/USARTv1/uart_lld.h"
 1306              		.file 18 "ChibiOS_3.0.2/os/ext/CMSIS/include/core_cm4.h"
 1307              		.file 19 "ChibiOS_3.0.2/os/rt/include/chsys.h"
 1308              		.file 20 "ChibiOS_3.0.2/os/hal/ports/common/ARMCMx/nvic.h"