ARM GAS  /tmp/ccvrq20P.s 			page 1


   1              		.syntax unified
   2              		.cpu cortex-m4
   3              		.eabi_attribute 27, 1
   4              		.eabi_attribute 28, 1
   5              		.fpu fpv4-sp-d16
   6              		.eabi_attribute 20, 1
   7              		.eabi_attribute 21, 1
   8              		.eabi_attribute 23, 3
   9              		.eabi_attribute 24, 1
  10              		.eabi_attribute 25, 1
  11              		.eabi_attribute 26, 1
  12              		.eabi_attribute 30, 2
  13              		.eabi_attribute 34, 1
  14              		.eabi_attribute 18, 4
  15              		.thumb
  16              		.file	"usb.c"
  17              		.text
  18              	.Ltext0:
  19              		.cfi_sections	.debug_frame
  20              		.section	.text.usbInit,"ax",%progbits
  21              		.align	2
  22              		.p2align 4,,15
  23              		.global	usbInit
  24              		.thumb
  25              		.thumb_func
  26              		.type	usbInit, %function
  27              	usbInit:
  28              	.LFB259:
  29              		.file 1 "ChibiOS_3.0.2/os/hal/src/usb.c"
  30              		.loc 1 254 0
  31              		.cfi_startproc
  32              		@ args = 0, pretend = 0, frame = 0
  33              		@ frame_needed = 0, uses_anonymous_args = 0
  34              		@ link register save eliminated.
  35              		.loc 1 256 0
  36 0000 FFF7FEBF 		b	usb_lld_init
  37              	.LVL0:
  38              		.cfi_endproc
  39              	.LFE259:
  40              		.size	usbInit, .-usbInit
  41              		.section	.text.usbObjectInit,"ax",%progbits
  42              		.align	2
  43              		.p2align 4,,15
  44              		.global	usbObjectInit
  45              		.thumb
  46              		.thumb_func
  47              		.type	usbObjectInit, %function
  48              	usbObjectInit:
  49              	.LFB260:
  50              		.loc 1 266 0
  51              		.cfi_startproc
  52              		@ args = 0, pretend = 0, frame = 0
  53              		@ frame_needed = 0, uses_anonymous_args = 0
  54              		@ link register save eliminated.
  55              	.LVL1:
  56              		.loc 1 270 0
  57 0000 0023     		movs	r3, #0
ARM GAS  /tmp/ccvrq20P.s 			page 2


  58              		.loc 1 269 0
  59 0002 0122     		movs	r2, #1
  60 0004 0270     		strb	r2, [r0]
  61              		.loc 1 270 0
  62 0006 4360     		str	r3, [r0, #4]
  63              	.LVL2:
  64              		.loc 1 272 0
  65 0008 C361     		str	r3, [r0, #28]
  66              		.loc 1 273 0
  67 000a 8362     		str	r3, [r0, #40]
  68              	.LVL3:
  69              		.loc 1 272 0
  70 000c 0362     		str	r3, [r0, #32]
  71              		.loc 1 273 0
  72 000e C362     		str	r3, [r0, #44]
  73              	.LVL4:
  74              		.loc 1 272 0
  75 0010 4362     		str	r3, [r0, #36]
  76              		.loc 1 273 0
  77 0012 0363     		str	r3, [r0, #48]
  78              	.LVL5:
  79              		.loc 1 275 0
  80 0014 0381     		strh	r3, [r0, #8]	@ movhi
  81              		.loc 1 276 0
  82 0016 4381     		strh	r3, [r0, #10]	@ movhi
  83 0018 7047     		bx	lr
  84              		.cfi_endproc
  85              	.LFE260:
  86              		.size	usbObjectInit, .-usbObjectInit
  87 001a 00BF     		.section	.text.usbStart,"ax",%progbits
  88              		.align	2
  89              		.p2align 4,,15
  90              		.global	usbStart
  91              		.thumb
  92              		.thumb_func
  93              		.type	usbStart, %function
  94              	usbStart:
  95              	.LFB261:
  96              		.loc 1 287 0
  97              		.cfi_startproc
  98              		@ args = 0, pretend = 0, frame = 0
  99              		@ frame_needed = 0, uses_anonymous_args = 0
 100              	.LVL6:
 101 0000 38B5     		push	{r3, r4, r5, lr}
 102              		.cfi_def_cfa_offset 16
 103              		.cfi_offset 3, -16
 104              		.cfi_offset 4, -12
 105              		.cfi_offset 5, -8
 106              		.cfi_offset 14, -4
 107              		.loc 1 287 0
 108 0002 0446     		mov	r4, r0
 109              	.LBB198:
 110              	.LBB199:
 111              	.LBB200:
 112              	.LBB201:
 113              	.LBB202:
 114              		.file 2 "ChibiOS_3.0.2/os/ext/CMSIS/include/core_cmFunc.h"
ARM GAS  /tmp/ccvrq20P.s 			page 3


 115              		.loc 2 546 0
 116 0004 2023     		movs	r3, #32
 117              	@ 546 "ChibiOS_3.0.2/os/ext/CMSIS/include/core_cmFunc.h" 1
 118 0006 83F31188 		MSR basepri, r3
 119              	@ 0 "" 2
 120              		.thumb
 121              	.LBE202:
 122              	.LBE201:
 123              	.LBE200:
 124              	.LBE199:
 125              	.LBE198:
 126              		.loc 1 297 0
 127 000a 0025     		movs	r5, #0
 128              		.loc 1 295 0
 129 000c 4160     		str	r1, [r0, #4]
 130              	.LVL7:
 131              		.loc 1 297 0
 132 000e C560     		str	r5, [r0, #12]
 133              	.LVL8:
 134 0010 0561     		str	r5, [r0, #16]
 135              	.LVL9:
 136 0012 4561     		str	r5, [r0, #20]
 137              	.LVL10:
 138 0014 8561     		str	r5, [r0, #24]
 139              	.LVL11:
 140              		.loc 1 299 0
 141 0016 FFF7FEFF 		bl	usb_lld_start
 142              	.LVL12:
 143              		.loc 1 300 0
 144 001a 0223     		movs	r3, #2
 145 001c 2370     		strb	r3, [r4]
 146              	.LVL13:
 147              	.LBB203:
 148              	.LBB204:
 149              	.LBB205:
 150              	.LBB206:
 151              	.LBB207:
 152              	.LBB208:
 153              		.loc 2 546 0
 154              	@ 546 "ChibiOS_3.0.2/os/ext/CMSIS/include/core_cmFunc.h" 1
 155 001e 85F31188 		MSR basepri, r5
 156              	@ 0 "" 2
 157              		.thumb
 158 0022 38BD     		pop	{r3, r4, r5, pc}
 159              	.LBE208:
 160              	.LBE207:
 161              	.LBE206:
 162              	.LBE205:
 163              	.LBE204:
 164              	.LBE203:
 165              		.cfi_endproc
 166              	.LFE261:
 167              		.size	usbStart, .-usbStart
 168              		.section	.text.usbStop,"ax",%progbits
 169              		.align	2
 170              		.p2align 4,,15
 171              		.global	usbStop
ARM GAS  /tmp/ccvrq20P.s 			page 4


 172              		.thumb
 173              		.thumb_func
 174              		.type	usbStop, %function
 175              	usbStop:
 176              	.LFB262:
 177              		.loc 1 311 0
 178              		.cfi_startproc
 179              		@ args = 0, pretend = 0, frame = 0
 180              		@ frame_needed = 0, uses_anonymous_args = 0
 181              	.LVL14:
 182 0000 10B5     		push	{r4, lr}
 183              		.cfi_def_cfa_offset 8
 184              		.cfi_offset 4, -8
 185              		.cfi_offset 14, -4
 186              	.LBB209:
 187              	.LBB210:
 188              	.LBB211:
 189              	.LBB212:
 190              	.LBB213:
 191              		.loc 2 546 0
 192 0002 2023     		movs	r3, #32
 193              	.LBE213:
 194              	.LBE212:
 195              	.LBE211:
 196              	.LBE210:
 197              	.LBE209:
 198              		.loc 1 311 0
 199 0004 0446     		mov	r4, r0
 200              	.LBB218:
 201              	.LBB217:
 202              	.LBB216:
 203              	.LBB215:
 204              	.LBB214:
 205              		.loc 2 546 0
 206              	@ 546 "ChibiOS_3.0.2/os/ext/CMSIS/include/core_cmFunc.h" 1
 207 0006 83F31188 		MSR basepri, r3
 208              	@ 0 "" 2
 209              		.thumb
 210              	.LBE214:
 211              	.LBE215:
 212              	.LBE216:
 213              	.LBE217:
 214              	.LBE218:
 215              		.loc 1 319 0
 216 000a FFF7FEFF 		bl	usb_lld_stop
 217              	.LVL15:
 218              		.loc 1 320 0
 219 000e 0123     		movs	r3, #1
 220 0010 2370     		strb	r3, [r4]
 221              	.LVL16:
 222              	.LBB219:
 223              	.LBB220:
 224              	.LBB221:
 225              	.LBB222:
 226              	.LBB223:
 227              	.LBB224:
 228              		.loc 2 546 0
ARM GAS  /tmp/ccvrq20P.s 			page 5


 229 0012 0023     		movs	r3, #0
 230              	@ 546 "ChibiOS_3.0.2/os/ext/CMSIS/include/core_cmFunc.h" 1
 231 0014 83F31188 		MSR basepri, r3
 232              	@ 0 "" 2
 233              		.thumb
 234 0018 10BD     		pop	{r4, pc}
 235              	.LBE224:
 236              	.LBE223:
 237              	.LBE222:
 238              	.LBE221:
 239              	.LBE220:
 240              	.LBE219:
 241              		.cfi_endproc
 242              	.LFE262:
 243              		.size	usbStop, .-usbStop
 244 001a 00BF     		.section	.text.usbInitEndpointI,"ax",%progbits
 245              		.align	2
 246              		.p2align 4,,15
 247              		.global	usbInitEndpointI
 248              		.thumb
 249              		.thumb_func
 250              		.type	usbInitEndpointI, %function
 251              	usbInitEndpointI:
 252              	.LFB263:
 253              		.loc 1 338 0
 254              		.cfi_startproc
 255              		@ args = 0, pretend = 0, frame = 0
 256              		@ frame_needed = 0, uses_anonymous_args = 0
 257              	.LVL17:
 258 0000 70B5     		push	{r4, r5, r6, lr}
 259              		.cfi_def_cfa_offset 16
 260              		.cfi_offset 4, -16
 261              		.cfi_offset 5, -12
 262              		.cfi_offset 6, -8
 263              		.cfi_offset 14, -4
 264              		.loc 1 338 0
 265 0002 0646     		mov	r6, r0
 266              		.loc 1 347 0
 267 0004 5069     		ldr	r0, [r2, #20]
 268              	.LVL18:
 269              		.loc 1 338 0
 270 0006 1446     		mov	r4, r2
 271 0008 0D46     		mov	r5, r1
 272              		.loc 1 347 0
 273 000a 18B1     		cbz	r0, .L8
 274              		.loc 1 348 0
 275 000c 0021     		movs	r1, #0
 276              	.LVL19:
 277 000e 1422     		movs	r2, #20
 278              	.LVL20:
 279 0010 FFF7FEFF 		bl	memset
 280              	.LVL21:
 281              	.L8:
 282              		.loc 1 350 0
 283 0014 A069     		ldr	r0, [r4, #24]
 284 0016 18B1     		cbz	r0, .L9
 285              		.loc 1 351 0
ARM GAS  /tmp/ccvrq20P.s 			page 6


 286 0018 0021     		movs	r1, #0
 287 001a 1422     		movs	r2, #20
 288 001c FFF7FEFF 		bl	memset
 289              	.LVL22:
 290              	.L9:
 291              		.loc 1 354 0
 292 0020 06EB8503 		add	r3, r6, r5, lsl #2
 293              		.loc 1 357 0
 294 0024 3046     		mov	r0, r6
 295              		.loc 1 354 0
 296 0026 DC60     		str	r4, [r3, #12]
 297              		.loc 1 357 0
 298 0028 2946     		mov	r1, r5
 299              		.loc 1 358 0
 300 002a BDE87040 		pop	{r4, r5, r6, lr}
 301              		.cfi_restore 14
 302              		.cfi_restore 6
 303              		.cfi_restore 5
 304              		.cfi_restore 4
 305              		.cfi_def_cfa_offset 0
 306              	.LVL23:
 307              		.loc 1 357 0
 308 002e FFF7FEBF 		b	usb_lld_init_endpoint
 309              	.LVL24:
 310              		.cfi_endproc
 311              	.LFE263:
 312              		.size	usbInitEndpointI, .-usbInitEndpointI
 313 0032 00BF     		.section	.text.usbDisableEndpointsI,"ax",%progbits
 314              		.align	2
 315              		.p2align 4,,15
 316              		.global	usbDisableEndpointsI
 317              		.thumb
 318              		.thumb_func
 319              		.type	usbDisableEndpointsI, %function
 320              	usbDisableEndpointsI:
 321              	.LFB264:
 322              		.loc 1 371 0
 323              		.cfi_startproc
 324              		@ args = 0, pretend = 0, frame = 0
 325              		@ frame_needed = 0, uses_anonymous_args = 0
 326              		@ link register save eliminated.
 327              	.LVL25:
 328 0000 10B4     		push	{r4}
 329              		.cfi_def_cfa_offset 4
 330              		.cfi_offset 4, -4
 331              		.loc 1 379 0
 332 0002 4189     		ldrh	r1, [r0, #10]
 333              		.loc 1 378 0
 334 0004 0489     		ldrh	r4, [r0, #8]
 335              		.loc 1 381 0
 336 0006 0022     		movs	r2, #0
 337              		.loc 1 378 0
 338 0008 24F00104 		bic	r4, r4, #1
 339              		.loc 1 379 0
 340 000c 21F00101 		bic	r1, r1, #1
 341              		.loc 1 378 0
 342 0010 0481     		strh	r4, [r0, #8]	@ movhi
ARM GAS  /tmp/ccvrq20P.s 			page 7


 343              		.loc 1 381 0
 344 0012 0261     		str	r2, [r0, #16]
 345              		.loc 1 379 0
 346 0014 4181     		strh	r1, [r0, #10]	@ movhi
 347              	.LVL26:
 348              		.loc 1 381 0
 349 0016 4261     		str	r2, [r0, #20]
 350              	.LVL27:
 351 0018 8261     		str	r2, [r0, #24]
 352              	.LVL28:
 353              		.loc 1 386 0
 354 001a 5DF8044B 		ldr	r4, [sp], #4
 355              		.cfi_restore 4
 356              		.cfi_def_cfa_offset 0
 357              		.loc 1 385 0
 358 001e FFF7FEBF 		b	usb_lld_disable_endpoints
 359              	.LVL29:
 360              		.cfi_endproc
 361              	.LFE264:
 362              		.size	usbDisableEndpointsI, .-usbDisableEndpointsI
 363 0022 00BF     		.section	.text.usbPrepareReceive,"ax",%progbits
 364              		.align	2
 365              		.p2align 4,,15
 366              		.global	usbPrepareReceive
 367              		.thumb
 368              		.thumb_func
 369              		.type	usbPrepareReceive, %function
 370              	usbPrepareReceive:
 371              	.LFB265:
 372              		.loc 1 400 0
 373              		.cfi_startproc
 374              		@ args = 0, pretend = 0, frame = 0
 375              		@ frame_needed = 0, uses_anonymous_args = 0
 376              		@ link register save eliminated.
 377              	.LVL30:
 378 0000 30B4     		push	{r4, r5}
 379              		.cfi_def_cfa_offset 8
 380              		.cfi_offset 4, -8
 381              		.cfi_offset 5, -4
 382              		.loc 1 401 0
 383 0002 00EB8104 		add	r4, r0, r1, lsl #2
 384              		.loc 1 403 0
 385 0006 0025     		movs	r5, #0
 386              		.loc 1 401 0
 387 0008 E468     		ldr	r4, [r4, #12]
 388 000a A469     		ldr	r4, [r4, #24]
 389              	.LVL31:
 390              		.loc 1 404 0
 391 000c E260     		str	r2, [r4, #12]
 392              		.loc 1 405 0
 393 000e 6360     		str	r3, [r4, #4]
 394              		.loc 1 403 0
 395 0010 2570     		strb	r5, [r4]
 396              		.loc 1 406 0
 397 0012 A560     		str	r5, [r4, #8]
 398              		.loc 1 409 0
 399 0014 30BC     		pop	{r4, r5}
ARM GAS  /tmp/ccvrq20P.s 			page 8


 400              		.cfi_restore 5
 401              		.cfi_restore 4
 402              		.cfi_def_cfa_offset 0
 403              	.LVL32:
 404              		.loc 1 408 0
 405 0016 FFF7FEBF 		b	usb_lld_prepare_receive
 406              	.LVL33:
 407              		.cfi_endproc
 408              	.LFE265:
 409              		.size	usbPrepareReceive, .-usbPrepareReceive
 410 001a 00BF     		.section	.text.usbPrepareTransmit,"ax",%progbits
 411              		.align	2
 412              		.p2align 4,,15
 413              		.global	usbPrepareTransmit
 414              		.thumb
 415              		.thumb_func
 416              		.type	usbPrepareTransmit, %function
 417              	usbPrepareTransmit:
 418              	.LFB266:
 419              		.loc 1 426 0
 420              		.cfi_startproc
 421              		@ args = 0, pretend = 0, frame = 0
 422              		@ frame_needed = 0, uses_anonymous_args = 0
 423              		@ link register save eliminated.
 424              	.LVL34:
 425 0000 30B4     		push	{r4, r5}
 426              		.cfi_def_cfa_offset 8
 427              		.cfi_offset 4, -8
 428              		.cfi_offset 5, -4
 429              		.loc 1 427 0
 430 0002 00EB8104 		add	r4, r0, r1, lsl #2
 431              		.loc 1 429 0
 432 0006 0025     		movs	r5, #0
 433              		.loc 1 427 0
 434 0008 E468     		ldr	r4, [r4, #12]
 435 000a 6469     		ldr	r4, [r4, #20]
 436              	.LVL35:
 437              		.loc 1 430 0
 438 000c E260     		str	r2, [r4, #12]
 439              		.loc 1 431 0
 440 000e 6360     		str	r3, [r4, #4]
 441              		.loc 1 429 0
 442 0010 2570     		strb	r5, [r4]
 443              		.loc 1 432 0
 444 0012 A560     		str	r5, [r4, #8]
 445              		.loc 1 435 0
 446 0014 30BC     		pop	{r4, r5}
 447              		.cfi_restore 5
 448              		.cfi_restore 4
 449              		.cfi_def_cfa_offset 0
 450              	.LVL36:
 451              		.loc 1 434 0
 452 0016 FFF7FEBF 		b	usb_lld_prepare_transmit
 453              	.LVL37:
 454              		.cfi_endproc
 455              	.LFE266:
 456              		.size	usbPrepareTransmit, .-usbPrepareTransmit
ARM GAS  /tmp/ccvrq20P.s 			page 9


 457 001a 00BF     		.section	.text.usbPrepareQueuedReceive,"ax",%progbits
 458              		.align	2
 459              		.p2align 4,,15
 460              		.global	usbPrepareQueuedReceive
 461              		.thumb
 462              		.thumb_func
 463              		.type	usbPrepareQueuedReceive, %function
 464              	usbPrepareQueuedReceive:
 465              	.LFB267:
 466              		.loc 1 455 0
 467              		.cfi_startproc
 468              		@ args = 0, pretend = 0, frame = 0
 469              		@ frame_needed = 0, uses_anonymous_args = 0
 470              		@ link register save eliminated.
 471              	.LVL38:
 472 0000 70B4     		push	{r4, r5, r6}
 473              		.cfi_def_cfa_offset 12
 474              		.cfi_offset 4, -12
 475              		.cfi_offset 5, -8
 476              		.cfi_offset 6, -4
 477              		.loc 1 456 0
 478 0002 00EB8104 		add	r4, r0, r1, lsl #2
 479              		.loc 1 458 0
 480 0006 0126     		movs	r6, #1
 481              		.loc 1 456 0
 482 0008 E468     		ldr	r4, [r4, #12]
 483 000a A469     		ldr	r4, [r4, #24]
 484              	.LVL39:
 485              		.loc 1 461 0
 486 000c 0025     		movs	r5, #0
 487              		.loc 1 459 0
 488 000e E260     		str	r2, [r4, #12]
 489              		.loc 1 460 0
 490 0010 6360     		str	r3, [r4, #4]
 491              		.loc 1 458 0
 492 0012 2670     		strb	r6, [r4]
 493              		.loc 1 461 0
 494 0014 A560     		str	r5, [r4, #8]
 495              		.loc 1 464 0
 496 0016 70BC     		pop	{r4, r5, r6}
 497              		.cfi_restore 6
 498              		.cfi_restore 5
 499              		.cfi_restore 4
 500              		.cfi_def_cfa_offset 0
 501              	.LVL40:
 502              		.loc 1 463 0
 503 0018 FFF7FEBF 		b	usb_lld_prepare_receive
 504              	.LVL41:
 505              		.cfi_endproc
 506              	.LFE267:
 507              		.size	usbPrepareQueuedReceive, .-usbPrepareQueuedReceive
 508              		.section	.text.usbPrepareQueuedTransmit,"ax",%progbits
 509              		.align	2
 510              		.p2align 4,,15
 511              		.global	usbPrepareQueuedTransmit
 512              		.thumb
 513              		.thumb_func
ARM GAS  /tmp/ccvrq20P.s 			page 10


 514              		.type	usbPrepareQueuedTransmit, %function
 515              	usbPrepareQueuedTransmit:
 516              	.LFB268:
 517              		.loc 1 481 0
 518              		.cfi_startproc
 519              		@ args = 0, pretend = 0, frame = 0
 520              		@ frame_needed = 0, uses_anonymous_args = 0
 521              		@ link register save eliminated.
 522              	.LVL42:
 523 0000 70B4     		push	{r4, r5, r6}
 524              		.cfi_def_cfa_offset 12
 525              		.cfi_offset 4, -12
 526              		.cfi_offset 5, -8
 527              		.cfi_offset 6, -4
 528              		.loc 1 482 0
 529 0002 00EB8104 		add	r4, r0, r1, lsl #2
 530              		.loc 1 484 0
 531 0006 0126     		movs	r6, #1
 532              		.loc 1 482 0
 533 0008 E468     		ldr	r4, [r4, #12]
 534 000a 6469     		ldr	r4, [r4, #20]
 535              	.LVL43:
 536              		.loc 1 487 0
 537 000c 0025     		movs	r5, #0
 538              		.loc 1 485 0
 539 000e E260     		str	r2, [r4, #12]
 540              		.loc 1 486 0
 541 0010 6360     		str	r3, [r4, #4]
 542              		.loc 1 484 0
 543 0012 2670     		strb	r6, [r4]
 544              		.loc 1 487 0
 545 0014 A560     		str	r5, [r4, #8]
 546              		.loc 1 490 0
 547 0016 70BC     		pop	{r4, r5, r6}
 548              		.cfi_restore 6
 549              		.cfi_restore 5
 550              		.cfi_restore 4
 551              		.cfi_def_cfa_offset 0
 552              	.LVL44:
 553              		.loc 1 489 0
 554 0018 FFF7FEBF 		b	usb_lld_prepare_transmit
 555              	.LVL45:
 556              		.cfi_endproc
 557              	.LFE268:
 558              		.size	usbPrepareQueuedTransmit, .-usbPrepareQueuedTransmit
 559              		.section	.text.usbStartReceiveI,"ax",%progbits
 560              		.align	2
 561              		.p2align 4,,15
 562              		.global	usbStartReceiveI
 563              		.thumb
 564              		.thumb_func
 565              		.type	usbStartReceiveI, %function
 566              	usbStartReceiveI:
 567              	.LFB269:
 568              		.loc 1 506 0
 569              		.cfi_startproc
 570              		@ args = 0, pretend = 0, frame = 0
ARM GAS  /tmp/ccvrq20P.s 			page 11


 571              		@ frame_needed = 0, uses_anonymous_args = 0
 572              	.LVL46:
 573              		.loc 1 511 0
 574 0000 0122     		movs	r2, #1
 575              		.loc 1 506 0
 576 0002 70B5     		push	{r4, r5, r6, lr}
 577              		.cfi_def_cfa_offset 16
 578              		.cfi_offset 4, -16
 579              		.cfi_offset 5, -12
 580              		.cfi_offset 6, -8
 581              		.cfi_offset 14, -4
 582              		.loc 1 511 0
 583 0004 02FA01F3 		lsl	r3, r2, r1
 584 0008 4489     		ldrh	r4, [r0, #10]
 585 000a 9BB2     		uxth	r3, r3
 586 000c 13EA0406 		ands	r6, r3, r4
 587 0010 01D0     		beq	.L32
 588              		.loc 1 512 0
 589 0012 1046     		mov	r0, r2
 590              	.LVL47:
 591              		.loc 1 518 0
 592 0014 70BD     		pop	{r4, r5, r6, pc}
 593              	.LVL48:
 594              	.L32:
 595              		.loc 1 515 0
 596 0016 2343     		orrs	r3, r3, r4
 597 0018 4381     		strh	r3, [r0, #10]	@ movhi
 598              		.loc 1 516 0
 599 001a FFF7FEFF 		bl	usb_lld_start_out
 600              	.LVL49:
 601              		.loc 1 517 0
 602 001e 3046     		mov	r0, r6
 603 0020 70BD     		pop	{r4, r5, r6, pc}
 604              		.cfi_endproc
 605              	.LFE269:
 606              		.size	usbStartReceiveI, .-usbStartReceiveI
 607 0022 00BF     		.section	.text.usbStartTransmitI,"ax",%progbits
 608              		.align	2
 609              		.p2align 4,,15
 610              		.global	usbStartTransmitI
 611              		.thumb
 612              		.thumb_func
 613              		.type	usbStartTransmitI, %function
 614              	usbStartTransmitI:
 615              	.LFB270:
 616              		.loc 1 534 0
 617              		.cfi_startproc
 618              		@ args = 0, pretend = 0, frame = 0
 619              		@ frame_needed = 0, uses_anonymous_args = 0
 620              	.LVL50:
 621              		.loc 1 539 0
 622 0000 0122     		movs	r2, #1
 623              		.loc 1 534 0
 624 0002 70B5     		push	{r4, r5, r6, lr}
 625              		.cfi_def_cfa_offset 16
 626              		.cfi_offset 4, -16
 627              		.cfi_offset 5, -12
ARM GAS  /tmp/ccvrq20P.s 			page 12


 628              		.cfi_offset 6, -8
 629              		.cfi_offset 14, -4
 630              		.loc 1 539 0
 631 0004 02FA01F3 		lsl	r3, r2, r1
 632 0008 0489     		ldrh	r4, [r0, #8]
 633 000a 9BB2     		uxth	r3, r3
 634 000c 13EA0406 		ands	r6, r3, r4
 635 0010 01D0     		beq	.L37
 636              		.loc 1 540 0
 637 0012 1046     		mov	r0, r2
 638              	.LVL51:
 639              		.loc 1 546 0
 640 0014 70BD     		pop	{r4, r5, r6, pc}
 641              	.LVL52:
 642              	.L37:
 643              		.loc 1 543 0
 644 0016 2343     		orrs	r3, r3, r4
 645 0018 0381     		strh	r3, [r0, #8]	@ movhi
 646              		.loc 1 544 0
 647 001a FFF7FEFF 		bl	usb_lld_start_in
 648              	.LVL53:
 649              		.loc 1 545 0
 650 001e 3046     		mov	r0, r6
 651 0020 70BD     		pop	{r4, r5, r6, pc}
 652              		.cfi_endproc
 653              	.LFE270:
 654              		.size	usbStartTransmitI, .-usbStartTransmitI
 655 0022 00BF     		.section	.text.usbStallReceiveI,"ax",%progbits
 656              		.align	2
 657              		.p2align 4,,15
 658              		.global	usbStallReceiveI
 659              		.thumb
 660              		.thumb_func
 661              		.type	usbStallReceiveI, %function
 662              	usbStallReceiveI:
 663              	.LFB271:
 664              		.loc 1 560 0
 665              		.cfi_startproc
 666              		@ args = 0, pretend = 0, frame = 0
 667              		@ frame_needed = 0, uses_anonymous_args = 0
 668              	.LVL54:
 669 0000 10B5     		push	{r4, lr}
 670              		.cfi_def_cfa_offset 8
 671              		.cfi_offset 4, -8
 672              		.cfi_offset 14, -4
 673              		.loc 1 565 0
 674 0002 0123     		movs	r3, #1
 675 0004 4489     		ldrh	r4, [r0, #10]
 676 0006 03FA01F2 		lsl	r2, r3, r1
 677 000a 1440     		ands	r4, r2, r4
 678 000c 01D0     		beq	.L42
 679              		.loc 1 566 0
 680 000e 1846     		mov	r0, r3
 681              	.LVL55:
 682              		.loc 1 571 0
 683 0010 10BD     		pop	{r4, pc}
 684              	.LVL56:
ARM GAS  /tmp/ccvrq20P.s 			page 13


 685              	.L42:
 686              		.loc 1 569 0
 687 0012 FFF7FEFF 		bl	usb_lld_stall_out
 688              	.LVL57:
 689              		.loc 1 570 0
 690 0016 2046     		mov	r0, r4
 691 0018 10BD     		pop	{r4, pc}
 692              		.cfi_endproc
 693              	.LFE271:
 694              		.size	usbStallReceiveI, .-usbStallReceiveI
 695 001a 00BF     		.section	.text.usbStallTransmitI,"ax",%progbits
 696              		.align	2
 697              		.p2align 4,,15
 698              		.global	usbStallTransmitI
 699              		.thumb
 700              		.thumb_func
 701              		.type	usbStallTransmitI, %function
 702              	usbStallTransmitI:
 703              	.LFB272:
 704              		.loc 1 585 0
 705              		.cfi_startproc
 706              		@ args = 0, pretend = 0, frame = 0
 707              		@ frame_needed = 0, uses_anonymous_args = 0
 708              	.LVL58:
 709 0000 10B5     		push	{r4, lr}
 710              		.cfi_def_cfa_offset 8
 711              		.cfi_offset 4, -8
 712              		.cfi_offset 14, -4
 713              		.loc 1 590 0
 714 0002 0123     		movs	r3, #1
 715 0004 0489     		ldrh	r4, [r0, #8]
 716 0006 03FA01F2 		lsl	r2, r3, r1
 717 000a 1440     		ands	r4, r2, r4
 718 000c 01D0     		beq	.L47
 719              		.loc 1 591 0
 720 000e 1846     		mov	r0, r3
 721              	.LVL59:
 722              		.loc 1 596 0
 723 0010 10BD     		pop	{r4, pc}
 724              	.LVL60:
 725              	.L47:
 726              		.loc 1 594 0
 727 0012 FFF7FEFF 		bl	usb_lld_stall_in
 728              	.LVL61:
 729              		.loc 1 595 0
 730 0016 2046     		mov	r0, r4
 731 0018 10BD     		pop	{r4, pc}
 732              		.cfi_endproc
 733              	.LFE272:
 734              		.size	usbStallTransmitI, .-usbStallTransmitI
 735 001a 00BF     		.section	.text._usb_reset,"ax",%progbits
 736              		.align	2
 737              		.p2align 4,,15
 738              		.global	_usb_reset
 739              		.thumb
 740              		.thumb_func
 741              		.type	_usb_reset, %function
ARM GAS  /tmp/ccvrq20P.s 			page 14


 742              	_usb_reset:
 743              	.LFB273:
 744              		.loc 1 607 0
 745              		.cfi_startproc
 746              		@ args = 0, pretend = 0, frame = 0
 747              		@ frame_needed = 0, uses_anonymous_args = 0
 748              		@ link register save eliminated.
 749              	.LVL62:
 750              		.loc 1 611 0
 751 0000 0022     		movs	r2, #0
 752              		.loc 1 610 0
 753 0002 0221     		movs	r1, #2
 754 0004 0170     		strb	r1, [r0]
 755              		.loc 1 611 0
 756 0006 A0F84C20 		strh	r2, [r0, #76]	@ movhi
 757              		.loc 1 612 0
 758 000a 80F84E20 		strb	r2, [r0, #78]
 759              		.loc 1 613 0
 760 000e 80F84F20 		strb	r2, [r0, #79]
 761              		.loc 1 614 0
 762 0012 0281     		strh	r2, [r0, #8]	@ movhi
 763              		.loc 1 615 0
 764 0014 4281     		strh	r2, [r0, #10]	@ movhi
 765              	.LVL63:
 766              		.loc 1 619 0
 767 0016 C260     		str	r2, [r0, #12]
 768              	.LVL64:
 769 0018 0261     		str	r2, [r0, #16]
 770              	.LVL65:
 771 001a 4261     		str	r2, [r0, #20]
 772              	.LVL66:
 773 001c 8261     		str	r2, [r0, #24]
 774              	.LVL67:
 775              		.loc 1 623 0
 776 001e 80F83420 		strb	r2, [r0, #52]
 777              		.loc 1 626 0
 778 0022 FFF7FEBF 		b	usb_lld_reset
 779              	.LVL68:
 780              		.cfi_endproc
 781              	.LFE273:
 782              		.size	_usb_reset, .-_usb_reset
 783 0026 00BF     		.section	.text._usb_ep0setup,"ax",%progbits
 784              		.align	2
 785              		.p2align 4,,15
 786              		.global	_usb_ep0setup
 787              		.thumb
 788              		.thumb_func
 789              		.type	_usb_ep0setup, %function
 790              	_usb_ep0setup:
 791              	.LFB274:
 792              		.loc 1 639 0
 793              		.cfi_startproc
 794              		@ args = 0, pretend = 0, frame = 0
 795              		@ frame_needed = 0, uses_anonymous_args = 0
 796              	.LVL69:
 797 0000 F8B5     		push	{r3, r4, r5, r6, r7, lr}
 798              		.cfi_def_cfa_offset 24
ARM GAS  /tmp/ccvrq20P.s 			page 15


 799              		.cfi_offset 3, -24
 800              		.cfi_offset 4, -20
 801              		.cfi_offset 5, -16
 802              		.cfi_offset 6, -12
 803              		.cfi_offset 7, -8
 804              		.cfi_offset 14, -4
 805              		.loc 1 642 0
 806 0002 0023     		movs	r3, #0
 807              		.loc 1 639 0
 808 0004 0446     		mov	r4, r0
 809              		.loc 1 642 0
 810 0006 80F83430 		strb	r3, [r0, #52]
 811              		.loc 1 643 0
 812 000a 00F14402 		add	r2, r0, #68
 813 000e FFF7FEFF 		bl	usb_lld_read_setup
 814              	.LVL70:
 815              		.loc 1 648 0
 816 0012 6368     		ldr	r3, [r4, #4]
 817 0014 9B68     		ldr	r3, [r3, #8]
 818 0016 63B3     		cbz	r3, .L54
 819              		.loc 1 649 0 discriminator 1
 820 0018 2046     		mov	r0, r4
 821 001a 9847     		blx	r3
 822              	.LVL71:
 823              		.loc 1 648 0 discriminator 1
 824 001c 48B3     		cbz	r0, .L54
 825 001e E56B     		ldr	r5, [r4, #60]
 826 0020 94F84430 		ldrb	r3, [r4, #68]	@ zero_extendqisi2
 827              	.L93:
 828              	.LVL72:
 829              	.LBB289:
 830              	.LBB290:
 831              		.loc 1 55 0
 832 0024 94F84B10 		ldrb	r1, [r4, #75]	@ zero_extendqisi2
 833 0028 94F84A20 		ldrb	r2, [r4, #74]	@ zero_extendqisi2
 834              	.LBE290:
 835              	.LBE289:
 836              		.loc 1 676 0
 837 002c 42EA0122 		orr	r2, r2, r1, lsl #8
 838              	.LVL73:
 839              		.loc 1 678 0
 840 0030 AA42     		cmp	r2, r5
 841              		.loc 1 679 0
 842 0032 3CBF     		itt	cc
 843 0034 E263     		strcc	r2, [r4, #60]
 844 0036 1546     		movcc	r5, r2
 845              		.loc 1 681 0
 846 0038 13F0800F 		tst	r3, #128
 847              	.LBB291:
 848              	.LBB292:
 849              		.loc 1 427 0
 850 003c E368     		ldr	r3, [r4, #12]
 851              	.LBE292:
 852              	.LBE291:
 853              		.loc 1 681 0
 854 003e 40F08880 		bne	.L119
 855              		.loc 1 707 0
ARM GAS  /tmp/ccvrq20P.s 			page 16


 856 0042 002D     		cmp	r5, #0
 857 0044 6DD1     		bne	.L120
 858              	.LBB296:
 859              	.LBB297:
 860              		.loc 1 427 0
 861 0046 5B69     		ldr	r3, [r3, #20]
 862              	.LBE297:
 863              	.LBE296:
 864              		.loc 1 718 0
 865 0048 0522     		movs	r2, #5
 866              	.LVL74:
 867 004a 84F83420 		strb	r2, [r4, #52]
 868              	.LVL75:
 869              	.LBB299:
 870              	.LBB298:
 871              		.loc 1 434 0
 872 004e 2046     		mov	r0, r4
 873              		.loc 1 429 0
 874 0050 1D70     		strb	r5, [r3]
 875              	.LVL76:
 876              		.loc 1 430 0
 877 0052 DD60     		str	r5, [r3, #12]
 878              		.loc 1 431 0
 879 0054 5D60     		str	r5, [r3, #4]
 880              		.loc 1 432 0
 881 0056 9D60     		str	r5, [r3, #8]
 882              		.loc 1 434 0
 883 0058 2946     		mov	r1, r5
 884 005a FFF7FEFF 		bl	usb_lld_prepare_transmit
 885              	.LVL77:
 886              	.LBE298:
 887              	.LBE299:
 888              	.LBB300:
 889              	.LBB301:
 890              	.LBB302:
 891              	.LBB303:
 892              	.LBB304:
 893              	.LBB305:
 894              		.loc 2 546 0
 895 005e 2023     		movs	r3, #32
 896              	@ 546 "ChibiOS_3.0.2/os/ext/CMSIS/include/core_cmFunc.h" 1
 897 0060 83F31188 		MSR basepri, r3
 898              	@ 0 "" 2
 899              		.thumb
 900              	.LBE305:
 901              	.LBE304:
 902              	.LBE303:
 903              	.LBE302:
 904              	.LBE301:
 905              	.LBE300:
 906              		.loc 1 722 0
 907 0064 2046     		mov	r0, r4
 908 0066 2946     		mov	r1, r5
 909 0068 FFF7FEFF 		bl	usbStartTransmitI
 910              	.LVL78:
 911              	.LBB306:
 912              	.LBB307:
ARM GAS  /tmp/ccvrq20P.s 			page 17


 913              	.LBB308:
 914              	.LBB309:
 915              	.LBB310:
 916              	.LBB311:
 917              		.loc 2 546 0
 918              	@ 546 "ChibiOS_3.0.2/os/ext/CMSIS/include/core_cmFunc.h" 1
 919 006c 85F31188 		MSR basepri, r5
 920              	@ 0 "" 2
 921              		.thumb
 922 0070 F8BD     		pop	{r3, r4, r5, r6, r7, pc}
 923              	.LVL79:
 924              	.L54:
 925              	.LBE311:
 926              	.LBE310:
 927              	.LBE309:
 928              	.LBE308:
 929              	.LBE307:
 930              	.LBE306:
 931              		.loc 1 654 0
 932 0072 94F84430 		ldrb	r3, [r4, #68]	@ zero_extendqisi2
 933 0076 13F06007 		ands	r7, r3, #96
 934 007a 11D0     		beq	.L121
 935              	.L51:
 936              		.loc 1 660 0
 937 007c 2046     		mov	r0, r4
 938 007e 0021     		movs	r1, #0
 939 0080 FFF7FEFF 		bl	usb_lld_stall_in
 940              	.LVL80:
 941              		.loc 1 661 0
 942 0084 2046     		mov	r0, r4
 943 0086 0021     		movs	r1, #0
 944 0088 FFF7FEFF 		bl	usb_lld_stall_out
 945              	.LVL81:
 946              		.loc 1 662 0
 947 008c 6368     		ldr	r3, [r4, #4]
 948 008e 1B68     		ldr	r3, [r3]
 949 0090 13B1     		cbz	r3, .L87
 950              		.loc 1 662 0 is_stmt 0 discriminator 1
 951 0092 2046     		mov	r0, r4
 952 0094 0521     		movs	r1, #5
 953 0096 9847     		blx	r3
 954              	.LVL82:
 955              	.L87:
 956              		.loc 1 663 0 is_stmt 1
 957 0098 0623     		movs	r3, #6
 958 009a 84F83430 		strb	r3, [r4, #52]
 959              		.loc 1 664 0
 960 009e F8BD     		pop	{r3, r4, r5, r6, r7, pc}
 961              	.LVL83:
 962              	.L121:
 963              	.LBB312:
 964              	.LBB313:
 965              		.loc 1 90 0
 966 00a0 94F84550 		ldrb	r5, [r4, #69]	@ zero_extendqisi2
 967              		.loc 1 88 0
 968 00a4 03F07F02 		and	r2, r3, #127
 969              		.loc 1 89 0
ARM GAS  /tmp/ccvrq20P.s 			page 18


 970 00a8 42EA0526 		orr	r6, r2, r5, lsl #8
 971              		.loc 1 88 0
 972 00ac B6F5407F 		cmp	r6, #768
 973 00b0 00F00081 		beq	.L56
 974 00b4 17D9     		bls	.L122
 975 00b6 B6F5C06F 		cmp	r6, #1536
 976 00ba 00F0E280 		beq	.L64
 977 00be 77D9     		bls	.L123
 978 00c0 B6F5106F 		cmp	r6, #2304
 979 00c4 00F08780 		beq	.L68
 980 00c8 40F60242 		movw	r2, #3074
 981 00cc 9642     		cmp	r6, r2
 982 00ce 00F00481 		beq	.L61
 983 00d2 B6F5006F 		cmp	r6, #2048
 984 00d6 D1D1     		bne	.L51
 985              		.loc 1 141 0
 986 00d8 04F14F02 		add	r2, r4, #79
 987 00dc 0125     		movs	r5, #1
 988 00de 2764     		str	r7, [r4, #64]
 989 00e0 A263     		str	r2, [r4, #56]
 990 00e2 E563     		str	r5, [r4, #60]
 991 00e4 9EE7     		b	.L93
 992              	.L122:
 993              		.loc 1 88 0
 994 00e6 022E     		cmp	r6, #2
 995 00e8 00F0B480 		beq	.L58
 996 00ec 40F2A980 		bls	.L124
 997 00f0 B6F5807F 		cmp	r6, #256
 998 00f4 00F09580 		beq	.L62
 999 00f8 B6F5817F 		cmp	r6, #258
 1000 00fc BED1     		bne	.L51
 1001              		.loc 1 201 0
 1002 00fe 94F84620 		ldrb	r2, [r4, #70]	@ zero_extendqisi2
 1003 0102 002A     		cmp	r2, #0
 1004 0104 BAD1     		bne	.L51
 1005              		.loc 1 205 0
 1006 0106 94F84820 		ldrb	r2, [r4, #72]	@ zero_extendqisi2
 1007 010a 12F00F01 		ands	r1, r2, #15
 1008 010e 5DD0     		beq	.L85
 1009              		.loc 1 206 0
 1010 0110 1206     		lsls	r2, r2, #24
 1011              		.loc 1 207 0
 1012 0112 2046     		mov	r0, r4
 1013              		.loc 1 206 0
 1014 0114 00F10981 		bmi	.L125
 1015              	.LVL84:
 1016              		.loc 1 210 0
 1017 0118 FFF7FEFF 		bl	usb_lld_clear_out
 1018              	.LVL85:
 1019 011c 94F84430 		ldrb	r3, [r4, #68]	@ zero_extendqisi2
 1020 0120 54E0     		b	.L85
 1021              	.LVL86:
 1022              	.L120:
 1023              	.LBE313:
 1024              	.LBE312:
 1025              	.LBB319:
 1026              	.LBB320:
ARM GAS  /tmp/ccvrq20P.s 			page 19


 1027              		.loc 1 401 0
 1028 0122 9B69     		ldr	r3, [r3, #24]
 1029              	.LBE320:
 1030              	.LBE319:
 1031              		.loc 1 710 0
 1032 0124 A26B     		ldr	r2, [r4, #56]
 1033              	.LVL87:
 1034              	.LBB323:
 1035              	.LBB321:
 1036              		.loc 1 403 0
 1037 0126 0026     		movs	r6, #0
 1038              	.LBE321:
 1039              	.LBE323:
 1040              		.loc 1 709 0
 1041 0128 0421     		movs	r1, #4
 1042              	.LVL88:
 1043 012a 84F83410 		strb	r1, [r4, #52]
 1044              	.LBB324:
 1045              	.LBB322:
 1046              		.loc 1 408 0
 1047 012e 2046     		mov	r0, r4
 1048              		.loc 1 404 0
 1049 0130 DA60     		str	r2, [r3, #12]
 1050              	.LVL89:
 1051              		.loc 1 405 0
 1052 0132 5D60     		str	r5, [r3, #4]
 1053              		.loc 1 403 0
 1054 0134 1E70     		strb	r6, [r3]
 1055              		.loc 1 406 0
 1056 0136 9E60     		str	r6, [r3, #8]
 1057              		.loc 1 408 0
 1058 0138 3146     		mov	r1, r6
 1059 013a FFF7FEFF 		bl	usb_lld_prepare_receive
 1060              	.LVL90:
 1061              	.LBE322:
 1062              	.LBE324:
 1063              	.LBB325:
 1064              	.LBB326:
 1065              	.LBB327:
 1066              	.LBB328:
 1067              	.LBB329:
 1068              	.LBB330:
 1069              		.loc 2 546 0
 1070 013e 2023     		movs	r3, #32
 1071              	@ 546 "ChibiOS_3.0.2/os/ext/CMSIS/include/core_cmFunc.h" 1
 1072 0140 83F31188 		MSR basepri, r3
 1073              	@ 0 "" 2
 1074              		.thumb
 1075              	.LBE330:
 1076              	.LBE329:
 1077              	.LBE328:
 1078              	.LBE327:
 1079              	.LBE326:
 1080              	.LBE325:
 1081              		.loc 1 712 0
 1082 0144 2046     		mov	r0, r4
 1083 0146 3146     		mov	r1, r6
ARM GAS  /tmp/ccvrq20P.s 			page 20


 1084 0148 FFF7FEFF 		bl	usbStartReceiveI
 1085              	.LVL91:
 1086              	.LBB331:
 1087              	.LBB332:
 1088              	.LBB333:
 1089              	.LBB334:
 1090              	.LBB335:
 1091              	.LBB336:
 1092              		.loc 2 546 0
 1093              	@ 546 "ChibiOS_3.0.2/os/ext/CMSIS/include/core_cmFunc.h" 1
 1094 014c 86F31188 		MSR basepri, r6
 1095              	@ 0 "" 2
 1096              		.thumb
 1097 0150 F8BD     		pop	{r3, r4, r5, r6, r7, pc}
 1098              	.LVL92:
 1099              	.L119:
 1100              	.LBE336:
 1101              	.LBE335:
 1102              	.LBE334:
 1103              	.LBE333:
 1104              	.LBE332:
 1105              	.LBE331:
 1106              		.loc 1 683 0
 1107 0152 BDB1     		cbz	r5, .L91
 1108              	.LBB337:
 1109              	.LBB293:
 1110              		.loc 1 427 0
 1111 0154 5B69     		ldr	r3, [r3, #20]
 1112              	.LBE293:
 1113              	.LBE337:
 1114              		.loc 1 686 0
 1115 0156 A26B     		ldr	r2, [r4, #56]
 1116              	.LVL93:
 1117              	.LBB338:
 1118              	.LBB294:
 1119              		.loc 1 429 0
 1120 0158 0026     		movs	r6, #0
 1121              	.LBE294:
 1122              	.LBE338:
 1123              		.loc 1 685 0
 1124 015a 0121     		movs	r1, #1
 1125              	.LVL94:
 1126 015c 84F83410 		strb	r1, [r4, #52]
 1127              	.LBB339:
 1128              	.LBB295:
 1129              		.loc 1 434 0
 1130 0160 2046     		mov	r0, r4
 1131              		.loc 1 430 0
 1132 0162 DA60     		str	r2, [r3, #12]
 1133              	.LVL95:
 1134              		.loc 1 431 0
 1135 0164 5D60     		str	r5, [r3, #4]
 1136              		.loc 1 429 0
 1137 0166 1E70     		strb	r6, [r3]
 1138              		.loc 1 432 0
 1139 0168 9E60     		str	r6, [r3, #8]
 1140              		.loc 1 434 0
ARM GAS  /tmp/ccvrq20P.s 			page 21


 1141 016a 3146     		mov	r1, r6
 1142 016c FFF7FEFF 		bl	usb_lld_prepare_transmit
 1143              	.LVL96:
 1144              	.LBE295:
 1145              	.LBE339:
 1146              	.LBB340:
 1147              	.LBB341:
 1148              	.LBB342:
 1149              	.LBB343:
 1150              	.LBB344:
 1151              	.LBB345:
 1152              		.loc 2 546 0
 1153 0170 2023     		movs	r3, #32
 1154              	@ 546 "ChibiOS_3.0.2/os/ext/CMSIS/include/core_cmFunc.h" 1
 1155 0172 83F31188 		MSR basepri, r3
 1156              	@ 0 "" 2
 1157              		.thumb
 1158              	.LBE345:
 1159              	.LBE344:
 1160              	.LBE343:
 1161              	.LBE342:
 1162              	.LBE341:
 1163              	.LBE340:
 1164              		.loc 1 688 0
 1165 0176 2046     		mov	r0, r4
 1166 0178 3146     		mov	r1, r6
 1167 017a FFF7FEFF 		bl	usbStartTransmitI
 1168              	.LVL97:
 1169              	.LBB346:
 1170              	.LBB347:
 1171              	.LBB348:
 1172              	.LBB349:
 1173              	.LBB350:
 1174              	.LBB351:
 1175              		.loc 2 546 0
 1176              	@ 546 "ChibiOS_3.0.2/os/ext/CMSIS/include/core_cmFunc.h" 1
 1177 017e 86F31188 		MSR basepri, r6
 1178              	@ 0 "" 2
 1179              		.thumb
 1180 0182 F8BD     		pop	{r3, r4, r5, r6, r7, pc}
 1181              	.LVL98:
 1182              	.L91:
 1183              	.LBE351:
 1184              	.LBE350:
 1185              	.LBE349:
 1186              	.LBE348:
 1187              	.LBE347:
 1188              	.LBE346:
 1189              	.LBB352:
 1190              	.LBB353:
 1191              		.loc 1 401 0
 1192 0184 9B69     		ldr	r3, [r3, #24]
 1193              	.LBE353:
 1194              	.LBE352:
 1195              		.loc 1 694 0
 1196 0186 0322     		movs	r2, #3
 1197              	.LVL99:
ARM GAS  /tmp/ccvrq20P.s 			page 22


 1198 0188 84F83420 		strb	r2, [r4, #52]
 1199              	.LVL100:
 1200              	.LBB355:
 1201              	.LBB354:
 1202              		.loc 1 408 0
 1203 018c 2046     		mov	r0, r4
 1204              		.loc 1 403 0
 1205 018e 1D70     		strb	r5, [r3]
 1206              	.LVL101:
 1207              		.loc 1 404 0
 1208 0190 DD60     		str	r5, [r3, #12]
 1209              		.loc 1 405 0
 1210 0192 5D60     		str	r5, [r3, #4]
 1211              		.loc 1 406 0
 1212 0194 9D60     		str	r5, [r3, #8]
 1213              		.loc 1 408 0
 1214 0196 2946     		mov	r1, r5
 1215 0198 FFF7FEFF 		bl	usb_lld_prepare_receive
 1216              	.LVL102:
 1217              	.LBE354:
 1218              	.LBE355:
 1219              	.LBB356:
 1220              	.LBB357:
 1221              	.LBB358:
 1222              	.LBB359:
 1223              	.LBB360:
 1224              	.LBB361:
 1225              		.loc 2 546 0
 1226 019c 2023     		movs	r3, #32
 1227              	@ 546 "ChibiOS_3.0.2/os/ext/CMSIS/include/core_cmFunc.h" 1
 1228 019e 83F31188 		MSR basepri, r3
 1229              	@ 0 "" 2
 1230              		.thumb
 1231              	.LBE361:
 1232              	.LBE360:
 1233              	.LBE359:
 1234              	.LBE358:
 1235              	.LBE357:
 1236              	.LBE356:
 1237              		.loc 1 698 0
 1238 01a2 2046     		mov	r0, r4
 1239 01a4 2946     		mov	r1, r5
 1240 01a6 FFF7FEFF 		bl	usbStartReceiveI
 1241              	.LVL103:
 1242              	.LBB362:
 1243              	.LBB363:
 1244              	.LBB364:
 1245              	.LBB365:
 1246              	.LBB366:
 1247              	.LBB367:
 1248              		.loc 2 546 0
 1249              	@ 546 "ChibiOS_3.0.2/os/ext/CMSIS/include/core_cmFunc.h" 1
 1250 01aa 85F31188 		MSR basepri, r5
 1251              	@ 0 "" 2
 1252              		.thumb
 1253 01ae F8BD     		pop	{r3, r4, r5, r6, r7, pc}
 1254              	.LVL104:
ARM GAS  /tmp/ccvrq20P.s 			page 23


 1255              	.L123:
 1256              	.LBE367:
 1257              	.LBE366:
 1258              	.LBE365:
 1259              	.LBE364:
 1260              	.LBE363:
 1261              	.LBE362:
 1262              	.LBB368:
 1263              	.LBB318:
 1264              		.loc 1 88 0
 1265 01b0 40F20232 		movw	r2, #770
 1266 01b4 9642     		cmp	r6, r2
 1267 01b6 21D0     		beq	.L66
 1268 01b8 B6F5A06F 		cmp	r6, #1280
 1269 01bc 7FF45EAF 		bne	.L51
 1270              		.loc 1 118 0
 1271 01c0 B4F84420 		ldrh	r2, [r4, #68]
 1272 01c4 B2F5A06F 		cmp	r2, #1280
 1273 01c8 00F09D80 		beq	.L126
 1274              	.L85:
 1275              		.loc 1 229 0
 1276 01cc 0025     		movs	r5, #0
 1277 01ce A563     		str	r5, [r4, #56]
 1278 01d0 E563     		str	r5, [r4, #60]
 1279 01d2 2564     		str	r5, [r4, #64]
 1280 01d4 26E7     		b	.L93
 1281              	.L68:
 1282              		.loc 1 145 0
 1283 01d6 94F84620 		ldrb	r2, [r4, #70]	@ zero_extendqisi2
 1284 01da 84F84F20 		strb	r2, [r4, #79]
 1285              		.loc 1 146 0
 1286 01de 002A     		cmp	r2, #0
 1287 01e0 40F08280 		bne	.L75
 1288              		.loc 1 147 0
 1289 01e4 0322     		movs	r2, #3
 1290 01e6 2270     		strb	r2, [r4]
 1291              	.L76:
 1292              		.loc 1 152 0
 1293 01e8 6268     		ldr	r2, [r4, #4]
 1294 01ea 1268     		ldr	r2, [r2]
 1295 01ec 002A     		cmp	r2, #0
 1296 01ee EDD0     		beq	.L85
 1297 01f0 2046     		mov	r0, r4
 1298 01f2 0221     		movs	r1, #2
 1299 01f4 9047     		blx	r2
 1300              	.LVL105:
 1301 01f6 94F84430 		ldrb	r3, [r4, #68]	@ zero_extendqisi2
 1302 01fa E7E7     		b	.L85
 1303              	.L66:
 1304              		.loc 1 217 0
 1305 01fc 94F84620 		ldrb	r2, [r4, #70]	@ zero_extendqisi2
 1306 0200 002A     		cmp	r2, #0
 1307 0202 7FF43BAF 		bne	.L51
 1308              		.loc 1 221 0
 1309 0206 94F84820 		ldrb	r2, [r4, #72]	@ zero_extendqisi2
 1310 020a 12F00F01 		ands	r1, r2, #15
 1311 020e DDD0     		beq	.L85
ARM GAS  /tmp/ccvrq20P.s 			page 24


 1312              		.loc 1 222 0
 1313 0210 1306     		lsls	r3, r2, #24
 1314              		.loc 1 223 0
 1315 0212 2046     		mov	r0, r4
 1316              		.loc 1 222 0
 1317 0214 00F18E80 		bmi	.L127
 1318              	.LVL106:
 1319              		.loc 1 226 0
 1320 0218 FFF7FEFF 		bl	usb_lld_stall_out
 1321              	.LVL107:
 1322 021c 94F84430 		ldrb	r3, [r4, #68]	@ zero_extendqisi2
 1323 0220 D4E7     		b	.L85
 1324              	.L62:
 1325              		.loc 1 98 0
 1326 0222 94F84620 		ldrb	r2, [r4, #70]	@ zero_extendqisi2
 1327 0226 012A     		cmp	r2, #1
 1328 0228 7FF428AF 		bne	.L51
 1329              		.loc 1 99 0
 1330 022c B4F84C20 		ldrh	r2, [r4, #76]
 1331              		.loc 1 100 0
 1332 0230 A763     		str	r7, [r4, #56]
 1333              		.loc 1 99 0
 1334 0232 22F00202 		bic	r2, r2, #2
 1335              		.loc 1 100 0
 1336 0236 E763     		str	r7, [r4, #60]
 1337 0238 2764     		str	r7, [r4, #64]
 1338 023a 3D46     		mov	r5, r7
 1339              		.loc 1 99 0
 1340 023c A4F84C20 		strh	r2, [r4, #76]	@ movhi
 1341 0240 F0E6     		b	.L93
 1342              	.L124:
 1343              		.loc 1 88 0
 1344 0242 002E     		cmp	r6, #0
 1345 0244 46D1     		bne	.L128
 1346              		.loc 1 93 0
 1347 0246 04F14C02 		add	r2, r4, #76
 1348 024a 0225     		movs	r5, #2
 1349 024c 2664     		str	r6, [r4, #64]
 1350 024e A263     		str	r2, [r4, #56]
 1351 0250 E563     		str	r5, [r4, #60]
 1352 0252 E7E6     		b	.L93
 1353              	.L58:
 1354              		.loc 1 165 0
 1355 0254 94F84810 		ldrb	r1, [r4, #72]	@ zero_extendqisi2
 1356 0258 11F0800F 		tst	r1, #128
 1357              		.loc 1 166 0
 1358 025c 2046     		mov	r0, r4
 1359 025e 01F00F01 		and	r1, r1, #15
 1360              		.loc 1 165 0
 1361 0262 44D1     		bne	.L129
 1362              	.LVL108:
 1363              		.loc 1 183 0
 1364 0264 FFF7FEFF 		bl	usb_lld_get_status_out
 1365              	.LVL109:
 1366 0268 0128     		cmp	r0, #1
 1367 026a 44D0     		beq	.L81
 1368              	.L117:
ARM GAS  /tmp/ccvrq20P.s 			page 25


 1369 026c 0228     		cmp	r0, #2
 1370 026e 7FF405AF 		bne	.L51
 1371              		.loc 1 191 0
 1372 0272 334B     		ldr	r3, .L130
 1373 0274 A363     		str	r3, [r4, #56]
 1374 0276 E063     		str	r0, [r4, #60]
 1375 0278 2764     		str	r7, [r4, #64]
 1376 027a 0546     		mov	r5, r0
 1377 027c 94F84430 		ldrb	r3, [r4, #68]	@ zero_extendqisi2
 1378 0280 D0E6     		b	.L93
 1379              	.L64:
 1380              	.LVL110:
 1381              		.loc 1 129 0
 1382 0282 6268     		ldr	r2, [r4, #4]
 1383              	.LBB314:
 1384              	.LBB315:
 1385              		.loc 1 55 0
 1386 0284 94F84900 		ldrb	r0, [r4, #73]	@ zero_extendqisi2
 1387 0288 94F84830 		ldrb	r3, [r4, #72]	@ zero_extendqisi2
 1388              	.LBE315:
 1389              	.LBE314:
 1390              		.loc 1 129 0
 1391 028c 5568     		ldr	r5, [r2, #4]
 1392 028e 94F84710 		ldrb	r1, [r4, #71]	@ zero_extendqisi2
 1393 0292 94F84620 		ldrb	r2, [r4, #70]	@ zero_extendqisi2
 1394 0296 43EA0023 		orr	r3, r3, r0, lsl #8
 1395 029a 2046     		mov	r0, r4
 1396 029c A847     		blx	r5
 1397              	.LVL111:
 1398              		.loc 1 132 0
 1399 029e 0028     		cmp	r0, #0
 1400 02a0 3FF4ECAE 		beq	.L51
 1401              		.loc 1 136 0
 1402 02a4 4368     		ldr	r3, [r0, #4]
 1403 02a6 0568     		ldr	r5, [r0]
 1404 02a8 E563     		str	r5, [r4, #60]
 1405 02aa A363     		str	r3, [r4, #56]
 1406 02ac 2764     		str	r7, [r4, #64]
 1407 02ae 94F84430 		ldrb	r3, [r4, #68]	@ zero_extendqisi2
 1408 02b2 B7E6     		b	.L93
 1409              	.LVL112:
 1410              	.L56:
 1411              		.loc 1 107 0
 1412 02b4 94F84620 		ldrb	r2, [r4, #70]	@ zero_extendqisi2
 1413 02b8 012A     		cmp	r2, #1
 1414 02ba 7FF4DFAE 		bne	.L51
 1415              		.loc 1 108 0
 1416 02be B4F84C20 		ldrh	r2, [r4, #76]
 1417              		.loc 1 109 0
 1418 02c2 A763     		str	r7, [r4, #56]
 1419              		.loc 1 108 0
 1420 02c4 42F00202 		orr	r2, r2, #2
 1421              		.loc 1 109 0
 1422 02c8 E763     		str	r7, [r4, #60]
 1423 02ca 2764     		str	r7, [r4, #64]
 1424 02cc 3D46     		mov	r5, r7
 1425              		.loc 1 108 0
ARM GAS  /tmp/ccvrq20P.s 			page 26


 1426 02ce A4F84C20 		strh	r2, [r4, #76]	@ movhi
 1427 02d2 A7E6     		b	.L93
 1428              	.L128:
 1429              		.loc 1 88 0
 1430 02d4 012E     		cmp	r6, #1
 1431 02d6 7FF4D1AE 		bne	.L51
 1432              	.L61:
 1433              		.loc 1 160 0
 1434 02da 1A4A     		ldr	r2, .L130+4
 1435 02dc A263     		str	r2, [r4, #56]
 1436 02de 0225     		movs	r5, #2
 1437 02e0 0022     		movs	r2, #0
 1438 02e2 E563     		str	r5, [r4, #60]
 1439 02e4 2264     		str	r2, [r4, #64]
 1440 02e6 9DE6     		b	.L93
 1441              	.L75:
 1442              		.loc 1 150 0
 1443 02e8 0422     		movs	r2, #4
 1444 02ea 2270     		strb	r2, [r4]
 1445 02ec 7CE7     		b	.L76
 1446              	.LVL113:
 1447              	.L129:
 1448              		.loc 1 166 0
 1449 02ee FFF7FEFF 		bl	usb_lld_get_status_in
 1450              	.LVL114:
 1451 02f2 0128     		cmp	r0, #1
 1452 02f4 BAD1     		bne	.L117
 1453              	.L81:
 1454              		.loc 1 186 0
 1455 02f6 144B     		ldr	r3, .L130+8
 1456 02f8 A363     		str	r3, [r4, #56]
 1457 02fa E663     		str	r6, [r4, #60]
 1458 02fc 2764     		str	r7, [r4, #64]
 1459 02fe 3546     		mov	r5, r6
 1460 0300 94F84430 		ldrb	r3, [r4, #68]	@ zero_extendqisi2
 1461 0304 8EE6     		b	.L93
 1462              	.L126:
 1463              	.LVL115:
 1464              	.LBB316:
 1465              	.LBB317:
 1466              		.loc 1 66 0
 1467 0306 94F84630 		ldrb	r3, [r4, #70]	@ zero_extendqisi2
 1468 030a 84F84E30 		strb	r3, [r4, #78]
 1469              		.loc 1 67 0
 1470 030e 2046     		mov	r0, r4
 1471 0310 FFF7FEFF 		bl	usb_lld_set_address
 1472              	.LVL116:
 1473              		.loc 1 68 0
 1474 0314 6368     		ldr	r3, [r4, #4]
 1475 0316 1B68     		ldr	r3, [r3]
 1476 0318 13B1     		cbz	r3, .L74
 1477 031a 2046     		mov	r0, r4
 1478 031c 0121     		movs	r1, #1
 1479 031e 9847     		blx	r3
 1480              	.LVL117:
 1481              	.L74:
 1482              		.loc 1 69 0
ARM GAS  /tmp/ccvrq20P.s 			page 27


 1483 0320 0322     		movs	r2, #3
 1484 0322 94F84430 		ldrb	r3, [r4, #68]	@ zero_extendqisi2
 1485 0326 2270     		strb	r2, [r4]
 1486 0328 50E7     		b	.L85
 1487              	.LVL118:
 1488              	.L125:
 1489              	.LBE317:
 1490              	.LBE316:
 1491              		.loc 1 207 0
 1492 032a FFF7FEFF 		bl	usb_lld_clear_in
 1493              	.LVL119:
 1494 032e 94F84430 		ldrb	r3, [r4, #68]	@ zero_extendqisi2
 1495 0332 4BE7     		b	.L85
 1496              	.LVL120:
 1497              	.L127:
 1498              		.loc 1 223 0
 1499 0334 FFF7FEFF 		bl	usb_lld_stall_in
 1500              	.LVL121:
 1501 0338 94F84430 		ldrb	r3, [r4, #68]	@ zero_extendqisi2
 1502 033c 46E7     		b	.L85
 1503              	.L131:
 1504 033e 00BF     		.align	2
 1505              	.L130:
 1506 0340 00000000 		.word	.LANCHOR2
 1507 0344 00000000 		.word	.LANCHOR0
 1508 0348 00000000 		.word	.LANCHOR1
 1509              	.LBE318:
 1510              	.LBE368:
 1511              		.cfi_endproc
 1512              	.LFE274:
 1513              		.size	_usb_ep0setup, .-_usb_ep0setup
 1514              		.section	.text._usb_ep0in,"ax",%progbits
 1515              		.align	2
 1516              		.p2align 4,,15
 1517              		.global	_usb_ep0in
 1518              		.thumb
 1519              		.thumb_func
 1520              		.type	_usb_ep0in, %function
 1521              	_usb_ep0in:
 1522              	.LFB275:
 1523              		.loc 1 741 0
 1524              		.cfi_startproc
 1525              		@ args = 0, pretend = 0, frame = 0
 1526              		@ frame_needed = 0, uses_anonymous_args = 0
 1527              	.LVL122:
 1528 0000 38B5     		push	{r3, r4, r5, lr}
 1529              		.cfi_def_cfa_offset 16
 1530              		.cfi_offset 3, -16
 1531              		.cfi_offset 4, -12
 1532              		.cfi_offset 5, -8
 1533              		.cfi_offset 14, -4
 1534              		.loc 1 745 0
 1535 0002 90F83430 		ldrb	r3, [r0, #52]	@ zero_extendqisi2
 1536              		.loc 1 741 0
 1537 0006 0446     		mov	r4, r0
 1538              		.loc 1 745 0
 1539 0008 062B     		cmp	r3, #6
ARM GAS  /tmp/ccvrq20P.s 			page 28


 1540 000a 15D8     		bhi	.L132
 1541 000c DFE803F0 		tbb	[pc, r3]
 1542              	.L135:
 1543 0010 04       		.byte	(.L134-.L135)/2
 1544 0011 34       		.byte	(.L136-.L135)/2
 1545 0012 1C       		.byte	(.L137-.L135)/2
 1546 0013 04       		.byte	(.L134-.L135)/2
 1547 0014 04       		.byte	(.L134-.L135)/2
 1548 0015 15       		.byte	(.L138-.L135)/2
 1549 0016 04       		.byte	(.L134-.L135)/2
 1550 0017 00       		.p2align 1
 1551              	.L134:
 1552              		.loc 1 790 0
 1553 0018 0021     		movs	r1, #0
 1554              	.LVL123:
 1555 001a FFF7FEFF 		bl	usb_lld_stall_in
 1556              	.LVL124:
 1557              		.loc 1 791 0
 1558 001e 2046     		mov	r0, r4
 1559 0020 0021     		movs	r1, #0
 1560 0022 FFF7FEFF 		bl	usb_lld_stall_out
 1561              	.LVL125:
 1562              		.loc 1 792 0
 1563 0026 6368     		ldr	r3, [r4, #4]
 1564 0028 1B68     		ldr	r3, [r3]
 1565 002a 13B1     		cbz	r3, .L142
 1566              		.loc 1 792 0 is_stmt 0 discriminator 1
 1567 002c 2046     		mov	r0, r4
 1568 002e 0521     		movs	r1, #5
 1569 0030 9847     		blx	r3
 1570              	.LVL126:
 1571              	.L142:
 1572              		.loc 1 793 0 is_stmt 1
 1573 0032 0623     		movs	r3, #6
 1574 0034 84F83430 		strb	r3, [r4, #52]
 1575              	.L132:
 1576 0038 38BD     		pop	{r3, r4, r5, pc}
 1577              	.LVL127:
 1578              	.L138:
 1579              		.loc 1 775 0
 1580 003a 036C     		ldr	r3, [r0, #64]
 1581 003c 03B1     		cbz	r3, .L141
 1582              		.loc 1 776 0
 1583 003e 9847     		blx	r3
 1584              	.LVL128:
 1585              	.L141:
 1586              		.loc 1 778 0
 1587 0040 0023     		movs	r3, #0
 1588 0042 84F83430 		strb	r3, [r4, #52]
 1589              		.loc 1 779 0
 1590 0046 38BD     		pop	{r3, r4, r5, pc}
 1591              	.LVL129:
 1592              	.L137:
 1593 0048 C368     		ldr	r3, [r0, #12]
 1594              	.LVL130:
 1595              	.L140:
 1596              	.LBB369:
ARM GAS  /tmp/ccvrq20P.s 			page 29


 1597              	.LBB370:
 1598              		.loc 1 401 0
 1599 004a 9B69     		ldr	r3, [r3, #24]
 1600              		.loc 1 403 0
 1601 004c 0025     		movs	r5, #0
 1602              	.LBE370:
 1603              	.LBE369:
 1604              		.loc 1 763 0
 1605 004e 0322     		movs	r2, #3
 1606 0050 84F83420 		strb	r2, [r4, #52]
 1607              	.LVL131:
 1608              	.LBB372:
 1609              	.LBB371:
 1610              		.loc 1 408 0
 1611 0054 2946     		mov	r1, r5
 1612              		.loc 1 403 0
 1613 0056 1D70     		strb	r5, [r3]
 1614              		.loc 1 404 0
 1615 0058 DD60     		str	r5, [r3, #12]
 1616              		.loc 1 405 0
 1617 005a 5D60     		str	r5, [r3, #4]
 1618              		.loc 1 406 0
 1619 005c 9D60     		str	r5, [r3, #8]
 1620              		.loc 1 408 0
 1621 005e 2046     		mov	r0, r4
 1622              	.LVL132:
 1623 0060 FFF7FEFF 		bl	usb_lld_prepare_receive
 1624              	.LVL133:
 1625              	.LBE371:
 1626              	.LBE372:
 1627              	.LBB373:
 1628              	.LBB374:
 1629              	.LBB375:
 1630              	.LBB376:
 1631              	.LBB377:
 1632              	.LBB378:
 1633              		.loc 2 546 0
 1634 0064 2023     		movs	r3, #32
 1635              	@ 546 "ChibiOS_3.0.2/os/ext/CMSIS/include/core_cmFunc.h" 1
 1636 0066 83F31188 		MSR basepri, r3
 1637              	@ 0 "" 2
 1638              		.thumb
 1639              	.LBE378:
 1640              	.LBE377:
 1641              	.LBE376:
 1642              	.LBE375:
 1643              	.LBE374:
 1644              	.LBE373:
 1645              		.loc 1 767 0
 1646 006a 2046     		mov	r0, r4
 1647 006c 2946     		mov	r1, r5
 1648 006e FFF7FEFF 		bl	usbStartReceiveI
 1649              	.LVL134:
 1650              	.LBB379:
 1651              	.LBB380:
 1652              	.LBB381:
 1653              	.LBB382:
ARM GAS  /tmp/ccvrq20P.s 			page 30


 1654              	.LBB383:
 1655              	.LBB384:
 1656              		.loc 2 546 0
 1657              	@ 546 "ChibiOS_3.0.2/os/ext/CMSIS/include/core_cmFunc.h" 1
 1658 0072 85F31188 		MSR basepri, r5
 1659              	@ 0 "" 2
 1660              		.thumb
 1661 0076 38BD     		pop	{r3, r4, r5, pc}
 1662              	.LVL135:
 1663              	.L136:
 1664              	.LBE384:
 1665              	.LBE383:
 1666              	.LBE382:
 1667              	.LBE381:
 1668              	.LBE380:
 1669              	.LBE379:
 1670              	.LBB385:
 1671              	.LBB386:
 1672              		.loc 1 55 0
 1673 0078 90F84B20 		ldrb	r2, [r0, #75]	@ zero_extendqisi2
 1674              	.LVL136:
 1675 007c 90F84A30 		ldrb	r3, [r0, #74]	@ zero_extendqisi2
 1676              	.LBE386:
 1677              	.LBE385:
 1678              		.loc 1 751 0
 1679 0080 C16B     		ldr	r1, [r0, #60]
 1680              	.LVL137:
 1681              		.loc 1 747 0
 1682 0082 43EA0223 		orr	r3, r3, r2, lsl #8
 1683              		.loc 1 751 0
 1684 0086 8B42     		cmp	r3, r1
 1685              		.loc 1 752 0
 1686 0088 C368     		ldr	r3, [r0, #12]
 1687              		.loc 1 751 0
 1688 008a DED9     		bls	.L140
 1689              		.loc 1 752 0 discriminator 1
 1690 008c 1D8A     		ldrh	r5, [r3, #16]
 1691 008e B1FBF5F2 		udiv	r2, r1, r5
 1692              	.LVL138:
 1693 0092 05FB1215 		mls	r5, r5, r2, r1
 1694              		.loc 1 751 0 discriminator 1
 1695 0096 002D     		cmp	r5, #0
 1696 0098 D7D1     		bne	.L140
 1697              	.LVL139:
 1698              	.LBB387:
 1699              	.LBB388:
 1700              		.loc 1 427 0
 1701 009a 5B69     		ldr	r3, [r3, #20]
 1702              	.LVL140:
 1703              		.loc 1 434 0
 1704 009c 2946     		mov	r1, r5
 1705              		.loc 1 429 0
 1706 009e 1D70     		strb	r5, [r3]
 1707              	.LVL141:
 1708              		.loc 1 430 0
 1709 00a0 DD60     		str	r5, [r3, #12]
 1710              		.loc 1 431 0
ARM GAS  /tmp/ccvrq20P.s 			page 31


 1711 00a2 5D60     		str	r5, [r3, #4]
 1712              		.loc 1 432 0
 1713 00a4 9D60     		str	r5, [r3, #8]
 1714              		.loc 1 434 0
 1715 00a6 FFF7FEFF 		bl	usb_lld_prepare_transmit
 1716              	.LVL142:
 1717              	.LBE388:
 1718              	.LBE387:
 1719              	.LBB389:
 1720              	.LBB390:
 1721              	.LBB391:
 1722              	.LBB392:
 1723              	.LBB393:
 1724              	.LBB394:
 1725              		.loc 2 546 0
 1726 00aa 2023     		movs	r3, #32
 1727              	@ 546 "ChibiOS_3.0.2/os/ext/CMSIS/include/core_cmFunc.h" 1
 1728 00ac 83F31188 		MSR basepri, r3
 1729              	@ 0 "" 2
 1730              		.thumb
 1731              	.LBE394:
 1732              	.LBE393:
 1733              	.LBE392:
 1734              	.LBE391:
 1735              	.LBE390:
 1736              	.LBE389:
 1737              		.loc 1 755 0
 1738 00b0 2046     		mov	r0, r4
 1739 00b2 2946     		mov	r1, r5
 1740 00b4 FFF7FEFF 		bl	usbStartTransmitI
 1741              	.LVL143:
 1742              	.LBB395:
 1743              	.LBB396:
 1744              	.LBB397:
 1745              	.LBB398:
 1746              	.LBB399:
 1747              	.LBB400:
 1748              		.loc 2 546 0
 1749              	@ 546 "ChibiOS_3.0.2/os/ext/CMSIS/include/core_cmFunc.h" 1
 1750 00b8 85F31188 		MSR basepri, r5
 1751              	@ 0 "" 2
 1752              		.thumb
 1753              	.LBE400:
 1754              	.LBE399:
 1755              	.LBE398:
 1756              	.LBE397:
 1757              	.LBE396:
 1758              	.LBE395:
 1759              		.loc 1 757 0
 1760 00bc 0223     		movs	r3, #2
 1761 00be 84F83430 		strb	r3, [r4, #52]
 1762              		.loc 1 758 0
 1763 00c2 38BD     		pop	{r3, r4, r5, pc}
 1764              		.cfi_endproc
 1765              	.LFE275:
 1766              		.size	_usb_ep0in, .-_usb_ep0in
 1767              		.section	.text._usb_ep0out,"ax",%progbits
ARM GAS  /tmp/ccvrq20P.s 			page 32


 1768              		.align	2
 1769              		.p2align 4,,15
 1770              		.global	_usb_ep0out
 1771              		.thumb
 1772              		.thumb_func
 1773              		.type	_usb_ep0out, %function
 1774              	_usb_ep0out:
 1775              	.LFB276:
 1776              		.loc 1 810 0
 1777              		.cfi_startproc
 1778              		@ args = 0, pretend = 0, frame = 0
 1779              		@ frame_needed = 0, uses_anonymous_args = 0
 1780              	.LVL144:
 1781              		.loc 1 813 0
 1782 0000 90F83420 		ldrb	r2, [r0, #52]	@ zero_extendqisi2
 1783 0004 062A     		cmp	r2, #6
 1784              		.loc 1 810 0
 1785 0006 38B5     		push	{r3, r4, r5, lr}
 1786              		.cfi_def_cfa_offset 16
 1787              		.cfi_offset 3, -16
 1788              		.cfi_offset 4, -12
 1789              		.cfi_offset 5, -8
 1790              		.cfi_offset 14, -4
 1791 0008 0AD8     		bhi	.L150
 1792 000a 0123     		movs	r3, #1
 1793 000c 9340     		lsls	r3, r3, r2
 1794 000e 13F0670F 		tst	r3, #103
 1795 0012 0446     		mov	r4, r0
 1796 0014 11D1     		bne	.L152
 1797 0016 13F00805 		ands	r5, r3, #8
 1798 001a 02D1     		bne	.L153
 1799 001c DB06     		lsls	r3, r3, #27
 1800 001e 1DD4     		bmi	.L166
 1801              	.L150:
 1802 0020 38BD     		pop	{r3, r4, r5, pc}
 1803              	.L153:
 1804              		.loc 1 830 0
 1805 0022 C368     		ldr	r3, [r0, #12]
 1806 0024 9B69     		ldr	r3, [r3, #24]
 1807 0026 9B68     		ldr	r3, [r3, #8]
 1808 0028 002B     		cmp	r3, #0
 1809 002a F9D1     		bne	.L150
 1810              		.loc 1 834 0
 1811 002c 036C     		ldr	r3, [r0, #64]
 1812 002e 03B1     		cbz	r3, .L154
 1813              		.loc 1 835 0
 1814 0030 9847     		blx	r3
 1815              	.LVL145:
 1816              	.L154:
 1817              		.loc 1 837 0
 1818 0032 0023     		movs	r3, #0
 1819 0034 84F83430 		strb	r3, [r4, #52]
 1820              		.loc 1 838 0
 1821 0038 38BD     		pop	{r3, r4, r5, pc}
 1822              	.LVL146:
 1823              	.L152:
 1824              		.loc 1 850 0
ARM GAS  /tmp/ccvrq20P.s 			page 33


 1825 003a 0021     		movs	r1, #0
 1826              	.LVL147:
 1827 003c FFF7FEFF 		bl	usb_lld_stall_in
 1828              	.LVL148:
 1829              		.loc 1 851 0
 1830 0040 2046     		mov	r0, r4
 1831 0042 0021     		movs	r1, #0
 1832 0044 FFF7FEFF 		bl	usb_lld_stall_out
 1833              	.LVL149:
 1834              		.loc 1 852 0
 1835 0048 6368     		ldr	r3, [r4, #4]
 1836 004a 1B68     		ldr	r3, [r3]
 1837 004c 13B1     		cbz	r3, .L155
 1838              		.loc 1 852 0 is_stmt 0 discriminator 1
 1839 004e 2046     		mov	r0, r4
 1840 0050 0521     		movs	r1, #5
 1841 0052 9847     		blx	r3
 1842              	.LVL150:
 1843              	.L155:
 1844              		.loc 1 853 0 is_stmt 1
 1845 0054 0623     		movs	r3, #6
 1846 0056 84F83430 		strb	r3, [r4, #52]
 1847 005a 38BD     		pop	{r3, r4, r5, pc}
 1848              	.LVL151:
 1849              	.L166:
 1850              	.LBB401:
 1851              	.LBB402:
 1852              		.loc 1 427 0
 1853 005c C368     		ldr	r3, [r0, #12]
 1854 005e 5B69     		ldr	r3, [r3, #20]
 1855              	.LBE402:
 1856              	.LBE401:
 1857              		.loc 1 816 0
 1858 0060 0522     		movs	r2, #5
 1859 0062 80F83420 		strb	r2, [r0, #52]
 1860              	.LVL152:
 1861              	.LBB404:
 1862              	.LBB403:
 1863              		.loc 1 434 0
 1864 0066 2946     		mov	r1, r5
 1865              	.LVL153:
 1866              		.loc 1 429 0
 1867 0068 1D70     		strb	r5, [r3]
 1868              		.loc 1 430 0
 1869 006a DD60     		str	r5, [r3, #12]
 1870              		.loc 1 431 0
 1871 006c 5D60     		str	r5, [r3, #4]
 1872              		.loc 1 432 0
 1873 006e 9D60     		str	r5, [r3, #8]
 1874              		.loc 1 434 0
 1875 0070 FFF7FEFF 		bl	usb_lld_prepare_transmit
 1876              	.LVL154:
 1877              	.LBE403:
 1878              	.LBE404:
 1879              	.LBB405:
 1880              	.LBB406:
 1881              	.LBB407:
ARM GAS  /tmp/ccvrq20P.s 			page 34


 1882              	.LBB408:
 1883              	.LBB409:
 1884              	.LBB410:
 1885              		.loc 2 546 0
 1886 0074 2023     		movs	r3, #32
 1887              	@ 546 "ChibiOS_3.0.2/os/ext/CMSIS/include/core_cmFunc.h" 1
 1888 0076 83F31188 		MSR basepri, r3
 1889              	@ 0 "" 2
 1890              		.thumb
 1891              	.LBE410:
 1892              	.LBE409:
 1893              	.LBE408:
 1894              	.LBE407:
 1895              	.LBE406:
 1896              	.LBE405:
 1897              		.loc 1 820 0
 1898 007a 2046     		mov	r0, r4
 1899 007c 2946     		mov	r1, r5
 1900 007e FFF7FEFF 		bl	usbStartTransmitI
 1901              	.LVL155:
 1902              	.LBB411:
 1903              	.LBB412:
 1904              	.LBB413:
 1905              	.LBB414:
 1906              	.LBB415:
 1907              	.LBB416:
 1908              		.loc 2 546 0
 1909              	@ 546 "ChibiOS_3.0.2/os/ext/CMSIS/include/core_cmFunc.h" 1
 1910 0082 85F31188 		MSR basepri, r5
 1911              	@ 0 "" 2
 1912              		.thumb
 1913 0086 38BD     		pop	{r3, r4, r5, pc}
 1914              	.LBE416:
 1915              	.LBE415:
 1916              	.LBE414:
 1917              	.LBE413:
 1918              	.LBE412:
 1919              	.LBE411:
 1920              		.cfi_endproc
 1921              	.LFE276:
 1922              		.size	_usb_ep0out, .-_usb_ep0out
 1923              		.section	.rodata.zero_status,"a",%progbits
 1924              		.align	2
 1925              		.set	.LANCHOR0,. + 0
 1926              		.type	zero_status, %object
 1927              		.size	zero_status, 2
 1928              	zero_status:
 1929 0000 0000     		.space	2
 1930              		.section	.rodata.active_status,"a",%progbits
 1931              		.align	2
 1932              		.set	.LANCHOR2,. + 0
 1933              		.type	active_status, %object
 1934              		.size	active_status, 2
 1935              	active_status:
 1936 0000 0000     		.space	2
 1937              		.section	.rodata.halted_status,"a",%progbits
 1938              		.align	2
ARM GAS  /tmp/ccvrq20P.s 			page 35


 1939              		.set	.LANCHOR1,. + 0
 1940              		.type	halted_status, %object
 1941              		.size	halted_status, 2
 1942              	halted_status:
 1943 0000 01       		.byte	1
 1944 0001 00       		.byte	0
 1945              		.text
 1946              	.Letext0:
 1947              		.file 3 "/usr/lib/gcc/arm-none-eabi/4.9.3/include/stddef.h"
 1948              		.file 4 "/usr/arm-none-eabi/include/machine/_default_types.h"
 1949              		.file 5 "/usr/arm-none-eabi/include/sys/_stdint.h"
 1950              		.file 6 "ChibiOS_3.0.2/os/rt/ports/ARMCMx/compilers/GCC/chtypes.h"
 1951              		.file 7 "ChibiOS_3.0.2/os/rt/include/chsystypes.h"
 1952              		.file 8 "ChibiOS_3.0.2/os/rt/include/chschd.h"
 1953              		.file 9 "ChibiOS_3.0.2/os/rt/ports/ARMCMx/chcore.h"
 1954              		.file 10 "ChibiOS_3.0.2/os/rt/ports/ARMCMx/chcore_v7m.h"
 1955              		.file 11 "ChibiOS_3.0.2/os/rt/include/chtm.h"
 1956              		.file 12 "ChibiOS_3.0.2/os/rt/include/chsem.h"
 1957              		.file 13 "ChibiOS_3.0.2/os/rt/include/chmtx.h"
 1958              		.file 14 "ChibiOS_3.0.2/os/rt/include/chqueues.h"
 1959              		.file 15 "ChibiOS_3.0.2/os/hal/include/usb.h"
 1960              		.file 16 "ChibiOS_3.0.2/os/hal/ports/STM32/LLD/OTGv1/usb_lld.h"
 1961              		.file 17 "ChibiOS_3.0.2/os/hal/ports/STM32/LLD/OTGv1/stm32_otg.h"
 1962              		.file 18 "ChibiOS_3.0.2/os/rt/include/chsys.h"
 1963              		.file 19 "ChibiOS_3.0.2/os/hal/osal/rt/osal.h"
 1964              		.file 20 "ChibiOS_3.0.2/os/ext/CMSIS/include/core_cm4.h"