ARM GAS  /tmp/ccDtb1pQ.s 			page 1


   1              		.syntax unified
   2              		.cpu cortex-m4
   3              		.eabi_attribute 27, 1
   4              		.eabi_attribute 28, 1
   5              		.fpu fpv4-sp-d16
   6              		.eabi_attribute 20, 1
   7              		.eabi_attribute 21, 1
   8              		.eabi_attribute 23, 3
   9              		.eabi_attribute 24, 1
  10              		.eabi_attribute 25, 1
  11              		.eabi_attribute 26, 1
  12              		.eabi_attribute 30, 2
  13              		.eabi_attribute 34, 1
  14              		.eabi_attribute 18, 4
  15              		.thumb
  16              		.file	"usb_lld.c"
  17              		.text
  18              	.Ltext0:
  19              		.cfi_sections	.debug_frame
  20              		.section	.text.usb_lld_pump,"ax",%progbits
  21              		.align	2
  22              		.p2align 4,,15
  23              		.global	usb_lld_pump
  24              		.thumb
  25              		.thumb_func
  26              		.type	usb_lld_pump, %function
  27              	usb_lld_pump:
  28              	.LFB292:
  29              		.file 1 "ChibiOS_3.0.2/os/hal/ports/STM32/LLD/OTGv1/usb_lld.c"
  30              		.loc 1 1294 0
  31              		.cfi_startproc
  32              		@ args = 0, pretend = 0, frame = 16
  33              		@ frame_needed = 0, uses_anonymous_args = 0
  34              	.LVL0:
  35 0000 2DE9F04F 		push	{r4, r5, r6, r7, r8, r9, r10, fp, lr}
  36              		.cfi_def_cfa_offset 36
  37              		.cfi_offset 4, -36
  38              		.cfi_offset 5, -32
  39              		.cfi_offset 6, -28
  40              		.cfi_offset 7, -24
  41              		.cfi_offset 8, -20
  42              		.cfi_offset 9, -16
  43              		.cfi_offset 10, -12
  44              		.cfi_offset 11, -8
  45              		.cfi_offset 14, -4
  46              	.LBB423:
  47              	.LBB424:
  48              		.file 2 "ChibiOS_3.0.2/os/rt/include/chregistry.h"
  49              		.loc 2 135 0
  50 0004 B24B     		ldr	r3, .L110
  51 0006 B349     		ldr	r1, .L110+4
  52 0008 9A69     		ldr	r2, [r3, #24]
  53              	.LVL1:
  54              	.LBE424:
  55              	.LBE423:
  56              		.loc 1 1296 0
  57 000a D0F850A0 		ldr	r10, [r0, #80]
ARM GAS  /tmp/ccDtb1pQ.s 			page 2


  58              	.LVL2:
  59              	.LBB426:
  60              	.LBB425:
  61              		.loc 2 135 0
  62 000e 9161     		str	r1, [r2, #24]
  63              	.LVL3:
  64              	.LBE425:
  65              	.LBE426:
  66              		.loc 1 1294 0
  67 0010 85B0     		sub	sp, sp, #20
  68              		.cfi_def_cfa_offset 56
  69              	.LBB427:
  70              	.LBB428:
  71              	.LBB429:
  72              	.LBB430:
  73              	.LBB431:
  74              		.file 3 "ChibiOS_3.0.2/os/ext/CMSIS/include/core_cmFunc.h"
  75              		.loc 3 546 0
  76 0012 2023     		movs	r3, #32
  77              	@ 546 "ChibiOS_3.0.2/os/ext/CMSIS/include/core_cmFunc.h" 1
  78 0014 83F31188 		MSR basepri, r3
  79              	@ 0 "" 2
  80              		.thumb
  81 0018 00F16003 		add	r3, r0, #96
  82 001c D346     		mov	fp, r10
  83 001e 0393     		str	r3, [sp, #12]
  84 0020 8246     		mov	r10, r0
  85              	.LVL4:
  86              	.L56:
  87              	.LBE431:
  88              	.LBE430:
  89              	.LBE429:
  90              	.LBE428:
  91              	.LBE427:
  92              	.LBB432:
  93              		.loc 1 1307 0
  94 0022 9AF80030 		ldrb	r3, [r10]	@ zero_extendqisi2
  95 0026 012B     		cmp	r3, #1
  96 0028 06D0     		beq	.L2
  97              		.loc 1 1307 0 is_stmt 0 discriminator 1
  98 002a DAF85C30 		ldr	r3, [r10, #92]
  99 002e 63B9     		cbnz	r3, .L3
 100              		.loc 1 1308 0 is_stmt 1
 101 0030 DBF81430 		ldr	r3, [fp, #20]
 102 0034 DB06     		lsls	r3, r3, #27
 103 0036 08D4     		bmi	.L3
 104              	.L2:
 105              		.loc 1 1309 0
 106 0038 DBF81830 		ldr	r3, [fp, #24]
 107              	.LBB433:
 108              	.LBB434:
 109              		.file 4 "ChibiOS_3.0.2/os/hal/osal/rt/osal.h"
 110              		.loc 4 688 0
 111 003c 0398     		ldr	r0, [sp, #12]
 112              	.LBE434:
 113              	.LBE433:
 114              		.loc 1 1309 0
ARM GAS  /tmp/ccDtb1pQ.s 			page 3


 115 003e 43F01003 		orr	r3, r3, #16
 116 0042 CBF81830 		str	r3, [fp, #24]
 117              	.LBB436:
 118              	.LBB435:
 119              		.loc 4 688 0
 120 0046 FFF7FEFF 		bl	chThdSuspendS
 121              	.LVL5:
 122              	.L3:
 123              	.LBE435:
 124              	.LBE436:
 125              	.LBB437:
 126              	.LBB438:
 127              	.LBB439:
 128              	.LBB440:
 129              	.LBB441:
 130              	.LBB442:
 131              		.loc 3 546 0
 132 004a 0023     		movs	r3, #0
 133              	@ 546 "ChibiOS_3.0.2/os/ext/CMSIS/include/core_cmFunc.h" 1
 134 004c 83F31188 		MSR basepri, r3
 135              	@ 0 "" 2
 136              	.LVL6:
 137              		.thumb
 138 0050 9846     		mov	r8, r3
 139              	.LVL7:
 140              	.L5:
 141              	.LBE442:
 142              	.LBE441:
 143              	.LBE440:
 144              	.LBE439:
 145              	.LBE438:
 146              	.LBE437:
 147              		.loc 1 1318 0
 148 0052 DBF81430 		ldr	r3, [fp, #20]
 149 0056 13F01003 		ands	r3, r3, #16
 150 005a 24D0     		beq	.L104
 151              	.L26:
 152              	.LVL8:
 153              	.LBB443:
 154              	.LBB444:
 155              		.loc 1 437 0
 156 005c DAF85020 		ldr	r2, [r10, #80]
 157 0060 136A     		ldr	r3, [r2, #32]
 158              	.LVL9:
 159              		.loc 1 438 0
 160 0062 03F4F011 		and	r1, r3, #1966080
 161 0066 B1F5802F 		cmp	r1, #262144
 162 006a 31D0     		beq	.L6
 163 006c B1F5402F 		cmp	r1, #786432
 164 0070 EFD1     		bne	.L5
 165              	.LVL10:
 166              		.loc 1 443 0
 167 0072 03F00F01 		and	r1, r3, #15
 168              	.LVL11:
 169              		.loc 1 444 0
 170 0076 0AEB8101 		add	r1, r10, r1, lsl #2
 171              	.LVL12:
ARM GAS  /tmp/ccDtb1pQ.s 			page 4


 172              		.loc 1 442 0
 173 007a C3F30A13 		ubfx	r3, r3, #4, #11
 174              	.LVL13:
 175              		.loc 1 444 0
 176 007e C968     		ldr	r1, [r1, #12]
 177              	.LBB445:
 178              	.LBB446:
 179              		.loc 1 356 0
 180 0080 0333     		adds	r3, r3, #3
 181              		.loc 1 358 0
 182 0082 9B08     		lsrs	r3, r3, #2
 183              	.LBE446:
 184              	.LBE445:
 185              		.loc 1 444 0
 186 0084 0C6A     		ldr	r4, [r1, #32]
 187              	.LVL14:
 188              	.LBB449:
 189              	.LBB448:
 190              		.loc 1 358 0
 191 0086 E4D0     		beq	.L5
 192 0088 02F58052 		add	r2, r2, #4096
 193              	.LVL15:
 194 008c 0221     		movs	r1, #2
 195              	.LVL16:
 196              	.L11:
 197              	.LBB447:
 198              		.loc 1 359 0
 199 008e 1068     		ldr	r0, [r2]
 200              	.LVL17:
 201              		.loc 1 360 0
 202 0090 11B1     		cbz	r1, .L10
 203              		.loc 1 363 0
 204 0092 44F8040B 		str	r0, [r4], #4
 205              	.LVL18:
 206              		.loc 1 365 0
 207 0096 0139     		subs	r1, r1, #1
 208              	.LVL19:
 209              	.L10:
 210              	.LBE447:
 211              		.loc 1 358 0
 212 0098 013B     		subs	r3, r3, #1
 213              	.LVL20:
 214 009a F8D1     		bne	.L11
 215              	.LBE448:
 216              	.LBE449:
 217              	.LBE444:
 218              	.LBE443:
 219              		.loc 1 1318 0
 220 009c DBF81430 		ldr	r3, [fp, #20]
 221              	.LVL21:
 222 00a0 13F01003 		ands	r3, r3, #16
 223 00a4 DAD1     		bne	.L26
 224              	.LVL22:
 225              	.L104:
 226              		.loc 1 1322 0
 227 00a6 0121     		movs	r1, #1
 228              		.loc 1 1323 0
ARM GAS  /tmp/ccDtb1pQ.s 			page 5


 229 00a8 DAF85C20 		ldr	r2, [r10, #92]
 230              		.loc 1 1322 0
 231 00ac 01FA08F1 		lsl	r1, r1, r8
 232              		.loc 1 1323 0
 233 00b0 1142     		tst	r1, r2
 234              		.loc 1 1322 0
 235 00b2 0191     		str	r1, [sp, #4]
 236              	.LVL23:
 237              		.loc 1 1323 0
 238 00b4 68D1     		bne	.L97
 239 00b6 08F10108 		add	r8, r8, #1
 240              	.LVL24:
 241              	.L27:
 242              		.loc 1 1315 0 discriminator 2
 243 00ba DAF85430 		ldr	r3, [r10, #84]
 244 00be 9B68     		ldr	r3, [r3, #8]
 245 00c0 5FFA88F8 		uxtb	r8, r8
 246              	.LVL25:
 247 00c4 9845     		cmp	r8, r3
 248 00c6 C4D9     		bls	.L5
 249              	.LVL26:
 250              	.LBB477:
 251              	.LBB478:
 252              	.LBB479:
 253              	.LBB480:
 254              	.LBB481:
 255              		.loc 3 546 0
 256 00c8 2023     		movs	r3, #32
 257              	@ 546 "ChibiOS_3.0.2/os/ext/CMSIS/include/core_cmFunc.h" 1
 258 00ca 83F31188 		MSR basepri, r3
 259              	@ 0 "" 2
 260              		.thumb
 261 00ce A8E7     		b	.L56
 262              	.LVL27:
 263              	.L6:
 264              	.LBE481:
 265              	.LBE480:
 266              	.LBE479:
 267              	.LBE478:
 268              	.LBE477:
 269              	.LBB482:
 270              	.LBB476:
 271              		.loc 1 449 0
 272 00d0 03F00F05 		and	r5, r3, #15
 273 00d4 0AEB8505 		add	r5, r10, r5, lsl #2
 274              		.loc 1 448 0
 275 00d8 C3F30A14 		ubfx	r4, r3, #4, #11
 276              	.LVL28:
 277              		.loc 1 450 0
 278 00dc EB68     		ldr	r3, [r5, #12]
 279              	.LVL29:
 280 00de 9869     		ldr	r0, [r3, #24]
 281 00e0 0378     		ldrb	r3, [r0]	@ zero_extendqisi2
 282 00e2 DBB9     		cbnz	r3, .L105
 283 00e4 4368     		ldr	r3, [r0, #4]
 284              	.LBB450:
 285              	.LBB451:
ARM GAS  /tmp/ccDtb1pQ.s 			page 6


 286              		.loc 1 357 0
 287 00e6 8168     		ldr	r1, [r0, #8]
 288              	.LBE451:
 289              	.LBE450:
 290              		.loc 1 457 0
 291 00e8 C668     		ldr	r6, [r0, #12]
 292              	.LVL30:
 293 00ea 0333     		adds	r3, r3, #3
 294              	.LVL31:
 295              	.LBB454:
 296              	.LBB453:
 297              		.loc 1 357 0
 298 00ec 591A     		subs	r1, r3, r1
 299              	.LVL32:
 300              		.loc 1 356 0
 301 00ee E31C     		adds	r3, r4, #3
 302              	.LVL33:
 303              		.loc 1 358 0
 304 00f0 9B08     		lsrs	r3, r3, #2
 305              		.loc 1 357 0
 306 00f2 4FEA9101 		lsr	r1, r1, #2
 307              	.LVL34:
 308              		.loc 1 358 0
 309 00f6 09D0     		beq	.L25
 310 00f8 02F58052 		add	r2, r2, #4096
 311              	.LVL35:
 312 00fc B646     		mov	lr, r6
 313              	.LVL36:
 314              	.L24:
 315              	.LBB452:
 316              		.loc 1 359 0
 317 00fe 1768     		ldr	r7, [r2]
 318              	.LVL37:
 319              		.loc 1 360 0
 320 0100 11B1     		cbz	r1, .L23
 321              		.loc 1 363 0
 322 0102 4EF8047B 		str	r7, [lr], #4
 323              	.LVL38:
 324              		.loc 1 365 0
 325 0106 0139     		subs	r1, r1, #1
 326              	.LVL39:
 327              	.L23:
 328              	.LBE452:
 329              		.loc 1 358 0
 330 0108 013B     		subs	r3, r3, #1
 331              	.LVL40:
 332 010a F8D1     		bne	.L24
 333              	.LVL41:
 334              	.L25:
 335              	.LBE453:
 336              	.LBE454:
 337              		.loc 1 462 0
 338 010c 2644     		add	r6, r6, r4
 339 010e C660     		str	r6, [r0, #12]
 340              	.LVL42:
 341              	.L21:
 342              		.loc 1 464 0
ARM GAS  /tmp/ccDtb1pQ.s 			page 7


 343 0110 EB68     		ldr	r3, [r5, #12]
 344 0112 9A69     		ldr	r2, [r3, #24]
 345 0114 9368     		ldr	r3, [r2, #8]
 346 0116 2344     		add	r3, r3, r4
 347 0118 9360     		str	r3, [r2, #8]
 348 011a 9AE7     		b	.L5
 349              	.L105:
 350              		.loc 1 452 0
 351 011c C068     		ldr	r0, [r0, #12]
 352              	.LVL43:
 353              	.LBB455:
 354              	.LBB456:
 355              		.loc 1 386 0
 356 011e 24B3     		cbz	r4, .L14
 357 0120 02F58052 		add	r2, r2, #4096
 358              	.LVL44:
 359 0124 2646     		mov	r6, r4
 360              	.LVL45:
 361              	.L15:
 362              	.LBB457:
 363              		.loc 1 390 0
 364 0126 032E     		cmp	r6, #3
 365              	.LBB458:
 366              		.loc 1 395 0
 367 0128 4169     		ldr	r1, [r0, #20]
 368              	.LBE458:
 369              		.loc 1 390 0
 370 012a 07D9     		bls	.L17
 371              	.LVL46:
 372              	.L106:
 373              	.LBB459:
 374              		.loc 1 396 0
 375 012c 0369     		ldr	r3, [r0, #16]
 376 012e 9942     		cmp	r1, r3
 377 0130 04D3     		bcc	.L17
 378              		.loc 1 397 0
 379 0132 C368     		ldr	r3, [r0, #12]
 380 0134 4361     		str	r3, [r0, #20]
 381              	.LVL47:
 382              	.LBE459:
 383              		.loc 1 390 0
 384 0136 032E     		cmp	r6, #3
 385              	.LBB460:
 386              		.loc 1 395 0
 387 0138 4169     		ldr	r1, [r0, #20]
 388              	.LVL48:
 389              	.LBE460:
 390              		.loc 1 390 0
 391 013a F7D8     		bhi	.L106
 392              	.LVL49:
 393              	.L17:
 394              		.loc 1 408 0
 395 013c D2F800E0 		ldr	lr, [r2]
 396              	.LVL50:
 397 0140 0027     		movs	r7, #0
 398              	.LVL51:
 399              	.L20:
ARM GAS  /tmp/ccDtb1pQ.s 			page 8


 400              		.loc 1 411 0
 401 0142 01F1010C 		add	ip, r1, #1
 402 0146 2EFA07F3 		lsr	r3, lr, r7
 403 014a C0F814C0 		str	ip, [r0, #20]
 404 014e 0B70     		strb	r3, [r1]
 405              		.loc 1 412 0
 406 0150 0369     		ldr	r3, [r0, #16]
 407 0152 4169     		ldr	r1, [r0, #20]
 408 0154 9942     		cmp	r1, r3
 409              		.loc 1 413 0
 410 0156 24BF     		itt	cs
 411 0158 C368     		ldrcs	r3, [r0, #12]
 412 015a 4361     		strcs	r3, [r0, #20]
 413              		.loc 1 410 0
 414 015c 013E     		subs	r6, r6, #1
 415              	.LVL52:
 416 015e 04D0     		beq	.L14
 417 0160 182F     		cmp	r7, #24
 418 0162 E0D0     		beq	.L15
 419 0164 0837     		adds	r7, r7, #8
 420 0166 4169     		ldr	r1, [r0, #20]
 421 0168 EBE7     		b	.L20
 422              	.LVL53:
 423              	.L14:
 424              	.LBE457:
 425              	.LBB461:
 426              	.LBB462:
 427              	.LBB463:
 428              	.LBB464:
 429              	.LBB465:
 430              		.loc 3 546 0
 431 016a 2023     		movs	r3, #32
 432              	@ 546 "ChibiOS_3.0.2/os/ext/CMSIS/include/core_cmFunc.h" 1
 433 016c 83F31188 		MSR basepri, r3
 434              	@ 0 "" 2
 435              		.thumb
 436              	.LBE465:
 437              	.LBE464:
 438              	.LBE463:
 439              	.LBE462:
 440              	.LBE461:
 441              		.loc 1 421 0
 442 0170 8368     		ldr	r3, [r0, #8]
 443 0172 2344     		add	r3, r3, r4
 444 0174 8360     		str	r3, [r0, #8]
 445              	.LVL54:
 446              	.LBB466:
 447              	.LBB467:
 448              		.loc 4 810 0
 449 0176 0021     		movs	r1, #0
 450 0178 FFF7FEFF 		bl	chThdDequeueAllI
 451              	.LVL55:
 452              	.LBE467:
 453              	.LBE466:
 454              	.LBB468:
 455              	.LBB469:
 456              		.loc 4 600 0
ARM GAS  /tmp/ccDtb1pQ.s 			page 9


 457 017c FFF7FEFF 		bl	chSchRescheduleS
 458              	.LVL56:
 459              	.LBE469:
 460              	.LBE468:
 461              	.LBB470:
 462              	.LBB471:
 463              	.LBB472:
 464              	.LBB473:
 465              	.LBB474:
 466              	.LBB475:
 467              		.loc 3 546 0
 468 0180 0023     		movs	r3, #0
 469              	@ 546 "ChibiOS_3.0.2/os/ext/CMSIS/include/core_cmFunc.h" 1
 470 0182 83F31188 		MSR basepri, r3
 471              	@ 0 "" 2
 472              		.thumb
 473 0186 C3E7     		b	.L21
 474              	.LVL57:
 475              	.L97:
 476              	.LBE475:
 477              	.LBE474:
 478              	.LBE473:
 479              	.LBE472:
 480              	.LBE471:
 481              	.LBE470:
 482              	.LBE456:
 483              	.LBE455:
 484              	.LBE476:
 485              	.LBE482:
 486              	.LBB483:
 487              	.LBB484:
 488              	.LBB485:
 489              	.LBB486:
 490              	.LBB487:
 491              	.LBB488:
 492 0188 2022     		movs	r2, #32
 493              	@ 546 "ChibiOS_3.0.2/os/ext/CMSIS/include/core_cmFunc.h" 1
 494 018a 82F31188 		MSR basepri, r2
 495              	@ 0 "" 2
 496              		.thumb
 497              	.LBE488:
 498              	.LBE487:
 499              	.LBE486:
 500              	.LBE485:
 501              	.LBE484:
 502              		.loc 1 1334 0
 503 018e DBF80810 		ldr	r1, [fp, #8]
 504              	.LVL58:
 505              		.loc 1 1335 0
 506 0192 DAF85C20 		ldr	r2, [r10, #92]
 507 0196 0198     		ldr	r0, [sp, #4]
 508              		.loc 1 1334 0
 509 0198 21F00101 		bic	r1, r1, #1
 510              		.loc 1 1335 0
 511 019c 22EA0002 		bic	r2, r2, r0
 512              		.loc 1 1334 0
 513 01a0 CBF80810 		str	r1, [fp, #8]
ARM GAS  /tmp/ccDtb1pQ.s 			page 10


 514              		.loc 1 1335 0
 515 01a4 CAF85C20 		str	r2, [r10, #92]
 516              	.LVL59:
 517              	.LBB489:
 518              	.LBB490:
 519              	.LBB491:
 520              	.LBB492:
 521              	.LBB493:
 522              	.LBB494:
 523              		.loc 3 546 0
 524              	@ 546 "ChibiOS_3.0.2/os/ext/CMSIS/include/core_cmFunc.h" 1
 525 01a8 83F31188 		MSR basepri, r3
 526              	@ 0 "" 2
 527              	.LVL60:
 528              		.thumb
 529 01ac 0AEB8809 		add	r9, r10, r8, lsl #2
 530              	.LBE494:
 531              	.LBE493:
 532              	.LBE492:
 533              	.LBE491:
 534              	.LBE490:
 535              	.LBE489:
 536              	.LBB495:
 537              	.LBB496:
 538              		.loc 1 488 0
 539 01b0 D9F80C00 		ldr	r0, [r9, #12]
 540 01b4 4169     		ldr	r1, [r0, #20]
 541 01b6 8A68     		ldr	r2, [r1, #8]
 542 01b8 4B68     		ldr	r3, [r1, #4]
 543 01ba 9A42     		cmp	r2, r3
 544 01bc 80F0B180 		bcs	.L107
 545              		.loc 1 498 0
 546 01c0 DAF85060 		ldr	r6, [r10, #80]
 547              		.loc 1 493 0
 548 01c4 078A     		ldrh	r7, [r0, #16]
 549              		.loc 1 498 0
 550 01c6 4FEA4810 		lsl	r0, r8, #5
 551 01ca 0446     		mov	r4, r0
 552 01cc 3018     		adds	r0, r6, r0
 553              		.loc 1 492 0
 554 01ce 9B1A     		subs	r3, r3, r2
 555              	.LVL61:
 556              		.loc 1 498 0
 557 01d0 D0F81829 		ldr	r2, [r0, #2328]
 558 01d4 9F42     		cmp	r7, r3
 559 01d6 28BF     		it	cs
 560 01d8 1F46     		movcs	r7, r3
 561              	.LVL62:
 562 01da 93B2     		uxth	r3, r2
 563 01dc B7EB830F 		cmp	r7, r3, lsl #2
 564 01e0 08F10108 		add	r8, r8, #1
 565              	.LVL63:
 566 01e4 2ED8     		bhi	.L31
 567 01e6 CDF808B0 		str	fp, [sp, #8]
 568 01ea A346     		mov	fp, r4
 569              	.L32:
 570              		.loc 1 505 0
ARM GAS  /tmp/ccDtb1pQ.s 			page 11


 571 01ec 0B78     		ldrb	r3, [r1]	@ zero_extendqisi2
 572 01ee 002B     		cmp	r3, #0
 573 01f0 3DD1     		bne	.L108
 574              	.LBB497:
 575              	.LBB498:
 576              		.loc 1 256 0
 577 01f2 FB1C     		adds	r3, r7, #3
 578              	.LBE498:
 579              	.LBE497:
 580              		.loc 1 513 0
 581 01f4 CC68     		ldr	r4, [r1, #12]
 582              	.LBB505:
 583              	.LBB503:
 584              	.LBB499:
 585              	.LBB500:
 586              		.loc 1 233 0
 587 01f6 9B08     		lsrs	r3, r3, #2
 588              	.LBE500:
 589              	.LBE499:
 590              	.LBE503:
 591              	.LBE505:
 592              		.loc 1 513 0
 593 01f8 06EB0836 		add	r6, r6, r8, lsl #12
 594              	.LVL64:
 595              	.LBB506:
 596              	.LBB504:
 597              	.LBB502:
 598              	.LBB501:
 599              		.loc 1 233 0
 600 01fc 18BF     		it	ne
 601 01fe 2246     		movne	r2, r4
 602 0200 04D0     		beq	.L50
 603              	.LVL65:
 604              	.L49:
 605              		.loc 1 236 0
 606 0202 52F8040B 		ldr	r0, [r2], #4
 607              	.LVL66:
 608 0206 3060     		str	r0, [r6]
 609              	.LVL67:
 610              		.loc 1 233 0
 611 0208 013B     		subs	r3, r3, #1
 612              	.LVL68:
 613 020a FAD1     		bne	.L49
 614              	.LVL69:
 615              	.L50:
 616              	.LBE501:
 617              	.LBE502:
 618              	.LBE504:
 619              	.LBE506:
 620              		.loc 1 516 0
 621 020c 3C44     		add	r4, r4, r7
 622              	.LVL70:
 623 020e CC60     		str	r4, [r1, #12]
 624              	.LVL71:
 625              	.L35:
 626              		.loc 1 521 0
 627 0210 D9F80C00 		ldr	r0, [r9, #12]
ARM GAS  /tmp/ccDtb1pQ.s 			page 12


 628 0214 4169     		ldr	r1, [r0, #20]
 629 0216 8B68     		ldr	r3, [r1, #8]
 630              		.loc 1 488 0
 631 0218 4A68     		ldr	r2, [r1, #4]
 632              		.loc 1 521 0
 633 021a 3B44     		add	r3, r3, r7
 634              		.loc 1 488 0
 635 021c 9A42     		cmp	r2, r3
 636              		.loc 1 521 0
 637 021e 8B60     		str	r3, [r1, #8]
 638              		.loc 1 488 0
 639 0220 7BD9     		bls	.L109
 640              		.loc 1 498 0
 641 0222 DAF85060 		ldr	r6, [r10, #80]
 642              		.loc 1 493 0
 643 0226 008A     		ldrh	r0, [r0, #16]
 644              		.loc 1 498 0
 645 0228 06EB0B04 		add	r4, r6, fp
 646              		.loc 1 492 0
 647 022c D71A     		subs	r7, r2, r3
 648              	.LVL72:
 649              		.loc 1 498 0
 650 022e D4F81839 		ldr	r3, [r4, #2328]
 651 0232 8742     		cmp	r7, r0
 652 0234 28BF     		it	cs
 653 0236 0746     		movcs	r7, r0
 654              	.LVL73:
 655 0238 9BB2     		uxth	r3, r3
 656 023a B7EB830F 		cmp	r7, r3, lsl #2
 657 023e D5D9     		bls	.L32
 658 0240 DDF808B0 		ldr	fp, [sp, #8]
 659              	.L31:
 660              		.loc 1 499 0
 661 0244 0022     		movs	r2, #0
 662              	.LVL74:
 663              	.L29:
 664              	.LBE496:
 665              	.LBE495:
 666              	.LBB531:
 667              	.LBB532:
 668              	.LBB533:
 669              	.LBB534:
 670              	.LBB535:
 671              		.loc 3 546 0
 672 0246 2023     		movs	r3, #32
 673              	@ 546 "ChibiOS_3.0.2/os/ext/CMSIS/include/core_cmFunc.h" 1
 674 0248 83F31188 		MSR basepri, r3
 675              	@ 0 "" 2
 676              		.thumb
 677              	.LBE535:
 678              	.LBE534:
 679              	.LBE533:
 680              	.LBE532:
 681              	.LBE531:
 682              		.loc 1 1341 0
 683 024c DBF80830 		ldr	r3, [fp, #8]
 684 0250 43F00103 		orr	r3, r3, #1
ARM GAS  /tmp/ccDtb1pQ.s 			page 13


 685 0254 CBF80830 		str	r3, [fp, #8]
 686              		.loc 1 1342 0
 687 0258 2AB9     		cbnz	r2, .L53
 688              		.loc 1 1343 0
 689 025a DBF83438 		ldr	r3, [fp, #2100]
 690 025e 019A     		ldr	r2, [sp, #4]
 691 0260 1A43     		orrs	r2, r2, r3
 692 0262 CBF83428 		str	r2, [fp, #2100]
 693              	.L53:
 694              	.LVL75:
 695              	.LBB536:
 696              	.LBB537:
 697              	.LBB538:
 698              	.LBB539:
 699              	.LBB540:
 700              	.LBB541:
 701              		.loc 3 546 0
 702 0266 0023     		movs	r3, #0
 703              	@ 546 "ChibiOS_3.0.2/os/ext/CMSIS/include/core_cmFunc.h" 1
 704 0268 83F31188 		MSR basepri, r3
 705              	@ 0 "" 2
 706              		.thumb
 707 026c 25E7     		b	.L27
 708              	.LVL76:
 709              	.L108:
 710              	.LBE541:
 711              	.LBE540:
 712              	.LBE539:
 713              	.LBE538:
 714              	.LBE537:
 715              	.LBE536:
 716              	.LBB542:
 717              	.LBB530:
 718              		.loc 1 507 0
 719 026e 06EB0836 		add	r6, r6, r8, lsl #12
 720 0272 C868     		ldr	r0, [r1, #12]
 721              	.LVL77:
 722              	.LBB507:
 723              	.LBB508:
 724              		.loc 1 274 0
 725 0274 E7B1     		cbz	r7, .L43
 726 0276 D0F810E0 		ldr	lr, [r0, #16]
 727 027a 3A46     		mov	r2, r7
 728              	.LVL78:
 729              	.L47:
 730              	.LBB509:
 731              		.loc 1 278 0
 732 027c 9308     		lsrs	r3, r2, #2
 733              	.LVL79:
 734 027e 2BD1     		bne	.L36
 735 0280 8369     		ldr	r3, [r0, #24]
 736              	.LVL80:
 737              	.L37:
 738              		.loc 1 292 0
 739 0282 0021     		movs	r1, #0
 740 0284 0C46     		mov	r4, r1
 741              	.LVL81:
ARM GAS  /tmp/ccDtb1pQ.s 			page 14


 742              	.L46:
 743              		.loc 1 299 0
 744 0286 5D1C     		adds	r5, r3, #1
 745 0288 8561     		str	r5, [r0, #24]
 746 028a 1B78     		ldrb	r3, [r3]	@ zero_extendqisi2
 747              		.loc 1 300 0
 748 028c 7545     		cmp	r5, lr
 749              		.loc 1 299 0
 750 028e 03FA01F3 		lsl	r3, r3, r1
 751 0292 44EA0304 		orr	r4, r4, r3
 752              	.LVL82:
 753              		.loc 1 301 0
 754 0296 24BF     		itt	cs
 755 0298 C368     		ldrcs	r3, [r0, #12]
 756 029a 8361     		strcs	r3, [r0, #24]
 757              		.loc 1 298 0
 758 029c 013A     		subs	r2, r2, #1
 759              	.LVL83:
 760 029e 04D0     		beq	.L45
 761 02a0 1829     		cmp	r1, #24
 762 02a2 02D0     		beq	.L45
 763 02a4 0831     		adds	r1, r1, #8
 764 02a6 8369     		ldr	r3, [r0, #24]
 765 02a8 EDE7     		b	.L46
 766              	.L45:
 767              		.loc 1 305 0
 768 02aa 3460     		str	r4, [r6]
 769              	.LBE509:
 770              		.loc 1 274 0
 771 02ac 002A     		cmp	r2, #0
 772 02ae E5D1     		bne	.L47
 773              	.LVL84:
 774              	.L43:
 775              	.LBB513:
 776              	.LBB514:
 777              	.LBB515:
 778              	.LBB516:
 779              	.LBB517:
 780              		.loc 3 546 0
 781 02b0 2023     		movs	r3, #32
 782              	@ 546 "ChibiOS_3.0.2/os/ext/CMSIS/include/core_cmFunc.h" 1
 783 02b2 83F31188 		MSR basepri, r3
 784              	@ 0 "" 2
 785              		.thumb
 786              	.LBE517:
 787              	.LBE516:
 788              	.LBE515:
 789              	.LBE514:
 790              	.LBE513:
 791              		.loc 1 310 0
 792 02b6 8368     		ldr	r3, [r0, #8]
 793 02b8 3B44     		add	r3, r3, r7
 794 02ba 8360     		str	r3, [r0, #8]
 795              	.LVL85:
 796              	.LBB518:
 797              	.LBB519:
 798              		.loc 4 810 0
ARM GAS  /tmp/ccDtb1pQ.s 			page 15


 799 02bc 0021     		movs	r1, #0
 800 02be FFF7FEFF 		bl	chThdDequeueAllI
 801              	.LVL86:
 802              	.LBE519:
 803              	.LBE518:
 804              	.LBB520:
 805              	.LBB521:
 806              		.loc 4 600 0
 807 02c2 FFF7FEFF 		bl	chSchRescheduleS
 808              	.LVL87:
 809              	.LBE521:
 810              	.LBE520:
 811              	.LBB522:
 812              	.LBB523:
 813              	.LBB524:
 814              	.LBB525:
 815              	.LBB526:
 816              	.LBB527:
 817              		.loc 3 546 0
 818 02c6 0023     		movs	r3, #0
 819              	@ 546 "ChibiOS_3.0.2/os/ext/CMSIS/include/core_cmFunc.h" 1
 820 02c8 83F31188 		MSR basepri, r3
 821              	@ 0 "" 2
 822              		.thumb
 823 02cc A0E7     		b	.L35
 824              	.L111:
 825 02ce 00BF     		.align	2
 826              	.L110:
 827 02d0 00000000 		.word	ch
 828 02d4 00000000 		.word	.LC0
 829              	.LVL88:
 830              	.L36:
 831              	.LBE527:
 832              	.LBE526:
 833              	.LBE525:
 834              	.LBE524:
 835              	.LBE523:
 836              	.LBE522:
 837              	.LBB528:
 838              	.LBB510:
 839              		.loc 1 280 0
 840 02d8 8469     		ldr	r4, [r0, #24]
 841              	.LVL89:
 842 02da BEEB0401 		subs	r1, lr, r4
 843 02de 48BF     		it	mi
 844 02e0 0331     		addmi	r1, r1, #3
 845 02e2 8910     		asrs	r1, r1, #2
 846              		.loc 1 282 0
 847 02e4 8B42     		cmp	r3, r1
 848 02e6 28BF     		it	cs
 849 02e8 0B46     		movcs	r3, r1
 850              	.LVL90:
 851 02ea 4FEA830C 		lsl	ip, r3, #2
 852 02ee CCEB0202 		rsb	r2, ip, r2
 853              	.LVL91:
 854              	.LBB511:
 855              	.LBB512:
ARM GAS  /tmp/ccDtb1pQ.s 			page 16


 856              		.loc 1 233 0
 857 02f2 33B1     		cbz	r3, .L39
 858 02f4 2146     		mov	r1, r4
 859              	.LVL92:
 860              	.L40:
 861              		.loc 1 236 0
 862 02f6 51F8045B 		ldr	r5, [r1], #4
 863              	.LVL93:
 864 02fa 3560     		str	r5, [r6]
 865              	.LVL94:
 866              		.loc 1 233 0
 867 02fc 013B     		subs	r3, r3, #1
 868              	.LVL95:
 869 02fe FAD1     		bne	.L40
 870 0300 6444     		add	r4, r4, ip
 871              	.LVL96:
 872              	.L39:
 873              	.LBE512:
 874              	.LBE511:
 875              		.loc 1 284 0
 876 0302 A645     		cmp	lr, r4
 877              		.loc 1 283 0
 878 0304 8461     		str	r4, [r0, #24]
 879              	.LVL97:
 880              		.loc 1 284 0
 881 0306 04D8     		bhi	.L41
 882              		.loc 1 285 0
 883 0308 C368     		ldr	r3, [r0, #12]
 884              	.LVL98:
 885 030a 8361     		str	r3, [r0, #24]
 886              	.LBE510:
 887              	.LBE528:
 888              		.loc 1 274 0
 889 030c 002A     		cmp	r2, #0
 890 030e B5D1     		bne	.L47
 891 0310 CEE7     		b	.L43
 892              	.LVL99:
 893              	.L41:
 894              	.LBB529:
 895              		.loc 1 292 0
 896 0312 002A     		cmp	r2, #0
 897 0314 CCD0     		beq	.L43
 898 0316 2346     		mov	r3, r4
 899              	.LVL100:
 900 0318 B3E7     		b	.L37
 901              	.LVL101:
 902              	.L109:
 903 031a DDF808B0 		ldr	fp, [sp, #8]
 904              	.LVL102:
 905              	.L51:
 906              	.LBE529:
 907              	.LBE508:
 908              	.LBE507:
 909              		.loc 1 489 0
 910 031e 0122     		movs	r2, #1
 911 0320 91E7     		b	.L29
 912              	.LVL103:
ARM GAS  /tmp/ccDtb1pQ.s 			page 17


 913              	.L107:
 914 0322 08F10108 		add	r8, r8, #1
 915              	.LVL104:
 916 0326 FAE7     		b	.L51
 917              	.LBE530:
 918              	.LBE542:
 919              	.LBE483:
 920              	.LBE432:
 921              		.cfi_endproc
 922              	.LFE292:
 923              		.size	usb_lld_pump, .-usb_lld_pump
 924              		.section	.text.otg_disable_ep.isra.0,"ax",%progbits
 925              		.align	2
 926              		.p2align 4,,15
 927              		.thumb
 928              		.thumb_func
 929              		.type	otg_disable_ep.isra.0, %function
 930              	otg_disable_ep.isra.0:
 931              	.LFB293:
 932              		.loc 1 132 0
 933              		.cfi_startproc
 934              		@ args = 0, pretend = 0, frame = 0
 935              		@ frame_needed = 0, uses_anonymous_args = 0
 936              	.LVL105:
 937 0000 F0B5     		push	{r4, r5, r6, r7, lr}
 938              		.cfi_def_cfa_offset 20
 939              		.cfi_offset 4, -20
 940              		.cfi_offset 5, -16
 941              		.cfi_offset 6, -12
 942              		.cfi_offset 7, -8
 943              		.cfi_offset 14, -4
 944              		.loc 1 136 0
 945 0002 0024     		movs	r4, #0
 946              	.LVL106:
 947 0004 D1F808E0 		ldr	lr, [r1, #8]
 948              		.loc 1 147 0
 949 0008 2546     		mov	r5, r4
 950              		.loc 1 141 0
 951 000a 4FF0804C 		mov	ip, #1073741824
 952              		.loc 1 149 0
 953 000e 4FF0FF37 		mov	r7, #-1
 954 0012 14E0     		b	.L119
 955              	.LVL107:
 956              	.L113:
 957              		.loc 1 147 0
 958 0014 C1F80059 		str	r5, [r1, #2304]
 959              	.L115:
 960              		.loc 1 148 0
 961 0018 C218     		adds	r2, r0, r3
 962 001a C2F81059 		str	r5, [r2, #2320]
 963              		.loc 1 149 0
 964 001e C2F80879 		str	r7, [r2, #2312]
 965              		.loc 1 155 0
 966 0022 D1F8006B 		ldr	r6, [r1, #2816]
 967 0026 002E     		cmp	r6, #0
 968 0028 17DB     		blt	.L126
 969              		.loc 1 162 0
ARM GAS  /tmp/ccDtb1pQ.s 			page 18


 970 002a C1F8005B 		str	r5, [r1, #2816]
 971              	.L118:
 972              		.loc 1 163 0
 973 002e 0344     		add	r3, r3, r0
 974              		.loc 1 136 0
 975 0030 0134     		adds	r4, r4, #1
 976              	.LVL108:
 977 0032 A645     		cmp	lr, r4
 978              		.loc 1 163 0
 979 0034 C3F8105B 		str	r5, [r3, #2832]
 980              		.loc 1 164 0
 981 0038 C3F8087B 		str	r7, [r3, #2824]
 982              		.loc 1 136 0
 983 003c 14D3     		bcc	.L127
 984              	.LVL109:
 985              	.L119:
 986 003e 6301     		lsls	r3, r4, #5
 987 0040 C118     		adds	r1, r0, r3
 988              		.loc 1 140 0
 989 0042 D1F80029 		ldr	r2, [r1, #2304]
 990 0046 002A     		cmp	r2, #0
 991 0048 E4DA     		bge	.L113
 992              		.loc 1 141 0
 993 004a C1F800C9 		str	ip, [r1, #2304]
 994              		.loc 1 143 0
 995 004e 0E46     		mov	r6, r1
 996              	.L114:
 997 0050 D6F80829 		ldr	r2, [r6, #2312]
 998 0054 9207     		lsls	r2, r2, #30
 999 0056 FBD5     		bpl	.L114
 1000 0058 DEE7     		b	.L115
 1001              	.L126:
 1002              		.loc 1 156 0
 1003 005a C1F800CB 		str	ip, [r1, #2816]
 1004              	.L117:
 1005              		.loc 1 158 0
 1006 005e D2F8081B 		ldr	r1, [r2, #2824]
 1007 0062 C906     		lsls	r1, r1, #27
 1008 0064 FBD5     		bpl	.L117
 1009 0066 E2E7     		b	.L118
 1010              	.L127:
 1011              		.loc 1 166 0
 1012 0068 4FF00113 		mov	r3, #65537
 1013 006c C0F81C38 		str	r3, [r0, #2076]
 1014 0070 F0BD     		pop	{r4, r5, r6, r7, pc}
 1015              		.cfi_endproc
 1016              	.LFE293:
 1017              		.size	otg_disable_ep.isra.0, .-otg_disable_ep.isra.0
 1018 0072 00BF     		.section	.text.usb_lld_init,"ax",%progbits
 1019              		.align	2
 1020              		.p2align 4,,15
 1021              		.global	usb_lld_init
 1022              		.thumb
 1023              		.thumb_func
 1024              		.type	usb_lld_init, %function
 1025              	usb_lld_init:
 1026              	.LFB274:
ARM GAS  /tmp/ccDtb1pQ.s 			page 19


 1027              		.loc 1 744 0
 1028              		.cfi_startproc
 1029              		@ args = 0, pretend = 0, frame = 0
 1030              		@ frame_needed = 0, uses_anonymous_args = 0
 1031 0000 10B5     		push	{r4, lr}
 1032              		.cfi_def_cfa_offset 8
 1033              		.cfi_offset 4, -8
 1034              		.cfi_offset 14, -4
 1035              		.loc 1 748 0
 1036 0002 064C     		ldr	r4, .L130
 1037 0004 2046     		mov	r0, r4
 1038 0006 FFF7FEFF 		bl	usbObjectInit
 1039              	.LVL110:
 1040              		.loc 1 750 0
 1041 000a 4FF0A043 		mov	r3, #1342177280
 1042              		.loc 1 751 0
 1043 000e 044A     		ldr	r2, .L130+4
 1044              		.loc 1 750 0
 1045 0010 2365     		str	r3, [r4, #80]
 1046              		.loc 1 749 0
 1047 0012 0023     		movs	r3, #0
 1048              		.loc 1 751 0
 1049 0014 6265     		str	r2, [r4, #84]
 1050              		.loc 1 749 0
 1051 0016 2366     		str	r3, [r4, #96]
 1052              		.loc 1 754 0
 1053 0018 6366     		str	r3, [r4, #100]
 1054 001a 10BD     		pop	{r4, pc}
 1055              	.L131:
 1056              		.align	2
 1057              	.L130:
 1058 001c 00000000 		.word	.LANCHOR0
 1059 0020 00000000 		.word	.LANCHOR1
 1060              		.cfi_endproc
 1061              	.LFE274:
 1062              		.size	usb_lld_init, .-usb_lld_init
 1063              		.section	.text.usb_lld_start,"ax",%progbits
 1064              		.align	2
 1065              		.p2align 4,,15
 1066              		.global	usb_lld_start
 1067              		.thumb
 1068              		.thumb_func
 1069              		.type	usb_lld_start, %function
 1070              	usb_lld_start:
 1071              	.LFB275:
 1072              		.loc 1 806 0
 1073              		.cfi_startproc
 1074              		@ args = 0, pretend = 0, frame = 0
 1075              		@ frame_needed = 0, uses_anonymous_args = 0
 1076              	.LVL111:
 1077 0000 70B5     		push	{r4, r5, r6, lr}
 1078              		.cfi_def_cfa_offset 16
 1079              		.cfi_offset 4, -16
 1080              		.cfi_offset 5, -12
 1081              		.cfi_offset 6, -8
 1082              		.cfi_offset 14, -4
 1083              		.loc 1 809 0
ARM GAS  /tmp/ccDtb1pQ.s 			page 20


 1084 0002 0378     		ldrb	r3, [r0]	@ zero_extendqisi2
 1085              		.loc 1 807 0
 1086 0004 066D     		ldr	r6, [r0, #80]
 1087              	.LVL112:
 1088              		.loc 1 809 0
 1089 0006 012B     		cmp	r3, #1
 1090              		.loc 1 806 0
 1091 0008 82B0     		sub	sp, sp, #8
 1092              		.cfi_def_cfa_offset 24
 1093              		.loc 1 809 0
 1094 000a 01D0     		beq	.L144
 1095              		.loc 1 893 0
 1096 000c 02B0     		add	sp, sp, #8
 1097              		.cfi_remember_state
 1098              		.cfi_def_cfa_offset 16
 1099              		@ sp needed
 1100 000e 70BD     		pop	{r4, r5, r6, pc}
 1101              	.LVL113:
 1102              	.L144:
 1103              		.cfi_restore_state
 1104              		.loc 1 812 0
 1105 0010 304B     		ldr	r3, .L148
 1106 0012 9842     		cmp	r0, r3
 1107 0014 0546     		mov	r5, r0
 1108              		.loc 1 807 0
 1109 0016 18BF     		it	ne
 1110 0018 3446     		movne	r4, r6
 1111              		.loc 1 812 0
 1112 001a 3AD0     		beq	.L145
 1113              	.LVL114:
 1114              	.L134:
 1115              		.loc 1 836 0
 1116 001c 0023     		movs	r3, #0
 1117              		.loc 1 841 0
 1118 001e 2E48     		ldr	r0, .L148+4
 1119              		.loc 1 844 0
 1120 0020 2E49     		ldr	r1, .L148+8
 1121              		.loc 1 836 0
 1122 0022 EB65     		str	r3, [r5, #92]
 1123              		.loc 1 851 0
 1124 0024 4FF43412 		mov	r2, #2949120
 1125              		.loc 1 841 0
 1126 0028 F060     		str	r0, [r6, #12]
 1127              		.loc 1 844 0
 1128 002a C6F80018 		str	r1, [r6, #2048]
 1129              	.LBB551:
 1130              	.LBB552:
 1131              	.LBB553:
 1132              	.LBB554:
 1133              		.loc 4 573 0
 1134 002e 2020     		movs	r0, #32
 1135              	.LBE554:
 1136              	.LBE553:
 1137              	.LBE552:
 1138              	.LBE551:
 1139              		.loc 1 847 0
 1140 0030 C6F8003E 		str	r3, [r6, #3584]
ARM GAS  /tmp/ccDtb1pQ.s 			page 21


 1141              		.loc 1 851 0
 1142 0034 B263     		str	r2, [r6, #56]
 1143              	.LVL115:
 1144              	.LBB560:
 1145              	.LBB559:
 1146              	.LBB556:
 1147              	.LBB555:
 1148              		.loc 4 573 0
 1149 0036 FFF7FEFF 		bl	chSysPolledDelayX
 1150              	.LVL116:
 1151              	.LBE555:
 1152              	.LBE556:
 1153              		.loc 1 121 0
 1154 003a 0123     		movs	r3, #1
 1155 003c 2361     		str	r3, [r4, #16]
 1156              	.L135:
 1157              		.loc 1 122 0
 1158 003e 2369     		ldr	r3, [r4, #16]
 1159 0040 DB07     		lsls	r3, r3, #31
 1160 0042 FCD4     		bmi	.L135
 1161              	.LVL117:
 1162              	.LBB557:
 1163              	.LBB558:
 1164              		.loc 4 573 0
 1165 0044 0C20     		movs	r0, #12
 1166 0046 FFF7FEFF 		bl	chSysPolledDelayX
 1167              	.LVL118:
 1168              	.L136:
 1169              	.LBE558:
 1170              	.LBE557:
 1171              		.loc 1 128 0
 1172 004a 2369     		ldr	r3, [r4, #16]
 1173 004c 002B     		cmp	r3, #0
 1174 004e FCDA     		bge	.L136
 1175              	.LBE559:
 1176              	.LBE560:
 1177              		.loc 1 861 0
 1178 0050 0024     		movs	r4, #0
 1179              	.LVL119:
 1180 0052 B460     		str	r4, [r6, #8]
 1181              		.loc 1 864 0
 1182 0054 286D     		ldr	r0, [r5, #80]
 1183 0056 696D     		ldr	r1, [r5, #84]
 1184 0058 FFF7FEFF 		bl	otg_disable_ep.isra.0
 1185              	.LVL120:
 1186              		.loc 1 871 0
 1187 005c 6B68     		ldr	r3, [r5, #4]
 1188              		.loc 1 868 0
 1189 005e C6F81048 		str	r4, [r6, #2064]
 1190              		.loc 1 871 0
 1191 0062 DB68     		ldr	r3, [r3, #12]
 1192              		.loc 1 869 0
 1193 0064 C6F81448 		str	r4, [r6, #2068]
 1194              		.loc 1 870 0
 1195 0068 C6F81C48 		str	r4, [r6, #2076]
 1196              		.loc 1 871 0
 1197 006c 6BB1     		cbz	r3, .L146
ARM GAS  /tmp/ccDtb1pQ.s 			page 22


 1198              		.loc 1 875 0
 1199 006e 43F20803 		movw	r3, #12296
 1200 0072 B361     		str	r3, [r6, #24]
 1201              	.L138:
 1202              		.loc 1 881 0
 1203 0074 6B6E     		ldr	r3, [r5, #100]
 1204              		.loc 1 877 0
 1205 0076 4FF0FF32 		mov	r2, #-1
 1206 007a 7261     		str	r2, [r6, #20]
 1207              		.loc 1 881 0
 1208 007c D3B1     		cbz	r3, .L147
 1209              	.L139:
 1210              		.loc 1 891 0
 1211 007e B368     		ldr	r3, [r6, #8]
 1212 0080 43F00103 		orr	r3, r3, #1
 1213 0084 B360     		str	r3, [r6, #8]
 1214              		.loc 1 893 0
 1215 0086 02B0     		add	sp, sp, #8
 1216              		.cfi_remember_state
 1217              		.cfi_def_cfa_offset 16
 1218              		@ sp needed
 1219 0088 70BD     		pop	{r4, r5, r6, pc}
 1220              	.LVL121:
 1221              	.L146:
 1222              		.cfi_restore_state
 1223              		.loc 1 872 0
 1224 008a 4FF44053 		mov	r3, #12288
 1225 008e B361     		str	r3, [r6, #24]
 1226 0090 F0E7     		b	.L138
 1227              	.LVL122:
 1228              	.L145:
 1229              		.loc 1 814 0
 1230 0092 134B     		ldr	r3, .L148+12
 1231 0094 5A6B     		ldr	r2, [r3, #52]
 1232 0096 42F08002 		orr	r2, r2, #128
 1233 009a 5A63     		str	r2, [r3, #52]
 1234              		.loc 1 815 0
 1235 009c 5A69     		ldr	r2, [r3, #20]
 1236 009e 0021     		movs	r1, #0
 1237 00a0 42F08002 		orr	r2, r2, #128
 1238 00a4 5A61     		str	r2, [r3, #20]
 1239              		.loc 1 818 0
 1240 00a6 4320     		movs	r0, #67
 1241              	.LVL123:
 1242              		.loc 1 815 0
 1243 00a8 5961     		str	r1, [r3, #20]
 1244              		.loc 1 818 0
 1245 00aa 0E21     		movs	r1, #14
 1246 00ac FFF7FEFF 		bl	nvicEnableVector
 1247              	.LVL124:
 1248 00b0 2C6D     		ldr	r4, [r5, #80]
 1249 00b2 B3E7     		b	.L134
 1250              	.LVL125:
 1251              	.L147:
 1252              		.loc 1 882 0
 1253 00b4 4FF40671 		mov	r1, #536
 1254 00b8 0222     		movs	r2, #2
ARM GAS  /tmp/ccDtb1pQ.s 			page 23


 1255 00ba 0A4B     		ldr	r3, .L148+16
 1256 00bc 0095     		str	r5, [sp]
 1257 00be 05F16800 		add	r0, r5, #104
 1258 00c2 FFF7FEFF 		bl	chThdCreateI
 1259              	.LVL126:
 1260 00c6 6866     		str	r0, [r5, #100]
 1261              	.LVL127:
 1262              	.LBB561:
 1263              	.LBB562:
 1264              		.file 5 "ChibiOS_3.0.2/os/rt/include/chthreads.h"
 1265              		.loc 5 249 0
 1266 00c8 FFF7FEFF 		bl	chSchReadyI
 1267              	.LVL128:
 1268              	.LBE562:
 1269              	.LBE561:
 1270              		.loc 1 886 0
 1271 00cc FFF7FEFF 		bl	chSchRescheduleS
 1272              	.LVL129:
 1273 00d0 D5E7     		b	.L139
 1274              	.L149:
 1275 00d2 00BF     		.align	2
 1276              	.L148:
 1277 00d4 00000000 		.word	.LANCHOR0
 1278 00d8 40140040 		.word	1073747008
 1279 00dc 03002002 		.word	35651587
 1280 00e0 00380240 		.word	1073887232
 1281 00e4 00000000 		.word	usb_lld_pump
 1282              		.cfi_endproc
 1283              	.LFE275:
 1284              		.size	usb_lld_start, .-usb_lld_start
 1285              		.section	.text.usb_lld_stop,"ax",%progbits
 1286              		.align	2
 1287              		.p2align 4,,15
 1288              		.global	usb_lld_stop
 1289              		.thumb
 1290              		.thumb_func
 1291              		.type	usb_lld_stop, %function
 1292              	usb_lld_stop:
 1293              	.LFB276:
 1294              		.loc 1 902 0
 1295              		.cfi_startproc
 1296              		@ args = 0, pretend = 0, frame = 0
 1297              		@ frame_needed = 0, uses_anonymous_args = 0
 1298              	.LVL130:
 1299 0000 38B5     		push	{r3, r4, r5, lr}
 1300              		.cfi_def_cfa_offset 16
 1301              		.cfi_offset 3, -16
 1302              		.cfi_offset 4, -12
 1303              		.cfi_offset 5, -8
 1304              		.cfi_offset 14, -4
 1305              		.loc 1 906 0
 1306 0002 0378     		ldrb	r3, [r0]	@ zero_extendqisi2
 1307              		.loc 1 903 0
 1308 0004 056D     		ldr	r5, [r0, #80]
 1309              	.LVL131:
 1310              		.loc 1 906 0
 1311 0006 012B     		cmp	r3, #1
ARM GAS  /tmp/ccDtb1pQ.s 			page 24


 1312 0008 0DD0     		beq	.L150
 1313 000a 0446     		mov	r4, r0
 1314              		.loc 1 910 0
 1315 000c 2846     		mov	r0, r5
 1316              	.LVL132:
 1317 000e 616D     		ldr	r1, [r4, #84]
 1318 0010 FFF7FEFF 		bl	otg_disable_ep.isra.0
 1319              	.LVL133:
 1320              		.loc 1 919 0
 1321 0014 094A     		ldr	r2, .L156
 1322              		.loc 1 912 0
 1323 0016 0023     		movs	r3, #0
 1324              		.loc 1 919 0
 1325 0018 9442     		cmp	r4, r2
 1326              		.loc 1 912 0
 1327 001a E365     		str	r3, [r4, #92]
 1328              		.loc 1 914 0
 1329 001c C5F81C38 		str	r3, [r5, #2076]
 1330              		.loc 1 915 0
 1331 0020 AB60     		str	r3, [r5, #8]
 1332              		.loc 1 916 0
 1333 0022 AB63     		str	r3, [r5, #56]
 1334              		.loc 1 919 0
 1335 0024 00D0     		beq	.L155
 1336              	.LVL134:
 1337              	.L150:
 1338 0026 38BD     		pop	{r3, r4, r5, pc}
 1339              	.LVL135:
 1340              	.L155:
 1341              		.loc 1 920 0
 1342 0028 4320     		movs	r0, #67
 1343 002a FFF7FEFF 		bl	nvicDisableVector
 1344              	.LVL136:
 1345              		.loc 1 921 0
 1346 002e 044A     		ldr	r2, .L156+4
 1347 0030 536B     		ldr	r3, [r2, #52]
 1348 0032 23F08003 		bic	r3, r3, #128
 1349 0036 5363     		str	r3, [r2, #52]
 1350 0038 F5E7     		b	.L150
 1351              	.L157:
 1352 003a 00BF     		.align	2
 1353              	.L156:
 1354 003c 00000000 		.word	.LANCHOR0
 1355 0040 00380240 		.word	1073887232
 1356              		.cfi_endproc
 1357              	.LFE276:
 1358              		.size	usb_lld_stop, .-usb_lld_stop
 1359              		.section	.text.usb_lld_reset,"ax",%progbits
 1360              		.align	2
 1361              		.p2align 4,,15
 1362              		.global	usb_lld_reset
 1363              		.thumb
 1364              		.thumb_func
 1365              		.type	usb_lld_reset, %function
 1366              	usb_lld_reset:
 1367              	.LFB277:
 1368              		.loc 1 941 0
ARM GAS  /tmp/ccDtb1pQ.s 			page 25


 1369              		.cfi_startproc
 1370              		@ args = 0, pretend = 0, frame = 0
 1371              		@ frame_needed = 0, uses_anonymous_args = 0
 1372              	.LVL137:
 1373 0000 F8B5     		push	{r3, r4, r5, r6, r7, lr}
 1374              		.cfi_def_cfa_offset 24
 1375              		.cfi_offset 3, -24
 1376              		.cfi_offset 4, -20
 1377              		.cfi_offset 5, -16
 1378              		.cfi_offset 6, -12
 1379              		.cfi_offset 7, -8
 1380              		.cfi_offset 14, -4
 1381              		.loc 1 943 0
 1382 0002 056D     		ldr	r5, [r0, #80]
 1383              	.LVL138:
 1384              	.LBB563:
 1385              	.LBB564:
 1386              		.loc 1 182 0
 1387 0004 2023     		movs	r3, #32
 1388              	.LBE564:
 1389              	.LBE563:
 1390              		.loc 1 941 0
 1391 0006 0746     		mov	r7, r0
 1392              	.LBB568:
 1393              	.LBB567:
 1394              		.loc 1 182 0
 1395 0008 2B61     		str	r3, [r5, #16]
 1396              	.L159:
 1397              		.loc 1 183 0
 1398 000a 2B69     		ldr	r3, [r5, #16]
 1399 000c 13F02004 		ands	r4, r3, #32
 1400 0010 FBD1     		bne	.L159
 1401              	.LVL139:
 1402              	.LBB565:
 1403              	.LBB566:
 1404              		.loc 4 573 0
 1405 0012 0C20     		movs	r0, #12
 1406              	.LVL140:
 1407 0014 FFF7FEFF 		bl	chSysPolledDelayX
 1408              	.LVL141:
 1409 0018 D7F854E0 		ldr	lr, [r7, #84]
 1410 001c DEF80860 		ldr	r6, [lr, #8]
 1411              	.LBE566:
 1412              	.LBE565:
 1413              	.LBE567:
 1414              	.LBE568:
 1415              		.loc 1 949 0
 1416 0020 2346     		mov	r3, r4
 1417              		.loc 1 950 0
 1418 0022 4FF00060 		mov	r0, #134217728
 1419              		.loc 1 952 0
 1420 0026 FF21     		movs	r1, #255
 1421              	.LVL142:
 1422              	.L160:
 1423 0028 05EB4312 		add	r2, r5, r3, lsl #5
 1424              		.loc 1 949 0 discriminator 3
 1425 002c 0133     		adds	r3, r3, #1
ARM GAS  /tmp/ccDtb1pQ.s 			page 26


 1426              	.LVL143:
 1427 002e B342     		cmp	r3, r6
 1428              		.loc 1 950 0 discriminator 3
 1429 0030 C2F80009 		str	r0, [r2, #2304]
 1430              		.loc 1 951 0 discriminator 3
 1431 0034 C2F8000B 		str	r0, [r2, #2816]
 1432              		.loc 1 952 0 discriminator 3
 1433 0038 C2F80819 		str	r1, [r2, #2312]
 1434              		.loc 1 953 0 discriminator 3
 1435 003c C2F8081B 		str	r1, [r2, #2824]
 1436              		.loc 1 949 0 discriminator 3
 1437 0040 F2D9     		bls	.L160
 1438              	.LBB569:
 1439              	.LBB570:
 1440              		.loc 1 198 0
 1441 0042 DEF80030 		ldr	r3, [lr]
 1442              	.LVL144:
 1443              	.LBE570:
 1444              	.LBE569:
 1445              		.loc 1 957 0
 1446 0046 4FF0FF32 		mov	r2, #-1
 1447              		.loc 1 958 0
 1448 004a 4FF00111 		mov	r1, #65537
 1449              		.loc 1 957 0
 1450 004e C5F81828 		str	r2, [r5, #2072]
 1451 0052 3A6D     		ldr	r2, [r7, #80]
 1452              		.loc 1 958 0
 1453 0054 C5F81C18 		str	r1, [r5, #2076]
 1454              	.LVL145:
 1455              	.LBB572:
 1456              	.LBB571:
 1457              		.loc 1 198 0
 1458 0058 BB65     		str	r3, [r7, #88]
 1459              	.LBE571:
 1460              	.LBE572:
 1461              		.loc 1 964 0
 1462 005a DEF80030 		ldr	r3, [lr]
 1463 005e 6B62     		str	r3, [r5, #36]
 1464              	.LBB573:
 1465              	.LBB574:
 1466              		.loc 1 172 0
 1467 0060 1023     		movs	r3, #16
 1468 0062 1361     		str	r3, [r2, #16]
 1469              	.L161:
 1470              		.loc 1 173 0
 1471 0064 1369     		ldr	r3, [r2, #16]
 1472 0066 13F01004 		ands	r4, r3, #16
 1473 006a FBD1     		bne	.L161
 1474              	.LVL146:
 1475              	.LBB575:
 1476              	.LBB576:
 1477              		.loc 4 573 0
 1478 006c 0C20     		movs	r0, #12
 1479 006e FFF7FEFF 		bl	chSysPolledDelayX
 1480              	.LVL147:
 1481              	.LBE576:
 1482              	.LBE575:
ARM GAS  /tmp/ccDtb1pQ.s 			page 27


 1483              	.LBE574:
 1484              	.LBE573:
 1485              		.loc 1 968 0
 1486 0072 D5F80038 		ldr	r3, [r5, #2048]
 1487              		.loc 1 978 0
 1488 0076 114A     		ldr	r2, .L166
 1489              		.loc 1 976 0
 1490 0078 1148     		ldr	r0, .L166+4
 1491              		.loc 1 968 0
 1492 007a 23F4FE63 		bic	r3, r3, #2032
 1493 007e C5F80038 		str	r3, [r5, #2048]
 1494              		.loc 1 971 0
 1495 0082 AB69     		ldr	r3, [r5, #24]
 1496 0084 43F44023 		orr	r3, r3, #786432
 1497 0088 43F01003 		orr	r3, r3, #16
 1498              		.loc 1 972 0
 1499 008c 0921     		movs	r1, #9
 1500              		.loc 1 971 0
 1501 008e AB61     		str	r3, [r5, #24]
 1502              		.loc 1 972 0
 1503 0090 C5F81018 		str	r1, [r5, #2064]
 1504              		.loc 1 973 0
 1505 0094 C5F81418 		str	r1, [r5, #2068]
 1506              		.loc 1 976 0
 1507 0098 F860     		str	r0, [r7, #12]
 1508              		.loc 1 977 0
 1509 009a C5F8104B 		str	r4, [r5, #2832]
 1510              		.loc 1 978 0
 1511 009e C5F8002B 		str	r2, [r5, #2816]
 1512              		.loc 1 980 0
 1513 00a2 C5F81049 		str	r4, [r5, #2320]
 1514              		.loc 1 981 0
 1515 00a6 C5F80029 		str	r2, [r5, #2304]
 1516              	.LVL148:
 1517              	.LBB577:
 1518              	.LBB578:
 1519              		.loc 1 212 0
 1520 00aa BB6D     		ldr	r3, [r7, #88]
 1521              	.LVL149:
 1522              		.loc 1 213 0
 1523 00ac 03F11002 		add	r2, r3, #16
 1524              	.LBE578:
 1525              	.LBE577:
 1526              		.loc 1 983 0
 1527 00b0 43F48013 		orr	r3, r3, #1048576
 1528              	.LVL150:
 1529              	.LBB580:
 1530              	.LBB579:
 1531              		.loc 1 213 0
 1532 00b4 BA65     		str	r2, [r7, #88]
 1533              	.LVL151:
 1534              	.LBE579:
 1535              	.LBE580:
 1536              		.loc 1 983 0
 1537 00b6 AB62     		str	r3, [r5, #40]
 1538 00b8 F8BD     		pop	{r3, r4, r5, r6, r7, pc}
 1539              	.LVL152:
ARM GAS  /tmp/ccDtb1pQ.s 			page 28


 1540              	.L167:
 1541 00ba 00BF     		.align	2
 1542              	.L166:
 1543 00bc 40800010 		.word	268468288
 1544 00c0 00000000 		.word	.LANCHOR2
 1545              		.cfi_endproc
 1546              	.LFE277:
 1547              		.size	usb_lld_reset, .-usb_lld_reset
 1548              		.section	.text.usb_lld_set_address,"ax",%progbits
 1549              		.align	2
 1550              		.p2align 4,,15
 1551              		.global	usb_lld_set_address
 1552              		.thumb
 1553              		.thumb_func
 1554              		.type	usb_lld_set_address, %function
 1555              	usb_lld_set_address:
 1556              	.LFB278:
 1557              		.loc 1 995 0
 1558              		.cfi_startproc
 1559              		@ args = 0, pretend = 0, frame = 0
 1560              		@ frame_needed = 0, uses_anonymous_args = 0
 1561              		@ link register save eliminated.
 1562              	.LVL153:
 1563              		.loc 1 996 0
 1564 0000 026D     		ldr	r2, [r0, #80]
 1565              	.LVL154:
 1566              		.loc 1 998 0
 1567 0002 90F84E10 		ldrb	r1, [r0, #78]	@ zero_extendqisi2
 1568 0006 D2F80038 		ldr	r3, [r2, #2048]
 1569 000a 23F4FE63 		bic	r3, r3, #2032
 1570 000e 43EA0113 		orr	r3, r3, r1, lsl #4
 1571 0012 C2F80038 		str	r3, [r2, #2048]
 1572 0016 7047     		bx	lr
 1573              		.cfi_endproc
 1574              	.LFE278:
 1575              		.size	usb_lld_set_address, .-usb_lld_set_address
 1576              		.section	.text.usb_lld_init_endpoint,"ax",%progbits
 1577              		.align	2
 1578              		.p2align 4,,15
 1579              		.global	usb_lld_init_endpoint
 1580              		.thumb
 1581              		.thumb_func
 1582              		.type	usb_lld_init_endpoint, %function
 1583              	usb_lld_init_endpoint:
 1584              	.LFB279:
 1585              		.loc 1 1009 0
 1586              		.cfi_startproc
 1587              		@ args = 0, pretend = 0, frame = 0
 1588              		@ frame_needed = 0, uses_anonymous_args = 0
 1589              	.LVL155:
 1590 0000 2DE9F041 		push	{r4, r5, r6, r7, r8, lr}
 1591              		.cfi_def_cfa_offset 24
 1592              		.cfi_offset 4, -24
 1593              		.cfi_offset 5, -20
 1594              		.cfi_offset 6, -16
 1595              		.cfi_offset 7, -12
 1596              		.cfi_offset 8, -8
ARM GAS  /tmp/ccDtb1pQ.s 			page 29


 1597              		.cfi_offset 14, -4
 1598 0004 0FFA81F8 		sxth	r8, r1
 1599 0008 00EB8807 		add	r7, r0, r8, lsl #2
 1600              		.loc 1 1009 0
 1601 000c 0D46     		mov	r5, r1
 1602              		.loc 1 1014 0
 1603 000e FB68     		ldr	r3, [r7, #12]
 1604              		.loc 1 1011 0
 1605 0010 046D     		ldr	r4, [r0, #80]
 1606              	.LVL156:
 1607              		.loc 1 1014 0
 1608 0012 1A68     		ldr	r2, [r3]
 1609 0014 02F00302 		and	r2, r2, #3
 1610 0018 022A     		cmp	r2, #2
 1611 001a 5CD0     		beq	.L171
 1612 001c 032A     		cmp	r2, #3
 1613 001e 5CD0     		beq	.L172
 1614              		.loc 1 1016 0
 1615 0020 4A4E     		ldr	r6, .L185
 1616 0022 4B49     		ldr	r1, .L185+4
 1617              	.LVL157:
 1618 0024 012A     		cmp	r2, #1
 1619 0026 18BF     		it	ne
 1620 0028 0E46     		movne	r6, r1
 1621              	.L170:
 1622              	.LVL158:
 1623              		.loc 1 1032 0
 1624 002a 6A01     		lsls	r2, r5, #5
 1625              		.loc 1 1033 0
 1626 002c D968     		ldr	r1, [r3, #12]
 1627              		.loc 1 1032 0
 1628 002e 04EB020E 		add	lr, r4, r2
 1629 0032 4FF0000C 		mov	ip, #0
 1630 0036 CEF810CB 		str	ip, [lr, #2832]
 1631              		.loc 1 1033 0
 1632 003a 0029     		cmp	r1, #0
 1633 003c 71D0     		beq	.L174
 1634              		.loc 1 1034 0
 1635 003e B3F812E0 		ldrh	lr, [r3, #18]
 1636 0042 05F15801 		add	r1, r5, #88
 1637 0046 4901     		lsls	r1, r1, #5
 1638 0048 46EA0E0E 		orr	lr, r6, lr
 1639 004c 44F801E0 		str	lr, [r4, r1]
 1640              		.loc 1 1035 0
 1641 0050 05F1100C 		add	ip, r5, #16
 1642 0054 D4F81C18 		ldr	r1, [r4, #2076]
 1643 0058 4FF0010E 		mov	lr, #1
 1644 005c 0EFA0CFE 		lsl	lr, lr, ip
 1645 0060 4EEA0101 		orr	r1, lr, r1
 1646 0064 C4F81C18 		str	r1, [r4, #2076]
 1647              	.L175:
 1648              		.loc 1 1043 0
 1649 0068 2244     		add	r2, r2, r4
 1650              		.loc 1 1044 0
 1651 006a 9968     		ldr	r1, [r3, #8]
 1652              		.loc 1 1043 0
 1653 006c 4FF0000E 		mov	lr, #0
ARM GAS  /tmp/ccDtb1pQ.s 			page 30


 1654 0070 C2F810E9 		str	lr, [r2, #2320]
 1655              		.loc 1 1044 0
 1656 0074 99B3     		cbz	r1, .L176
 1657              		.loc 1 1047 0
 1658 0076 998B     		ldrh	r1, [r3, #28]
 1659              		.loc 1 1046 0
 1660 0078 1A8A     		ldrh	r2, [r3, #16]
 1661              		.loc 1 1047 0
 1662 007a 0129     		cmp	r1, #1
 1663              		.loc 1 1046 0
 1664 007c 4FEA9203 		lsr	r3, r2, #2
 1665              	.LVL159:
 1666              		.loc 1 1048 0
 1667 0080 88BF     		it	hi
 1668 0082 4B43     		mulhi	r3, r1, r3
 1669              	.LVL160:
 1670              		.loc 1 1049 0
 1671 0084 05F13F0E 		add	lr, r5, #63
 1672              	.LBB581:
 1673              	.LBB582:
 1674              		.loc 1 212 0
 1675 0088 816D     		ldr	r1, [r0, #88]
 1676              	.LVL161:
 1677              	.LBE582:
 1678              	.LBE581:
 1679              		.loc 1 1049 0
 1680 008a 04EB8E0E 		add	lr, r4, lr, lsl #2
 1681              	.LBB585:
 1682              	.LBB586:
 1683              		.loc 1 182 0
 1684 008e AA01     		lsls	r2, r5, #6
 1685              	.LBE586:
 1686              	.LBE585:
 1687              	.LBB591:
 1688              	.LBB583:
 1689              		.loc 1 213 0
 1690 0090 03EB010C 		add	ip, r3, r1
 1691              	.LBE583:
 1692              	.LBE591:
 1693              	.LBB592:
 1694              	.LBB589:
 1695              		.loc 1 182 0
 1696 0094 42F02002 		orr	r2, r2, #32
 1697              	.LBE589:
 1698              	.LBE592:
 1699              		.loc 1 1049 0
 1700 0098 41EA0343 		orr	r3, r1, r3, lsl #16
 1701              	.LVL162:
 1702              	.LBB593:
 1703              	.LBB584:
 1704              		.loc 1 213 0
 1705 009c C0F858C0 		str	ip, [r0, #88]
 1706              	.LBE584:
 1707              	.LBE593:
 1708              		.loc 1 1049 0
 1709 00a0 CEF80430 		str	r3, [lr, #4]
 1710              	.LVL163:
ARM GAS  /tmp/ccDtb1pQ.s 			page 31


 1711              	.LBB594:
 1712              	.LBB590:
 1713              		.loc 1 182 0
 1714 00a4 2261     		str	r2, [r4, #16]
 1715              	.L178:
 1716              		.loc 1 183 0
 1717 00a6 2369     		ldr	r3, [r4, #16]
 1718 00a8 9A06     		lsls	r2, r3, #26
 1719 00aa FCD4     		bmi	.L178
 1720              	.LVL164:
 1721              	.LBB587:
 1722              	.LBB588:
 1723              		.loc 4 573 0
 1724 00ac 0C20     		movs	r0, #12
 1725              	.LVL165:
 1726 00ae FFF7FEFF 		bl	chSysPolledDelayX
 1727              	.LVL166:
 1728              	.LBE588:
 1729              	.LBE587:
 1730              	.LBE590:
 1731              	.LBE594:
 1732              		.loc 1 1055 0
 1733 00b2 FB68     		ldr	r3, [r7, #12]
 1734              		.loc 1 1054 0
 1735 00b4 1A8A     		ldrh	r2, [r3, #16]
 1736              		.loc 1 1053 0
 1737 00b6 05F14803 		add	r3, r5, #72
 1738 00ba 5B01     		lsls	r3, r3, #5
 1739 00bc 42EA8552 		orr	r2, r2, r5, lsl #22
 1740              		.loc 1 1054 0
 1741 00c0 3243     		orrs	r2, r2, r6
 1742              		.loc 1 1053 0
 1743 00c2 E250     		str	r2, [r4, r3]
 1744              		.loc 1 1056 0
 1745 00c4 0123     		movs	r3, #1
 1746 00c6 D4F81C28 		ldr	r2, [r4, #2076]
 1747 00ca AB40     		lsls	r3, r3, r5
 1748 00cc 1343     		orrs	r3, r3, r2
 1749 00ce C4F81C38 		str	r3, [r4, #2076]
 1750 00d2 BDE8F081 		pop	{r4, r5, r6, r7, r8, pc}
 1751              	.LVL167:
 1752              	.L171:
 1753              		.loc 1 1022 0
 1754 00d6 1F4E     		ldr	r6, .L185+8
 1755              		.loc 1 1023 0
 1756 00d8 A7E7     		b	.L170
 1757              	.LVL168:
 1758              	.L172:
 1759              		.loc 1 1025 0
 1760 00da 1F4E     		ldr	r6, .L185+12
 1761              		.loc 1 1026 0
 1762 00dc A5E7     		b	.L170
 1763              	.LVL169:
 1764              	.L176:
 1765              		.loc 1 1059 0
 1766 00de 05F13F02 		add	r2, r5, #63
 1767 00e2 04EB8202 		add	r2, r4, r2, lsl #2
ARM GAS  /tmp/ccDtb1pQ.s 			page 32


 1768              	.LBB595:
 1769              	.LBB596:
 1770              		.loc 1 182 0
 1771 00e6 AB01     		lsls	r3, r5, #6
 1772              	.LBE596:
 1773              	.LBE595:
 1774              		.loc 1 1059 0
 1775 00e8 1C49     		ldr	r1, .L185+16
 1776 00ea 5160     		str	r1, [r2, #4]
 1777              	.LVL170:
 1778              	.LBB600:
 1779              	.LBB599:
 1780              		.loc 1 182 0
 1781 00ec 43F02003 		orr	r3, r3, #32
 1782 00f0 2361     		str	r3, [r4, #16]
 1783              	.L180:
 1784              		.loc 1 183 0
 1785 00f2 2369     		ldr	r3, [r4, #16]
 1786 00f4 9B06     		lsls	r3, r3, #26
 1787 00f6 FCD4     		bmi	.L180
 1788              	.LVL171:
 1789 00f8 04EB4818 		add	r8, r4, r8, lsl #5
 1790              	.LBB597:
 1791              	.LBB598:
 1792              		.loc 4 573 0
 1793 00fc 0C20     		movs	r0, #12
 1794              	.LVL172:
 1795 00fe FFF7FEFF 		bl	chSysPolledDelayX
 1796              	.LVL173:
 1797              	.LBE598:
 1798              	.LBE597:
 1799              	.LBE599:
 1800              	.LBE600:
 1801              		.loc 1 1061 0
 1802 0102 D8F80029 		ldr	r2, [r8, #2304]
 1803 0106 22F40042 		bic	r2, r2, #32768
 1804 010a C8F80029 		str	r2, [r8, #2304]
 1805              		.loc 1 1062 0
 1806 010e D4F81C28 		ldr	r2, [r4, #2076]
 1807 0112 0123     		movs	r3, #1
 1808 0114 AB40     		lsls	r3, r3, r5
 1809 0116 22EA0303 		bic	r3, r2, r3
 1810 011a C4F81C38 		str	r3, [r4, #2076]
 1811 011e BDE8F081 		pop	{r4, r5, r6, r7, r8, pc}
 1812              	.LVL174:
 1813              	.L174:
 1814 0122 04EB4811 		add	r1, r4, r8, lsl #5
 1815              		.loc 1 1039 0
 1816 0126 05F1100C 		add	ip, r5, #16
 1817              		.loc 1 1038 0
 1818 012a D1F800EB 		ldr	lr, [r1, #2816]
 1819 012e 2EF4004E 		bic	lr, lr, #32768
 1820 0132 C1F800EB 		str	lr, [r1, #2816]
 1821              		.loc 1 1039 0
 1822 0136 D4F81C18 		ldr	r1, [r4, #2076]
 1823 013a 4FF0010E 		mov	lr, #1
 1824 013e 0EFA0CFE 		lsl	lr, lr, ip
ARM GAS  /tmp/ccDtb1pQ.s 			page 33


 1825 0142 21EA0E01 		bic	r1, r1, lr
 1826 0146 C4F81C18 		str	r1, [r4, #2076]
 1827 014a 8DE7     		b	.L175
 1828              	.L186:
 1829              		.align	2
 1830              	.L185:
 1831 014c 00800410 		.word	268730368
 1832 0150 00800010 		.word	268468224
 1833 0154 00800810 		.word	268992512
 1834 0158 00800C10 		.word	269254656
 1835 015c 00040002 		.word	33555456
 1836              		.cfi_endproc
 1837              	.LFE279:
 1838              		.size	usb_lld_init_endpoint, .-usb_lld_init_endpoint
 1839              		.section	.text.usb_lld_disable_endpoints,"ax",%progbits
 1840              		.align	2
 1841              		.p2align 4,,15
 1842              		.global	usb_lld_disable_endpoints
 1843              		.thumb
 1844              		.thumb_func
 1845              		.type	usb_lld_disable_endpoints, %function
 1846              	usb_lld_disable_endpoints:
 1847              	.LFB280:
 1848              		.loc 1 1073 0
 1849              		.cfi_startproc
 1850              		@ args = 0, pretend = 0, frame = 0
 1851              		@ frame_needed = 0, uses_anonymous_args = 0
 1852              		@ link register save eliminated.
 1853              	.LVL175:
 1854 0000 416D     		ldr	r1, [r0, #84]
 1855              	.LVL176:
 1856              		.loc 1 1073 0
 1857 0002 0346     		mov	r3, r0
 1858              	.LBB601:
 1859              	.LBB602:
 1860              		.loc 1 198 0
 1861 0004 0A68     		ldr	r2, [r1]
 1862              	.LBE602:
 1863              	.LBE601:
 1864              		.loc 1 1079 0
 1865 0006 006D     		ldr	r0, [r0, #80]
 1866              	.LVL177:
 1867              	.LBB604:
 1868              	.LBB603:
 1869              		.loc 1 198 0
 1870 0008 9A65     		str	r2, [r3, #88]
 1871              	.LBE603:
 1872              	.LBE604:
 1873              		.loc 1 1079 0
 1874 000a FFF7FEBF 		b	otg_disable_ep.isra.0
 1875              	.LVL178:
 1876              		.cfi_endproc
 1877              	.LFE280:
 1878              		.size	usb_lld_disable_endpoints, .-usb_lld_disable_endpoints
 1879 000e 00BF     		.section	.text.usb_lld_get_status_out,"ax",%progbits
 1880              		.align	2
 1881              		.p2align 4,,15
ARM GAS  /tmp/ccDtb1pQ.s 			page 34


 1882              		.global	usb_lld_get_status_out
 1883              		.thumb
 1884              		.thumb_func
 1885              		.type	usb_lld_get_status_out, %function
 1886              	usb_lld_get_status_out:
 1887              	.LFB281:
 1888              		.loc 1 1094 0
 1889              		.cfi_startproc
 1890              		@ args = 0, pretend = 0, frame = 0
 1891              		@ frame_needed = 0, uses_anonymous_args = 0
 1892              		@ link register save eliminated.
 1893              	.LVL179:
 1894              		.loc 1 1099 0
 1895 0000 5831     		adds	r1, r1, #88
 1896              	.LVL180:
 1897 0002 036D     		ldr	r3, [r0, #80]
 1898 0004 4901     		lsls	r1, r1, #5
 1899 0006 5B58     		ldr	r3, [r3, r1]
 1900              	.LVL181:
 1901              		.loc 1 1100 0
 1902 0008 13F40040 		ands	r0, r3, #32768
 1903              	.LVL182:
 1904 000c 04D0     		beq	.L189
 1905              		.loc 1 1102 0
 1906 000e 13F4001F 		tst	r3, #2097152
 1907              		.loc 1 1104 0
 1908 0012 14BF     		ite	ne
 1909 0014 0120     		movne	r0, #1
 1910 0016 0220     		moveq	r0, #2
 1911              	.L189:
 1912              		.loc 1 1105 0
 1913 0018 7047     		bx	lr
 1914              		.cfi_endproc
 1915              	.LFE281:
 1916              		.size	usb_lld_get_status_out, .-usb_lld_get_status_out
 1917 001a 00BF     		.section	.text.usb_lld_get_status_in,"ax",%progbits
 1918              		.align	2
 1919              		.p2align 4,,15
 1920              		.global	usb_lld_get_status_in
 1921              		.thumb
 1922              		.thumb_func
 1923              		.type	usb_lld_get_status_in, %function
 1924              	usb_lld_get_status_in:
 1925              	.LFB282:
 1926              		.loc 1 1119 0
 1927              		.cfi_startproc
 1928              		@ args = 0, pretend = 0, frame = 0
 1929              		@ frame_needed = 0, uses_anonymous_args = 0
 1930              		@ link register save eliminated.
 1931              	.LVL183:
 1932              		.loc 1 1124 0
 1933 0000 4831     		adds	r1, r1, #72
 1934              	.LVL184:
 1935 0002 036D     		ldr	r3, [r0, #80]
 1936 0004 4901     		lsls	r1, r1, #5
 1937 0006 5B58     		ldr	r3, [r3, r1]
 1938              	.LVL185:
ARM GAS  /tmp/ccDtb1pQ.s 			page 35


 1939              		.loc 1 1125 0
 1940 0008 13F40040 		ands	r0, r3, #32768
 1941              	.LVL186:
 1942 000c 04D0     		beq	.L193
 1943              		.loc 1 1127 0
 1944 000e 13F4001F 		tst	r3, #2097152
 1945              		.loc 1 1129 0
 1946 0012 14BF     		ite	ne
 1947 0014 0120     		movne	r0, #1
 1948 0016 0220     		moveq	r0, #2
 1949              	.L193:
 1950              		.loc 1 1130 0
 1951 0018 7047     		bx	lr
 1952              		.cfi_endproc
 1953              	.LFE282:
 1954              		.size	usb_lld_get_status_in, .-usb_lld_get_status_in
 1955 001a 00BF     		.section	.text.usb_lld_read_setup,"ax",%progbits
 1956              		.align	2
 1957              		.p2align 4,,15
 1958              		.global	usb_lld_read_setup
 1959              		.thumb
 1960              		.thumb_func
 1961              		.type	usb_lld_read_setup, %function
 1962              	usb_lld_read_setup:
 1963              	.LFB283:
 1964              		.loc 1 1146 0
 1965              		.cfi_startproc
 1966              		@ args = 0, pretend = 0, frame = 0
 1967              		@ frame_needed = 0, uses_anonymous_args = 0
 1968              		@ link register save eliminated.
 1969              	.LVL187:
 1970              		.loc 1 1148 0
 1971 0000 00EB8101 		add	r1, r0, r1, lsl #2
 1972              	.LVL188:
 1973 0004 CB68     		ldr	r3, [r1, #12]
 1974 0006 1B6A     		ldr	r3, [r3, #32]
 1975 0008 1968     		ldr	r1, [r3]	@ unaligned
 1976 000a 5B68     		ldr	r3, [r3, #4]	@ unaligned
 1977 000c 5360     		str	r3, [r2, #4]	@ unaligned
 1978 000e 1160     		str	r1, [r2]	@ unaligned
 1979 0010 7047     		bx	lr
 1980              		.cfi_endproc
 1981              	.LFE283:
 1982              		.size	usb_lld_read_setup, .-usb_lld_read_setup
 1983 0012 00BF     		.section	.text.usb_lld_prepare_receive,"ax",%progbits
 1984              		.align	2
 1985              		.p2align 4,,15
 1986              		.global	usb_lld_prepare_receive
 1987              		.thumb
 1988              		.thumb_func
 1989              		.type	usb_lld_prepare_receive, %function
 1990              	usb_lld_prepare_receive:
 1991              	.LFB284:
 1992              		.loc 1 1159 0
 1993              		.cfi_startproc
 1994              		@ args = 0, pretend = 0, frame = 0
 1995              		@ frame_needed = 0, uses_anonymous_args = 0
ARM GAS  /tmp/ccDtb1pQ.s 			page 36


 1996              		@ link register save eliminated.
 1997              	.LVL189:
 1998              		.loc 1 1161 0
 1999 0000 00EB8103 		add	r3, r0, r1, lsl #2
 2000              		.loc 1 1159 0
 2001 0004 30B4     		push	{r4, r5}
 2002              		.cfi_def_cfa_offset 8
 2003              		.cfi_offset 4, -8
 2004              		.cfi_offset 5, -4
 2005              		.loc 1 1161 0
 2006 0006 DD68     		ldr	r5, [r3, #12]
 2007 0008 AC69     		ldr	r4, [r5, #24]
 2008              	.LVL190:
 2009              		.loc 1 1164 0
 2010 000a 6368     		ldr	r3, [r4, #4]
 2011 000c 2361     		str	r3, [r4, #16]
 2012              		.loc 1 1165 0
 2013 000e 31B9     		cbnz	r1, .L202
 2014              		.loc 1 1165 0 is_stmt 0 discriminator 1
 2015 0010 402B     		cmp	r3, #64
 2016 0012 04D9     		bls	.L202
 2017              		.loc 1 1166 0 is_stmt 1
 2018 0014 4023     		movs	r3, #64
 2019 0016 6360     		str	r3, [r4, #4]
 2020 0018 094A     		ldr	r2, .L203
 2021 001a 3F24     		movs	r4, #63
 2022              	.LVL191:
 2023 001c 02E0     		b	.L199
 2024              	.LVL192:
 2025              	.L202:
 2026 001e 5C1E     		subs	r4, r3, #1
 2027              	.LVL193:
 2028 0020 43F0C042 		orr	r2, r3, #1610612736
 2029              	.L199:
 2030              		.loc 1 1170 0
 2031 0024 006D     		ldr	r0, [r0, #80]
 2032              	.LVL194:
 2033              		.loc 1 1168 0
 2034 0026 6D8A     		ldrh	r5, [r5, #18]
 2035              	.LVL195:
 2036              		.loc 1 1170 0
 2037 0028 00EB4111 		add	r1, r0, r1, lsl #5
 2038              	.LVL196:
 2039              		.loc 1 1168 0
 2040 002c 6319     		adds	r3, r4, r5
 2041 002e B3FBF5F3 		udiv	r3, r3, r5
 2042              	.LVL197:
 2043              		.loc 1 1170 0
 2044 0032 42EAC343 		orr	r3, r2, r3, lsl #19
 2045              	.LVL198:
 2046 0036 C1F8103B 		str	r3, [r1, #2832]
 2047              		.loc 1 1173 0
 2048 003a 30BC     		pop	{r4, r5}
 2049              		.cfi_restore 5
 2050              		.cfi_restore 4
 2051              		.cfi_def_cfa_offset 0
 2052              	.LVL199:
ARM GAS  /tmp/ccDtb1pQ.s 			page 37


 2053 003c 7047     		bx	lr
 2054              	.L204:
 2055 003e 00BF     		.align	2
 2056              	.L203:
 2057 0040 40000060 		.word	1610612800
 2058              		.cfi_endproc
 2059              	.LFE284:
 2060              		.size	usb_lld_prepare_receive, .-usb_lld_prepare_receive
 2061              		.section	.text.otg_epout_handler.constprop.7,"ax",%progbits
 2062              		.align	2
 2063              		.p2align 4,,15
 2064              		.thumb
 2065              		.thumb_func
 2066              		.type	otg_epout_handler.constprop.7, %function
 2067              	otg_epout_handler.constprop.7:
 2068              	.LFB300:
 2069              		.loc 1 581 0
 2070              		.cfi_startproc
 2071              		@ args = 0, pretend = 0, frame = 0
 2072              		@ frame_needed = 0, uses_anonymous_args = 0
 2073              	.LVL200:
 2074 0000 2DE9F041 		push	{r4, r5, r6, r7, r8, lr}
 2075              		.cfi_def_cfa_offset 24
 2076              		.cfi_offset 4, -24
 2077              		.cfi_offset 5, -20
 2078              		.cfi_offset 6, -16
 2079              		.cfi_offset 7, -12
 2080              		.cfi_offset 8, -8
 2081              		.cfi_offset 14, -4
 2082              		.loc 1 582 0
 2083 0004 264E     		ldr	r6, .L224
 2084 0006 376D     		ldr	r7, [r6, #80]
 2085              	.LVL201:
 2086              		.loc 1 583 0
 2087 0008 07EB4013 		add	r3, r7, r0, lsl #5
 2088              		.loc 1 581 0
 2089 000c 0546     		mov	r5, r0
 2090              		.loc 1 583 0
 2091 000e D3F8084B 		ldr	r4, [r3, #2824]
 2092              	.LVL202:
 2093              		.loc 1 586 0
 2094 0012 C3F8084B 		str	r4, [r3, #2824]
 2095              		.loc 1 588 0
 2096 0016 2007     		lsls	r0, r4, #28
 2097              	.LVL203:
 2098 0018 03D5     		bpl	.L206
 2099 001a D7F81438 		ldr	r3, [r7, #2068]
 2100 001e 1907     		lsls	r1, r3, #28
 2101 0020 1DD4     		bmi	.L222
 2102              	.L206:
 2103              		.loc 1 594 0
 2104 0022 E207     		lsls	r2, r4, #31
 2105 0024 19D5     		bpl	.L205
 2106 0026 D7F81438 		ldr	r3, [r7, #2068]
 2107 002a DB07     		lsls	r3, r3, #31
 2108 002c 15D5     		bpl	.L205
 2109              	.LBB605:
ARM GAS  /tmp/ccDtb1pQ.s 			page 38


 2110              		.loc 1 596 0
 2111 002e 06EB8506 		add	r6, r6, r5, lsl #2
 2112 0032 1B4C     		ldr	r4, .L224
 2113              	.LVL204:
 2114 0034 F168     		ldr	r1, [r6, #12]
 2115 0036 8B69     		ldr	r3, [r1, #24]
 2116              	.LVL205:
 2117              		.loc 1 598 0
 2118 0038 5868     		ldr	r0, [r3, #4]
 2119 003a 1A69     		ldr	r2, [r3, #16]
 2120 003c 9042     		cmp	r0, r2
 2121 003e 16D3     		bcc	.L223
 2122              		.loc 1 611 0
 2123 0040 6289     		ldrh	r2, [r4, #10]
 2124 0042 CE68     		ldr	r6, [r1, #12]
 2125 0044 0123     		movs	r3, #1
 2126              	.LVL206:
 2127 0046 AB40     		lsls	r3, r3, r5
 2128 0048 22EA0303 		bic	r3, r2, r3
 2129 004c 6381     		strh	r3, [r4, #10]	@ movhi
 2130 004e 2946     		mov	r1, r5
 2131              	.LVL207:
 2132 0050 2046     		mov	r0, r4
 2133 0052 3346     		mov	r3, r6
 2134              	.LBE605:
 2135              		.loc 1 614 0
 2136 0054 BDE8F041 		pop	{r4, r5, r6, r7, r8, lr}
 2137              		.cfi_remember_state
 2138              		.cfi_restore 14
 2139              		.cfi_restore 8
 2140              		.cfi_restore 7
 2141              		.cfi_restore 6
 2142              		.cfi_restore 5
 2143              		.cfi_restore 4
 2144              		.cfi_def_cfa_offset 0
 2145              	.LVL208:
 2146              	.LBB618:
 2147              		.loc 1 611 0
 2148 0058 1847     		bx	r3	@ indirect register sibling call
 2149              	.LVL209:
 2150              	.L205:
 2151              		.cfi_restore_state
 2152 005a BDE8F081 		pop	{r4, r5, r6, r7, r8, pc}
 2153              	.LVL210:
 2154              	.L222:
 2155              	.LBE618:
 2156              		.loc 1 591 0
 2157 005e 06EB8503 		add	r3, r6, r5, lsl #2
 2158 0062 3046     		mov	r0, r6
 2159 0064 DB68     		ldr	r3, [r3, #12]
 2160 0066 2946     		mov	r1, r5
 2161 0068 5B68     		ldr	r3, [r3, #4]
 2162 006a 9847     		blx	r3
 2163              	.LVL211:
 2164 006c D9E7     		b	.L206
 2165              	.LVL212:
 2166              	.L223:
ARM GAS  /tmp/ccDtb1pQ.s 			page 39


 2167              	.LBB619:
 2168              		.loc 1 602 0
 2169 006e 121A     		subs	r2, r2, r0
 2170              		.loc 1 603 0
 2171 0070 0026     		movs	r6, #0
 2172              		.loc 1 602 0
 2173 0072 5A60     		str	r2, [r3, #4]
 2174              		.loc 1 603 0
 2175 0074 9E60     		str	r6, [r3, #8]
 2176              		.loc 1 604 0
 2177 0076 2046     		mov	r0, r4
 2178 0078 2946     		mov	r1, r5
 2179 007a FFF7FEFF 		bl	usb_lld_prepare_receive
 2180              	.LVL213:
 2181              	.LBB606:
 2182              	.LBB607:
 2183              	.LBB608:
 2184              	.LBB609:
 2185              	.LBB610:
 2186              		.loc 3 546 0
 2187 007e 2023     		movs	r3, #32
 2188              	@ 546 "ChibiOS_3.0.2/os/ext/CMSIS/include/core_cmFunc.h" 1
 2189 0080 83F31188 		MSR basepri, r3
 2190              	@ 0 "" 2
 2191              	.LVL214:
 2192              		.thumb
 2193 0084 236D     		ldr	r3, [r4, #80]
 2194 0086 03EB4515 		add	r5, r3, r5, lsl #5
 2195              	.LVL215:
 2196              	.LBE610:
 2197              	.LBE609:
 2198              	.LBE608:
 2199              	.LBE607:
 2200              	.LBE606:
 2201              	.LBB611:
 2202              	.LBB612:
 2203              		.loc 1 1214 0
 2204 008a D5F8003B 		ldr	r3, [r5, #2816]
 2205 008e 43F08063 		orr	r3, r3, #67108864
 2206 0092 C5F8003B 		str	r3, [r5, #2816]
 2207              	.LVL216:
 2208              	.LBE612:
 2209              	.LBE611:
 2210              	.LBB613:
 2211              	.LBB614:
 2212              	.LBB615:
 2213              	.LBB616:
 2214              	.LBB617:
 2215              		.loc 3 546 0
 2216              	@ 546 "ChibiOS_3.0.2/os/ext/CMSIS/include/core_cmFunc.h" 1
 2217 0096 86F31188 		MSR basepri, r6
 2218              	@ 0 "" 2
 2219              		.thumb
 2220 009a BDE8F081 		pop	{r4, r5, r6, r7, r8, pc}
 2221              	.LVL217:
 2222              	.L225:
 2223 009e 00BF     		.align	2
ARM GAS  /tmp/ccDtb1pQ.s 			page 40


 2224              	.L224:
 2225 00a0 00000000 		.word	.LANCHOR0
 2226              	.LBE617:
 2227              	.LBE616:
 2228              	.LBE615:
 2229              	.LBE614:
 2230              	.LBE613:
 2231              	.LBE619:
 2232              		.cfi_endproc
 2233              	.LFE300:
 2234              		.size	otg_epout_handler.constprop.7, .-otg_epout_handler.constprop.7
 2235              		.section	.text.usb_lld_prepare_transmit,"ax",%progbits
 2236              		.align	2
 2237              		.p2align 4,,15
 2238              		.global	usb_lld_prepare_transmit
 2239              		.thumb
 2240              		.thumb_func
 2241              		.type	usb_lld_prepare_transmit, %function
 2242              	usb_lld_prepare_transmit:
 2243              	.LFB285:
 2244              		.loc 1 1183 0
 2245              		.cfi_startproc
 2246              		@ args = 0, pretend = 0, frame = 0
 2247              		@ frame_needed = 0, uses_anonymous_args = 0
 2248              		@ link register save eliminated.
 2249              	.LVL218:
 2250              		.loc 1 1184 0
 2251 0000 00EB8103 		add	r3, r0, r1, lsl #2
 2252              		.loc 1 1183 0
 2253 0004 10B4     		push	{r4}
 2254              		.cfi_def_cfa_offset 4
 2255              		.cfi_offset 4, -4
 2256              		.loc 1 1184 0
 2257 0006 DC68     		ldr	r4, [r3, #12]
 2258 0008 6269     		ldr	r2, [r4, #20]
 2259              	.LVL219:
 2260              		.loc 1 1187 0
 2261 000a 5368     		ldr	r3, [r2, #4]
 2262 000c 1361     		str	r3, [r2, #16]
 2263              		.loc 1 1188 0
 2264 000e ABB1     		cbz	r3, .L234
 2265              	.LBB620:
 2266              		.loc 1 1193 0
 2267 0010 71B1     		cbz	r1, .L235
 2268              	.L233:
 2269 0012 5A1E     		subs	r2, r3, #1
 2270              	.LVL220:
 2271              	.L230:
 2272              		.loc 1 1199 0
 2273 0014 006D     		ldr	r0, [r0, #80]
 2274              	.LVL221:
 2275              		.loc 1 1197 0
 2276 0016 248A     		ldrh	r4, [r4, #16]
 2277              	.LVL222:
 2278              		.loc 1 1199 0
 2279 0018 00EB4111 		add	r1, r0, r1, lsl #5
 2280              	.LVL223:
ARM GAS  /tmp/ccDtb1pQ.s 			page 41


 2281              		.loc 1 1197 0
 2282 001c 2244     		add	r2, r2, r4
 2283              	.LVL224:
 2284 001e B2FBF4F2 		udiv	r2, r2, r4
 2285              	.LVL225:
 2286              		.loc 1 1199 0
 2287 0022 43EAC243 		orr	r3, r3, r2, lsl #19
 2288 0026 C1F81039 		str	r3, [r1, #2320]
 2289              	.LBE620:
 2290              		.loc 1 1202 0
 2291 002a 5DF8044B 		ldr	r4, [sp], #4
 2292              		.cfi_remember_state
 2293              		.cfi_restore 4
 2294              		.cfi_def_cfa_offset 0
 2295 002e 7047     		bx	lr
 2296              	.LVL226:
 2297              	.L235:
 2298              		.cfi_restore_state
 2299              	.LBB621:
 2300              		.loc 1 1193 0 discriminator 1
 2301 0030 402B     		cmp	r3, #64
 2302 0032 EED9     		bls	.L233
 2303              		.loc 1 1194 0
 2304 0034 4023     		movs	r3, #64
 2305 0036 5360     		str	r3, [r2, #4]
 2306 0038 3F22     		movs	r2, #63
 2307              	.LVL227:
 2308 003a EBE7     		b	.L230
 2309              	.LVL228:
 2310              	.L234:
 2311              	.LBE621:
 2312              		.loc 1 1190 0
 2313 003c 036D     		ldr	r3, [r0, #80]
 2314              		.loc 1 1202 0
 2315 003e 5DF8044B 		ldr	r4, [sp], #4
 2316              		.cfi_restore 4
 2317              		.cfi_def_cfa_offset 0
 2318              		.loc 1 1190 0
 2319 0042 03EB4111 		add	r1, r3, r1, lsl #5
 2320              	.LVL229:
 2321 0046 4FF40023 		mov	r3, #524288
 2322 004a C1F81039 		str	r3, [r1, #2320]
 2323              		.loc 1 1202 0
 2324 004e 7047     		bx	lr
 2325              		.cfi_endproc
 2326              	.LFE285:
 2327              		.size	usb_lld_prepare_transmit, .-usb_lld_prepare_transmit
 2328              		.section	.text.otg_epin_handler.constprop.8,"ax",%progbits
 2329              		.align	2
 2330              		.p2align 4,,15
 2331              		.thumb
 2332              		.thumb_func
 2333              		.type	otg_epin_handler.constprop.8, %function
 2334              	otg_epin_handler.constprop.8:
 2335              	.LFB299:
 2336              		.loc 1 533 0
 2337              		.cfi_startproc
ARM GAS  /tmp/ccDtb1pQ.s 			page 42


 2338              		@ args = 0, pretend = 0, frame = 0
 2339              		@ frame_needed = 0, uses_anonymous_args = 0
 2340              	.LVL230:
 2341 0000 2DE9F041 		push	{r4, r5, r6, r7, r8, lr}
 2342              		.cfi_def_cfa_offset 24
 2343              		.cfi_offset 4, -24
 2344              		.cfi_offset 5, -20
 2345              		.cfi_offset 6, -16
 2346              		.cfi_offset 7, -12
 2347              		.cfi_offset 8, -8
 2348              		.cfi_offset 14, -4
 2349              		.loc 1 534 0
 2350 0004 304F     		ldr	r7, .L255
 2351 0006 3D6D     		ldr	r5, [r7, #80]
 2352              	.LVL231:
 2353              		.loc 1 535 0
 2354 0008 05EB4013 		add	r3, r5, r0, lsl #5
 2355              		.loc 1 533 0
 2356 000c 0646     		mov	r6, r0
 2357              		.loc 1 535 0
 2358 000e D3F80849 		ldr	r4, [r3, #2312]
 2359              	.LVL232:
 2360              		.loc 1 537 0
 2361 0012 C3F80849 		str	r4, [r3, #2312]
 2362              		.loc 1 542 0
 2363 0016 E107     		lsls	r1, r4, #31
 2364 0018 03D5     		bpl	.L237
 2365 001a D5F81038 		ldr	r3, [r5, #2064]
 2366 001e DA07     		lsls	r2, r3, #31
 2367 0020 09D4     		bmi	.L253
 2368              	.LVL233:
 2369              	.L237:
 2370              		.loc 1 562 0
 2371 0022 2306     		lsls	r3, r4, #24
 2372 0024 05D5     		bpl	.L236
 2373              		.loc 1 563 0
 2374 0026 0123     		movs	r3, #1
 2375 0028 D5F83428 		ldr	r2, [r5, #2100]
 2376 002c B340     		lsls	r3, r3, r6
 2377              		.loc 1 562 0
 2378 002e 1342     		tst	r3, r2
 2379 0030 29D1     		bne	.L254
 2380              	.L236:
 2381 0032 BDE8F081 		pop	{r4, r5, r6, r7, r8, pc}
 2382              	.LVL234:
 2383              	.L253:
 2384              	.LBB622:
 2385              		.loc 1 544 0
 2386 0036 07EB8003 		add	r3, r7, r0, lsl #2
 2387 003a D968     		ldr	r1, [r3, #12]
 2388 003c 4B69     		ldr	r3, [r1, #20]
 2389              	.LVL235:
 2390              		.loc 1 546 0
 2391 003e 5868     		ldr	r0, [r3, #4]
 2392              	.LVL236:
 2393 0040 1A69     		ldr	r2, [r3, #16]
 2394 0042 9042     		cmp	r0, r2
ARM GAS  /tmp/ccDtb1pQ.s 			page 43


 2395 0044 34D2     		bcs	.L238
 2396              		.loc 1 550 0
 2397 0046 121A     		subs	r2, r2, r0
 2398              		.loc 1 551 0
 2399 0048 4FF00008 		mov	r8, #0
 2400              		.loc 1 550 0
 2401 004c 5A60     		str	r2, [r3, #4]
 2402              		.loc 1 551 0
 2403 004e C3F80880 		str	r8, [r3, #8]
 2404              		.loc 1 552 0
 2405 0052 3846     		mov	r0, r7
 2406 0054 3146     		mov	r1, r6
 2407 0056 FFF7FEFF 		bl	usb_lld_prepare_transmit
 2408              	.LVL237:
 2409              	.LBB623:
 2410              	.LBB624:
 2411              	.LBB625:
 2412              	.LBB626:
 2413              	.LBB627:
 2414              	.LBB628:
 2415              		.loc 3 546 0
 2416 005a 2023     		movs	r3, #32
 2417              	@ 546 "ChibiOS_3.0.2/os/ext/CMSIS/include/core_cmFunc.h" 1
 2418 005c 83F31188 		MSR basepri, r3
 2419              	@ 0 "" 2
 2420              	.LVL238:
 2421              		.thumb
 2422              	.LBE628:
 2423              	.LBE627:
 2424              	.LBE626:
 2425              	.LBE625:
 2426              	.LBE624:
 2427              	.LBE623:
 2428              	.LBB629:
 2429              	.LBB630:
 2430              		.loc 1 1227 0
 2431 0060 3B6D     		ldr	r3, [r7, #80]
 2432 0062 03EB4610 		add	r0, r3, r6, lsl #5
 2433              		.loc 1 1228 0
 2434 0066 0122     		movs	r2, #1
 2435              		.loc 1 1227 0
 2436 0068 D0F80019 		ldr	r1, [r0, #2304]
 2437 006c 41F00441 		orr	r1, r1, #-2080374784
 2438 0070 C0F80019 		str	r1, [r0, #2304]
 2439              		.loc 1 1228 0
 2440 0074 D3F83418 		ldr	r1, [r3, #2100]
 2441 0078 B240     		lsls	r2, r2, r6
 2442 007a 0A43     		orrs	r2, r2, r1
 2443 007c C3F83428 		str	r2, [r3, #2100]
 2444              	.LVL239:
 2445              	.LBE630:
 2446              	.LBE629:
 2447              	.LBB631:
 2448              	.LBB632:
 2449              	.LBB633:
 2450              	.LBB634:
 2451              	.LBB635:
ARM GAS  /tmp/ccDtb1pQ.s 			page 44


 2452              	.LBB636:
 2453              		.loc 3 546 0
 2454              	@ 546 "ChibiOS_3.0.2/os/ext/CMSIS/include/core_cmFunc.h" 1
 2455 0080 88F31188 		MSR basepri, r8
 2456              	@ 0 "" 2
 2457              		.thumb
 2458 0084 CDE7     		b	.L237
 2459              	.LVL240:
 2460              	.L254:
 2461              	.LBE636:
 2462              	.LBE635:
 2463              	.LBE634:
 2464              	.LBE633:
 2465              	.LBE632:
 2466              	.LBE631:
 2467              	.LBE622:
 2468              	.LBB637:
 2469              	.LBB638:
 2470              	.LBB639:
 2471              	.LBB640:
 2472              	.LBB641:
 2473              	.LBB642:
 2474 0086 2022     		movs	r2, #32
 2475              	@ 546 "ChibiOS_3.0.2/os/ext/CMSIS/include/core_cmFunc.h" 1
 2476 0088 82F31188 		MSR basepri, r2
 2477              	@ 0 "" 2
 2478              		.thumb
 2479              	.LBE642:
 2480              	.LBE641:
 2481              	.LBE640:
 2482              	.LBE639:
 2483              	.LBE638:
 2484              	.LBE637:
 2485              		.loc 1 567 0
 2486 008c D5F83418 		ldr	r1, [r5, #2100]
 2487              		.loc 1 566 0
 2488 0090 FA6D     		ldr	r2, [r7, #92]
 2489              	.LBB643:
 2490              	.LBB644:
 2491              		.loc 4 728 0
 2492 0092 0E48     		ldr	r0, .L255+4
 2493              	.LBE644:
 2494              	.LBE643:
 2495              		.loc 1 567 0
 2496 0094 21EA0301 		bic	r1, r1, r3
 2497 0098 C5F83418 		str	r1, [r5, #2100]
 2498              	.LVL241:
 2499              		.loc 1 566 0
 2500 009c 1343     		orrs	r3, r3, r2
 2501              	.LBB647:
 2502              	.LBB645:
 2503              		.loc 4 728 0
 2504 009e 0021     		movs	r1, #0
 2505              	.LBE645:
 2506              	.LBE647:
 2507              		.loc 1 566 0
 2508 00a0 FB65     		str	r3, [r7, #92]
ARM GAS  /tmp/ccDtb1pQ.s 			page 45


 2509              	.LBB648:
 2510              	.LBB646:
 2511              		.loc 4 728 0
 2512 00a2 FFF7FEFF 		bl	chThdResumeI
 2513              	.LVL242:
 2514              	.LBE646:
 2515              	.LBE648:
 2516              	.LBB649:
 2517              	.LBB650:
 2518              	.LBB651:
 2519              	.LBB652:
 2520              	.LBB653:
 2521              	.LBB654:
 2522              		.loc 3 546 0
 2523 00a6 0023     		movs	r3, #0
 2524              	@ 546 "ChibiOS_3.0.2/os/ext/CMSIS/include/core_cmFunc.h" 1
 2525 00a8 83F31188 		MSR basepri, r3
 2526              	@ 0 "" 2
 2527              		.thumb
 2528 00ac BDE8F081 		pop	{r4, r5, r6, r7, r8, pc}
 2529              	.LVL243:
 2530              	.L238:
 2531              	.LBE654:
 2532              	.LBE653:
 2533              	.LBE652:
 2534              	.LBE651:
 2535              	.LBE650:
 2536              	.LBE649:
 2537              	.LBB655:
 2538              		.loc 1 559 0
 2539 00b0 3A89     		ldrh	r2, [r7, #8]
 2540 00b2 D1F808C0 		ldr	ip, [r1, #8]
 2541 00b6 0123     		movs	r3, #1
 2542              	.LVL244:
 2543 00b8 B340     		lsls	r3, r3, r6
 2544 00ba 22EA0303 		bic	r3, r2, r3
 2545 00be 3B81     		strh	r3, [r7, #8]	@ movhi
 2546 00c0 3846     		mov	r0, r7
 2547 00c2 3146     		mov	r1, r6
 2548              	.LVL245:
 2549 00c4 E047     		blx	ip
 2550              	.LVL246:
 2551 00c6 ACE7     		b	.L237
 2552              	.L256:
 2553              		.align	2
 2554              	.L255:
 2555 00c8 00000000 		.word	.LANCHOR0
 2556 00cc 60000000 		.word	.LANCHOR0+96
 2557              	.LBE655:
 2558              		.cfi_endproc
 2559              	.LFE299:
 2560              		.size	otg_epin_handler.constprop.8, .-otg_epin_handler.constprop.8
 2561              		.section	.text.Vector14C,"ax",%progbits
 2562              		.align	2
 2563              		.p2align 4,,15
 2564              		.global	Vector14C
 2565              		.thumb
ARM GAS  /tmp/ccDtb1pQ.s 			page 46


 2566              		.thumb_func
 2567              		.type	Vector14C, %function
 2568              	Vector14C:
 2569              	.LFB273:
 2570              		.loc 1 706 0
 2571              		.cfi_startproc
 2572              		@ args = 0, pretend = 0, frame = 0
 2573              		@ frame_needed = 0, uses_anonymous_args = 0
 2574              	.LVL247:
 2575 0000 70B5     		push	{r4, r5, r6, lr}
 2576              		.cfi_def_cfa_offset 16
 2577              		.cfi_offset 4, -16
 2578              		.cfi_offset 5, -12
 2579              		.cfi_offset 6, -8
 2580              		.cfi_offset 14, -4
 2581              	.LBB672:
 2582              	.LBB673:
 2583              		.loc 1 624 0
 2584 0002 3A4D     		ldr	r5, .L326
 2585 0004 2E6D     		ldr	r6, [r5, #80]
 2586              	.LVL248:
 2587              		.loc 1 627 0
 2588 0006 7369     		ldr	r3, [r6, #20]
 2589              	.LVL249:
 2590              		.loc 1 628 0
 2591 0008 B469     		ldr	r4, [r6, #24]
 2592 000a 1C40     		ands	r4, r4, r3
 2593              	.LVL250:
 2594              		.loc 1 632 0
 2595 000c E104     		lsls	r1, r4, #19
 2596              		.loc 1 629 0
 2597 000e 7461     		str	r4, [r6, #20]
 2598              		.loc 1 632 0
 2599 0010 2DD4     		bmi	.L316
 2600              	.L259:
 2601              		.loc 1 638 0
 2602 0012 A204     		lsls	r2, r4, #18
 2603              		.loc 1 639 0
 2604 0014 48BF     		it	mi
 2605 0016 D6F80838 		ldrmi	r3, [r6, #2056]
 2606              		.loc 1 643 0
 2607 001a 2307     		lsls	r3, r4, #28
 2608 001c 04D5     		bpl	.L262
 2609              		.loc 1 644 0
 2610 001e 6B68     		ldr	r3, [r5, #4]
 2611 0020 DB68     		ldr	r3, [r3, #12]
 2612 0022 0BB1     		cbz	r3, .L262
 2613 0024 3148     		ldr	r0, .L326
 2614 0026 9847     		blx	r3
 2615              	.LVL251:
 2616              	.L262:
 2617              		.loc 1 648 0
 2618 0028 E506     		lsls	r5, r4, #27
 2619 002a 2BD4     		bmi	.L317
 2620              	.L263:
 2621              		.loc 1 659 0
 2622 002c 6003     		lsls	r0, r4, #13
ARM GAS  /tmp/ccDtb1pQ.s 			page 47


 2623              		.loc 1 658 0
 2624 002e D6F81858 		ldr	r5, [r6, #2072]
 2625              	.LVL252:
 2626              		.loc 1 659 0
 2627 0032 07D5     		bpl	.L265
 2628              		.loc 1 660 0
 2629 0034 E907     		lsls	r1, r5, #31
 2630 0036 45D4     		bmi	.L318
 2631              		.loc 1 662 0
 2632 0038 AA07     		lsls	r2, r5, #30
 2633 003a 48D4     		bmi	.L319
 2634              	.L267:
 2635              		.loc 1 664 0
 2636 003c 6B07     		lsls	r3, r5, #29
 2637 003e 4BD4     		bmi	.L320
 2638              	.L268:
 2639              		.loc 1 666 0
 2640 0040 2E07     		lsls	r6, r5, #28
 2641              	.LVL253:
 2642 0042 4ED4     		bmi	.L321
 2643              	.L265:
 2644              		.loc 1 675 0
 2645 0044 2403     		lsls	r4, r4, #12
 2646              	.LVL254:
 2647 0046 07D5     		bpl	.L271
 2648              		.loc 1 676 0
 2649 0048 E803     		lsls	r0, r5, #15
 2650 004a 30D4     		bmi	.L322
 2651              		.loc 1 678 0
 2652 004c A903     		lsls	r1, r5, #14
 2653 004e 33D4     		bmi	.L323
 2654              	.L273:
 2655              		.loc 1 680 0
 2656 0050 6A03     		lsls	r2, r5, #13
 2657 0052 26D4     		bmi	.L324
 2658              	.L274:
 2659              		.loc 1 682 0
 2660 0054 2B03     		lsls	r3, r5, #12
 2661 0056 03D4     		bmi	.L325
 2662              	.L271:
 2663              	.LBE673:
 2664              	.LBE672:
 2665              		.loc 1 713 0
 2666 0058 BDE87040 		pop	{r4, r5, r6, lr}
 2667              		.cfi_remember_state
 2668              		.cfi_restore 14
 2669              		.cfi_restore 6
 2670              		.cfi_restore 5
 2671              		.cfi_restore 4
 2672              		.cfi_def_cfa_offset 0
 2673              	.LVL255:
 2674              		.loc 1 712 0
 2675 005c FFF7FEBF 		b	_port_irq_epilogue
 2676              	.LVL256:
 2677              	.L325:
 2678              		.cfi_restore_state
 2679              	.LBB692:
ARM GAS  /tmp/ccDtb1pQ.s 			page 48


 2680              	.LBB690:
 2681              		.loc 1 683 0
 2682 0060 0320     		movs	r0, #3
 2683 0062 FFF7FEFF 		bl	otg_epout_handler.constprop.7
 2684              	.LVL257:
 2685              	.LBE690:
 2686              	.LBE692:
 2687              		.loc 1 713 0
 2688 0066 BDE87040 		pop	{r4, r5, r6, lr}
 2689              		.cfi_remember_state
 2690              		.cfi_restore 4
 2691              		.cfi_restore 5
 2692              		.cfi_restore 6
 2693              		.cfi_restore 14
 2694              		.cfi_def_cfa_offset 0
 2695              	.LVL258:
 2696              		.loc 1 712 0
 2697 006a FFF7FEBF 		b	_port_irq_epilogue
 2698              	.LVL259:
 2699              	.L316:
 2700              		.cfi_restore_state
 2701              	.LBB693:
 2702              	.LBB691:
 2703              		.loc 1 633 0
 2704 006e 2846     		mov	r0, r5
 2705 0070 FFF7FEFF 		bl	_usb_reset
 2706              	.LVL260:
 2707              		.loc 1 634 0
 2708 0074 6B68     		ldr	r3, [r5, #4]
 2709 0076 1B68     		ldr	r3, [r3]
 2710 0078 002B     		cmp	r3, #0
 2711 007a CAD0     		beq	.L259
 2712 007c 2846     		mov	r0, r5
 2713 007e 0021     		movs	r1, #0
 2714 0080 9847     		blx	r3
 2715              	.LVL261:
 2716 0082 C6E7     		b	.L259
 2717              	.L317:
 2718              	.LVL262:
 2719              	.LBB674:
 2720              	.LBB675:
 2721              	.LBB676:
 2722              	.LBB677:
 2723              	.LBB678:
 2724              	.LBB679:
 2725              		.loc 3 546 0
 2726 0084 2023     		movs	r3, #32
 2727              	@ 546 "ChibiOS_3.0.2/os/ext/CMSIS/include/core_cmFunc.h" 1
 2728 0086 83F31188 		MSR basepri, r3
 2729              	@ 0 "" 2
 2730              		.thumb
 2731              	.LBE679:
 2732              	.LBE678:
 2733              	.LBE677:
 2734              	.LBE676:
 2735              	.LBE675:
 2736              	.LBE674:
ARM GAS  /tmp/ccDtb1pQ.s 			page 49


 2737              		.loc 1 652 0
 2738 008a B369     		ldr	r3, [r6, #24]
 2739              	.LBB680:
 2740              	.LBB681:
 2741              		.loc 4 728 0
 2742 008c 1848     		ldr	r0, .L326+4
 2743              	.LBE681:
 2744              	.LBE680:
 2745              		.loc 1 652 0
 2746 008e 23F01003 		bic	r3, r3, #16
 2747 0092 B361     		str	r3, [r6, #24]
 2748              	.LVL263:
 2749              	.LBB683:
 2750              	.LBB682:
 2751              		.loc 4 728 0
 2752 0094 0021     		movs	r1, #0
 2753 0096 FFF7FEFF 		bl	chThdResumeI
 2754              	.LVL264:
 2755              	.LBE682:
 2756              	.LBE683:
 2757              	.LBB684:
 2758              	.LBB685:
 2759              	.LBB686:
 2760              	.LBB687:
 2761              	.LBB688:
 2762              	.LBB689:
 2763              		.loc 3 546 0
 2764 009a 0023     		movs	r3, #0
 2765              	@ 546 "ChibiOS_3.0.2/os/ext/CMSIS/include/core_cmFunc.h" 1
 2766 009c 83F31188 		MSR basepri, r3
 2767              	@ 0 "" 2
 2768              		.thumb
 2769 00a0 C4E7     		b	.L263
 2770              	.LVL265:
 2771              	.L324:
 2772              	.LBE689:
 2773              	.LBE688:
 2774              	.LBE687:
 2775              	.LBE686:
 2776              	.LBE685:
 2777              	.LBE684:
 2778              		.loc 1 681 0
 2779 00a2 0220     		movs	r0, #2
 2780 00a4 FFF7FEFF 		bl	otg_epout_handler.constprop.7
 2781              	.LVL266:
 2782              		.loc 1 682 0
 2783 00a8 2B03     		lsls	r3, r5, #12
 2784 00aa D5D5     		bpl	.L271
 2785 00ac D8E7     		b	.L325
 2786              	.L322:
 2787              		.loc 1 677 0
 2788 00ae 0020     		movs	r0, #0
 2789 00b0 FFF7FEFF 		bl	otg_epout_handler.constprop.7
 2790              	.LVL267:
 2791              		.loc 1 678 0
 2792 00b4 A903     		lsls	r1, r5, #14
 2793 00b6 CBD5     		bpl	.L273
ARM GAS  /tmp/ccDtb1pQ.s 			page 50


 2794              	.L323:
 2795              		.loc 1 679 0
 2796 00b8 0120     		movs	r0, #1
 2797 00ba FFF7FEFF 		bl	otg_epout_handler.constprop.7
 2798              	.LVL268:
 2799              		.loc 1 680 0
 2800 00be 6A03     		lsls	r2, r5, #13
 2801 00c0 C8D5     		bpl	.L274
 2802 00c2 EEE7     		b	.L324
 2803              	.LVL269:
 2804              	.L318:
 2805              		.loc 1 661 0
 2806 00c4 0020     		movs	r0, #0
 2807 00c6 FFF7FEFF 		bl	otg_epin_handler.constprop.8
 2808              	.LVL270:
 2809              		.loc 1 662 0
 2810 00ca AA07     		lsls	r2, r5, #30
 2811 00cc B6D5     		bpl	.L267
 2812              	.L319:
 2813              		.loc 1 663 0
 2814 00ce 0120     		movs	r0, #1
 2815 00d0 FFF7FEFF 		bl	otg_epin_handler.constprop.8
 2816              	.LVL271:
 2817              		.loc 1 664 0
 2818 00d4 6B07     		lsls	r3, r5, #29
 2819 00d6 B3D5     		bpl	.L268
 2820              	.L320:
 2821              		.loc 1 665 0
 2822 00d8 0220     		movs	r0, #2
 2823 00da FFF7FEFF 		bl	otg_epin_handler.constprop.8
 2824              	.LVL272:
 2825              		.loc 1 666 0
 2826 00de 2E07     		lsls	r6, r5, #28
 2827              	.LVL273:
 2828 00e0 B0D5     		bpl	.L265
 2829              	.L321:
 2830              		.loc 1 667 0
 2831 00e2 0320     		movs	r0, #3
 2832 00e4 FFF7FEFF 		bl	otg_epin_handler.constprop.8
 2833              	.LVL274:
 2834 00e8 ACE7     		b	.L265
 2835              	.L327:
 2836 00ea 00BF     		.align	2
 2837              	.L326:
 2838 00ec 00000000 		.word	.LANCHOR0
 2839 00f0 60000000 		.word	.LANCHOR0+96
 2840              	.LBE691:
 2841              	.LBE693:
 2842              		.cfi_endproc
 2843              	.LFE273:
 2844              		.size	Vector14C, .-Vector14C
 2845              		.section	.text.usb_lld_start_out,"ax",%progbits
 2846              		.align	2
 2847              		.p2align 4,,15
 2848              		.global	usb_lld_start_out
 2849              		.thumb
 2850              		.thumb_func
ARM GAS  /tmp/ccDtb1pQ.s 			page 51


 2851              		.type	usb_lld_start_out, %function
 2852              	usb_lld_start_out:
 2853              	.LFB286:
 2854              		.loc 1 1212 0
 2855              		.cfi_startproc
 2856              		@ args = 0, pretend = 0, frame = 0
 2857              		@ frame_needed = 0, uses_anonymous_args = 0
 2858              		@ link register save eliminated.
 2859              	.LVL275:
 2860 0000 036D     		ldr	r3, [r0, #80]
 2861 0002 03EB4111 		add	r1, r3, r1, lsl #5
 2862              	.LVL276:
 2863              		.loc 1 1214 0
 2864 0006 D1F8003B 		ldr	r3, [r1, #2816]
 2865 000a 43F08063 		orr	r3, r3, #67108864
 2866 000e C1F8003B 		str	r3, [r1, #2816]
 2867 0012 7047     		bx	lr
 2868              		.cfi_endproc
 2869              	.LFE286:
 2870              		.size	usb_lld_start_out, .-usb_lld_start_out
 2871              		.section	.text.usb_lld_start_in,"ax",%progbits
 2872              		.align	2
 2873              		.p2align 4,,15
 2874              		.global	usb_lld_start_in
 2875              		.thumb
 2876              		.thumb_func
 2877              		.type	usb_lld_start_in, %function
 2878              	usb_lld_start_in:
 2879              	.LFB287:
 2880              		.loc 1 1225 0
 2881              		.cfi_startproc
 2882              		@ args = 0, pretend = 0, frame = 0
 2883              		@ frame_needed = 0, uses_anonymous_args = 0
 2884              		@ link register save eliminated.
 2885              	.LVL277:
 2886              		.loc 1 1227 0
 2887 0000 036D     		ldr	r3, [r0, #80]
 2888              		.loc 1 1225 0
 2889 0002 10B4     		push	{r4}
 2890              		.cfi_def_cfa_offset 4
 2891              		.cfi_offset 4, -4
 2892 0004 03EB4114 		add	r4, r3, r1, lsl #5
 2893              		.loc 1 1228 0
 2894 0008 0122     		movs	r2, #1
 2895              		.loc 1 1227 0
 2896 000a D4F80009 		ldr	r0, [r4, #2304]
 2897              	.LVL278:
 2898 000e 40F00440 		orr	r0, r0, #-2080374784
 2899 0012 C4F80009 		str	r0, [r4, #2304]
 2900              		.loc 1 1228 0
 2901 0016 D3F83408 		ldr	r0, [r3, #2100]
 2902              		.loc 1 1229 0
 2903 001a 5DF8044B 		ldr	r4, [sp], #4
 2904              		.cfi_restore 4
 2905              		.cfi_def_cfa_offset 0
 2906              		.loc 1 1228 0
 2907 001e 8A40     		lsls	r2, r2, r1
ARM GAS  /tmp/ccDtb1pQ.s 			page 52


 2908 0020 0243     		orrs	r2, r2, r0
 2909 0022 C3F83428 		str	r2, [r3, #2100]
 2910              		.loc 1 1229 0
 2911 0026 7047     		bx	lr
 2912              		.cfi_endproc
 2913              	.LFE287:
 2914              		.size	usb_lld_start_in, .-usb_lld_start_in
 2915              		.section	.text.usb_lld_stall_out,"ax",%progbits
 2916              		.align	2
 2917              		.p2align 4,,15
 2918              		.global	usb_lld_stall_out
 2919              		.thumb
 2920              		.thumb_func
 2921              		.type	usb_lld_stall_out, %function
 2922              	usb_lld_stall_out:
 2923              	.LFB288:
 2924              		.loc 1 1239 0
 2925              		.cfi_startproc
 2926              		@ args = 0, pretend = 0, frame = 0
 2927              		@ frame_needed = 0, uses_anonymous_args = 0
 2928              		@ link register save eliminated.
 2929              	.LVL279:
 2930 0000 036D     		ldr	r3, [r0, #80]
 2931 0002 03EB4111 		add	r1, r3, r1, lsl #5
 2932              	.LVL280:
 2933              		.loc 1 1241 0
 2934 0006 D1F8003B 		ldr	r3, [r1, #2816]
 2935 000a 43F40013 		orr	r3, r3, #2097152
 2936 000e C1F8003B 		str	r3, [r1, #2816]
 2937 0012 7047     		bx	lr
 2938              		.cfi_endproc
 2939              	.LFE288:
 2940              		.size	usb_lld_stall_out, .-usb_lld_stall_out
 2941              		.section	.text.usb_lld_stall_in,"ax",%progbits
 2942              		.align	2
 2943              		.p2align 4,,15
 2944              		.global	usb_lld_stall_in
 2945              		.thumb
 2946              		.thumb_func
 2947              		.type	usb_lld_stall_in, %function
 2948              	usb_lld_stall_in:
 2949              	.LFB289:
 2950              		.loc 1 1252 0
 2951              		.cfi_startproc
 2952              		@ args = 0, pretend = 0, frame = 0
 2953              		@ frame_needed = 0, uses_anonymous_args = 0
 2954              		@ link register save eliminated.
 2955              	.LVL281:
 2956 0000 036D     		ldr	r3, [r0, #80]
 2957 0002 03EB4111 		add	r1, r3, r1, lsl #5
 2958              	.LVL282:
 2959              		.loc 1 1254 0
 2960 0006 D1F80039 		ldr	r3, [r1, #2304]
 2961 000a 43F40013 		orr	r3, r3, #2097152
 2962 000e C1F80039 		str	r3, [r1, #2304]
 2963 0012 7047     		bx	lr
 2964              		.cfi_endproc
ARM GAS  /tmp/ccDtb1pQ.s 			page 53


 2965              	.LFE289:
 2966              		.size	usb_lld_stall_in, .-usb_lld_stall_in
 2967              		.section	.text.usb_lld_clear_out,"ax",%progbits
 2968              		.align	2
 2969              		.p2align 4,,15
 2970              		.global	usb_lld_clear_out
 2971              		.thumb
 2972              		.thumb_func
 2973              		.type	usb_lld_clear_out, %function
 2974              	usb_lld_clear_out:
 2975              	.LFB290:
 2976              		.loc 1 1265 0
 2977              		.cfi_startproc
 2978              		@ args = 0, pretend = 0, frame = 0
 2979              		@ frame_needed = 0, uses_anonymous_args = 0
 2980              		@ link register save eliminated.
 2981              	.LVL283:
 2982 0000 036D     		ldr	r3, [r0, #80]
 2983 0002 03EB4111 		add	r1, r3, r1, lsl #5
 2984              	.LVL284:
 2985              		.loc 1 1267 0
 2986 0006 D1F8003B 		ldr	r3, [r1, #2816]
 2987 000a 23F40013 		bic	r3, r3, #2097152
 2988 000e C1F8003B 		str	r3, [r1, #2816]
 2989 0012 7047     		bx	lr
 2990              		.cfi_endproc
 2991              	.LFE290:
 2992              		.size	usb_lld_clear_out, .-usb_lld_clear_out
 2993              		.section	.text.usb_lld_clear_in,"ax",%progbits
 2994              		.align	2
 2995              		.p2align 4,,15
 2996              		.global	usb_lld_clear_in
 2997              		.thumb
 2998              		.thumb_func
 2999              		.type	usb_lld_clear_in, %function
 3000              	usb_lld_clear_in:
 3001              	.LFB291:
 3002              		.loc 1 1278 0
 3003              		.cfi_startproc
 3004              		@ args = 0, pretend = 0, frame = 0
 3005              		@ frame_needed = 0, uses_anonymous_args = 0
 3006              		@ link register save eliminated.
 3007              	.LVL285:
 3008 0000 036D     		ldr	r3, [r0, #80]
 3009 0002 03EB4111 		add	r1, r3, r1, lsl #5
 3010              	.LVL286:
 3011              		.loc 1 1280 0
 3012 0006 D1F80039 		ldr	r3, [r1, #2304]
 3013 000a 23F40013 		bic	r3, r3, #2097152
 3014 000e C1F80039 		str	r3, [r1, #2304]
 3015 0012 7047     		bx	lr
 3016              		.cfi_endproc
 3017              	.LFE291:
 3018              		.size	usb_lld_clear_in, .-usb_lld_clear_in
 3019              		.global	USBD1
 3020              		.section	.rodata.fsparams,"a",%progbits
 3021              		.align	2
ARM GAS  /tmp/ccDtb1pQ.s 			page 54


 3022              		.set	.LANCHOR1,. + 0
 3023              		.type	fsparams, %object
 3024              		.size	fsparams, 12
 3025              	fsparams:
 3026 0000 80000000 		.word	128
 3027 0004 40010000 		.word	320
 3028 0008 03000000 		.word	3
 3029              		.section	.bss.USBD1,"aw",%nobits
 3030              		.align	3
 3031              		.set	.LANCHOR0,. + 0
 3032              		.type	USBD1, %object
 3033              		.size	USBD1, 640
 3034              	USBD1:
 3035 0000 00000000 		.space	640
 3035      00000000 
 3035      00000000 
 3035      00000000 
 3035      00000000 
 3036              		.section	.rodata.str1.4,"aMS",%progbits,1
 3037              		.align	2
 3038              	.LC0:
 3039 0000 7573625F 		.ascii	"usb_lld_pump\000"
 3039      6C6C645F 
 3039      70756D70 
 3039      00
 3040              		.section	.rodata.ep0config,"a",%progbits
 3041              		.align	2
 3042              		.set	.LANCHOR2,. + 0
 3043              		.type	ep0config, %object
 3044              		.size	ep0config, 36
 3045              	ep0config:
 3046 0000 00000000 		.word	0
 3047 0004 00000000 		.word	_usb_ep0setup
 3048 0008 00000000 		.word	_usb_ep0in
 3049 000c 00000000 		.word	_usb_ep0out
 3050 0010 4000     		.short	64
 3051 0012 4000     		.short	64
 3052 0014 00000000 		.word	ep0_state
 3053 0018 00000000 		.word	ep0_state
 3054 001c 0100     		.short	1
 3055 001e 0000     		.space	2
 3056 0020 00000000 		.word	ep0setup_buffer
 3057              		.section	.bss.ep0_state,"aw",%nobits
 3058              		.align	2
 3059              		.type	ep0_state, %object
 3060              		.size	ep0_state, 20
 3061              	ep0_state:
 3062 0000 00000000 		.space	20
 3062      00000000 
 3062      00000000 
 3062      00000000 
 3062      00000000 
 3063              		.section	.bss.ep0setup_buffer,"aw",%nobits
 3064              		.align	2
 3065              		.type	ep0setup_buffer, %object
 3066              		.size	ep0setup_buffer, 8
 3067              	ep0setup_buffer:
ARM GAS  /tmp/ccDtb1pQ.s 			page 55


 3068 0000 00000000 		.space	8
 3068      00000000 
 3069              		.text
 3070              	.Letext0:
 3071              		.file 6 "/usr/lib/gcc/arm-none-eabi/4.9.3/include/stddef.h"
 3072              		.file 7 "/usr/arm-none-eabi/include/machine/_default_types.h"
 3073              		.file 8 "/usr/arm-none-eabi/include/sys/_stdint.h"
 3074              		.file 9 "ChibiOS_3.0.2/os/rt/ports/ARMCMx/compilers/GCC/chtypes.h"
 3075              		.file 10 "ChibiOS_3.0.2/os/rt/include/chsystypes.h"
 3076              		.file 11 "ChibiOS_3.0.2/os/rt/include/chschd.h"
 3077              		.file 12 "ChibiOS_3.0.2/os/ext/CMSIS/ST/stm32f407xx.h"
 3078              		.file 13 "ChibiOS_3.0.2/os/rt/ports/ARMCMx/chcore.h"
 3079              		.file 14 "ChibiOS_3.0.2/os/rt/ports/ARMCMx/chcore_v7m.h"
 3080              		.file 15 "ChibiOS_3.0.2/os/rt/include/chtm.h"
 3081              		.file 16 "ChibiOS_3.0.2/os/rt/include/chsem.h"
 3082              		.file 17 "ChibiOS_3.0.2/os/rt/include/chmtx.h"
 3083              		.file 18 "ChibiOS_3.0.2/os/rt/include/chqueues.h"
 3084              		.file 19 "ChibiOS_3.0.2/os/hal/include/usb.h"
 3085              		.file 20 "ChibiOS_3.0.2/os/hal/ports/STM32/LLD/OTGv1/usb_lld.h"
 3086              		.file 21 "ChibiOS_3.0.2/os/hal/ports/STM32/LLD/OTGv1/stm32_otg.h"
 3087              		.file 22 "ChibiOS_3.0.2/os/rt/include/chsys.h"
 3088              		.file 23 "ChibiOS_3.0.2/os/ext/CMSIS/include/core_cm4.h"
 3089              		.file 24 "ChibiOS_3.0.2/os/hal/ports/common/ARMCMx/nvic.h"