ARM GAS  /tmp/ccEw4uap.s 			page 1


   1              		.syntax unified
   2              		.cpu cortex-m4
   3              		.eabi_attribute 27, 1
   4              		.eabi_attribute 28, 1
   5              		.fpu fpv4-sp-d16
   6              		.eabi_attribute 20, 1
   7              		.eabi_attribute 21, 1
   8              		.eabi_attribute 23, 3
   9              		.eabi_attribute 24, 1
  10              		.eabi_attribute 25, 1
  11              		.eabi_attribute 26, 1
  12              		.eabi_attribute 30, 2
  13              		.eabi_attribute 34, 1
  14              		.eabi_attribute 18, 4
  15              		.thumb
  16              		.file	"utils.c"
  17              		.text
  18              	.Ltext0:
  19              		.cfi_sections	.debug_frame
  20              		.section	.text.utils_step_towards,"ax",%progbits
  21              		.align	2
  22              		.p2align 4,,15
  23              		.global	utils_step_towards
  24              		.thumb
  25              		.thumb_func
  26              		.type	utils_step_towards, %function
  27              	utils_step_towards:
  28              	.LFB256:
  29              		.file 1 "utils.c"
  30              		.loc 1 33 0
  31              		.cfi_startproc
  32              		@ args = 0, pretend = 0, frame = 0
  33              		@ frame_needed = 0, uses_anonymous_args = 0
  34              		@ link register save eliminated.
  35              	.LVL0:
  36              		.loc 1 34 0
  37 0000 D0ED007A 		flds	s15, [r0]
  38 0004 F4EEC07A 		fcmpes	s15, s0
  39 0008 F1EE10FA 		fmstat
  40 000c 09D5     		bpl	.L13
  41              		.loc 1 35 0
  42 000e 77EEA07A 		fadds	s15, s15, s1
  43 0012 B4EEE70A 		fcmpes	s0, s15
  44 0016 F1EE10FA 		fmstat
  45 001a 0ADD     		ble	.L4
  46              	.L14:
  47              		.loc 1 42 0
  48 001c C0ED007A 		fsts	s15, [r0]
  49              	.L1:
  50 0020 7047     		bx	lr
  51              	.L13:
  52              		.loc 1 40 0
  53 0022 FDDD     		ble	.L1
  54              		.loc 1 41 0
  55 0024 77EEE07A 		fsubs	s15, s15, s1
  56 0028 B4EEE70A 		fcmpes	s0, s15
  57 002c F1EE10FA 		fmstat
ARM GAS  /tmp/ccEw4uap.s 			page 2


  58 0030 F4D4     		bmi	.L14
  59              	.L4:
  60              		.loc 1 38 0
  61 0032 80ED000A 		fsts	s0, [r0]
  62 0036 7047     		bx	lr
  63              		.cfi_endproc
  64              	.LFE256:
  65              		.size	utils_step_towards, .-utils_step_towards
  66              		.section	.text.utils_calc_ratio,"ax",%progbits
  67              		.align	2
  68              		.p2align 4,,15
  69              		.global	utils_calc_ratio
  70              		.thumb
  71              		.thumb_func
  72              		.type	utils_calc_ratio, %function
  73              	utils_calc_ratio:
  74              	.LFB257:
  75              		.loc 1 49 0
  76              		.cfi_startproc
  77              		@ args = 0, pretend = 0, frame = 0
  78              		@ frame_needed = 0, uses_anonymous_args = 0
  79              		@ link register save eliminated.
  80              	.LVL1:
  81              		.loc 1 50 0
  82 0000 31EE401A 		fsubs	s2, s2, s0
  83              	.LVL2:
  84 0004 30EEC00A 		fsubs	s0, s1, s0
  85              	.LVL3:
  86              		.loc 1 51 0
  87 0008 81EE000A 		fdivs	s0, s2, s0
  88 000c 7047     		bx	lr
  89              		.cfi_endproc
  90              	.LFE257:
  91              		.size	utils_calc_ratio, .-utils_calc_ratio
  92              		.section	.text.utils_norm_angle,"ax",%progbits
  93              		.align	2
  94              		.p2align 4,,15
  95              		.global	utils_norm_angle
  96              		.thumb
  97              		.thumb_func
  98              		.type	utils_norm_angle, %function
  99              	utils_norm_angle:
 100              	.LFB258:
 101              		.loc 1 59 0
 102              		.cfi_startproc
 103              		@ args = 0, pretend = 0, frame = 0
 104              		@ frame_needed = 0, uses_anonymous_args = 0
 105              	.LVL4:
 106 0000 10B5     		push	{r4, lr}
 107              		.cfi_def_cfa_offset 8
 108              		.cfi_offset 4, -8
 109              		.cfi_offset 14, -4
 110 0002 2DED028B 		fstmfdd	sp!, {d8}
 111              		.cfi_def_cfa_offset 16
 112              		.cfi_offset 80, -16
 113              		.cfi_offset 81, -12
 114              		.loc 1 60 0
ARM GAS  /tmp/ccEw4uap.s 			page 3


 115 0006 9FED0A8A 		flds	s16, .L22
 116 000a 90ED000A 		flds	s0, [r0]
 117 000e F0EE480A 		fcpys	s1, s16
 118              		.loc 1 59 0
 119 0012 0446     		mov	r4, r0
 120              		.loc 1 60 0
 121 0014 FFF7FEFF 		bl	fmodf
 122              	.LVL5:
 123              		.loc 1 62 0
 124 0018 B5EEC00A 		fcmpezs	s0
 125 001c F1EE10FA 		fmstat
 126              		.loc 1 63 0
 127 0020 48BF     		it	mi
 128 0022 30EE080A 		faddsmi	s0, s0, s16
 129              		.loc 1 65 0
 130 0026 BDEC028B 		fldmfdd	sp!, {d8}
 131              		.cfi_restore 80
 132              		.cfi_restore 81
 133              		.cfi_def_cfa_offset 8
 134              		.loc 1 63 0
 135 002a 84ED000A 		fsts	s0, [r4]
 136              		.loc 1 65 0
 137 002e 10BD     		pop	{r4, pc}
 138              	.LVL6:
 139              	.L23:
 140              		.align	2
 141              	.L22:
 142 0030 0000B443 		.word	1135869952
 143              		.cfi_endproc
 144              	.LFE258:
 145              		.size	utils_norm_angle, .-utils_norm_angle
 146              		.section	.text.utils_norm_angle_rad,"ax",%progbits
 147              		.align	2
 148              		.p2align 4,,15
 149              		.global	utils_norm_angle_rad
 150              		.thumb
 151              		.thumb_func
 152              		.type	utils_norm_angle_rad, %function
 153              	utils_norm_angle_rad:
 154              	.LFB259:
 155              		.loc 1 76 0
 156              		.cfi_startproc
 157              		@ args = 0, pretend = 0, frame = 0
 158              		@ frame_needed = 0, uses_anonymous_args = 0
 159              		@ link register save eliminated.
 160              	.LVL7:
 161              		.loc 1 77 0
 162 0000 D0ED007A 		flds	s15, [r0]
 163 0004 9FED127A 		flds	s14, .L34
 164 0008 F4EEC77A 		fcmpes	s15, s14
 165 000c F1EE10FA 		fmstat
 166 0010 0AD5     		bpl	.L25
 167              		.loc 1 78 0
 168 0012 DFED106A 		flds	s13, .L34+4
 169              	.L27:
 170 0016 77EEA67A 		fadds	s15, s15, s13
 171              		.loc 1 77 0
ARM GAS  /tmp/ccEw4uap.s 			page 4


 172 001a F4EEC77A 		fcmpes	s15, s14
 173 001e F1EE10FA 		fmstat
 174 0022 F8D4     		bmi	.L27
 175 0024 C0ED007A 		fsts	s15, [r0]
 176              	.L25:
 177              		.loc 1 81 0
 178 0028 9FED0B7A 		flds	s14, .L34+8
 179 002c F4EEC77A 		fcmpes	s15, s14
 180 0030 F1EE10FA 		fmstat
 181 0034 0ADD     		ble	.L24
 182              		.loc 1 82 0
 183 0036 DFED076A 		flds	s13, .L34+4
 184              	.L29:
 185 003a 77EEE67A 		fsubs	s15, s15, s13
 186              		.loc 1 81 0
 187 003e F4EEC77A 		fcmpes	s15, s14
 188 0042 F1EE10FA 		fmstat
 189 0046 F8DC     		bgt	.L29
 190 0048 C0ED007A 		fsts	s15, [r0]
 191              	.L24:
 192 004c 7047     		bx	lr
 193              	.L35:
 194 004e 00BF     		.align	2
 195              	.L34:
 196 0050 DB0F49C0 		.word	3226013659
 197 0054 DB0FC940 		.word	1086918619
 198 0058 DB0F4940 		.word	1078530011
 199              		.cfi_endproc
 200              	.LFE259:
 201              		.size	utils_norm_angle_rad, .-utils_norm_angle_rad
 202              		.section	.text.utils_truncate_number,"ax",%progbits
 203              		.align	2
 204              		.p2align 4,,15
 205              		.global	utils_truncate_number
 206              		.thumb
 207              		.thumb_func
 208              		.type	utils_truncate_number, %function
 209              	utils_truncate_number:
 210              	.LFB260:
 211              		.loc 1 86 0
 212              		.cfi_startproc
 213              		@ args = 0, pretend = 0, frame = 0
 214              		@ frame_needed = 0, uses_anonymous_args = 0
 215              		@ link register save eliminated.
 216              	.LVL8:
 217              		.loc 1 89 0
 218 0000 D0ED007A 		flds	s15, [r0]
 219 0004 F4EEE07A 		fcmpes	s15, s1
 220 0008 F1EE10FA 		fmstat
 221 000c 09DC     		bgt	.L46
 222              		.loc 1 92 0
 223 000e F4EEC07A 		fcmpes	s15, s0
 224 0012 F1EE10FA 		fmstat
 225              		.loc 1 93 0
 226 0016 46BF     		itte	mi
 227 0018 80ED000A 		fstsmi	s0, [r0]
 228              	.LVL9:
ARM GAS  /tmp/ccEw4uap.s 			page 5


 229              		.loc 1 94 0
 230 001c 0120     		movmi	r0, #1
 231              	.LVL10:
 232              		.loc 1 87 0
 233 001e 0020     		movpl	r0, #0
 234              	.LVL11:
 235              		.loc 1 98 0
 236 0020 7047     		bx	lr
 237              	.LVL12:
 238              	.L46:
 239              		.loc 1 90 0
 240 0022 C0ED000A 		fsts	s1, [r0]
 241              	.LVL13:
 242              		.loc 1 91 0
 243 0026 0120     		movs	r0, #1
 244              	.LVL14:
 245 0028 7047     		bx	lr
 246              		.cfi_endproc
 247              	.LFE260:
 248              		.size	utils_truncate_number, .-utils_truncate_number
 249 002a 00BF     		.section	.text.utils_map,"ax",%progbits
 250              		.align	2
 251              		.p2align 4,,15
 252              		.global	utils_map
 253              		.thumb
 254              		.thumb_func
 255              		.type	utils_map, %function
 256              	utils_map:
 257              	.LFB261:
 258              		.loc 1 100 0
 259              		.cfi_startproc
 260              		@ args = 0, pretend = 0, frame = 0
 261              		@ frame_needed = 0, uses_anonymous_args = 0
 262              		@ link register save eliminated.
 263              	.LVL15:
 264              		.loc 1 101 0
 265 0000 30EE600A 		fsubs	s0, s0, s1
 266              	.LVL16:
 267 0004 32EE612A 		fsubs	s4, s4, s3
 268              	.LVL17:
 269 0008 31EE601A 		fsubs	s2, s2, s1
 270              	.LVL18:
 271 000c 20EE020A 		fmuls	s0, s0, s4
 272 0010 80EE010A 		fdivs	s0, s0, s2
 273              		.loc 1 102 0
 274 0014 30EE210A 		fadds	s0, s0, s3
 275 0018 7047     		bx	lr
 276              		.cfi_endproc
 277              	.LFE261:
 278              		.size	utils_map, .-utils_map
 279 001a 00BF     		.section	.text.utils_map_int,"ax",%progbits
 280              		.align	2
 281              		.p2align 4,,15
 282              		.global	utils_map_int
 283              		.thumb
 284              		.thumb_func
 285              		.type	utils_map_int, %function
ARM GAS  /tmp/ccEw4uap.s 			page 6


 286              	utils_map_int:
 287              	.LFB262:
 288              		.loc 1 104 0
 289              		.cfi_startproc
 290              		@ args = 4, pretend = 0, frame = 0
 291              		@ frame_needed = 0, uses_anonymous_args = 0
 292              		@ link register save eliminated.
 293              	.LVL19:
 294 0000 10B4     		push	{r4}
 295              		.cfi_def_cfa_offset 4
 296              		.cfi_offset 4, -4
 297              		.loc 1 104 0
 298 0002 019C     		ldr	r4, [sp, #4]
 299              		.loc 1 105 0
 300 0004 401A     		subs	r0, r0, r1
 301              	.LVL20:
 302 0006 E41A     		subs	r4, r4, r3
 303 0008 04FB00F4 		mul	r4, r4, r0
 304 000c 521A     		subs	r2, r2, r1
 305              	.LVL21:
 306 000e 94FBF2F0 		sdiv	r0, r4, r2
 307              		.loc 1 106 0
 308 0012 5DF8044B 		ldr	r4, [sp], #4
 309              		.cfi_restore 4
 310              		.cfi_def_cfa_offset 0
 311              	.LVL22:
 312 0016 1844     		add	r0, r0, r3
 313 0018 7047     		bx	lr
 314              		.cfi_endproc
 315              	.LFE262:
 316              		.size	utils_map_int, .-utils_map_int
 317 001a 00BF     		.section	.text.utils_deadband,"ax",%progbits
 318              		.align	2
 319              		.p2align 4,,15
 320              		.global	utils_deadband
 321              		.thumb
 322              		.thumb_func
 323              		.type	utils_deadband, %function
 324              	utils_deadband:
 325              	.LFB263:
 326              		.loc 1 112 0
 327              		.cfi_startproc
 328              		@ args = 0, pretend = 0, frame = 0
 329              		@ frame_needed = 0, uses_anonymous_args = 0
 330              		@ link register save eliminated.
 331              	.LVL23:
 332              		.loc 1 113 0
 333 0000 D0ED007A 		flds	s15, [r0]
 334 0004 B0EEE77A 		fabss	s14, s15
 335 0008 B4EEC07A 		fcmpes	s14, s0
 336 000c F1EE10FA 		fmstat
 337 0010 17D4     		bmi	.L60
 338              	.LBB24:
 339              		.loc 1 116 0
 340 0012 30EEC00A 		fsubs	s0, s1, s0
 341              	.LVL24:
 342              		.loc 1 118 0
ARM GAS  /tmp/ccEw4uap.s 			page 7


 343 0016 B7EE007A 		fconsts	s14, #112
 344              		.loc 1 116 0
 345 001a 80EE800A 		fdivs	s0, s1, s0
 346              	.LVL25:
 347              		.loc 1 117 0
 348 001e F5EEC07A 		fcmpezs	s15
 349              		.loc 1 118 0
 350 0022 37EE407A 		fsubs	s14, s14, s0
 351              		.loc 1 117 0
 352 0026 F1EE10FA 		fmstat
 353              		.loc 1 118 0
 354 002a 67EE200A 		fmuls	s1, s14, s1
 355              	.LVL26:
 356              		.loc 1 120 0
 357 002e D6BF     		itet	le
 358 0030 E7EEC00A 		vfmsle.f32	s1, s15, s0
 359              		.loc 1 118 0
 360 0034 E7EE800A 		vfmagt.f32	s1, s15, s0
 361              		.loc 1 120 0
 362 0038 F1EE600A 		fnegsle	s1, s1
 363 003c C0ED000A 		fsts	s1, [r0]
 364 0040 7047     		bx	lr
 365              	.LVL27:
 366              	.L60:
 367              	.LBE24:
 368              		.loc 1 114 0
 369 0042 0023     		movs	r3, #0
 370 0044 0360     		str	r3, [r0]	@ float
 371 0046 7047     		bx	lr
 372              		.cfi_endproc
 373              	.LFE263:
 374              		.size	utils_deadband, .-utils_deadband
 375              		.section	.text.utils_angle_difference,"ax",%progbits
 376              		.align	2
 377              		.p2align 4,,15
 378              		.global	utils_angle_difference
 379              		.thumb
 380              		.thumb_func
 381              		.type	utils_angle_difference, %function
 382              	utils_angle_difference:
 383              	.LFB264:
 384              		.loc 1 135 0
 385              		.cfi_startproc
 386              		@ args = 0, pretend = 0, frame = 0
 387              		@ frame_needed = 0, uses_anonymous_args = 0
 388              		@ link register save eliminated.
 389              	.LVL28:
 390              		.loc 1 150 0
 391 0000 30EE600A 		fsubs	s0, s0, s1
 392              	.LVL29:
 393              		.loc 1 151 0
 394 0004 DFED107A 		flds	s15, .L72
 395 0008 B4EEE70A 		fcmpes	s0, s15
 396 000c F1EE10FA 		fmstat
 397 0010 08D5     		bpl	.L62
 398              		.loc 1 151 0 is_stmt 0 discriminator 2
 399 0012 9FED0E7A 		flds	s14, .L72+4
ARM GAS  /tmp/ccEw4uap.s 			page 8


 400              	.L64:
 401 0016 30EE070A 		fadds	s0, s0, s14
 402              	.LVL30:
 403 001a B4EEE70A 		fcmpes	s0, s15
 404 001e F1EE10FA 		fmstat
 405 0022 F8D4     		bmi	.L64
 406              	.L62:
 407              		.loc 1 152 0 is_stmt 1 discriminator 1
 408 0024 DFED0A7A 		flds	s15, .L72+8
 409 0028 B4EEE70A 		fcmpes	s0, s15
 410 002c F1EE10FA 		fmstat
 411 0030 08DD     		ble	.L65
 412              		.loc 1 152 0 is_stmt 0 discriminator 2
 413 0032 9FED067A 		flds	s14, .L72+4
 414              	.L67:
 415 0036 30EE470A 		fsubs	s0, s0, s14
 416              	.LVL31:
 417 003a B4EEE70A 		fcmpes	s0, s15
 418 003e F1EE10FA 		fmstat
 419 0042 F8DC     		bgt	.L67
 420              	.L65:
 421              		.loc 1 154 0 is_stmt 1
 422 0044 7047     		bx	lr
 423              	.L73:
 424 0046 00BF     		.align	2
 425              	.L72:
 426 0048 000034C3 		.word	3274964992
 427 004c 0000B443 		.word	1135869952
 428 0050 00003443 		.word	1127481344
 429              		.cfi_endproc
 430              	.LFE264:
 431              		.size	utils_angle_difference, .-utils_angle_difference
 432              		.section	.text.utils_angle_difference_rad,"ax",%progbits
 433              		.align	2
 434              		.p2align 4,,15
 435              		.global	utils_angle_difference_rad
 436              		.thumb
 437              		.thumb_func
 438              		.type	utils_angle_difference_rad, %function
 439              	utils_angle_difference_rad:
 440              	.LFB265:
 441              		.loc 1 165 0
 442              		.cfi_startproc
 443              		@ args = 0, pretend = 0, frame = 0
 444              		@ frame_needed = 0, uses_anonymous_args = 0
 445              		@ link register save eliminated.
 446              	.LVL32:
 447              		.loc 1 166 0
 448 0000 30EE600A 		fsubs	s0, s0, s1
 449              	.LVL33:
 450              		.loc 1 167 0
 451 0004 DFED107A 		flds	s15, .L85
 452 0008 B4EEE70A 		fcmpes	s0, s15
 453 000c F1EE10FA 		fmstat
 454 0010 08D5     		bpl	.L75
 455              		.loc 1 167 0 is_stmt 0 discriminator 2
 456 0012 9FED0E7A 		flds	s14, .L85+4
ARM GAS  /tmp/ccEw4uap.s 			page 9


 457              	.L77:
 458 0016 30EE070A 		fadds	s0, s0, s14
 459              	.LVL34:
 460 001a B4EEE70A 		fcmpes	s0, s15
 461 001e F1EE10FA 		fmstat
 462 0022 F8D4     		bmi	.L77
 463              	.L75:
 464              		.loc 1 168 0 is_stmt 1 discriminator 1
 465 0024 DFED0A7A 		flds	s15, .L85+8
 466 0028 B4EEE70A 		fcmpes	s0, s15
 467 002c F1EE10FA 		fmstat
 468 0030 08DD     		ble	.L78
 469              		.loc 1 168 0 is_stmt 0 discriminator 2
 470 0032 9FED067A 		flds	s14, .L85+4
 471              	.L80:
 472 0036 30EE470A 		fsubs	s0, s0, s14
 473              	.LVL35:
 474 003a B4EEE70A 		fcmpes	s0, s15
 475 003e F1EE10FA 		fmstat
 476 0042 F8DC     		bgt	.L80
 477              	.L78:
 478              		.loc 1 170 0 is_stmt 1
 479 0044 7047     		bx	lr
 480              	.L86:
 481 0046 00BF     		.align	2
 482              	.L85:
 483 0048 DB0F49C0 		.word	3226013659
 484 004c DB0FC940 		.word	1086918619
 485 0050 DB0F4940 		.word	1078530011
 486              		.cfi_endproc
 487              	.LFE265:
 488              		.size	utils_angle_difference_rad, .-utils_angle_difference_rad
 489              		.section	.text.utils_middle_of_3,"ax",%progbits
 490              		.align	2
 491              		.p2align 4,,15
 492              		.global	utils_middle_of_3
 493              		.thumb
 494              		.thumb_func
 495              		.type	utils_middle_of_3, %function
 496              	utils_middle_of_3:
 497              	.LFB267:
 498              		.loc 1 216 0
 499              		.cfi_startproc
 500              		@ args = 0, pretend = 0, frame = 0
 501              		@ frame_needed = 0, uses_anonymous_args = 0
 502              		@ link register save eliminated.
 503              	.LVL36:
 504              		.loc 1 219 0
 505 0000 B4EEE00A 		fcmpes	s0, s1
 506 0004 F1EE10FA 		fmstat
 507 0008 0ED8     		bhi	.L110
 508              		.loc 1 219 0 is_stmt 0 discriminator 1
 509 000a B4EEC10A 		fcmpes	s0, s2
 510 000e F1EE10FA 		fmstat
 511 0012 25D8     		bhi	.L111
 512              		.loc 1 220 0 is_stmt 1
 513 0014 F4EEC10A 		fcmpes	s1, s2
ARM GAS  /tmp/ccEw4uap.s 			page 10


 514 0018 F1EE10FA 		fmstat
 515 001c 88BF     		it	hi
 516 001e F0EE410A 		fcpyshi	s1, s2
 517              	.LVL37:
 518              		.loc 1 227 0
 519 0022 B0EE600A 		fcpys	s0, s1
 520              	.LVL38:
 521 0026 7047     		bx	lr
 522              	.LVL39:
 523              	.L110:
 524              		.loc 1 221 0
 525 0028 09DA     		bge	.L114
 526              	.L94:
 527              		.loc 1 222 0
 528 002a B4EE600A 		fcmps	s0, s1
 529 002e F1EE10FA 		fmstat
 530 0032 98BF     		it	ls
 531 0034 F0EE400A 		fcpysls	s1, s0
 532              	.LVL40:
 533              		.loc 1 227 0
 534 0038 B0EE600A 		fcpys	s0, s1
 535              	.LVL41:
 536 003c 7047     		bx	lr
 537              	.LVL42:
 538              	.L114:
 539              		.loc 1 221 0 discriminator 1
 540 003e F4EEC10A 		fcmpes	s1, s2
 541 0042 F1EE10FA 		fmstat
 542 0046 F0D8     		bhi	.L94
 543              	.L99:
 544              		.loc 1 222 0
 545 0048 B4EEC10A 		fcmpes	s0, s2
 546 004c F1EE10FA 		fmstat
 547              		.loc 1 220 0
 548 0050 8CBF     		ite	hi
 549 0052 F0EE410A 		fcpyshi	s1, s2
 550 0056 F0EE400A 		fcpysls	s1, s0
 551              	.LVL43:
 552              		.loc 1 227 0
 553 005a B0EE600A 		fcpys	s0, s1
 554              	.LVL44:
 555 005e 7047     		bx	lr
 556              	.LVL45:
 557              	.L111:
 558              		.loc 1 221 0
 559 0060 B4EEE00A 		fcmpes	s0, s1
 560 0064 F1EE10FA 		fmstat
 561 0068 04DB     		blt	.L113
 562 006a F4EEC10A 		fcmpes	s1, s2
 563 006e F1EE10FA 		fmstat
 564 0072 E9D9     		bls	.L99
 565              	.L113:
 566              		.loc 1 222 0
 567 0074 F0EE400A 		fcpys	s1, s0
 568              	.LVL46:
 569              		.loc 1 227 0
 570 0078 B0EE600A 		fcpys	s0, s1
ARM GAS  /tmp/ccEw4uap.s 			page 11


 571              	.LVL47:
 572 007c 7047     		bx	lr
 573              		.cfi_endproc
 574              	.LFE267:
 575              		.size	utils_middle_of_3, .-utils_middle_of_3
 576 007e 00BF     		.section	.text.utils_middle_of_3_int,"ax",%progbits
 577              		.align	2
 578              		.p2align 4,,15
 579              		.global	utils_middle_of_3_int
 580              		.thumb
 581              		.thumb_func
 582              		.type	utils_middle_of_3_int, %function
 583              	utils_middle_of_3_int:
 584              	.LFB268:
 585              		.loc 1 244 0
 586              		.cfi_startproc
 587              		@ args = 0, pretend = 0, frame = 0
 588              		@ frame_needed = 0, uses_anonymous_args = 0
 589              		@ link register save eliminated.
 590              	.LVL48:
 591              		.loc 1 247 0
 592 0000 8842     		cmp	r0, r1
 593 0002 05DD     		ble	.L121
 594              	.L116:
 595              		.loc 1 249 0 discriminator 1
 596 0004 9142     		cmp	r1, r2
 597 0006 0BDD     		ble	.L122
 598              		.loc 1 252 0
 599 0008 8842     		cmp	r0, r1
 600 000a A8BF     		it	ge
 601 000c 0846     		movge	r0, r1
 602              	.LVL49:
 603              		.loc 1 255 0
 604 000e 7047     		bx	lr
 605              	.LVL50:
 606              	.L121:
 607              		.loc 1 247 0 discriminator 1
 608 0010 9042     		cmp	r0, r2
 609 0012 09DD     		ble	.L123
 610              		.loc 1 249 0
 611 0014 8842     		cmp	r0, r1
 612 0016 F5DA     		bge	.L116
 613              		.loc 1 252 0
 614 0018 8842     		cmp	r0, r1
 615 001a A8BF     		it	ge
 616 001c 0846     		movge	r0, r1
 617              	.LVL51:
 618              		.loc 1 255 0
 619 001e 7047     		bx	lr
 620              	.LVL52:
 621              	.L122:
 622              		.loc 1 250 0
 623 0020 9042     		cmp	r0, r2
 624 0022 A8BF     		it	ge
 625 0024 1046     		movge	r0, r2
 626              	.LVL53:
 627 0026 7047     		bx	lr
ARM GAS  /tmp/ccEw4uap.s 			page 12


 628              	.LVL54:
 629              	.L123:
 630              		.loc 1 248 0
 631 0028 9142     		cmp	r1, r2
 632 002a A8BF     		it	ge
 633 002c 1146     		movge	r1, r2
 634              	.LVL55:
 635 002e 0846     		mov	r0, r1
 636              	.LVL56:
 637 0030 7047     		bx	lr
 638              		.cfi_endproc
 639              	.LFE268:
 640              		.size	utils_middle_of_3_int, .-utils_middle_of_3_int
 641 0032 00BF     		.section	.text.utils_fast_inv_sqrt,"ax",%progbits
 642              		.align	2
 643              		.p2align 4,,15
 644              		.global	utils_fast_inv_sqrt
 645              		.thumb
 646              		.thumb_func
 647              		.type	utils_fast_inv_sqrt, %function
 648              	utils_fast_inv_sqrt:
 649              	.LFB269:
 650              		.loc 1 259 0
 651              		.cfi_startproc
 652              		@ args = 0, pretend = 0, frame = 0
 653              		@ frame_needed = 0, uses_anonymous_args = 0
 654              		@ link register save eliminated.
 655              	.LVL57:
 656              		.loc 1 268 0
 657 0000 10EE102A 		fmrs	r2, s0	@ int
 658              		.loc 1 267 0
 659 0004 084B     		ldr	r3, .L125
 660              		.loc 1 265 0
 661 0006 B6EE007A 		fconsts	s14, #96
 662              		.loc 1 268 0
 663 000a A3EB6203 		sub	r3, r3, r2, asr #1
 664              	.LVL58:
 665 000e 07EE903A 		fmsr	s15, r3	@ int
 666              		.loc 1 265 0
 667 0012 20EE077A 		fmuls	s14, s0, s14
 668              	.LVL59:
 669              		.loc 1 268 0
 670 0016 B7EE080A 		fconsts	s0, #120
 671              	.LVL60:
 672 001a 27EE877A 		fmuls	s14, s15, s14
 673              	.LVL61:
 674 001e A7EEC70A 		vfms.f32	s0, s15, s14
 675              		.loc 1 270 0
 676 0022 27EE800A 		fmuls	s0, s15, s0
 677 0026 7047     		bx	lr
 678              	.L126:
 679              		.align	2
 680              	.L125:
 681 0028 DF59375F 		.word	1597463007
 682              		.cfi_endproc
 683              	.LFE269:
 684              		.size	utils_fast_inv_sqrt, .-utils_fast_inv_sqrt
ARM GAS  /tmp/ccEw4uap.s 			page 13


 685              		.section	.text.utils_fast_atan2,"ax",%progbits
 686              		.align	2
 687              		.p2align 4,,15
 688              		.global	utils_fast_atan2
 689              		.thumb
 690              		.thumb_func
 691              		.type	utils_fast_atan2, %function
 692              	utils_fast_atan2:
 693              	.LFB270:
 694              		.loc 1 286 0
 695              		.cfi_startproc
 696              		@ args = 0, pretend = 0, frame = 0
 697              		@ frame_needed = 0, uses_anonymous_args = 0
 698              		@ link register save eliminated.
 699              	.LVL62:
 700              		.loc 1 287 0
 701 0000 DFED187A 		flds	s15, .L139
 702              		.loc 1 290 0
 703 0004 F5EEC00A 		fcmpezs	s1
 704              		.loc 1 287 0
 705 0008 B0EEC07A 		fabss	s14, s0
 706              		.loc 1 290 0
 707 000c F1EE10FA 		fmstat
 708              		.loc 1 287 0
 709 0010 77EE277A 		fadds	s15, s14, s15
 710              	.LVL63:
 711              		.loc 1 290 0
 712 0014 1BDB     		blt	.L136
 713              	.LBB25:
 714              		.loc 1 291 0
 715 0016 30EEE77A 		fsubs	s14, s1, s15
 716              		.loc 1 293 0
 717 001a 9FED136A 		flds	s12, .L139+4
 718 001e DFED136A 		flds	s13, .L139+8
 719              		.loc 1 291 0
 720 0022 70EEA70A 		fadds	s1, s1, s15
 721              	.LVL64:
 722              		.loc 1 293 0
 723 0026 DFED127A 		flds	s15, .L139+12
 724              	.LVL65:
 725              	.L138:
 726              	.LBE25:
 727              	.LBB26:
 728              		.loc 1 295 0
 729 002a C7EE200A 		fdivs	s1, s14, s1
 730              	.LVL66:
 731              	.LBE26:
 732              		.loc 1 300 0
 733 002e B5EEC00A 		fcmpezs	s0
 734              	.LBB27:
 735              		.loc 1 296 0
 736 0032 20EEA07A 		fmuls	s14, s1, s1
 737              	.LVL67:
 738              	.LBE27:
 739              		.loc 1 300 0
 740 0036 F1EE10FA 		fmstat
 741              	.LBB28:
ARM GAS  /tmp/ccEw4uap.s 			page 14


 742              		.loc 1 297 0
 743 003a E7EE066A 		vfma.f32	s13, s14, s12
 744 003e E6EEA07A 		vfma.f32	s15, s13, s1
 745              	.LVL68:
 746              	.LBE28:
 747              		.loc 1 301 0
 748 0042 4CBF     		ite	mi
 749 0044 B1EE670A 		fnegsmi	s0, s15
 750              	.LVL69:
 751              		.loc 1 303 0
 752 0048 B0EE670A 		fcpyspl	s0, s15
 753              		.loc 1 305 0
 754 004c 7047     		bx	lr
 755              	.LVL70:
 756              	.L136:
 757              	.LBB29:
 758              		.loc 1 295 0
 759 004e 30EEA77A 		fadds	s14, s1, s15
 760              		.loc 1 297 0
 761 0052 9FED056A 		flds	s12, .L139+4
 762 0056 DFED056A 		flds	s13, .L139+8
 763              		.loc 1 295 0
 764 005a 77EEE00A 		fsubs	s1, s15, s1
 765              	.LVL71:
 766              		.loc 1 297 0
 767 005e DFED057A 		flds	s15, .L139+16
 768              	.LVL72:
 769 0062 E2E7     		b	.L138
 770              	.L140:
 771              		.align	2
 772              	.L139:
 773 0064 FFE6DB2E 		.word	786163455
 774 0068 DE02493E 		.word	1044972254
 775 006c B1507BBF 		.word	3212529841
 776 0070 DB0F493F 		.word	1061752795
 777 0074 E4CB1640 		.word	1075235812
 778              	.LBE29:
 779              		.cfi_endproc
 780              	.LFE270:
 781              		.size	utils_fast_atan2, .-utils_fast_atan2
 782              		.section	.text.utils_saturate_vector_2d,"ax",%progbits
 783              		.align	2
 784              		.p2align 4,,15
 785              		.global	utils_saturate_vector_2d
 786              		.thumb
 787              		.thumb_func
 788              		.type	utils_saturate_vector_2d, %function
 789              	utils_saturate_vector_2d:
 790              	.LFB271:
 791              		.loc 1 322 0
 792              		.cfi_startproc
 793              		@ args = 0, pretend = 0, frame = 8
 794              		@ frame_needed = 0, uses_anonymous_args = 0
 795              	.LVL73:
 796              		.loc 1 324 0
 797 0000 D1ED007A 		flds	s15, [r1]
 798 0004 27EEA77A 		fmuls	s14, s15, s15
ARM GAS  /tmp/ccEw4uap.s 			page 15


 799 0008 D0ED007A 		flds	s15, [r0]
 800 000c A7EEA77A 		vfma.f32	s14, s15, s15
 801              		.loc 1 322 0
 802 0010 10B5     		push	{r4, lr}
 803              		.cfi_def_cfa_offset 8
 804              		.cfi_offset 4, -8
 805              		.cfi_offset 14, -4
 806              		.loc 1 324 0
 807 0012 F1EEC77A 		fsqrts	s15, s14
 808              		.loc 1 322 0
 809 0016 0446     		mov	r4, r0
 810 0018 2DED028B 		fstmfdd	sp!, {d8}
 811              		.cfi_def_cfa_offset 16
 812              		.cfi_offset 80, -16
 813              		.cfi_offset 81, -12
 814              		.loc 1 324 0
 815 001c F4EE677A 		fcmps	s15, s15
 816 0020 F1EE10FA 		fmstat
 817              		.loc 1 322 0
 818 0024 82B0     		sub	sp, sp, #8
 819              		.cfi_def_cfa_offset 24
 820              		.loc 1 322 0
 821 0026 B0EE408A 		fcpys	s16, s0
 822              		.loc 1 324 0
 823 002a 27D1     		bne	.L152
 824              	.LVL74:
 825              	.L142:
 826              		.loc 1 327 0
 827 002c 9FED180A 		flds	s0, .L153
 828              		.loc 1 328 0
 829 0030 F4EE407A 		fcmps	s15, s0
 830 0034 F1EE10FA 		fmstat
 831 0038 48BF     		it	mi
 832 003a F0EE407A 		fcpysmi	s15, s0
 833              	.LVL75:
 834              		.loc 1 325 0
 835 003e B0EEC87A 		fabss	s14, s16
 836              	.LVL76:
 837              		.loc 1 331 0
 838 0042 F4EEC77A 		fcmpes	s15, s14
 839 0046 F1EE10FA 		fmstat
 840 004a 12DD     		ble	.L150
 841              	.LBB30:
 842              		.loc 1 332 0
 843 004c C7EE277A 		fdivs	s15, s14, s15
 844              	.LVL77:
 845              		.loc 1 335 0
 846 0050 0120     		movs	r0, #1
 847              		.loc 1 333 0
 848 0052 94ED007A 		flds	s14, [r4]
 849              	.LVL78:
 850 0056 27EE277A 		fmuls	s14, s14, s15
 851 005a 84ED007A 		fsts	s14, [r4]
 852              		.loc 1 334 0
 853 005e 91ED007A 		flds	s14, [r1]
 854 0062 67EE277A 		fmuls	s15, s14, s15
 855              	.LVL79:
ARM GAS  /tmp/ccEw4uap.s 			page 16


 856 0066 C1ED007A 		fsts	s15, [r1]
 857              	.LVL80:
 858              	.LBE30:
 859              		.loc 1 339 0
 860 006a 02B0     		add	sp, sp, #8
 861              		.cfi_remember_state
 862              		.cfi_def_cfa_offset 16
 863              		@ sp needed
 864 006c BDEC028B 		fldmfdd	sp!, {d8}
 865              		.cfi_restore 80
 866              		.cfi_restore 81
 867              		.cfi_def_cfa_offset 8
 868              	.LVL81:
 869 0070 10BD     		pop	{r4, pc}
 870              	.LVL82:
 871              	.L150:
 872              		.cfi_restore_state
 873              		.loc 1 323 0
 874 0072 0020     		movs	r0, #0
 875              	.LVL83:
 876              		.loc 1 339 0
 877 0074 02B0     		add	sp, sp, #8
 878              		.cfi_remember_state
 879              		.cfi_def_cfa_offset 16
 880              		@ sp needed
 881 0076 BDEC028B 		fldmfdd	sp!, {d8}
 882              		.cfi_restore 80
 883              		.cfi_restore 81
 884              		.cfi_def_cfa_offset 8
 885 007a 10BD     		pop	{r4, pc}
 886              	.LVL84:
 887              	.L152:
 888              		.cfi_restore_state
 889              		.loc 1 324 0
 890 007c B0EE470A 		fcpys	s0, s14
 891              	.LVL85:
 892 0080 0191     		str	r1, [sp, #4]
 893 0082 FFF7FEFF 		bl	sqrtf
 894              	.LVL86:
 895 0086 0199     		ldr	r1, [sp, #4]
 896 0088 F0EE407A 		fcpys	s15, s0
 897 008c CEE7     		b	.L142
 898              	.L154:
 899 008e 00BF     		.align	2
 900              	.L153:
 901 0090 FFE6DB2E 		.word	786163455
 902              		.cfi_endproc
 903              	.LFE271:
 904              		.size	utils_saturate_vector_2d, .-utils_saturate_vector_2d
 905              		.section	.text.utils_fast_sincos,"ax",%progbits
 906              		.align	2
 907              		.p2align 4,,15
 908              		.global	utils_fast_sincos
 909              		.thumb
 910              		.thumb_func
 911              		.type	utils_fast_sincos, %function
 912              	utils_fast_sincos:
ARM GAS  /tmp/ccEw4uap.s 			page 17


 913              	.LFB272:
 914              		.loc 1 356 0
 915              		.cfi_startproc
 916              		@ args = 0, pretend = 0, frame = 0
 917              		@ frame_needed = 0, uses_anonymous_args = 0
 918              		@ link register save eliminated.
 919              	.LVL87:
 920              		.loc 1 358 0
 921 0000 DFED2A7A 		flds	s15, .L179
 922 0004 B4EEE70A 		fcmpes	s0, s15
 923 0008 F1EE10FA 		fmstat
 924 000c 08D5     		bpl	.L156
 925              		.loc 1 359 0
 926 000e 9FED287A 		flds	s14, .L179+4
 927              	.L158:
 928 0012 30EE070A 		fadds	s0, s0, s14
 929              	.LVL88:
 930              		.loc 1 358 0
 931 0016 B4EEE70A 		fcmpes	s0, s15
 932 001a F1EE10FA 		fmstat
 933 001e F8D4     		bmi	.L158
 934              	.L156:
 935              		.loc 1 362 0
 936 0020 DFED247A 		flds	s15, .L179+8
 937 0024 B4EEE70A 		fcmpes	s0, s15
 938 0028 F1EE10FA 		fmstat
 939 002c 08DD     		ble	.L159
 940              		.loc 1 363 0
 941 002e 9FED207A 		flds	s14, .L179+4
 942              	.L161:
 943 0032 30EE470A 		fsubs	s0, s0, s14
 944              	.LVL89:
 945              		.loc 1 362 0
 946 0036 B4EEE70A 		fcmpes	s0, s15
 947 003a F1EE10FA 		fmstat
 948 003e F8DC     		bgt	.L161
 949              	.L159:
 950              		.loc 1 368 0
 951 0040 DFED1D7A 		flds	s15, .L179+12
 952 0044 9FED1D7A 		flds	s14, .L179+16
 953 0048 60EE277A 		fmuls	s15, s0, s15
 954              		.loc 1 367 0
 955 004c B5EEC00A 		fcmpezs	s0
 956 0050 F1EE10FA 		fmstat
 957              		.loc 1 368 0
 958 0054 4CBF     		ite	mi
 959 0056 67EE807A 		fmulsmi	s15, s15, s0
 960 005a 60EE677A 		fnmulspl	s15, s0, s15
 961              		.loc 1 370 0
 962 005e E0EE077A 		vfma.f32	s15, s0, s14
 963              		.loc 1 374 0
 964 0062 9FED177A 		flds	s14, .L179+20
 965              		.loc 1 370 0
 966 0066 C0ED007A 		fsts	s15, [r0]
 967              		.loc 1 374 0
 968 006a 30EE070A 		fadds	s0, s0, s14
 969              	.LVL90:
ARM GAS  /tmp/ccEw4uap.s 			page 18


 970              		.loc 1 376 0
 971 006e DFED117A 		flds	s15, .L179+8
 972              		.loc 1 381 0
 973 0072 9FED127A 		flds	s14, .L179+16
 974              		.loc 1 376 0
 975 0076 B4EEE70A 		fcmpes	s0, s15
 976 007a F1EE10FA 		fmstat
 977              		.loc 1 377 0
 978 007e C4BF     		itt	gt
 979 0080 DFED0B7A 		fldsgt	s15, .L179+4
 980 0084 30EE670A 		fsubsgt	s0, s0, s15
 981              	.LVL91:
 982              		.loc 1 381 0
 983 0088 DFED0B7A 		flds	s15, .L179+12
 984              		.loc 1 380 0
 985 008c B5EEC00A 		fcmpezs	s0
 986              		.loc 1 381 0
 987 0090 60EE277A 		fmuls	s15, s0, s15
 988              		.loc 1 380 0
 989 0094 F1EE10FA 		fmstat
 990              		.loc 1 381 0
 991 0098 4CBF     		ite	mi
 992 009a 67EE807A 		fmulsmi	s15, s15, s0
 993 009e 60EE677A 		fnmulspl	s15, s0, s15
 994              		.loc 1 383 0
 995 00a2 E0EE077A 		vfma.f32	s15, s0, s14
 996 00a6 C1ED007A 		fsts	s15, [r1]
 997 00aa 7047     		bx	lr
 998              	.L180:
 999              		.align	2
 1000              	.L179:
 1001 00ac DB0F49C0 		.word	3226013659
 1002 00b0 DB0FC940 		.word	1086918619
 1003 00b4 DB0F4940 		.word	1078530011
 1004 00b8 7B81CF3E 		.word	1053786491
 1005 00bc 83F9A23F 		.word	1067645315
 1006 00c0 DB0FC93F 		.word	1070141403
 1007              		.cfi_endproc
 1008              	.LFE272:
 1009              		.size	utils_fast_sincos, .-utils_fast_sincos
 1010              		.section	.text.utils_fast_sincos_better,"ax",%progbits
 1011              		.align	2
 1012              		.p2align 4,,15
 1013              		.global	utils_fast_sincos_better
 1014              		.thumb
 1015              		.thumb_func
 1016              		.type	utils_fast_sincos_better, %function
 1017              	utils_fast_sincos_better:
 1018              	.LFB273:
 1019              		.loc 1 402 0
 1020              		.cfi_startproc
 1021              		@ args = 0, pretend = 0, frame = 0
 1022              		@ frame_needed = 0, uses_anonymous_args = 0
 1023              		@ link register save eliminated.
 1024              	.LVL92:
 1025              		.loc 1 404 0
 1026 0000 DFED447A 		flds	s15, .L229
ARM GAS  /tmp/ccEw4uap.s 			page 19


 1027 0004 B4EEE70A 		fcmpes	s0, s15
 1028 0008 F1EE10FA 		fmstat
 1029 000c 08D5     		bpl	.L182
 1030              		.loc 1 405 0
 1031 000e 9FED427A 		flds	s14, .L229+4
 1032              	.L184:
 1033 0012 30EE070A 		fadds	s0, s0, s14
 1034              	.LVL93:
 1035              		.loc 1 404 0
 1036 0016 B4EEE70A 		fcmpes	s0, s15
 1037 001a F1EE10FA 		fmstat
 1038 001e F8D4     		bmi	.L184
 1039              	.L182:
 1040              		.loc 1 408 0
 1041 0020 DFED3E7A 		flds	s15, .L229+8
 1042 0024 B4EEE70A 		fcmpes	s0, s15
 1043 0028 F1EE10FA 		fmstat
 1044 002c 08DD     		ble	.L185
 1045              		.loc 1 409 0
 1046 002e 9FED3A7A 		flds	s14, .L229+4
 1047              	.L187:
 1048 0032 30EE470A 		fsubs	s0, s0, s14
 1049              	.LVL94:
 1050              		.loc 1 408 0
 1051 0036 B4EEE70A 		fcmpes	s0, s15
 1052 003a F1EE10FA 		fmstat
 1053 003e F8DC     		bgt	.L187
 1054              	.L185:
 1055              		.loc 1 414 0
 1056 0040 DFED377A 		flds	s15, .L229+12
 1057 0044 9FED377A 		flds	s14, .L229+16
 1058 0048 60EE277A 		fmuls	s15, s0, s15
 1059              		.loc 1 413 0
 1060 004c B5EEC00A 		fcmpezs	s0
 1061 0050 F1EE10FA 		fmstat
 1062              		.loc 1 414 0
 1063 0054 4CBF     		ite	mi
 1064 0056 67EE807A 		fmulsmi	s15, s15, s0
 1065 005a 60EE677A 		fnmulspl	s15, s0, s15
 1066              		.loc 1 422 0
 1067 005e E0EE077A 		vfma.f32	s15, s0, s14
 1068              		.loc 1 424 0
 1069 0062 F5EEC07A 		fcmpezs	s15
 1070 0066 F1EE10FA 		fmstat
 1071              		.loc 1 422 0
 1072 006a C0ED007A 		fsts	s15, [r0]
 1073              		.loc 1 424 0
 1074 006e 3BD4     		bmi	.L227
 1075              		.loc 1 427 0
 1076 0070 F0EE676A 		fcpys	s13, s15
 1077 0074 D7EEA76A 		vfnms.f32	s13, s15, s15
 1078 0078 9FED2B7A 		flds	s14, .L229+20
 1079 007c E6EE877A 		vfma.f32	s15, s13, s14
 1080 0080 C0ED007A 		fsts	s15, [r0]
 1081              	.L192:
 1082              		.loc 1 432 0
 1083 0084 9FED297A 		flds	s14, .L229+24
ARM GAS  /tmp/ccEw4uap.s 			page 20


 1084              		.loc 1 433 0
 1085 0088 DFED247A 		flds	s15, .L229+8
 1086              		.loc 1 432 0
 1087 008c 30EE070A 		fadds	s0, s0, s14
 1088              	.LVL95:
 1089              		.loc 1 438 0
 1090 0090 9FED247A 		flds	s14, .L229+16
 1091              		.loc 1 433 0
 1092 0094 B4EEE70A 		fcmpes	s0, s15
 1093 0098 F1EE10FA 		fmstat
 1094              		.loc 1 434 0
 1095 009c C4BF     		itt	gt
 1096 009e DFED1E7A 		fldsgt	s15, .L229+4
 1097 00a2 30EE670A 		fsubsgt	s0, s0, s15
 1098              	.LVL96:
 1099              		.loc 1 438 0
 1100 00a6 DFED1E7A 		flds	s15, .L229+12
 1101              		.loc 1 437 0
 1102 00aa B5EEC00A 		fcmpezs	s0
 1103              		.loc 1 438 0
 1104 00ae 60EE277A 		fmuls	s15, s0, s15
 1105              		.loc 1 437 0
 1106 00b2 F1EE10FA 		fmstat
 1107              		.loc 1 438 0
 1108 00b6 4CBF     		ite	mi
 1109 00b8 67EE807A 		fmulsmi	s15, s15, s0
 1110 00bc 60EE677A 		fnmulspl	s15, s0, s15
 1111              		.loc 1 446 0
 1112 00c0 E0EE077A 		vfma.f32	s15, s0, s14
 1113              		.loc 1 448 0
 1114 00c4 F5EEC07A 		fcmpezs	s15
 1115 00c8 F1EE10FA 		fmstat
 1116              		.loc 1 446 0
 1117 00cc C1ED007A 		fsts	s15, [r1]
 1118              		.loc 1 448 0
 1119 00d0 15D4     		bmi	.L228
 1120              		.loc 1 451 0
 1121 00d2 F0EE676A 		fcpys	s13, s15
 1122 00d6 D7EEA76A 		vfnms.f32	s13, s15, s15
 1123 00da 9FED137A 		flds	s14, .L229+20
 1124 00de E6EE877A 		vfma.f32	s15, s13, s14
 1125 00e2 C1ED007A 		fsts	s15, [r1]
 1126 00e6 7047     		bx	lr
 1127              	.L227:
 1128 00e8 B1EE677A 		fnegs	s14, s15
 1129              		.loc 1 425 0
 1130 00ec A7EE877A 		vfma.f32	s14, s15, s14
 1131 00f0 DFED0D6A 		flds	s13, .L229+20
 1132 00f4 E7EE267A 		vfma.f32	s15, s14, s13
 1133 00f8 C0ED007A 		fsts	s15, [r0]
 1134 00fc C2E7     		b	.L192
 1135              	.L228:
 1136 00fe B1EE677A 		fnegs	s14, s15
 1137              		.loc 1 449 0
 1138 0102 A7EE877A 		vfma.f32	s14, s15, s14
 1139 0106 DFED086A 		flds	s13, .L229+20
 1140 010a E7EE267A 		vfma.f32	s15, s14, s13
ARM GAS  /tmp/ccEw4uap.s 			page 21


 1141 010e C1ED007A 		fsts	s15, [r1]
 1142 0112 7047     		bx	lr
 1143              	.L230:
 1144              		.align	2
 1145              	.L229:
 1146 0114 DB0F49C0 		.word	3226013659
 1147 0118 DB0FC940 		.word	1086918619
 1148 011c DB0F4940 		.word	1078530011
 1149 0120 7B81CF3E 		.word	1053786491
 1150 0124 83F9A23F 		.word	1067645315
 1151 0128 6666663E 		.word	1046898278
 1152 012c DB0FC93F 		.word	1070141403
 1153              		.cfi_endproc
 1154              	.LFE273:
 1155              		.size	utils_fast_sincos_better, .-utils_fast_sincos_better
 1156              		.section	.text.utils_avg_angles_rad_fast,"ax",%progbits
 1157              		.align	2
 1158              		.p2align 4,,15
 1159              		.global	utils_avg_angles_rad_fast
 1160              		.thumb
 1161              		.thumb_func
 1162              		.type	utils_avg_angles_rad_fast, %function
 1163              	utils_avg_angles_rad_fast:
 1164              	.LFB266:
 1165              		.loc 1 187 0
 1166              		.cfi_startproc
 1167              		@ args = 0, pretend = 0, frame = 8
 1168              		@ frame_needed = 0, uses_anonymous_args = 0
 1169              	.LVL97:
 1170 0000 F0B5     		push	{r4, r5, r6, r7, lr}
 1171              		.cfi_def_cfa_offset 20
 1172              		.cfi_offset 4, -20
 1173              		.cfi_offset 5, -16
 1174              		.cfi_offset 6, -12
 1175              		.cfi_offset 7, -8
 1176              		.cfi_offset 14, -4
 1177 0002 2DED028B 		fstmfdd	sp!, {d8}
 1178              		.cfi_def_cfa_offset 28
 1179              		.cfi_offset 80, -28
 1180              		.cfi_offset 81, -24
 1181              	.LBB31:
 1182              		.loc 1 191 0
 1183 0006 002A     		cmp	r2, #0
 1184              	.LBE31:
 1185              		.loc 1 187 0
 1186 0008 83B0     		sub	sp, sp, #12
 1187              		.cfi_def_cfa_offset 40
 1188              	.LBB35:
 1189              		.loc 1 191 0
 1190 000a 25DD     		ble	.L234
 1191 000c 9FED158A 		flds	s16, .L237
 1192 0010 1746     		mov	r7, r2
 1193 0012 F0EE488A 		fcpys	s17, s16
 1194 0016 0646     		mov	r6, r0
 1195 0018 0D46     		mov	r5, r1
 1196 001a 0024     		movs	r4, #0
 1197              	.LVL98:
ARM GAS  /tmp/ccEw4uap.s 			page 22


 1198              	.L233:
 1199              	.LBB32:
 1200              		.loc 1 193 0 discriminator 3
 1201 001c B6EC010A 		fldmias	r6!, {s0}
 1202 0020 6846     		mov	r0, sp
 1203 0022 01A9     		add	r1, sp, #4
 1204 0024 FFF7FEFF 		bl	utils_fast_sincos_better
 1205              	.LVL99:
 1206              	.LBE32:
 1207              		.loc 1 191 0 discriminator 3
 1208 0028 0134     		adds	r4, r4, #1
 1209              	.LVL100:
 1210              	.LBB33:
 1211              		.loc 1 194 0 discriminator 3
 1212 002a F5EC017A 		fldmias	r5!, {s15}
 1213 002e DDED006A 		flds	s13, [sp]
 1214              		.loc 1 195 0 discriminator 3
 1215 0032 9DED017A 		flds	s14, [sp, #4]
 1216              	.LBE33:
 1217              		.loc 1 191 0 discriminator 3
 1218 0036 BC42     		cmp	r4, r7
 1219              	.LBB34:
 1220              		.loc 1 194 0 discriminator 3
 1221 0038 E7EEA68A 		vfma.f32	s17, s15, s13
 1222              	.LVL101:
 1223              		.loc 1 195 0 discriminator 3
 1224 003c A7EE878A 		vfma.f32	s16, s15, s14
 1225              	.LVL102:
 1226              	.LBE34:
 1227              		.loc 1 191 0 discriminator 3
 1228 0040 ECD1     		bne	.L233
 1229              	.LVL103:
 1230              	.L232:
 1231              	.LBE35:
 1232              		.loc 1 198 0
 1233 0042 B0EE680A 		fcpys	s0, s17
 1234 0046 F0EE480A 		fcpys	s1, s16
 1235              		.loc 1 199 0
 1236 004a 03B0     		add	sp, sp, #12
 1237              		.cfi_remember_state
 1238              		.cfi_def_cfa_offset 28
 1239              		@ sp needed
 1240 004c BDEC028B 		fldmfdd	sp!, {d8}
 1241              		.cfi_restore 80
 1242              		.cfi_restore 81
 1243              		.cfi_def_cfa_offset 20
 1244 0050 BDE8F040 		pop	{r4, r5, r6, r7, lr}
 1245              		.cfi_restore 14
 1246              		.cfi_restore 7
 1247              		.cfi_restore 6
 1248              		.cfi_restore 5
 1249              		.cfi_restore 4
 1250              		.cfi_def_cfa_offset 0
 1251              		.loc 1 198 0
 1252 0054 FFF7FEBF 		b	utils_fast_atan2
 1253              	.LVL104:
 1254              	.L234:
ARM GAS  /tmp/ccEw4uap.s 			page 23


 1255              		.cfi_restore_state
 1256              		.loc 1 189 0
 1257 0058 9FED028A 		flds	s16, .L237
 1258              		.loc 1 188 0
 1259 005c F0EE488A 		fcpys	s17, s16
 1260 0060 EFE7     		b	.L232
 1261              	.L238:
 1262 0062 00BF     		.align	2
 1263              	.L237:
 1264 0064 00000000 		.word	0
 1265              		.cfi_endproc
 1266              	.LFE266:
 1267              		.size	utils_avg_angles_rad_fast, .-utils_avg_angles_rad_fast
 1268              		.section	.text.utils_sys_lock_cnt,"ax",%progbits
 1269              		.align	2
 1270              		.p2align 4,,15
 1271              		.global	utils_sys_lock_cnt
 1272              		.thumb
 1273              		.thumb_func
 1274              		.type	utils_sys_lock_cnt, %function
 1275              	utils_sys_lock_cnt:
 1276              	.LFB274:
 1277              		.loc 1 462 0
 1278              		.cfi_startproc
 1279              		@ args = 0, pretend = 0, frame = 0
 1280              		@ frame_needed = 0, uses_anonymous_args = 0
 1281              		@ link register save eliminated.
 1282              		.loc 1 463 0
 1283 0000 044B     		ldr	r3, .L241
 1284 0002 1A68     		ldr	r2, [r3]
 1285 0004 12B9     		cbnz	r2, .L240
 1286              	.LVL105:
 1287              	.LBB36:
 1288              	.LBB37:
 1289              	.LBB38:
 1290              	.LBB39:
 1291              		.file 2 "ChibiOS_3.0.2/os/ext/CMSIS/include/core_cmFunc.h"
 1292              		.loc 2 546 0
 1293 0006 2022     		movs	r2, #32
 1294              	@ 546 "ChibiOS_3.0.2/os/ext/CMSIS/include/core_cmFunc.h" 1
 1295 0008 82F31188 		MSR basepri, r2
 1296              	@ 0 "" 2
 1297              	.LVL106:
 1298              		.thumb
 1299              	.L240:
 1300              	.LBE39:
 1301              	.LBE38:
 1302              	.LBE37:
 1303              	.LBE36:
 1304              		.loc 1 466 0
 1305 000c 1A68     		ldr	r2, [r3]
 1306 000e 0132     		adds	r2, r2, #1
 1307 0010 1A60     		str	r2, [r3]
 1308 0012 7047     		bx	lr
 1309              	.L242:
 1310              		.align	2
 1311              	.L241:
ARM GAS  /tmp/ccEw4uap.s 			page 24


 1312 0014 00000000 		.word	.LANCHOR0
 1313              		.cfi_endproc
 1314              	.LFE274:
 1315              		.size	utils_sys_lock_cnt, .-utils_sys_lock_cnt
 1316              		.section	.text.utils_sys_unlock_cnt,"ax",%progbits
 1317              		.align	2
 1318              		.p2align 4,,15
 1319              		.global	utils_sys_unlock_cnt
 1320              		.thumb
 1321              		.thumb_func
 1322              		.type	utils_sys_unlock_cnt, %function
 1323              	utils_sys_unlock_cnt:
 1324              	.LFB275:
 1325              		.loc 1 475 0
 1326              		.cfi_startproc
 1327              		@ args = 0, pretend = 0, frame = 0
 1328              		@ frame_needed = 0, uses_anonymous_args = 0
 1329              		@ link register save eliminated.
 1330              		.loc 1 476 0
 1331 0000 054B     		ldr	r3, .L247
 1332 0002 1A68     		ldr	r2, [r3]
 1333 0004 32B1     		cbz	r2, .L243
 1334              		.loc 1 477 0
 1335 0006 1A68     		ldr	r2, [r3]
 1336 0008 013A     		subs	r2, r2, #1
 1337 000a 1A60     		str	r2, [r3]
 1338              		.loc 1 478 0
 1339 000c 1B68     		ldr	r3, [r3]
 1340 000e 0BB9     		cbnz	r3, .L243
 1341              	.LVL107:
 1342              	.LBB40:
 1343              	.LBB41:
 1344              	.LBB42:
 1345              	.LBB43:
 1346              	.LBB44:
 1347              		.loc 2 546 0
 1348              	@ 546 "ChibiOS_3.0.2/os/ext/CMSIS/include/core_cmFunc.h" 1
 1349 0010 83F31188 		MSR basepri, r3
 1350              	@ 0 "" 2
 1351              	.LVL108:
 1352              		.thumb
 1353              	.L243:
 1354 0014 7047     		bx	lr
 1355              	.L248:
 1356 0016 00BF     		.align	2
 1357              	.L247:
 1358 0018 00000000 		.word	.LANCHOR0
 1359              	.LBE44:
 1360              	.LBE43:
 1361              	.LBE42:
 1362              	.LBE41:
 1363              	.LBE40:
 1364              		.cfi_endproc
 1365              	.LFE275:
 1366              		.size	utils_sys_unlock_cnt, .-utils_sys_unlock_cnt
 1367              		.section	.bss.sys_lock_cnt,"aw",%nobits
 1368              		.align	2
ARM GAS  /tmp/ccEw4uap.s 			page 25


 1369              		.set	.LANCHOR0,. + 0
 1370              		.type	sys_lock_cnt, %object
 1371              		.size	sys_lock_cnt, 4
 1372              	sys_lock_cnt:
 1373 0000 00000000 		.space	4
 1374              		.text
 1375              	.Letext0:
 1376              		.file 3 "/usr/lib/gcc/arm-none-eabi/4.9.3/include/stddef.h"
 1377              		.file 4 "/usr/arm-none-eabi/include/machine/_default_types.h"
 1378              		.file 5 "/usr/arm-none-eabi/include/sys/_stdint.h"
 1379              		.file 6 "ChibiOS_3.0.2/os/rt/ports/ARMCMx/compilers/GCC/chtypes.h"
 1380              		.file 7 "ChibiOS_3.0.2/os/rt/include/chsystypes.h"
 1381              		.file 8 "ChibiOS_3.0.2/os/rt/include/chschd.h"
 1382              		.file 9 "ChibiOS_3.0.2/os/rt/ports/ARMCMx/chcore.h"
 1383              		.file 10 "ChibiOS_3.0.2/os/rt/ports/ARMCMx/chcore_v7m.h"
 1384              		.file 11 "ChibiOS_3.0.2/os/rt/include/chtm.h"
 1385              		.file 12 "ChibiOS_3.0.2/os/rt/include/chsem.h"
 1386              		.file 13 "ChibiOS_3.0.2/os/rt/include/chmtx.h"
 1387              		.file 14 "ChibiOS_3.0.2/os/rt/include/chsys.h"
 1388              		.file 15 "ChibiOS_3.0.2/os/ext/CMSIS/include/core_cm4.h"
 1389              		.file 16 "/usr/arm-none-eabi/include/math.h"