ARM GAS  /tmp/ccHJWgK9.s 			page 1


   1              		.syntax unified
   2              		.cpu cortex-m4
   3              		.eabi_attribute 27, 1
   4              		.eabi_attribute 28, 1
   5              		.fpu fpv4-sp-d16
   6              		.eabi_attribute 20, 1
   7              		.eabi_attribute 21, 1
   8              		.eabi_attribute 23, 3
   9              		.eabi_attribute 24, 1
  10              		.eabi_attribute 25, 1
  11              		.eabi_attribute 26, 1
  12              		.eabi_attribute 30, 2
  13              		.eabi_attribute 34, 1
  14              		.eabi_attribute 18, 4
  15              		.thumb
  16              		.file	"ws2811.c"
  17              		.text
  18              	.Ltext0:
  19              		.cfi_sections	.debug_frame
  20              		.section	.text.ws2811_init,"ax",%progbits
  21              		.align	2
  22              		.p2align 4,,15
  23              		.global	ws2811_init
  24              		.thumb
  25              		.thumb_func
  26              		.type	ws2811_init, %function
  27              	ws2811_init:
  28              	.LFB256:
  29              		.file 1 "ws2811.c"
  30              		.loc 1 47 0
  31              		.cfi_startproc
  32              		@ args = 0, pretend = 0, frame = 96
  33              		@ frame_needed = 0, uses_anonymous_args = 0
  34              	.LVL0:
  35 0000 2DE9F047 		push	{r4, r5, r6, r7, r8, r9, r10, lr}
  36              		.cfi_def_cfa_offset 32
  37              		.cfi_offset 4, -32
  38              		.cfi_offset 5, -28
  39              		.cfi_offset 6, -24
  40              		.cfi_offset 7, -20
  41              		.cfi_offset 8, -16
  42              		.cfi_offset 9, -12
  43              		.cfi_offset 10, -8
  44              		.cfi_offset 14, -4
  45 0004 2DED028B 		fstmfdd	sp!, {d8}
  46              		.cfi_def_cfa_offset 40
  47              		.cfi_offset 80, -40
  48              		.cfi_offset 81, -36
  49 0008 624E     		ldr	r6, .L16
  50 000a 98B0     		sub	sp, sp, #96
  51              		.cfi_def_cfa_offset 136
  52              		.loc 1 56 0
  53 000c 0021     		movs	r1, #0
  54 000e 06F17402 		add	r2, r6, #116
  55              		.loc 1 47 0
  56 0012 3346     		mov	r3, r6
  57              	.LVL1:
ARM GAS  /tmp/ccHJWgK9.s 			page 2


  58              	.L2:
  59              		.loc 1 56 0 discriminator 3
  60 0014 43F8041F 		str	r1, [r3, #4]!
  61              		.loc 1 55 0 discriminator 3
  62 0018 9342     		cmp	r3, r2
  63 001a FBD1     		bne	.L2
  64 001c 5E49     		ldr	r1, .L16+4
  65 001e 5F4D     		ldr	r5, .L16+8
  66 0020 01F5AE67 		add	r7, r1, #1392
  67              	.LBB12:
  68              		.loc 1 66 0
  69 0024 1424     		movs	r4, #20
  70              		.loc 1 64 0
  71 0026 5320     		movs	r0, #83
  72              	.L6:
  73              		.loc 1 60 0
  74 0028 56F8043F 		ldr	r3, [r6, #4]!
  75              	.LVL2:
  76              	.LBB13:
  77              	.LBB14:
  78              		.loc 1 230 0
  79 002c C3F30742 		ubfx	r2, r3, #16, #8
  80              		.loc 1 231 0
  81 0030 C3F3072E 		ubfx	lr, r3, #8, #8
  82              		.loc 1 234 0
  83 0034 AA5C     		ldrb	r2, [r5, r2]	@ zero_extendqisi2
  84              	.LVL3:
  85              		.loc 1 235 0
  86 0036 15F80EE0 		ldrb	lr, [r5, lr]	@ zero_extendqisi2
  87              	.LVL4:
  88              		.loc 1 232 0
  89 003a DBB2     		uxtb	r3, r3
  90              	.LVL5:
  91              		.loc 1 238 0
  92 003c 1202     		lsls	r2, r2, #8
  93              	.LVL6:
  94              		.loc 1 236 0
  95 003e EB5C     		ldrb	r3, [r5, r3]	@ zero_extendqisi2
  96              	.LVL7:
  97              		.loc 1 238 0
  98 0040 42EA0E42 		orr	r2, r2, lr, lsl #16
  99 0044 1A43     		orrs	r2, r2, r3
 100              	.LVL8:
 101 0046 A1F13003 		sub	r3, r1, #48
 102              	.LVL9:
 103              	.L5:
 104              	.LBE14:
 105              	.LBE13:
 106              		.loc 1 63 0
 107 004a 12F4000F 		tst	r2, #8388608
 108              		.loc 1 64 0
 109 004e 14BF     		ite	ne
 110 0050 1880     		strhne	r0, [r3]	@ movhi
 111              		.loc 1 66 0
 112 0052 1C80     		strheq	r4, [r3]	@ movhi
 113 0054 0233     		adds	r3, r3, #2
 114              		.loc 1 62 0
ARM GAS  /tmp/ccHJWgK9.s 			page 3


 115 0056 9942     		cmp	r1, r3
 116              		.loc 1 68 0
 117 0058 4FEA4202 		lsl	r2, r2, #1
 118              	.LVL10:
 119              		.loc 1 62 0
 120 005c F5D1     		bne	.L5
 121 005e 3031     		adds	r1, r1, #48
 122              	.LBE12:
 123              		.loc 1 59 0 discriminator 2
 124 0060 B942     		cmp	r1, r7
 125 0062 E1D1     		bne	.L6
 126 0064 4E4B     		ldr	r3, .L16+12
 127              		.loc 1 75 0
 128 0066 0021     		movs	r1, #0
 129 0068 03F16402 		add	r2, r3, #100
 130              	.LVL11:
 131              	.L7:
 132              		.loc 1 75 0 is_stmt 0 discriminator 3
 133 006c 23F8021F 		strh	r1, [r3, #2]!	@ movhi
 134              		.loc 1 74 0 is_stmt 1 discriminator 3
 135 0070 9342     		cmp	r3, r2
 136 0072 FBD1     		bne	.L7
 137 0074 4B4D     		ldr	r5, .L16+16
 138              	.LVL12:
 139              	.LBB15:
 140              		.loc 1 80 0
 141 0076 9FED4C8A 		flds	s16, .L16+20
 142              	.LBE15:
 143              		.loc 1 74 0
 144 007a 0024     		movs	r4, #0
 145              	.LVL13:
 146              	.L8:
 147              	.LBB16:
 148              		.loc 1 80 0 discriminator 3
 149 007c 07EE904A 		fmsr	s15, r4	@ int
 150 0080 B8EEE70A 		fsitos	s0, s15
 151 0084 DFED490A 		flds	s1, .L16+24
 152 0088 80EE080A 		fdivs	s0, s0, s16
 153 008c FFF7FEFF 		bl	powf
 154              	.LVL14:
 155              		.loc 1 79 0 discriminator 3
 156 0090 0134     		adds	r4, r4, #1
 157              	.LVL15:
 158              		.loc 1 80 0 discriminator 3
 159 0092 20EE080A 		fmuls	s0, s0, s16
 160 0096 FFF7FEFF 		bl	roundf
 161              	.LVL16:
 162 009a FDEEC07A 		ftosizs	s15, s0
 163              		.loc 1 79 0 discriminator 3
 164 009e B4F5807F 		cmp	r4, #256
 165              		.loc 1 80 0 discriminator 3
 166 00a2 17EE903A 		fmrs	r3, s15	@ int
 167 00a6 05F8013F 		strb	r3, [r5, #1]!
 168              		.loc 1 79 0 discriminator 3
 169 00aa E7D1     		bne	.L8
 170              	.LBE16:
 171              		.loc 1 84 0
ARM GAS  /tmp/ccHJWgK9.s 			page 4


 172 00ac 4FF48772 		mov	r2, #270
 173 00b0 3F48     		ldr	r0, .L16+28
 174              		.loc 1 106 0
 175 00b2 404F     		ldr	r7, .L16+32
 176              		.loc 1 100 0
 177 00b4 DFF808A1 		ldr	r10, .L16+44
 178              		.loc 1 84 0
 179 00b8 8021     		movs	r1, #128
 180 00ba FFF7FEFF 		bl	_pal_lld_setgroupmode
 181              	.LVL17:
 182              		.loc 1 96 0
 183 00be 0121     		movs	r1, #1
 184 00c0 4FF40010 		mov	r0, #2097152
 185 00c4 FFF7FEFF 		bl	RCC_AHB1PeriphClockCmd
 186              	.LVL18:
 187              		.loc 1 99 0
 188 00c8 3B48     		ldr	r0, .L16+36
 189 00ca FFF7FEFF 		bl	DMA_DeInit
 190              	.LVL19:
 191              		.loc 1 109 0
 192 00ce 0025     		movs	r5, #0
 193              		.loc 1 108 0
 194 00d0 40F2EA2C 		movw	ip, #746
 195              		.loc 1 111 0
 196 00d4 4FF4006E 		mov	lr, #2048
 197              		.loc 1 114 0
 198 00d8 4FF40032 		mov	r2, #131072
 199              		.loc 1 116 0
 200 00dc 0323     		movs	r3, #3
 201              		.loc 1 113 0
 202 00de 1294     		str	r4, [sp, #72]
 203              		.loc 1 110 0
 204 00e0 4FF48066 		mov	r6, #1024
 205              		.loc 1 121 0
 206 00e4 09A9     		add	r1, sp, #36
 207 00e6 3448     		ldr	r0, .L16+36
 208              		.loc 1 108 0
 209 00e8 CDF834C0 		str	ip, [sp, #52]
 210              		.loc 1 105 0
 211 00ec 4FF08069 		mov	r9, #67108864
 212              		.loc 1 107 0
 213 00f0 4FF04008 		mov	r8, #64
 214              		.loc 1 112 0
 215 00f4 4FF40054 		mov	r4, #8192
 216              	.LVL20:
 217              		.loc 1 111 0
 218 00f8 CDF840E0 		str	lr, [sp, #64]
 219              		.loc 1 114 0
 220 00fc 1392     		str	r2, [sp, #76]
 221              		.loc 1 116 0
 222 00fe 1593     		str	r3, [sp, #84]
 223              		.loc 1 112 0
 224 0100 1194     		str	r4, [sp, #68]
 225              		.loc 1 100 0
 226 0102 CDF828A0 		str	r10, [sp, #40]
 227              		.loc 1 105 0
 228 0106 CDF82490 		str	r9, [sp, #36]
ARM GAS  /tmp/ccHJWgK9.s 			page 5


 229              		.loc 1 106 0
 230 010a 0B97     		str	r7, [sp, #44]
 231              		.loc 1 107 0
 232 010c CDF83080 		str	r8, [sp, #48]
 233              		.loc 1 109 0
 234 0110 0E95     		str	r5, [sp, #56]
 235              		.loc 1 115 0
 236 0112 1495     		str	r5, [sp, #80]
 237              		.loc 1 117 0
 238 0114 1695     		str	r5, [sp, #88]
 239              		.loc 1 118 0
 240 0116 1795     		str	r5, [sp, #92]
 241              		.loc 1 110 0
 242 0118 0F96     		str	r6, [sp, #60]
 243              		.loc 1 121 0
 244 011a FFF7FEFF 		bl	DMA_Init
 245              	.LVL21:
 246              		.loc 1 126 0
 247 011e 0420     		movs	r0, #4
 248 0120 0121     		movs	r1, #1
 249 0122 FFF7FEFF 		bl	RCC_APB1PeriphClockCmd
 250              	.LVL22:
 251              		.loc 1 131 0
 252 0126 6823     		movs	r3, #104
 253              		.loc 1 135 0
 254 0128 01A9     		add	r1, sp, #4
 255 012a 2448     		ldr	r0, .L16+40
 256              		.loc 1 131 0
 257 012c 0293     		str	r3, [sp, #8]
 258              		.loc 1 139 0
 259 012e 0124     		movs	r4, #1
 260              		.loc 1 129 0
 261 0130 ADF80450 		strh	r5, [sp, #4]	@ movhi
 262              		.loc 1 130 0
 263 0134 ADF80650 		strh	r5, [sp, #6]	@ movhi
 264              		.loc 1 132 0
 265 0138 ADF80C50 		strh	r5, [sp, #12]	@ movhi
 266              		.loc 1 133 0
 267 013c 8DF80E50 		strb	r5, [sp, #14]
 268              		.loc 1 135 0
 269 0140 FFF7FEFF 		bl	TIM_TimeBaseInit
 270              	.LVL23:
 271              		.loc 1 138 0
 272 0144 6023     		movs	r3, #96
 273              		.loc 1 140 0
 274 0146 3A88     		ldrh	r2, [r7]
 275              		.loc 1 144 0
 276 0148 1C48     		ldr	r0, .L16+40
 277              		.loc 1 138 0
 278 014a ADF81030 		strh	r3, [sp, #16]	@ movhi
 279              		.loc 1 144 0
 280 014e 04A9     		add	r1, sp, #16
 281              		.loc 1 140 0
 282 0150 0692     		str	r2, [sp, #24]
 283              		.loc 1 141 0
 284 0152 ADF81C50 		strh	r5, [sp, #28]	@ movhi
 285              		.loc 1 139 0
ARM GAS  /tmp/ccHJWgK9.s 			page 6


 286 0156 ADF81240 		strh	r4, [sp, #18]	@ movhi
 287              		.loc 1 144 0
 288 015a FFF7FEFF 		bl	TIM_OC2Init
 289              	.LVL24:
 290              		.loc 1 145 0
 291 015e 1748     		ldr	r0, .L16+40
 292 0160 0821     		movs	r1, #8
 293 0162 FFF7FEFF 		bl	TIM_OC2PreloadConfig
 294              	.LVL25:
 295              		.loc 1 152 0
 296 0166 2146     		mov	r1, r4
 297 0168 1448     		ldr	r0, .L16+40
 298 016a FFF7FEFF 		bl	TIM_Cmd
 299              	.LVL26:
 300              		.loc 1 156 0
 301 016e 2146     		mov	r1, r4
 302 0170 1148     		ldr	r0, .L16+36
 303 0172 FFF7FEFF 		bl	DMA_Cmd
 304              	.LVL27:
 305              		.loc 1 163 0
 306 0176 3146     		mov	r1, r6
 307 0178 2246     		mov	r2, r4
 308 017a 1048     		ldr	r0, .L16+40
 309 017c FFF7FEFF 		bl	TIM_DMACmd
 310              	.LVL28:
 311              		.loc 1 169 0
 312 0180 2146     		mov	r1, r4
 313 0182 0E48     		ldr	r0, .L16+40
 314 0184 FFF7FEFF 		bl	TIM_CtrlPWMOutputs
 315              	.LVL29:
 316              		.loc 1 170 0
 317 0188 18B0     		add	sp, sp, #96
 318              		.cfi_def_cfa_offset 40
 319              		@ sp needed
 320 018a BDEC028B 		fldmfdd	sp!, {d8}
 321              		.cfi_restore 80
 322              		.cfi_restore 81
 323              		.cfi_def_cfa_offset 32
 324 018e BDE8F087 		pop	{r4, r5, r6, r7, r8, r9, r10, pc}
 325              	.L17:
 326 0192 00BF     		.align	2
 327              	.L16:
 328 0194 FCFFFFFF 		.word	.LANCHOR0-4
 329 0198 30000000 		.word	.LANCHOR1+48
 330 019c 00000000 		.word	.LANCHOR2
 331 01a0 6C050000 		.word	.LANCHOR1+1388
 332 01a4 FFFFFFFF 		.word	.LANCHOR2-1
 333 01a8 00007F43 		.word	1132396544
 334 01ac E4380E40 		.word	1074673892
 335 01b0 00040240 		.word	1073873920
 336 01b4 00000000 		.word	.LANCHOR1
 337 01b8 58600240 		.word	1073897560
 338 01bc 00080040 		.word	1073743872
 339 01c0 38080040 		.word	1073743928
 340              		.cfi_endproc
 341              	.LFE256:
 342              		.size	ws2811_init, .-ws2811_init
ARM GAS  /tmp/ccHJWgK9.s 			page 7


 343              		.section	.text.ws2811_set_led_color,"ax",%progbits
 344              		.align	2
 345              		.p2align 4,,15
 346              		.global	ws2811_set_led_color
 347              		.thumb
 348              		.thumb_func
 349              		.type	ws2811_set_led_color, %function
 350              	ws2811_set_led_color:
 351              	.LFB257:
 352              		.loc 1 172 0
 353              		.cfi_startproc
 354              		@ args = 0, pretend = 0, frame = 0
 355              		@ frame_needed = 0, uses_anonymous_args = 0
 356              		@ link register save eliminated.
 357              	.LVL30:
 358              		.loc 1 173 0
 359 0000 1B28     		cmp	r0, #27
 360 0002 24DC     		bgt	.L27
 361              		.loc 1 172 0
 362 0004 30B4     		push	{r4, r5}
 363              		.cfi_def_cfa_offset 8
 364              		.cfi_offset 4, -8
 365              		.cfi_offset 5, -4
 366              	.LBB17:
 367              		.loc 1 174 0
 368 0006 124A     		ldr	r2, .L28
 369              	.LBB18:
 370              	.LBB19:
 371              		.loc 1 234 0
 372 0008 124C     		ldr	r4, .L28+4
 373              	.LBE19:
 374              	.LBE18:
 375              		.loc 1 174 0
 376 000a 42F82010 		str	r1, [r2, r0, lsl #2]
 377              	.LVL31:
 378              	.LBB22:
 379              	.LBB20:
 380              		.loc 1 230 0
 381 000e C1F30742 		ubfx	r2, r1, #16, #8
 382              		.loc 1 231 0
 383 0012 C1F30725 		ubfx	r5, r1, #8, #8
 384              		.loc 1 234 0
 385 0016 A25C     		ldrb	r2, [r4, r2]	@ zero_extendqisi2
 386              	.LVL32:
 387              		.loc 1 235 0
 388 0018 655D     		ldrb	r5, [r4, r5]	@ zero_extendqisi2
 389              	.LVL33:
 390 001a 0F4B     		ldr	r3, .L28+8
 391              		.loc 1 232 0
 392 001c C9B2     		uxtb	r1, r1
 393              	.LVL34:
 394              	.LBE20:
 395              	.LBE22:
 396              		.loc 1 181 0
 397 001e 00EB4000 		add	r0, r0, r0, lsl #1
 398              	.LVL35:
 399              	.LBB23:
ARM GAS  /tmp/ccHJWgK9.s 			page 8


 400              	.LBB21:
 401              		.loc 1 236 0
 402 0022 615C     		ldrb	r1, [r4, r1]	@ zero_extendqisi2
 403              	.LVL36:
 404 0024 0001     		lsls	r0, r0, #4
 405              		.loc 1 238 0
 406 0026 1202     		lsls	r2, r2, #8
 407              	.LVL37:
 408 0028 00F13004 		add	r4, r0, #48
 409              	.LVL38:
 410 002c 42EA0542 		orr	r2, r2, r5, lsl #16
 411 0030 0A43     		orrs	r2, r2, r1
 412              	.LVL39:
 413 0032 1919     		adds	r1, r3, r4
 414              	.LVL40:
 415 0034 0344     		add	r3, r3, r0
 416              	.LBE21:
 417              	.LBE23:
 418              		.loc 1 183 0
 419 0036 1424     		movs	r4, #20
 420              		.loc 1 181 0
 421 0038 5320     		movs	r0, #83
 422              	.LVL41:
 423              	.L22:
 424              		.loc 1 180 0
 425 003a 1502     		lsls	r5, r2, #8
 426              		.loc 1 181 0
 427 003c 4CBF     		ite	mi
 428 003e 1880     		strhmi	r0, [r3]	@ movhi
 429              		.loc 1 183 0
 430 0040 1C80     		strhpl	r4, [r3]	@ movhi
 431 0042 0233     		adds	r3, r3, #2
 432              		.loc 1 179 0
 433 0044 8B42     		cmp	r3, r1
 434              		.loc 1 185 0
 435 0046 4FEA4202 		lsl	r2, r2, #1
 436              	.LVL42:
 437              		.loc 1 179 0
 438 004a F6D1     		bne	.L22
 439              	.LBE17:
 440              		.loc 1 188 0
 441 004c 30BC     		pop	{r4, r5}
 442              		.cfi_restore 5
 443              		.cfi_restore 4
 444              		.cfi_def_cfa_offset 0
 445              	.LVL43:
 446              	.L27:
 447 004e 7047     		bx	lr
 448              	.L29:
 449              		.align	2
 450              	.L28:
 451 0050 00000000 		.word	.LANCHOR0
 452 0054 00000000 		.word	.LANCHOR2
 453 0058 00000000 		.word	.LANCHOR1
 454              		.cfi_endproc
 455              	.LFE257:
 456              		.size	ws2811_set_led_color, .-ws2811_set_led_color
ARM GAS  /tmp/ccHJWgK9.s 			page 9


 457              		.section	.text.ws2811_get_led_color,"ax",%progbits
 458              		.align	2
 459              		.p2align 4,,15
 460              		.global	ws2811_get_led_color
 461              		.thumb
 462              		.thumb_func
 463              		.type	ws2811_get_led_color, %function
 464              	ws2811_get_led_color:
 465              	.LFB258:
 466              		.loc 1 190 0
 467              		.cfi_startproc
 468              		@ args = 0, pretend = 0, frame = 0
 469              		@ frame_needed = 0, uses_anonymous_args = 0
 470              		@ link register save eliminated.
 471              	.LVL44:
 472              		.loc 1 191 0
 473 0000 1B28     		cmp	r0, #27
 474              		.loc 1 192 0
 475 0002 DABF     		itte	le
 476 0004 024B     		ldrle	r3, .L33
 477 0006 53F82000 		ldrle	r0, [r3, r0, lsl #2]
 478              	.LVL45:
 479              		.loc 1 195 0
 480 000a 0020     		movgt	r0, #0
 481              		.loc 1 196 0
 482 000c 7047     		bx	lr
 483              	.L34:
 484 000e 00BF     		.align	2
 485              	.L33:
 486 0010 00000000 		.word	.LANCHOR0
 487              		.cfi_endproc
 488              	.LFE258:
 489              		.size	ws2811_get_led_color, .-ws2811_get_led_color
 490              		.section	.text.ws2811_all_off,"ax",%progbits
 491              		.align	2
 492              		.p2align 4,,15
 493              		.global	ws2811_all_off
 494              		.thumb
 495              		.thumb_func
 496              		.type	ws2811_all_off, %function
 497              	ws2811_all_off:
 498              	.LFB259:
 499              		.loc 1 198 0
 500              		.cfi_startproc
 501              		@ args = 0, pretend = 0, frame = 0
 502              		@ frame_needed = 0, uses_anonymous_args = 0
 503              		@ link register save eliminated.
 504              	.LVL46:
 505 0000 084B     		ldr	r3, .L40
 506              		.loc 1 202 0
 507 0002 0021     		movs	r1, #0
 508 0004 03F17002 		add	r2, r3, #112
 509              	.LVL47:
 510              	.L36:
 511              		.loc 1 202 0 is_stmt 0 discriminator 3
 512 0008 43F8041F 		str	r1, [r3, #4]!
 513              		.loc 1 201 0 is_stmt 1 discriminator 3
ARM GAS  /tmp/ccHJWgK9.s 			page 10


 514 000c 9342     		cmp	r3, r2
 515 000e FBD1     		bne	.L36
 516 0010 054B     		ldr	r3, .L40+4
 517              		.loc 1 206 0
 518 0012 1421     		movs	r1, #20
 519 0014 03F5A862 		add	r2, r3, #1344
 520              	.L37:
 521              		.loc 1 206 0 is_stmt 0 discriminator 3
 522 0018 23F8021F 		strh	r1, [r3, #2]!	@ movhi
 523              		.loc 1 205 0 is_stmt 1 discriminator 3
 524 001c 9342     		cmp	r3, r2
 525 001e FBD1     		bne	.L37
 526              		.loc 1 208 0
 527 0020 7047     		bx	lr
 528              	.L41:
 529 0022 00BF     		.align	2
 530              	.L40:
 531 0024 FCFFFFFF 		.word	.LANCHOR0-4
 532 0028 FEFFFFFF 		.word	.LANCHOR1-2
 533              		.cfi_endproc
 534              	.LFE259:
 535              		.size	ws2811_all_off, .-ws2811_all_off
 536              		.section	.text.ws2811_set_all,"ax",%progbits
 537              		.align	2
 538              		.p2align 4,,15
 539              		.global	ws2811_set_all
 540              		.thumb
 541              		.thumb_func
 542              		.type	ws2811_set_all, %function
 543              	ws2811_set_all:
 544              	.LFB260:
 545              		.loc 1 210 0
 546              		.cfi_startproc
 547              		@ args = 0, pretend = 0, frame = 0
 548              		@ frame_needed = 0, uses_anonymous_args = 0
 549              	.LVL48:
 550 0000 F0B5     		push	{r4, r5, r6, r7, lr}
 551              		.cfi_def_cfa_offset 20
 552              		.cfi_offset 4, -20
 553              		.cfi_offset 5, -16
 554              		.cfi_offset 6, -12
 555              		.cfi_offset 7, -8
 556              		.cfi_offset 14, -4
 557 0002 134B     		ldr	r3, .L50
 558 0004 1349     		ldr	r1, .L50+4
 559 0006 144E     		ldr	r6, .L50+8
 560 0008 C0F30742 		ubfx	r2, r0, #16, #8
 561 000c C0F30725 		ubfx	r5, r0, #8, #8
 562 0010 9A5C     		ldrb	r2, [r3, r2]	@ zero_extendqisi2
 563 0012 5F5D     		ldrb	r7, [r3, r5]	@ zero_extendqisi2
 564 0014 C4B2     		uxtb	r4, r0
 565 0016 1202     		lsls	r2, r2, #8
 566 0018 1B5D     		ldrb	r3, [r3, r4]	@ zero_extendqisi2
 567 001a 42EA0747 		orr	r7, r2, r7, lsl #16
 568 001e 1F43     		orrs	r7, r7, r3
 569 0020 01F5A86E 		add	lr, r1, #1344
 570              	.LBB24:
ARM GAS  /tmp/ccHJWgK9.s 			page 11


 571              		.loc 1 222 0
 572 0024 1425     		movs	r5, #20
 573              		.loc 1 220 0
 574 0026 5324     		movs	r4, #83
 575              	.LVL49:
 576              	.L46:
 577              		.loc 1 214 0
 578 0028 46F8040F 		str	r0, [r6, #4]!
 579              	.LVL50:
 580 002c A1F13003 		sub	r3, r1, #48
 581              		.loc 1 216 0
 582 0030 3A46     		mov	r2, r7
 583              	.LVL51:
 584              	.L45:
 585              		.loc 1 219 0
 586 0032 12F4000F 		tst	r2, #8388608
 587              		.loc 1 220 0
 588 0036 14BF     		ite	ne
 589 0038 1C80     		strhne	r4, [r3]	@ movhi
 590              		.loc 1 222 0
 591 003a 1D80     		strheq	r5, [r3]	@ movhi
 592 003c 0233     		adds	r3, r3, #2
 593              		.loc 1 218 0
 594 003e 9942     		cmp	r1, r3
 595              		.loc 1 224 0
 596 0040 4FEA4202 		lsl	r2, r2, #1
 597              	.LVL52:
 598              		.loc 1 218 0
 599 0044 F5D1     		bne	.L45
 600 0046 3031     		adds	r1, r1, #48
 601              	.LBE24:
 602              		.loc 1 213 0 discriminator 2
 603 0048 7145     		cmp	r1, lr
 604 004a EDD1     		bne	.L46
 605              		.loc 1 227 0
 606 004c F0BD     		pop	{r4, r5, r6, r7, pc}
 607              	.L51:
 608 004e 00BF     		.align	2
 609              	.L50:
 610 0050 00000000 		.word	.LANCHOR2
 611 0054 30000000 		.word	.LANCHOR1+48
 612 0058 FCFFFFFF 		.word	.LANCHOR0-4
 613              		.cfi_endproc
 614              	.LFE260:
 615              		.size	ws2811_set_all, .-ws2811_set_all
 616              		.section	.bss.RGBdata,"aw",%nobits
 617              		.align	2
 618              		.set	.LANCHOR0,. + 0
 619              		.type	RGBdata, %object
 620              		.size	RGBdata, 116
 621              	RGBdata:
 622 0000 00000000 		.space	116
 622      00000000 
 622      00000000 
 622      00000000 
 622      00000000 
 623              		.section	.bss.bitbuffer,"aw",%nobits
ARM GAS  /tmp/ccHJWgK9.s 			page 12


 624              		.align	2
 625              		.set	.LANCHOR1,. + 0
 626              		.type	bitbuffer, %object
 627              		.size	bitbuffer, 1492
 628              	bitbuffer:
 629 0000 00000000 		.space	1492
 629      00000000 
 629      00000000 
 629      00000000 
 629      00000000 
 630              		.section	.bss.gamma_table,"aw",%nobits
 631              		.align	2
 632              		.set	.LANCHOR2,. + 0
 633              		.type	gamma_table, %object
 634              		.size	gamma_table, 256
 635              	gamma_table:
 636 0000 00000000 		.space	256
 636      00000000 
 636      00000000 
 636      00000000 
 636      00000000 
 637              		.text
 638              	.Letext0:
 639              		.file 2 "/usr/lib/gcc/arm-none-eabi/4.9.3/include/stddef.h"
 640              		.file 3 "/usr/arm-none-eabi/include/machine/_default_types.h"
 641              		.file 4 "/usr/arm-none-eabi/include/sys/_stdint.h"
 642              		.file 5 "ChibiOS_3.0.2/os/rt/ports/ARMCMx/compilers/GCC/chtypes.h"
 643              		.file 6 "ChibiOS_3.0.2/os/rt/include/chsystypes.h"
 644              		.file 7 "ChibiOS_3.0.2/os/rt/include/chschd.h"
 645              		.file 8 "ChibiOS_3.0.2/os/ext/CMSIS/ST/stm32f407xx.h"
 646              		.file 9 "ChibiOS_3.0.2/os/ext/CMSIS/ST/stm32f4xx.h"
 647              		.file 10 "ChibiOS_3.0.2/os/rt/ports/ARMCMx/chcore.h"
 648              		.file 11 "ChibiOS_3.0.2/os/rt/ports/ARMCMx/chcore_v7m.h"
 649              		.file 12 "ChibiOS_3.0.2/os/rt/include/chtm.h"
 650              		.file 13 "ChibiOS_3.0.2/os/rt/include/chsem.h"
 651              		.file 14 "ChibiOS_3.0.2/os/rt/include/chmtx.h"
 652              		.file 15 "ChibiOS_3.0.2/ext/stdperiph_stm32f4/inc/stm32f4xx_dma.h"
 653              		.file 16 "ChibiOS_3.0.2/ext/stdperiph_stm32f4/inc/stm32f4xx_tim.h"
 654              		.file 17 "ChibiOS_3.0.2/os/hal/ports/STM32/LLD/GPIOv2/pal_lld.h"
 655              		.file 18 "/usr/arm-none-eabi/include/math.h"
 656              		.file 19 "ChibiOS_3.0.2/ext/stdperiph_stm32f4/inc/stm32f4xx_rcc.h"
 657              		.file 20 "ChibiOS_3.0.2/os/ext/CMSIS/include/core_cm4.h"